///////////////////////////////////////////////////////////////////////////////
//
// IAR C/C++ Compiler V10.20.1.5333 for 8051              28/Sep/2021  21:26:35
// Copyright 2004-2018 IAR Systems AB.
// PC-locked license - IAR Embedded Workbench for 8051
//
//    Core               =  plain
//    Code model         =  banked
//    Data model         =  large
//    Calling convention =  xdata reentrant
//    Constant location  =  data_rom
//    Dptr setup         =  1,16
//                          
//    Source file        =  
//        I:\ZigBee3.0\7. ª˘”⁄ZCL Ù–‘…œ±®≤‚ ‘∑«≥£≥…π¶\7.
//        ª˘”⁄ZCL Ù–‘…œ±®\Z-Stack
//        3.0.1\Projects\zstack\HomeAutomation\SampleSwitch\Source\zcl_samplesw.c
//    Command line       =  
//        -f C:\usertemp\AppData\Local\Temp\EW8740.tmp ("I:\ZigBee3.0\7.
//        ª˘”⁄ZCL Ù–‘…œ±®≤‚ ‘∑«≥£≥…π¶\7. ª˘”⁄ZCL Ù–‘…œ±®\Z-Stack
//        3.0.1\Projects\zstack\HomeAutomation\SampleSwitch\Source\zcl_samplesw.c"
//        -D SECURE=1 -D TC_LINKKEY_JOIN -D NV_INIT -D NV_RESTORE -D xZTOOL_P1
//        -D xMT_TASK -D xMT_APP_FUNC -D xMT_SYS_FUNC -D xMT_ZDO_FUNC -D
//        xMT_ZDO_MGMT -D xMT_APP_CNF_FUNC -D LCD_SUPPORTED=DEBUG -D
//        MULTICAST_ENABLED=FALSE -D ZCL_READ -D ZCL_DISCOVER -D ZCL_WRITE -D
//        ZCL_BASIC -D ZCL_IDENTIFY -D ZCL_ON_OFF -D ZCL_GROUPS -D
//        ZCL_REPORTING_DEVICE -D HAL_LED=TRUE -D HAL_KEY=TRUE -D
//        ISR_KEYINTERRUPT -D HAL_UART=TRUE -D INT_HEAP_LEN=2300 -D
//        HAL_LCD=TRUE -D xHAL_LCD_OLED12864 -D HAL_ADC=TRUE -lC
//        "I:\ZigBee3.0\7. ª˘”⁄ZCL Ù–‘…œ±®≤‚ ‘∑«≥£≥…π¶\7.
//        ª˘”⁄ZCL Ù–‘…œ±®\Z-Stack
//        3.0.1\Projects\zstack\HomeAutomation\SampleSwitch\CC2530DB\RouterEB\List"
//        -lA "I:\ZigBee3.0\7. ª˘”⁄ZCL Ù–‘…œ±®≤‚ ‘∑«≥£≥…π¶\7.
//        ª˘”⁄ZCL Ù–‘…œ±®\Z-Stack
//        3.0.1\Projects\zstack\HomeAutomation\SampleSwitch\CC2530DB\RouterEB\List"
//        --diag_suppress Pe001,Pa010 -o "I:\ZigBee3.0\7.
//        ª˘”⁄ZCL Ù–‘…œ±®≤‚ ‘∑«≥£≥…π¶\7. ª˘”⁄ZCL Ù–‘…œ±®\Z-Stack
//        3.0.1\Projects\zstack\HomeAutomation\SampleSwitch\CC2530DB\RouterEB\Obj"
//        -e --debug --core=plain --dptr=16,1 --data_model=large
//        --code_model=banked --calling_convention=xdata_reentrant
//        --place_constants=data_rom --nr_virtual_regs 16 -f "I:\ZigBee3.0\7.
//        ª˘”⁄ZCL Ù–‘…œ±®≤‚ ‘∑«≥£≥…π¶\7. ª˘”⁄ZCL Ù–‘…œ±®\Z-Stack
//        3.0.1\Projects\zstack\HomeAutomation\SampleSwitch\CC2530DB\..\..\..\Tools\CC2530DB\f8wRouter.cfg"
//        (-DCPU32MHZ -DROOT=__near_func -DMAC_CFG_APP_PENDING_QUEUE=TRUE
//        -DMAC_CFG_TX_DATA_MAX=5 -DMAC_CFG_TX_MAX=8 -DMAC_CFG_RX_MAX=5
//        -DRTR_NWK) -f "I:\ZigBee3.0\7. ª˘”⁄ZCL Ù–‘…œ±®≤‚ ‘∑«≥£≥…π¶\7.
//        ª˘”⁄ZCL Ù–‘…œ±®\Z-Stack
//        3.0.1\Projects\zstack\HomeAutomation\SampleSwitch\CC2530DB\..\..\..\Tools\CC2530DB\f8wConfig.cfg"
//        (-DZIGBEEPRO -DSECURE=1 -DZG_SECURE_DYNAMIC=0 -DREFLECTOR
//        -DDEFAULT_CHANLIST=0x00000800 -DZDAPP_CONFIG_PAN_ID=0xFFFF
//        -DNWK_START_DELAY=100 -DEXTENDED_JOINING_RANDOM_MASK=0x007F
//        -DBEACON_REQUEST_DELAY=100 -DBEACON_REQ_DELAY_MASK=0x00FF
//        -DLINK_STATUS_JITTER_MASK=0x007F -DROUTE_EXPIRY_TIME=30
//        -DAPSC_ACK_WAIT_DURATION_POLLED=3000 -DNWK_INDIRECT_MSG_TIMEOUT=7
//        -DMAX_RREQ_ENTRIES=8 -DAPSC_MAX_FRAME_RETRIES=3
//        -DNWK_MAX_DATA_RETRIES=2 -DMAX_POLL_FAILURE_RETRIES=2 -DMAX_BCAST=9
//        -DAPS_MAX_GROUPS=16 -DMAX_RTG_ENTRIES=40 -DNWK_MAX_BINDING_ENTRIES=4
//        -DMAX_BINDING_CLUSTER_IDS=4 -DDEFAULT_KEY={0}
//        -DMAC_MAX_FRAME_SIZE=116 -DZDNWKMGR_MIN_TRANSMISSIONS=20
//        "-DCONST=const __code" -DGENERIC=__generic -DRFD_RCVC_ALWAYS_ON=FALSE
//        -DPOLL_RATE=1000 -DQUEUED_POLL_RATE=100 -DRESPONSE_POLL_RATE=100
//        -DREJOIN_POLL_RATE=440 -DREJOIN_BACKOFF=900000 -DREJOIN_SCAN=900000
//        -DENABLE_LED4_DISABLE_S1) -f "I:\ZigBee3.0\7.
//        ª˘”⁄ZCL Ù–‘…œ±®≤‚ ‘∑«≥£≥…π¶\7. ª˘”⁄ZCL Ù–‘…œ±®\Z-Stack
//        3.0.1\Projects\zstack\HomeAutomation\SampleSwitch\CC2530DB\..\..\..\Tools\CC2530DB\f8wZCL.cfg"
//        -I "I:\ZigBee3.0\7. ª˘”⁄ZCL Ù–‘…œ±®≤‚ ‘∑«≥£≥…π¶\7.
//        ª˘”⁄ZCL Ù–‘…œ±®\Z-Stack
//        3.0.1\Projects\zstack\HomeAutomation\SampleSwitch\CC2530DB\" -I
//        "I:\ZigBee3.0\7. ª˘”⁄ZCL Ù–‘…œ±®≤‚ ‘∑«≥£≥…π¶\7.
//        ª˘”⁄ZCL Ù–‘…œ±®\Z-Stack
//        3.0.1\Projects\zstack\HomeAutomation\SampleSwitch\CC2530DB\..\Source\"
//        -I "I:\ZigBee3.0\7. ª˘”⁄ZCL Ù–‘…œ±®≤‚ ‘∑«≥£≥…π¶\7.
//        ª˘”⁄ZCL Ù–‘…œ±®\Z-Stack
//        3.0.1\Projects\zstack\HomeAutomation\SampleSwitch\CC2530DB\..\..\Source\"
//        -I "I:\ZigBee3.0\7. ª˘”⁄ZCL Ù–‘…œ±®≤‚ ‘∑«≥£≥…π¶\7.
//        ª˘”⁄ZCL Ù–‘…œ±®\Z-Stack
//        3.0.1\Projects\zstack\HomeAutomation\SampleSwitch\CC2530DB\..\..\..\ZMain\TI2530DB\"
//        -I "I:\ZigBee3.0\7. ª˘”⁄ZCL Ù–‘…œ±®≤‚ ‘∑«≥£≥…π¶\7.
//        ª˘”⁄ZCL Ù–‘…œ±®\Z-Stack
//        3.0.1\Projects\zstack\HomeAutomation\SampleSwitch\CC2530DB\..\..\..\..\..\Components\hal\include\"
//        -I "I:\ZigBee3.0\7. ª˘”⁄ZCL Ù–‘…œ±®≤‚ ‘∑«≥£≥…π¶\7.
//        ª˘”⁄ZCL Ù–‘…œ±®\Z-Stack
//        3.0.1\Projects\zstack\HomeAutomation\SampleSwitch\CC2530DB\..\..\..\..\..\Components\hal\target\CC2530EB\"
//        -I "I:\ZigBee3.0\7. ª˘”⁄ZCL Ù–‘…œ±®≤‚ ‘∑«≥£≥…π¶\7.
//        ª˘”⁄ZCL Ù–‘…œ±®\Z-Stack
//        3.0.1\Projects\zstack\HomeAutomation\SampleSwitch\CC2530DB\..\..\..\..\..\Components\mac\include\"
//        -I "I:\ZigBee3.0\7. ª˘”⁄ZCL Ù–‘…œ±®≤‚ ‘∑«≥£≥…π¶\7.
//        ª˘”⁄ZCL Ù–‘…œ±®\Z-Stack
//        3.0.1\Projects\zstack\HomeAutomation\SampleSwitch\CC2530DB\..\..\..\..\..\Components\mac\high_level\"
//        -I "I:\ZigBee3.0\7. ª˘”⁄ZCL Ù–‘…œ±®≤‚ ‘∑«≥£≥…π¶\7.
//        ª˘”⁄ZCL Ù–‘…œ±®\Z-Stack
//        3.0.1\Projects\zstack\HomeAutomation\SampleSwitch\CC2530DB\..\..\..\..\..\Components\mac\low_level\srf04\"
//        -I "I:\ZigBee3.0\7. ª˘”⁄ZCL Ù–‘…œ±®≤‚ ‘∑«≥£≥…π¶\7.
//        ª˘”⁄ZCL Ù–‘…œ±®\Z-Stack
//        3.0.1\Projects\zstack\HomeAutomation\SampleSwitch\CC2530DB\..\..\..\..\..\Components\mac\low_level\srf04\single_chip\"
//        -I "I:\ZigBee3.0\7. ª˘”⁄ZCL Ù–‘…œ±®≤‚ ‘∑«≥£≥…π¶\7.
//        ª˘”⁄ZCL Ù–‘…œ±®\Z-Stack
//        3.0.1\Projects\zstack\HomeAutomation\SampleSwitch\CC2530DB\..\..\..\..\..\Components\mt\"
//        -I "I:\ZigBee3.0\7. ª˘”⁄ZCL Ù–‘…œ±®≤‚ ‘∑«≥£≥…π¶\7.
//        ª˘”⁄ZCL Ù–‘…œ±®\Z-Stack
//        3.0.1\Projects\zstack\HomeAutomation\SampleSwitch\CC2530DB\..\..\..\..\..\Components\osal\include\"
//        -I "I:\ZigBee3.0\7. ª˘”⁄ZCL Ù–‘…œ±®≤‚ ‘∑«≥£≥…π¶\7.
//        ª˘”⁄ZCL Ù–‘…œ±®\Z-Stack
//        3.0.1\Projects\zstack\HomeAutomation\SampleSwitch\CC2530DB\..\..\..\..\..\Components\services\saddr\"
//        -I "I:\ZigBee3.0\7. ª˘”⁄ZCL Ù–‘…œ±®≤‚ ‘∑«≥£≥…π¶\7.
//        ª˘”⁄ZCL Ù–‘…œ±®\Z-Stack
//        3.0.1\Projects\zstack\HomeAutomation\SampleSwitch\CC2530DB\..\..\..\..\..\Components\services\sdata\"
//        -I "I:\ZigBee3.0\7. ª˘”⁄ZCL Ù–‘…œ±®≤‚ ‘∑«≥£≥…π¶\7.
//        ª˘”⁄ZCL Ù–‘…œ±®\Z-Stack
//        3.0.1\Projects\zstack\HomeAutomation\SampleSwitch\CC2530DB\..\..\..\..\..\Components\stack\af\"
//        -I "I:\ZigBee3.0\7. ª˘”⁄ZCL Ù–‘…œ±®≤‚ ‘∑«≥£≥…π¶\7.
//        ª˘”⁄ZCL Ù–‘…œ±®\Z-Stack
//        3.0.1\Projects\zstack\HomeAutomation\SampleSwitch\CC2530DB\..\..\..\..\..\Components\stack\bdb\"
//        -I "I:\ZigBee3.0\7. ª˘”⁄ZCL Ù–‘…œ±®≤‚ ‘∑«≥£≥…π¶\7.
//        ª˘”⁄ZCL Ù–‘…œ±®\Z-Stack
//        3.0.1\Projects\zstack\HomeAutomation\SampleSwitch\CC2530DB\..\..\..\..\..\Components\stack\gp\"
//        -I "I:\ZigBee3.0\7. ª˘”⁄ZCL Ù–‘…œ±®≤‚ ‘∑«≥£≥…π¶\7.
//        ª˘”⁄ZCL Ù–‘…œ±®\Z-Stack
//        3.0.1\Projects\zstack\HomeAutomation\SampleSwitch\CC2530DB\..\..\..\..\..\Components\stack\nwk\"
//        -I "I:\ZigBee3.0\7. ª˘”⁄ZCL Ù–‘…œ±®≤‚ ‘∑«≥£≥…π¶\7.
//        ª˘”⁄ZCL Ù–‘…œ±®\Z-Stack
//        3.0.1\Projects\zstack\HomeAutomation\SampleSwitch\CC2530DB\..\..\..\..\..\Components\stack\sapi\"
//        -I "I:\ZigBee3.0\7. ª˘”⁄ZCL Ù–‘…œ±®≤‚ ‘∑«≥£≥…π¶\7.
//        ª˘”⁄ZCL Ù–‘…œ±®\Z-Stack
//        3.0.1\Projects\zstack\HomeAutomation\SampleSwitch\CC2530DB\..\..\..\..\..\Components\stack\sec\"
//        -I "I:\ZigBee3.0\7. ª˘”⁄ZCL Ù–‘…œ±®≤‚ ‘∑«≥£≥…π¶\7.
//        ª˘”⁄ZCL Ù–‘…œ±®\Z-Stack
//        3.0.1\Projects\zstack\HomeAutomation\SampleSwitch\CC2530DB\..\..\..\..\..\Components\stack\sys\"
//        -I "I:\ZigBee3.0\7. ª˘”⁄ZCL Ù–‘…œ±®≤‚ ‘∑«≥£≥…π¶\7.
//        ª˘”⁄ZCL Ù–‘…œ±®\Z-Stack
//        3.0.1\Projects\zstack\HomeAutomation\SampleSwitch\CC2530DB\..\..\..\..\..\Components\stack\zcl\"
//        -I "I:\ZigBee3.0\7. ª˘”⁄ZCL Ù–‘…œ±®≤‚ ‘∑«≥£≥…π¶\7.
//        ª˘”⁄ZCL Ù–‘…œ±®\Z-Stack
//        3.0.1\Projects\zstack\HomeAutomation\SampleSwitch\CC2530DB\..\..\..\..\..\Components\stack\zdo\"
//        -I "I:\ZigBee3.0\7. ª˘”⁄ZCL Ù–‘…œ±®≤‚ ‘∑«≥£≥…π¶\7.
//        ª˘”⁄ZCL Ù–‘…œ±®\Z-Stack
//        3.0.1\Projects\zstack\HomeAutomation\SampleSwitch\CC2530DB\..\..\..\..\..\Components\zmac\"
//        -I "I:\ZigBee3.0\7. ª˘”⁄ZCL Ù–‘…œ±®≤‚ ‘∑«≥£≥…π¶\7.
//        ª˘”⁄ZCL Ù–‘…œ±®\Z-Stack
//        3.0.1\Projects\zstack\HomeAutomation\SampleSwitch\CC2530DB\..\..\..\..\..\Components\zmac\f8w\"
//        -I "I:\ZigBee3.0\7. ª˘”⁄ZCL Ù–‘…œ±®≤‚ ‘∑«≥£≥…π¶\7.
//        ª˘”⁄ZCL Ù–‘…œ±®\Z-Stack
//        3.0.1\Projects\zstack\HomeAutomation\SampleSwitch\CC2530DB\..\..\..\..\..\Components\hal\target\CC2530EB\Common\"
//        -I "I:\ZigBee3.0\7. ª˘”⁄ZCL Ù–‘…œ±®≤‚ ‘∑«≥£≥…π¶\7.
//        ª˘”⁄ZCL Ù–‘…œ±®\Z-Stack
//        3.0.1\Projects\zstack\HomeAutomation\SampleSwitch\CC2530DB\..\..\..\..\..\Components\hal\target\CC2530EB\SPI\"
//        -I "I:\ZigBee3.0\7. ª˘”⁄ZCL Ù–‘…œ±®≤‚ ‘∑«≥£≥…π¶\7.
//        ª˘”⁄ZCL Ù–‘…œ±®\Z-Stack
//        3.0.1\Projects\zstack\HomeAutomation\SampleSwitch\CC2530DB\..\..\..\..\..\Components\hal\target\CC2530EB\HW_LCD\Font\"
//        -I "I:\ZigBee3.0\7. ª˘”⁄ZCL Ù–‘…œ±®≤‚ ‘∑«≥£≥…π¶\7.
//        ª˘”⁄ZCL Ù–‘…œ±®\Z-Stack
//        3.0.1\Projects\zstack\HomeAutomation\SampleSwitch\CC2530DB\..\..\..\..\..\Components\hal\target\CC2530EB\HW_LCD\HAL_LCD_SPI\"
//        -I "I:\ZigBee3.0\7. ª˘”⁄ZCL Ù–‘…œ±®≤‚ ‘∑«≥£≥…π¶\7.
//        ª˘”⁄ZCL Ù–‘…œ±®\Z-Stack
//        3.0.1\Projects\zstack\HomeAutomation\SampleSwitch\CC2530DB\..\..\..\..\..\Components\hal\target\CC2530EB\HW_LCD\HAL_OLED\"
//        -I "I:\ZigBee3.0\7. ª˘”⁄ZCL Ù–‘…œ±®≤‚ ‘∑«≥£≥…π¶\7.
//        ª˘”⁄ZCL Ù–‘…œ±®\Z-Stack
//        3.0.1\Projects\zstack\HomeAutomation\SampleSwitch\CC2530DB\..\..\..\..\..\Components\hal\target\CC2530EB\HW_LCD\HAL_TFT\"
//        -Ohz --require_prototypes)
//    Locale             =  Chinese (Simplified)_CHN.936
//    List file          =  
//        I:\ZigBee3.0\7. ª˘”⁄ZCL Ù–‘…œ±®≤‚ ‘∑«≥£≥…π¶\7.
//        ª˘”⁄ZCL Ù–‘…œ±®\Z-Stack
//        3.0.1\Projects\zstack\HomeAutomation\SampleSwitch\CC2530DB\RouterEB\List\zcl_samplesw.s51
//
///////////////////////////////////////////////////////////////////////////////

        NAME zcl_samplesw

        RTMODEL "__SystemLibrary", "CLib"
        RTMODEL "__calling_convention", "xdata_reentrant"
        RTMODEL "__code_model", "banked"
        RTMODEL "__core", "plain"
        RTMODEL "__data_model", "large"
        RTMODEL "__dptr_size", "16"
        RTMODEL "__extended_stack", "disabled"
        RTMODEL "__iar_require _formatted_write", ""
        RTMODEL "__location_for_constants", "data"
        RTMODEL "__number_of_dptrs", "1"
        RTMODEL "__register_banks", "*"
        RTMODEL "__rt_version", "1"

        RSEG DOVERLAY:DATA:NOROOT(0)
        RSEG IOVERLAY:IDATA:NOROOT(0)
        RSEG ISTACK:IDATA:NOROOT(0)
        RSEG PSTACK:XDATA:NOROOT(0)
        RSEG XSTACK:XDATA:NOROOT(0)

        EXTERN ?V0
        EXTERN ?V1
        EXTERN ?V2
        EXTERN ?V3
        EXTERN ?V4
        EXTERN ?V5
        EXTERN ?ALLOC_XSTACK8
        EXTERN ?BANKED_ENTER_XDATA
        EXTERN ?BANKED_LEAVE_XDATA
        EXTERN ?BDISPATCH
        EXTERN ?BRET
        EXTERN ?DEALLOC_XSTACK8
        EXTERN ?PUSH_XSTACK8_X_FOUR
        EXTERN ?PUSH_XSTACK_I_ONE
        EXTERN ?PUSH_XSTACK_I_TWO
        EXTERN ?XSP
        EXTERN ?XSTACK_DISP0_8
        EXTERN ?XSTACK_DISP101_8
        EXTERN __INIT_XDATA_I
        EXTERN __INIT_XDATA_Z

        FUNCTION `??zclSampleSw_BasicResetCB::?relay`,0203H
        PUBLIC `??zclSampleSw_Init::?relay`
        FUNCTION `??zclSampleSw_Init::?relay`,0203H
        FUNCTION `??zclSampleSw_ProcessCommissioningStatus::?rela`,0203H
        FUNCTION `??zclSampleSw_ProcessInDiscCmdsRspCmd::?relay`,0203H
        FUNCTION `??zclSampleSw_ProcessIncomingMsg::?relay`,0203H
        FUNCTION `??zclSampleSw_ReportTest::?relay`,0203H
        FUNCTION `??zclSampleSw_UartCB::?relay`,0203H
        PUBLIC `??zclSampleSw_event_loop::?relay`
        FUNCTION `??zclSampleSw_event_loop::?relay`,0203H
        PUBWEAK __Constant_1f4
        PUBWEAK __Constant_3e8
        PUBWEAK __Constant_bb8
        PUBLIC zclSampleSwSeqNum
        FUNCTION zclSampleSw_BasicResetCB,021603H
        ARGFRAME XSTACK, 0, STACK
        LOCFRAME ISTACK, 2, STACK
        PUBLIC zclSampleSw_DstAddr
        PUBLIC zclSampleSw_Init
        FUNCTION zclSampleSw_Init,021203H
        ARGFRAME XSTACK, 0, STACK
        LOCFRAME XSTACK, 42, STACK
        PUBLIC zclSampleSw_NwkState
        PUBLIC zclSampleSw_OnOffSwitchActions
        PUBLIC zclSampleSw_OnOffSwitchType
        FUNCTION zclSampleSw_ProcessCommissioningStatus,021603H
        ARGFRAME XSTACK, 0, STACK
        LOCFRAME ISTACK, 2, STACK
        LOCFRAME XSTACK, 4, STACK
        FUNCTION zclSampleSw_ProcessInDiscCmdsRspCmd,0203H
        ARGFRAME XSTACK, 14, STACK
        ARGFRAME IOVERLAY, 0, STATIC
        ARGFRAME DOVERLAY, 0, STATIC
        LOCFRAME ISTACK, 2, STACK
        FUNCTION zclSampleSw_ProcessIncomingMsg,0a1203H
        ARGFRAME XSTACK, 12, STACK
        ARGFRAME IOVERLAY, 0, STATIC
        ARGFRAME DOVERLAY, 0, STATIC
        LOCFRAME XSTACK, 15, STACK
        FUNCTION zclSampleSw_ReportTest,0a1203H
        ARGFRAME XSTACK, 12, STACK
        ARGFRAME IOVERLAY, 0, STATIC
        ARGFRAME DOVERLAY, 0, STATIC
        LOCFRAME ISTACK, 1, STACK
        LOCFRAME XSTACK, 39, STACK
        PUBLIC zclSampleSw_TaskID
        FUNCTION zclSampleSw_UartCB,021603H
        ARGFRAME XSTACK, 0, STACK
        LOCFRAME XSTACK, 9, STACK
        PUBLIC zclSampleSw_event_loop
        FUNCTION zclSampleSw_event_loop,0a1203H
        ARGFRAME XSTACK, 0, STACK
        LOCFRAME XSTACK, 23, STACK
        
          CFI Names cfiNames0
          CFI StackFrame CFA_SP SP IDATA
          CFI StackFrame CFA_PSP16 PSP16 XDATA
          CFI StackFrame CFA_XSP16 XSP16 XDATA
          CFI StaticOverlayFrame CFA_IOVERLAY IOVERLAY
          CFI StaticOverlayFrame CFA_DOVERLAY DOVERLAY
          CFI Resource `PSW.CY`:1, `B.BR0`:1, `B.BR1`:1, `B.BR2`:1, `B.BR3`:1
          CFI Resource `B.BR4`:1, `B.BR5`:1, `B.BR6`:1, `B.BR7`:1, `VB.BR8`:1
          CFI Resource `VB.BR9`:1, `VB.BR10`:1, `VB.BR11`:1, `VB.BR12`:1
          CFI Resource `VB.BR13`:1, `VB.BR14`:1, `VB.BR15`:1, VB:8, B:8, A:8
          CFI Resource PSW:8, DPL0:8, DPH0:8, R0:8, R1:8, R2:8, R3:8, R4:8, R5:8
          CFI Resource R6:8, R7:8, V0:8, V1:8, V2:8, V3:8, V4:8, V5:8, V6:8, V7:8
          CFI Resource V8:8, V9:8, V10:8, V11:8, V12:8, V13:8, V14:8, V15:8, SP:8
          CFI Resource PSPH:8, PSPL:8, PSP16:16, XSPH:8, XSPL:8, XSP16:16
          CFI VirtualResource ?RET:24
          CFI Resource ?BRET_EXT:8
          CFI VirtualResource ?RET_HIGH:8, ?RET_LOW:8
          CFI ResourceParts PSP16 PSPH, PSPL
          CFI ResourceParts XSP16 XSPH, XSPL
          CFI ResourceParts ?RET ?BRET_EXT, ?RET_HIGH, ?RET_LOW
          CFI EndNames cfiNames0
        
          CFI Common cfiCommon0 Using cfiNames0
          CFI CodeAlign 1
          CFI DataAlign -1
          CFI ReturnAddress ?RET CODE
          CFI CFA_DOVERLAY Used
          CFI CFA_IOVERLAY Used
          CFI CFA_SP SP+-3
          CFI CFA_PSP16 PSP16+0
          CFI CFA_XSP16 XSP16+0
          CFI `PSW.CY` SameValue
          CFI `B.BR0` SameValue
          CFI `B.BR1` SameValue
          CFI `B.BR2` SameValue
          CFI `B.BR3` SameValue
          CFI `B.BR4` SameValue
          CFI `B.BR5` SameValue
          CFI `B.BR6` SameValue
          CFI `B.BR7` SameValue
          CFI `VB.BR8` SameValue
          CFI `VB.BR9` SameValue
          CFI `VB.BR10` SameValue
          CFI `VB.BR11` SameValue
          CFI `VB.BR12` SameValue
          CFI `VB.BR13` SameValue
          CFI `VB.BR14` SameValue
          CFI `VB.BR15` SameValue
          CFI VB SameValue
          CFI B Undefined
          CFI A Undefined
          CFI PSW SameValue
          CFI DPL0 SameValue
          CFI DPH0 SameValue
          CFI R0 Undefined
          CFI R1 Undefined
          CFI R2 Undefined
          CFI R3 Undefined
          CFI R4 Undefined
          CFI R5 Undefined
          CFI R6 SameValue
          CFI R7 SameValue
          CFI V0 SameValue
          CFI V1 SameValue
          CFI V2 SameValue
          CFI V3 SameValue
          CFI V4 SameValue
          CFI V5 SameValue
          CFI V6 SameValue
          CFI V7 SameValue
          CFI V8 SameValue
          CFI V9 SameValue
          CFI V10 SameValue
          CFI V11 SameValue
          CFI V12 SameValue
          CFI V13 SameValue
          CFI V14 SameValue
          CFI V15 SameValue
          CFI PSPH Undefined
          CFI PSPL Undefined
          CFI XSPH Undefined
          CFI XSPL Undefined
          CFI ?RET Concat
          CFI ?BRET_EXT Frame(CFA_SP, 3)
          CFI ?RET_HIGH Frame(CFA_SP, 2)
          CFI ?RET_LOW Frame(CFA_SP, 1)
          CFI EndCommon cfiCommon0
        
        
          CFI Common cfiCommon1 Using cfiNames0
          CFI CodeAlign 1
          CFI DataAlign -1
          CFI ReturnAddress ?RET CODE
          CFI CFA_DOVERLAY Used
          CFI CFA_IOVERLAY Used
          CFI CFA_SP SP+-2
          CFI CFA_PSP16 PSP16+0
          CFI CFA_XSP16 XSP16+0
          CFI `PSW.CY` SameValue
          CFI `B.BR0` SameValue
          CFI `B.BR1` SameValue
          CFI `B.BR2` SameValue
          CFI `B.BR3` SameValue
          CFI `B.BR4` SameValue
          CFI `B.BR5` SameValue
          CFI `B.BR6` SameValue
          CFI `B.BR7` SameValue
          CFI `VB.BR8` SameValue
          CFI `VB.BR9` SameValue
          CFI `VB.BR10` SameValue
          CFI `VB.BR11` SameValue
          CFI `VB.BR12` SameValue
          CFI `VB.BR13` SameValue
          CFI `VB.BR14` SameValue
          CFI `VB.BR15` SameValue
          CFI VB SameValue
          CFI B SameValue
          CFI A SameValue
          CFI PSW SameValue
          CFI DPL0 SameValue
          CFI DPH0 SameValue
          CFI R0 SameValue
          CFI R1 SameValue
          CFI R2 SameValue
          CFI R3 SameValue
          CFI R4 SameValue
          CFI R5 SameValue
          CFI R6 SameValue
          CFI R7 SameValue
          CFI V0 SameValue
          CFI V1 SameValue
          CFI V2 SameValue
          CFI V3 SameValue
          CFI V4 SameValue
          CFI V5 SameValue
          CFI V6 SameValue
          CFI V7 SameValue
          CFI V8 SameValue
          CFI V9 SameValue
          CFI V10 SameValue
          CFI V11 SameValue
          CFI V12 SameValue
          CFI V13 SameValue
          CFI V14 SameValue
          CFI V15 SameValue
          CFI PSPH Undefined
          CFI PSPL Undefined
          CFI XSPH Undefined
          CFI XSPL Undefined
          CFI ?RET Concat
          CFI ?BRET_EXT SameValue
          CFI ?RET_HIGH Frame(CFA_SP, 2)
          CFI ?RET_LOW Frame(CFA_SP, 1)
          CFI EndCommon cfiCommon1
        
HalLcdWriteStringValue SYMBOL "HalLcdWriteStringValue"
`??HalLcdWriteStringValue::?relay` SYMBOL "?relay", HalLcdWriteStringValue
HalLedSet           SYMBOL "HalLedSet"
`??HalLedSet::?relay` SYMBOL "?relay", HalLedSet
HalUARTOpen         SYMBOL "HalUARTOpen"
`??HalUARTOpen::?relay` SYMBOL "?relay", HalUARTOpen
HalUARTRead         SYMBOL "HalUARTRead"
`??HalUARTRead::?relay` SYMBOL "?relay", HalUARTRead
HalUARTWrite        SYMBOL "HalUARTWrite"
`??HalUARTWrite::?relay` SYMBOL "?relay", HalUARTWrite
Hal_UART_RxBufLen   SYMBOL "Hal_UART_RxBufLen"
`??Hal_UART_RxBufLen::?relay` SYMBOL "?relay", Hal_UART_RxBufLen
RegisterForKeys     SYMBOL "RegisterForKeys"
`??RegisterForKeys::?relay` SYMBOL "?relay", RegisterForKeys
afRegister          SYMBOL "afRegister"
`??afRegister::?relay` SYMBOL "?relay", afRegister
bdb_RegisterCommissioningStatusCB SYMBOL "bdb_RegisterCommissioningStatusCB"
`??bdb_RegisterCommissioningStatusCB::?relay` SYMBOL "?relay", bdb_RegisterCommissioningStatusCB
bdb_RegisterSimpleDescriptor SYMBOL "bdb_RegisterSimpleDescriptor"
`??bdb_RegisterSimpleDescriptor::?relay` SYMBOL "?relay", bdb_RegisterSimpleDescriptor
bdb_StartCommissioning SYMBOL "bdb_StartCommissioning"
`??bdb_StartCommissioning::?relay` SYMBOL "?relay", bdb_StartCommissioning
osal_mem_alloc      SYMBOL "osal_mem_alloc"
`??osal_mem_alloc::?relay` SYMBOL "?relay", osal_mem_alloc
osal_mem_free       SYMBOL "osal_mem_free"
`??osal_mem_free::?relay` SYMBOL "?relay", osal_mem_free
osal_msg_deallocate SYMBOL "osal_msg_deallocate"
`??osal_msg_deallocate::?relay` SYMBOL "?relay", osal_msg_deallocate
osal_msg_receive    SYMBOL "osal_msg_receive"
`??osal_msg_receive::?relay` SYMBOL "?relay", osal_msg_receive
osal_start_timerEx  SYMBOL "osal_start_timerEx"
`??osal_start_timerEx::?relay` SYMBOL "?relay", osal_start_timerEx
osal_strlen         SYMBOL "osal_strlen"
`??osal_strlen::?relay` SYMBOL "?relay", osal_strlen
sprintf             SYMBOL "sprintf"
`??sprintf::?relay` SYMBOL "?relay", sprintf
zclGeneral_RegisterCmdCallbacks SYMBOL "zclGeneral_RegisterCmdCallbacks"
`??zclGeneral_RegisterCmdCallbacks::?relay` SYMBOL "?relay", zclGeneral_RegisterCmdCallbacks
zclSampleSw_ResetAttributesToDefaultValues SYMBOL "zclSampleSw_ResetAttributesToDefaultValues"
`??zclSampleSw_ResetAttributesToDefaultValues::?` SYMBOL "?relay", zclSampleSw_ResetAttributesToDefaultValues
zcl_SendCommand     SYMBOL "zcl_SendCommand"
`??zcl_SendCommand::?relay` SYMBOL "?relay", zcl_SendCommand
zcl_SendReportCmd   SYMBOL "zcl_SendReportCmd"
`??zcl_SendReportCmd::?relay` SYMBOL "?relay", zcl_SendReportCmd
zcl_registerAttrList SYMBOL "zcl_registerAttrList"
`??zcl_registerAttrList::?relay` SYMBOL "?relay", zcl_registerAttrList
zcl_registerForMsg  SYMBOL "zcl_registerForMsg"
`??zcl_registerForMsg::?relay` SYMBOL "?relay", zcl_registerForMsg
zclSampleSw_Init    SYMBOL "zclSampleSw_Init"
`??zclSampleSw_Init::?relay` SYMBOL "?relay", zclSampleSw_Init
zclSampleSw_event_loop SYMBOL "zclSampleSw_event_loop"
`??zclSampleSw_event_loop::?relay` SYMBOL "?relay", zclSampleSw_event_loop

        EXTERN `??HalLcdWriteStringValue::?relay`
        FUNCTION `??HalLcdWriteStringValue::?relay`,00H
        EXTERN `??HalLedSet::?relay`
        FUNCTION `??HalLedSet::?relay`,00H
        EXTERN `??HalUARTOpen::?relay`
        FUNCTION `??HalUARTOpen::?relay`,00H
        EXTERN `??HalUARTRead::?relay`
        FUNCTION `??HalUARTRead::?relay`,00H
        EXTERN `??HalUARTWrite::?relay`
        FUNCTION `??HalUARTWrite::?relay`,00H
        EXTERN `??Hal_UART_RxBufLen::?relay`
        FUNCTION `??Hal_UART_RxBufLen::?relay`,00H
        EXTERN `??RegisterForKeys::?relay`
        FUNCTION `??RegisterForKeys::?relay`,00H
        EXTERN `??afRegister::?relay`
        FUNCTION `??afRegister::?relay`,00H
        EXTERN `??bdb_RegisterCommissioningStatusCB::?relay`
        FUNCTION `??bdb_RegisterCommissioningStatusCB::?relay`,00H
        EXTERN `??bdb_RegisterSimpleDescriptor::?relay`
        FUNCTION `??bdb_RegisterSimpleDescriptor::?relay`,00H
        EXTERN `??bdb_StartCommissioning::?relay`
        FUNCTION `??bdb_StartCommissioning::?relay`,00H
        EXTERN `??osal_mem_alloc::?relay`
        FUNCTION `??osal_mem_alloc::?relay`,00H
        EXTERN `??osal_mem_free::?relay`
        FUNCTION `??osal_mem_free::?relay`,00H
        EXTERN `??osal_msg_deallocate::?relay`
        FUNCTION `??osal_msg_deallocate::?relay`,00H
        EXTERN `??osal_msg_receive::?relay`
        FUNCTION `??osal_msg_receive::?relay`,00H
        EXTERN `??osal_start_timerEx::?relay`
        FUNCTION `??osal_start_timerEx::?relay`,00H
        EXTERN `??osal_strlen::?relay`
        FUNCTION `??osal_strlen::?relay`,00H
        EXTERN `??sprintf::?relay`
        FUNCTION `??sprintf::?relay`,00H
        EXTERN `??zclGeneral_RegisterCmdCallbacks::?relay`
        FUNCTION `??zclGeneral_RegisterCmdCallbacks::?relay`,00H
        EXTERN `??zclSampleSw_ResetAttributesToDefaultValues::?`
        FUNCTION `??zclSampleSw_ResetAttributesToDefaultValues::?`,00H
        EXTERN `??zcl_SendCommand::?relay`
        FUNCTION `??zcl_SendCommand::?relay`,00H
        EXTERN `??zcl_SendReportCmd::?relay`
        FUNCTION `??zcl_SendReportCmd::?relay`,00H
        EXTERN `??zcl_registerAttrList::?relay`
        FUNCTION `??zcl_registerAttrList::?relay`,00H
        EXTERN `??zcl_registerForMsg::?relay`
        FUNCTION `??zcl_registerForMsg::?relay`,00H
        EXTERN HalLcdWriteStringValue
        FUNCTION HalLcdWriteStringValue,0202H
        ARGFRAME ISTACK, 0, STACK
        ARGFRAME PSTACK, 0, STACK
        ARGFRAME XSTACK, 35, STACK
        ARGFRAME IOVERLAY, 0, STATIC
        ARGFRAME DOVERLAY, 0, STATIC
        EXTERN HalLedSet
        FUNCTION HalLedSet,0202H
        ARGFRAME ISTACK, 0, STACK
        ARGFRAME PSTACK, 0, STACK
        ARGFRAME XSTACK, 12, STACK
        ARGFRAME IOVERLAY, 0, STATIC
        ARGFRAME DOVERLAY, 0, STATIC
        EXTERN HalUARTOpen
        FUNCTION HalUARTOpen,0202H
        ARGFRAME ISTACK, 0, STACK
        ARGFRAME PSTACK, 0, STACK
        ARGFRAME XSTACK, 38, STACK
        ARGFRAME IOVERLAY, 0, STATIC
        ARGFRAME DOVERLAY, 0, STATIC
        EXTERN HalUARTRead
        FUNCTION HalUARTRead,0202H
        ARGFRAME ISTACK, 0, STACK
        ARGFRAME PSTACK, 0, STACK
        ARGFRAME XSTACK, 9, STACK
        ARGFRAME IOVERLAY, 0, STATIC
        ARGFRAME DOVERLAY, 0, STATIC
        EXTERN HalUARTWrite
        FUNCTION HalUARTWrite,0202H
        ARGFRAME ISTACK, 0, STACK
        ARGFRAME PSTACK, 0, STACK
        ARGFRAME XSTACK, 38, STACK
        ARGFRAME IOVERLAY, 0, STATIC
        ARGFRAME DOVERLAY, 0, STATIC
        EXTERN Hal_UART_RxBufLen
        FUNCTION Hal_UART_RxBufLen,0202H
        ARGFRAME ISTACK, 0, STACK
        ARGFRAME PSTACK, 0, STACK
        ARGFRAME XSTACK, 9, STACK
        ARGFRAME IOVERLAY, 0, STATIC
        ARGFRAME DOVERLAY, 0, STATIC
        EXTERN RegisterForKeys
        FUNCTION RegisterForKeys,0202H
        ARGFRAME ISTACK, 0, STACK
        ARGFRAME PSTACK, 0, STACK
        ARGFRAME XSTACK, 38, STACK
        ARGFRAME IOVERLAY, 0, STATIC
        ARGFRAME DOVERLAY, 0, STATIC
        EXTERN afRegister
        FUNCTION afRegister,0202H
        ARGFRAME ISTACK, 0, STACK
        ARGFRAME PSTACK, 0, STACK
        ARGFRAME XSTACK, 38, STACK
        ARGFRAME IOVERLAY, 0, STATIC
        ARGFRAME DOVERLAY, 0, STATIC
        EXTERN bdb_RegisterCommissioningStatusCB
        FUNCTION bdb_RegisterCommissioningStatusCB,0202H
        ARGFRAME ISTACK, 0, STACK
        ARGFRAME PSTACK, 0, STACK
        ARGFRAME XSTACK, 38, STACK
        ARGFRAME IOVERLAY, 0, STATIC
        ARGFRAME DOVERLAY, 0, STATIC
        EXTERN bdb_RegisterSimpleDescriptor
        FUNCTION bdb_RegisterSimpleDescriptor,0202H
        ARGFRAME ISTACK, 0, STACK
        ARGFRAME PSTACK, 0, STACK
        ARGFRAME XSTACK, 38, STACK
        ARGFRAME IOVERLAY, 0, STATIC
        ARGFRAME DOVERLAY, 0, STATIC
        EXTERN bdb_StartCommissioning
        FUNCTION bdb_StartCommissioning,0202H
        ARGFRAME ISTACK, 2, STACK
        ARGFRAME PSTACK, 0, STACK
        ARGFRAME XSTACK, 38, STACK
        ARGFRAME IOVERLAY, 0, STATIC
        ARGFRAME DOVERLAY, 0, STATIC
        EXTERN osal_mem_alloc
        FUNCTION osal_mem_alloc,0202H
        ARGFRAME ISTACK, 0, STACK
        ARGFRAME PSTACK, 0, STACK
        ARGFRAME XSTACK, 34, STACK
        ARGFRAME IOVERLAY, 0, STATIC
        ARGFRAME DOVERLAY, 0, STATIC
        EXTERN osal_mem_free
        FUNCTION osal_mem_free,0202H
        ARGFRAME ISTACK, 0, STACK
        ARGFRAME PSTACK, 0, STACK
        ARGFRAME XSTACK, 34, STACK
        ARGFRAME IOVERLAY, 0, STATIC
        ARGFRAME DOVERLAY, 0, STATIC
        EXTERN osal_msg_deallocate
        FUNCTION osal_msg_deallocate,0202H
        ARGFRAME ISTACK, 0, STACK
        ARGFRAME PSTACK, 0, STACK
        ARGFRAME XSTACK, 12, STACK
        ARGFRAME IOVERLAY, 0, STATIC
        ARGFRAME DOVERLAY, 0, STATIC
        EXTERN osal_msg_receive
        FUNCTION osal_msg_receive,0202H
        ARGFRAME ISTACK, 0, STACK
        ARGFRAME PSTACK, 0, STACK
        ARGFRAME XSTACK, 12, STACK
        ARGFRAME IOVERLAY, 0, STATIC
        ARGFRAME DOVERLAY, 0, STATIC
        EXTERN osal_start_timerEx
        FUNCTION osal_start_timerEx,0202H
        ARGFRAME ISTACK, 2, STACK
        ARGFRAME PSTACK, 0, STACK
        ARGFRAME XSTACK, 42, STACK
        ARGFRAME IOVERLAY, 0, STATIC
        ARGFRAME DOVERLAY, 0, STATIC
        EXTERN osal_strlen
        FUNCTION osal_strlen,0202H
        ARGFRAME ISTACK, 0, STACK
        ARGFRAME PSTACK, 0, STACK
        ARGFRAME XSTACK, 34, STACK
        ARGFRAME IOVERLAY, 0, STATIC
        ARGFRAME DOVERLAY, 0, STATIC
        EXTERN sprintf
        FUNCTION sprintf,0202H
        ARGFRAME ISTACK, 0, STACK
        ARGFRAME PSTACK, 0, STACK
        ARGFRAME XSTACK, 36, STACK
        ARGFRAME IOVERLAY, 0, STATIC
        ARGFRAME DOVERLAY, 0, STATIC
        EXTERN zclGeneral_RegisterCmdCallbacks
        FUNCTION zclGeneral_RegisterCmdCallbacks,0202H
        ARGFRAME ISTACK, 0, STACK
        ARGFRAME PSTACK, 0, STACK
        ARGFRAME XSTACK, 38, STACK
        ARGFRAME IOVERLAY, 0, STATIC
        ARGFRAME DOVERLAY, 0, STATIC
        EXTERN zclSampleSw_Attrs
        EXTERN zclSampleSw_NumAttributes
        EXTERN zclSampleSw_ResetAttributesToDefaultValues
        FUNCTION zclSampleSw_ResetAttributesToDefaultValues,0202H
        ARGFRAME ISTACK, 2, STACK
        ARGFRAME PSTACK, 0, STACK
        ARGFRAME XSTACK, 38, STACK
        ARGFRAME IOVERLAY, 0, STATIC
        ARGFRAME DOVERLAY, 0, STATIC
        EXTERN zclSampleSw_SimpleDesc
        EXTERN zcl_SendCommand
        FUNCTION zcl_SendCommand,0202H
        ARGFRAME ISTACK, 0, STACK
        ARGFRAME PSTACK, 0, STACK
        ARGFRAME XSTACK, 23, STACK
        ARGFRAME IOVERLAY, 0, STATIC
        ARGFRAME DOVERLAY, 0, STATIC
        EXTERN zcl_SendReportCmd
        FUNCTION zcl_SendReportCmd,0202H
        ARGFRAME ISTACK, 0, STACK
        ARGFRAME PSTACK, 0, STACK
        ARGFRAME XSTACK, 39, STACK
        ARGFRAME IOVERLAY, 0, STATIC
        ARGFRAME DOVERLAY, 0, STATIC
        EXTERN zcl_registerAttrList
        FUNCTION zcl_registerAttrList,0202H
        ARGFRAME ISTACK, 0, STACK
        ARGFRAME PSTACK, 0, STACK
        ARGFRAME XSTACK, 38, STACK
        ARGFRAME IOVERLAY, 0, STATIC
        ARGFRAME DOVERLAY, 0, STATIC
        EXTERN zcl_registerForMsg
        FUNCTION zcl_registerForMsg,0202H
        ARGFRAME ISTACK, 0, STACK
        ARGFRAME PSTACK, 0, STACK
        ARGFRAME XSTACK, 38, STACK
        ARGFRAME IOVERLAY, 0, STATIC
        ARGFRAME DOVERLAY, 0, STATIC
        EXTERN zdpExternalStateTaskID

// I:\ZigBee3.0\7. ª˘”⁄ZCL Ù–‘…œ±®≤‚ ‘∑«≥£≥…π¶\7. ª˘”⁄ZCL Ù–‘…œ±®\Z-Stack 3.0.1\Projects\zstack\HomeAutomation\SampleSwitch\Source\zcl_samplesw.c
//    1 /**************************************************************************************************
//    2   Filename:       zcl_samplesw.c
//    3   Revised:        $Date: 2015-08-19 17:11:00 -0700 (Wed, 19 Aug 2015) $
//    4   Revision:       $Revision: 44460 $
//    5 
//    6   Description:    Zigbee Cluster Library - sample switch application.
//    7 
//    8 
//    9   Copyright 2006-2013 Texas Instruments Incorporated. All rights reserved.
//   10 
//   11   IMPORTANT: Your use of this Software is limited to those specific rights
//   12   granted under the terms of a software license agreement between the user
//   13   who downloaded the software, his/her employer (which must be your employer)
//   14   and Texas Instruments Incorporated (the "License").  You may not use this
//   15   Software unless you agree to abide by the terms of the License. The License
//   16   limits your use, and you acknowledge, that the Software may not be modified,
//   17   copied or distributed unless embedded on a Texas Instruments microcontroller
//   18   or used solely and exclusively in conjunction with a Texas Instruments radio
//   19   frequency transceiver, which is integrated into your product.  Other than for
//   20   the foregoing purpose, you may not use, reproduce, copy, prepare derivative
//   21   works of, modify, distribute, perform, display or sell this Software and/or
//   22   its documentation for any purpose.
//   23 
//   24   YOU FURTHER ACKNOWLEDGE AND AGREE THAT THE SOFTWARE AND DOCUMENTATION ARE
//   25   PROVIDED ìAS ISî WITHOUT WARRANTY OF ANY KIND, EITHER EXPRESS OR IMPLIED,
//   26   INCLUDING WITHOUT LIMITATION, ANY WARRANTY OF MERCHANTABILITY, TITLE,
//   27   NON-INFRINGEMENT AND FITNESS FOR A PARTICULAR PURPOSE. IN NO EVENT SHALL
//   28   TEXAS INSTRUMENTS OR ITS LICENSORS BE LIABLE OR OBLIGATED UNDER CONTRACT,
//   29   NEGLIGENCE, STRICT LIABILITY, CONTRIBUTION, BREACH OF WARRANTY, OR OTHER
//   30   LEGAL EQUITABLE THEORY ANY DIRECT OR INDIRECT DAMAGES OR EXPENSES
//   31   INCLUDING BUT NOT LIMITED TO ANY INCIDENTAL, SPECIAL, INDIRECT, PUNITIVE
//   32   OR CONSEQUENTIAL DAMAGES, LOST PROFITS OR LOST DATA, COST OF PROCUREMENT
//   33   OF SUBSTITUTE GOODS, TECHNOLOGY, SERVICES, OR ANY CLAIMS BY THIRD PARTIES
//   34   (INCLUDING BUT NOT LIMITED TO ANY DEFENSE THEREOF), OR OTHER SIMILAR COSTS.
//   35 
//   36   Should you have any questions regarding your right to use this Software,
//   37   contact Texas Instruments Incorporated at www.TI.com.
//   38 **************************************************************************************************/
//   39 
//   40 /*********************************************************************
//   41   This application implements a ZigBee On/Off Switch, based on Z-Stack 3.0.
//   42 
//   43   This application is based on the common sample-application user interface. Please see the main
//   44   comment in zcl_sampleapp_ui.c. The rest of this comment describes only the content specific for
//   45   this sample applicetion.
//   46   
//   47   Application-specific UI peripherals being used:
//   48 
//   49   - none (LED1 is currently unused by this application).
//   50 
//   51   Application-specific menu system:
//   52 
//   53     <TOGGLE LIGHT> Send an On, Off or Toggle command targeting appropriate devices from the binding table.
//   54       Pressing / releasing [OK] will have the following functionality, depending on the value of the 
//   55       zclSampleSw_OnOffSwitchActions attribute:
//   56       - OnOffSwitchActions == 0: pressing [OK] will send ON command, releasing it will send OFF command;
//   57       - OnOffSwitchActions == 1: pressing [OK] will send OFF command, releasing it will send ON command;
//   58       - OnOffSwitchActions == 2: pressing [OK] will send TOGGLE command, releasing it will not send any command.
//   59 
//   60 *********************************************************************/
//   61 
//   62 #if ! defined ZCL_ON_OFF
//   63 #error ZCL_ON_OFF must be defined for this project.
//   64 #endif
//   65 
//   66 /*********************************************************************
//   67  * INCLUDES
//   68  */
//   69 #include "ZComDef.h"
//   70 #include "OSAL.h"
//   71 #include "AF.h"
//   72 #include "ZDApp.h"
//   73 #include "ZDObject.h"
//   74 #include "ZDProfile.h"
//   75 #include "MT_SYS.h"
//   76 
//   77 #include "zcl.h"
//   78 #include "zcl_general.h"
//   79 #include "zcl_ha.h"
//   80 #include "zcl_samplesw.h"
//   81 #include "zcl_diagnostic.h"
//   82 
//   83 #include "onboard.h"
//   84 
//   85 /* HAL */
//   86 #include "hal_lcd.h"
//   87 #include "hal_led.h"
//   88 #include "hal_key.h"
//   89 #include "hal_adc.h"
//   90 
//   91 #if defined (OTA_CLIENT) && (OTA_CLIENT == TRUE)
//   92 #include "zcl_ota.h"
//   93 #include "hal_ota.h"
//   94 #endif
//   95 
//   96 #include "bdb.h"
//   97 #include "bdb_interface.h"
//   98 
//   99 #include <stdio.h>
//  100 
//  101 /*********************************************************************
//  102  * MACROS
//  103  */
//  104 
//  105 #define APP_TITLE "TI Sample Switch"
//  106 
//  107 /*********************************************************************
//  108  * TYPEDEFS
//  109  */
//  110 
//  111 /*********************************************************************
//  112  * GLOBAL VARIABLES
//  113  */

        RSEG XDATA_Z:XDATA:NOROOT(0)
        DATA8
//  114 byte zclSampleSw_TaskID;
zclSampleSw_TaskID:
        DS 1
        REQUIRE __INIT_XDATA_Z
//  115 

        RSEG XDATA_Z:XDATA:NOROOT(0)
        DATA8
//  116 uint8 zclSampleSwSeqNum;
zclSampleSwSeqNum:
        DS 1
        REQUIRE __INIT_XDATA_Z
//  117 

        RSEG XDATA_I:XDATA:NOROOT(0)
//  118 uint8 zclSampleSw_OnOffSwitchType = ON_OFF_SWITCH_TYPE_MOMENTARY;
zclSampleSw_OnOffSwitchType:
        DATA8
        DS 1
        REQUIRE `?<Initializer for zclSampleSw_OnOffSwitchType>`
        REQUIRE __INIT_XDATA_I
//  119 

        RSEG XDATA_Z:XDATA:NOROOT(0)
        DATA8
//  120 uint8 zclSampleSw_OnOffSwitchActions;
zclSampleSw_OnOffSwitchActions:
        DS 1
        REQUIRE __INIT_XDATA_Z
//  121 
//  122 /*********************************************************************
//  123  * GLOBAL FUNCTIONS
//  124  */
//  125 
//  126 /*********************************************************************
//  127  * LOCAL VARIABLES
//  128  */

        RSEG XDATA_Z:XDATA:NOROOT(0)
        DATA8
//  129 afAddrType_t zclSampleSw_DstAddr;
zclSampleSw_DstAddr:
        DS 12
        REQUIRE __INIT_XDATA_Z
//  130 
//  131 // Endpoint to allow SYS_APP_MSGs

        RSEG XDATA_I:XDATA:NOROOT(0)
//  132 static endPointDesc_t sampleSw_TestEp =
sampleSw_TestEp:
        DATA8
        DS 7
        REQUIRE `?<Initializer for sampleSw_TestEp>`
        REQUIRE __INIT_XDATA_I
//  133 {
//  134   SAMPLESW_ENDPOINT,                  // endpoint
//  135   0,
//  136   &zclSampleSw_TaskID,
//  137   (SimpleDescriptionFormat_t *)NULL,  // No Simple description for this test endpoint
//  138   (afNetworkLatencyReq_t)0            // No Network Latency req
//  139 };
//  140 
//  141 //static uint8 aProcessCmd[] = { 1, 0, 0, 0 }; // used for reset command, { length + cmd0 + cmd1 + data }
//  142 

        RSEG XDATA_I:XDATA:NOROOT(0)
//  143 devStates_t zclSampleSw_NwkState = DEV_INIT;
zclSampleSw_NwkState:
        DATA8
        DS 1
        REQUIRE `?<Initializer for zclSampleSw_NwkState>`
        REQUIRE __INIT_XDATA_I
//  144 
//  145 #if defined (OTA_CLIENT) && (OTA_CLIENT == TRUE)
//  146 #define DEVICE_POLL_RATE                 8000   // Poll rate for end device
//  147 #endif
//  148 
//  149 #define SAMPLESW_TOGGLE_TEST_EVT   0x1000
//  150 /*********************************************************************
//  151  * LOCAL FUNCTIONS
//  152  */
//  153 static void zclSampleSw_HandleKeys( byte shift, byte keys );
//  154 static void zclSampleSw_BasicResetCB( void );
//  155 
//  156 static void zclSampleSw_ProcessCommissioningStatus(bdbCommissioningModeMsg_t *bdbCommissioningModeMsg);
//  157 
//  158 
//  159 // Functions to process ZCL Foundation incoming Command/Response messages
//  160 static void zclSampleSw_ProcessIncomingMsg( zclIncomingMsg_t *msg );
//  161 #ifdef ZCL_READ
//  162 static uint8 zclSampleSw_ProcessInReadRspCmd( zclIncomingMsg_t *pInMsg );
//  163 #endif
//  164 #ifdef ZCL_WRITE
//  165 static uint8 zclSampleSw_ProcessInWriteRspCmd( zclIncomingMsg_t *pInMsg );
//  166 #endif
//  167 static uint8 zclSampleSw_ProcessInDefaultRspCmd( zclIncomingMsg_t *pInMsg );
//  168 #ifdef ZCL_DISCOVER
//  169 static uint8 zclSampleSw_ProcessInDiscCmdsRspCmd( zclIncomingMsg_t *pInMsg );
//  170 static uint8 zclSampleSw_ProcessInDiscAttrsRspCmd( zclIncomingMsg_t *pInMsg );
//  171 static uint8 zclSampleSw_ProcessInDiscAttrsExtRspCmd( zclIncomingMsg_t *pInMsg );
//  172 #endif
//  173 #ifdef ZCL_REPORT
//  174 static uint8 zclSampleSw_ProcessInReportCmd( zclIncomingMsg_t *pInMsg );
//  175 #endif // ZCL_REPORT
//  176 
//  177 #if defined (OTA_CLIENT) && (OTA_CLIENT == TRUE)
//  178 static void zclSampleSw_ProcessOTAMsgs( zclOTA_CallbackMsg_t* pMsg );
//  179 #endif
//  180 
//  181 // Uart
//  182 #define ZCLSAMPLESW_UART_BUF_LEN        128

        RSEG XDATA_Z:XDATA:NOROOT(0)
        DATA8
//  183 static uint8 zclSampleSw_UartBuf[ZCLSAMPLESW_UART_BUF_LEN];
zclSampleSw_UartBuf:
        DS 128
        REQUIRE __INIT_XDATA_Z
//  184 static void zclSampleSw_InitUart(void);
//  185 static void zclSampleSw_UartCB(uint8 port, uint8 event);
//  186 
//  187 #ifdef ZDO_COORDINATOR
//  188 #else
//  189   static void zclSampleSw_ReportTest(void);
//  190 #endif
//  191 
//  192 /*********************************************************************
//  193  * CONSTANTS
//  194  */
//  195 
//  196 /*********************************************************************
//  197  * REFERENCED EXTERNALS
//  198  */
//  199 extern int16 zdpExternalStateTaskID;
//  200 
//  201 /*********************************************************************
//  202  * ZCL General Profile Callback table
//  203  */

        RSEG XDATA_I:XDATA:NOROOT(0)
//  204 static zclGeneral_AppCallbacks_t zclSampleSw_CmdCallbacks =
zclSampleSw_CmdCallbacks:
        DATA8
        DS 18
        REQUIRE `?<Initializer for zclSampleSw_CmdCallbacks>`
        REQUIRE __INIT_XDATA_I
//  205 {
//  206   zclSampleSw_BasicResetCB,               // Basic Cluster Reset command
//  207   NULL,                                   // Identify Trigger Effect command
//  208 
//  209 #ifdef ZDO_COORDINATOR
//  210   NULL,
//  211 #else
//  212   NULL,    // On/Off cluster commands
//  213 #endif
//  214   
//  215   NULL,                                   // On/Off cluster enhanced command Off with Effect
//  216   NULL,                                   // On/Off cluster enhanced command On with Recall Global Scene
//  217   NULL,                                   // On/Off cluster enhanced command On with Timed Off
//  218 #ifdef ZCL_LEVEL_CTRL
//  219   NULL,                                   // Level Control Move to Level command
//  220   NULL,                                   // Level Control Move command
//  221   NULL,                                   // Level Control Step command
//  222   NULL,                                   // Level Control Stop command
//  223 #endif
//  224 #ifdef ZCL_GROUPS
//  225   NULL,                                   // Group Response commands
//  226 #endif
//  227 #ifdef ZCL_SCENES
//  228   NULL,                                   // Scene Store Request command
//  229   NULL,                                   // Scene Recall Request command
//  230   NULL,                                   // Scene Response command
//  231 #endif
//  232 #ifdef ZCL_ALARMS
//  233   NULL,                                   // Alarm (Response) commands
//  234 #endif
//  235 #ifdef SE_UK_EXT
//  236   NULL,                                   // Get Event Log command
//  237   NULL,                                   // Publish Event Log command
//  238 #endif
//  239   NULL,                                   // RSSI Location command
//  240   NULL                                    // RSSI Location Response command
//  241 };
//  242 
//  243 /*********************************************************************
//  244  * @fn          zclSampleSw_Init
//  245  *
//  246  * @brief       Initialization function for the zclGeneral layer.
//  247  *
//  248  * @param       none
//  249  *
//  250  * @return      none
//  251  */

        RSEG BANKED_CODE:HUGECODE:NOROOT(0)
//  252 void zclSampleSw_Init( byte task_id )
zclSampleSw_Init:
          CFI Block cfiBlock0 Using cfiCommon0
          CFI Function zclSampleSw_Init
        CODE
//  253 {
        FUNCALL zclSampleSw_Init, bdb_RegisterSimpleDescriptor
        LOCFRAME ISTACK, 0, STACK
        LOCFRAME PSTACK, 0, STACK
        LOCFRAME XSTACK, 38, STACK
        LOCFRAME IOVERLAY, 0, STATIC
        LOCFRAME DOVERLAY, 0, STATIC
        ARGFRAME ISTACK, 0, STACK
        ARGFRAME PSTACK, 0, STACK
        ARGFRAME XSTACK, 38, STACK
        ARGFRAME IOVERLAY, 0, STATIC
        ARGFRAME DOVERLAY, 0, STATIC
        FUNCALL zclSampleSw_Init, zclGeneral_RegisterCmdCallbacks
        LOCFRAME ISTACK, 0, STACK
        LOCFRAME PSTACK, 0, STACK
        LOCFRAME XSTACK, 38, STACK
        LOCFRAME IOVERLAY, 0, STATIC
        LOCFRAME DOVERLAY, 0, STATIC
        ARGFRAME ISTACK, 0, STACK
        ARGFRAME PSTACK, 0, STACK
        ARGFRAME XSTACK, 38, STACK
        ARGFRAME IOVERLAY, 0, STATIC
        ARGFRAME DOVERLAY, 0, STATIC
        FUNCALL zclSampleSw_Init, zclSampleSw_ResetAttributesToDefaultValues
        LOCFRAME ISTACK, 0, STACK
        LOCFRAME PSTACK, 0, STACK
        LOCFRAME XSTACK, 38, STACK
        LOCFRAME IOVERLAY, 0, STATIC
        LOCFRAME DOVERLAY, 0, STATIC
        ARGFRAME ISTACK, 0, STACK
        ARGFRAME PSTACK, 0, STACK
        ARGFRAME XSTACK, 38, STACK
        ARGFRAME IOVERLAY, 0, STATIC
        ARGFRAME DOVERLAY, 0, STATIC
        FUNCALL zclSampleSw_Init, zcl_registerAttrList
        LOCFRAME ISTACK, 0, STACK
        LOCFRAME PSTACK, 0, STACK
        LOCFRAME XSTACK, 38, STACK
        LOCFRAME IOVERLAY, 0, STATIC
        LOCFRAME DOVERLAY, 0, STATIC
        ARGFRAME ISTACK, 0, STACK
        ARGFRAME PSTACK, 0, STACK
        ARGFRAME XSTACK, 38, STACK
        ARGFRAME IOVERLAY, 0, STATIC
        ARGFRAME DOVERLAY, 0, STATIC
        FUNCALL zclSampleSw_Init, zcl_registerForMsg
        LOCFRAME ISTACK, 0, STACK
        LOCFRAME PSTACK, 0, STACK
        LOCFRAME XSTACK, 38, STACK
        LOCFRAME IOVERLAY, 0, STATIC
        LOCFRAME DOVERLAY, 0, STATIC
        ARGFRAME ISTACK, 0, STACK
        ARGFRAME PSTACK, 0, STACK
        ARGFRAME XSTACK, 38, STACK
        ARGFRAME IOVERLAY, 0, STATIC
        ARGFRAME DOVERLAY, 0, STATIC
        FUNCALL zclSampleSw_Init, RegisterForKeys
        LOCFRAME ISTACK, 0, STACK
        LOCFRAME PSTACK, 0, STACK
        LOCFRAME XSTACK, 38, STACK
        LOCFRAME IOVERLAY, 0, STATIC
        LOCFRAME DOVERLAY, 0, STATIC
        ARGFRAME ISTACK, 0, STACK
        ARGFRAME PSTACK, 0, STACK
        ARGFRAME XSTACK, 38, STACK
        ARGFRAME IOVERLAY, 0, STATIC
        ARGFRAME DOVERLAY, 0, STATIC
        FUNCALL zclSampleSw_Init, bdb_RegisterCommissioningStatusCB
        LOCFRAME ISTACK, 0, STACK
        LOCFRAME PSTACK, 0, STACK
        LOCFRAME XSTACK, 38, STACK
        LOCFRAME IOVERLAY, 0, STATIC
        LOCFRAME DOVERLAY, 0, STATIC
        ARGFRAME ISTACK, 0, STACK
        ARGFRAME PSTACK, 0, STACK
        ARGFRAME XSTACK, 38, STACK
        ARGFRAME IOVERLAY, 0, STATIC
        ARGFRAME DOVERLAY, 0, STATIC
        FUNCALL zclSampleSw_Init, afRegister
        LOCFRAME ISTACK, 0, STACK
        LOCFRAME PSTACK, 0, STACK
        LOCFRAME XSTACK, 38, STACK
        LOCFRAME IOVERLAY, 0, STATIC
        LOCFRAME DOVERLAY, 0, STATIC
        ARGFRAME ISTACK, 0, STACK
        ARGFRAME PSTACK, 0, STACK
        ARGFRAME XSTACK, 38, STACK
        ARGFRAME IOVERLAY, 0, STATIC
        ARGFRAME DOVERLAY, 0, STATIC
        FUNCALL zclSampleSw_Init, HalUARTOpen
        LOCFRAME ISTACK, 0, STACK
        LOCFRAME PSTACK, 0, STACK
        LOCFRAME XSTACK, 38, STACK
        LOCFRAME IOVERLAY, 0, STATIC
        LOCFRAME DOVERLAY, 0, STATIC
        ARGFRAME ISTACK, 0, STACK
        ARGFRAME PSTACK, 0, STACK
        ARGFRAME XSTACK, 38, STACK
        ARGFRAME IOVERLAY, 0, STATIC
        ARGFRAME DOVERLAY, 0, STATIC
        FUNCALL zclSampleSw_Init, HalUARTWrite
        LOCFRAME ISTACK, 0, STACK
        LOCFRAME PSTACK, 0, STACK
        LOCFRAME XSTACK, 38, STACK
        LOCFRAME IOVERLAY, 0, STATIC
        LOCFRAME DOVERLAY, 0, STATIC
        ARGFRAME ISTACK, 0, STACK
        ARGFRAME PSTACK, 0, STACK
        ARGFRAME XSTACK, 38, STACK
        ARGFRAME IOVERLAY, 0, STATIC
        ARGFRAME DOVERLAY, 0, STATIC
        FUNCALL zclSampleSw_Init, bdb_StartCommissioning
        LOCFRAME ISTACK, 0, STACK
        LOCFRAME PSTACK, 0, STACK
        LOCFRAME XSTACK, 38, STACK
        LOCFRAME IOVERLAY, 0, STATIC
        LOCFRAME DOVERLAY, 0, STATIC
        ARGFRAME ISTACK, 0, STACK
        ARGFRAME PSTACK, 0, STACK
        ARGFRAME XSTACK, 38, STACK
        ARGFRAME IOVERLAY, 0, STATIC
        ARGFRAME DOVERLAY, 0, STATIC
        FUNCALL zclSampleSw_Init, osal_start_timerEx
        LOCFRAME ISTACK, 0, STACK
        LOCFRAME PSTACK, 0, STACK
        LOCFRAME XSTACK, 42, STACK
        LOCFRAME IOVERLAY, 0, STATIC
        LOCFRAME DOVERLAY, 0, STATIC
        ARGFRAME ISTACK, 0, STACK
        ARGFRAME PSTACK, 0, STACK
        ARGFRAME XSTACK, 42, STACK
        ARGFRAME IOVERLAY, 0, STATIC
        ARGFRAME DOVERLAY, 0, STATIC
        MOV       A,#-0x9
        LCALL     ?BANKED_ENTER_XDATA
          CFI DPH0 load(1, XDATA, add(CFA_XSP16, literal(-1)))
          CFI DPL0 load(1, XDATA, add(CFA_XSP16, literal(-2)))
          CFI ?BRET_EXT load(1, XDATA, add(CFA_XSP16, literal(-3)))
          CFI ?RET_HIGH load(1, XDATA, add(CFA_XSP16, literal(-4)))
          CFI ?RET_LOW load(1, XDATA, add(CFA_XSP16, literal(-5)))
          CFI R7 load(1, XDATA, add(CFA_XSP16, literal(-6)))
          CFI V0 load(1, XDATA, add(CFA_XSP16, literal(-7)))
          CFI VB load(1, XDATA, add(CFA_XSP16, literal(-8)))
          CFI R6 load(1, XDATA, add(CFA_XSP16, literal(-9)))
          CFI CFA_SP SP+0
          CFI CFA_XSP16 add(XSP16, 9)
        ; Saved register size: 9
        ; Auto size: 29
        MOV       A,#-0x1d
        LCALL     ?ALLOC_XSTACK8
          CFI CFA_XSP16 add(XSP16, 38)
        MOV       A,R1
//  254   zclSampleSw_TaskID = task_id;
        MOV       DPTR,#zclSampleSw_TaskID
        MOVX      @DPTR,A
//  255 
//  256   // Set destination address to indirect
//  257   zclSampleSw_DstAddr.addrMode = (afAddrMode_t)AddrNotPresent;
        MOV       DPTR,#zclSampleSw_DstAddr + 8
        CLR       A
        MOVX      @DPTR,A
//  258   zclSampleSw_DstAddr.endPoint = 0;
        INC       DPTR
        MOVX      @DPTR,A
//  259   zclSampleSw_DstAddr.addr.shortAddr = 0;
        MOV       DPTR,#zclSampleSw_DstAddr
        MOVX      @DPTR,A
        INC       DPTR
        MOVX      @DPTR,A
//  260 
//  261   // Register the Simple Descriptor for this application
//  262   bdb_RegisterSimpleDescriptor( &zclSampleSw_SimpleDesc );
        ; Setup parameters for call to function bdb_RegisterSimpleDescriptor
        MOV       R2,#zclSampleSw_SimpleDesc & 0xff
        MOV       R3,#(zclSampleSw_SimpleDesc >> 8) & 0xff
        LCALL     `??bdb_RegisterSimpleDescriptor::?relay`; Banked call to: bdb_RegisterSimpleDescriptor
//  263 
//  264   // Register the ZCL General Cluster Library callback functions
//  265   zclGeneral_RegisterCmdCallbacks( SAMPLESW_ENDPOINT, &zclSampleSw_CmdCallbacks );
        ; Setup parameters for call to function zclGeneral_RegisterCmdCallbacks
        MOV       R2,#zclSampleSw_CmdCallbacks & 0xff
        MOV       R3,#(zclSampleSw_CmdCallbacks >> 8) & 0xff
        MOV       R1,#0x8
        LCALL     `??zclGeneral_RegisterCmdCallbacks::?relay`; Banked call to: zclGeneral_RegisterCmdCallbacks
//  266 
//  267   zclSampleSw_ResetAttributesToDefaultValues();
        ; Setup parameters for call to function zclSampleSw_ResetAttributesToDefaultValues
        LCALL     `??zclSampleSw_ResetAttributesToDefaultValues::?`; Banked call to: zclSampleSw_ResetAttributesToDefaultValues
//  268   
//  269   // Register the application's attribute list
//  270   zcl_registerAttrList( SAMPLESW_ENDPOINT, zclSampleSw_NumAttributes, zclSampleSw_Attrs );
        ; Setup parameters for call to function zcl_registerAttrList
        MOV       R4,#zclSampleSw_Attrs & 0xff
        MOV       R5,#(zclSampleSw_Attrs >> 8) & 0xff
        MOV       DPTR,#zclSampleSw_NumAttributes
        CLR       A
        MOVC      A,@A+DPTR
        MOV       R2,A
        MOV       R1,#0x8
        LCALL     `??zcl_registerAttrList::?relay`; Banked call to: zcl_registerAttrList
//  271 
//  272   // Register the Application to receive the unprocessed Foundation command/response messages
//  273   zcl_registerForMsg( zclSampleSw_TaskID );
        ; Setup parameters for call to function zcl_registerForMsg
        MOV       DPTR,#zclSampleSw_TaskID
        MOVX      A,@DPTR
        MOV       R1,A
        LCALL     `??zcl_registerForMsg::?relay`; Banked call to: zcl_registerForMsg
//  274   
//  275   // Register for all key events - This app will handle all key events
//  276   RegisterForKeys( zclSampleSw_TaskID );
        ; Setup parameters for call to function RegisterForKeys
        MOV       DPTR,#zclSampleSw_TaskID
        MOVX      A,@DPTR
        MOV       R1,A
        LCALL     `??RegisterForKeys::?relay`; Banked call to: RegisterForKeys
//  277   
//  278   bdb_RegisterCommissioningStatusCB( zclSampleSw_ProcessCommissioningStatus );
        ; Setup parameters for call to function bdb_RegisterCommissioningStatusCB
        MOV       R2,#`??zclSampleSw_ProcessCommissioningStatus::?rela` & 0xff
        MOV       R3,#(`??zclSampleSw_ProcessCommissioningStatus::?rela` >> 8) & 0xff
        LCALL     `??bdb_RegisterCommissioningStatusCB::?relay`; Banked call to: bdb_RegisterCommissioningStatusCB
//  279 
//  280   // Register for a test endpoint
//  281   afRegister( &sampleSw_TestEp );
        ; Setup parameters for call to function afRegister
        MOV       R2,#sampleSw_TestEp & 0xff
        MOV       R3,#(sampleSw_TestEp >> 8) & 0xff
        LCALL     `??afRegister::?relay`; Banked call to: afRegister
//  282   
//  283     // Init Uart
//  284   zclSampleSw_InitUart();
        MOV       DPL,?XSP + 0
        MOV       DPH,?XSP + 1
        MOV       A,#0x1
        MOVX      @DPTR,A
        LCALL     ?XSTACK_DISP0_8
        MOV       A,#0x4
        MOVX      @DPTR,A
        MOV       A,#0x2
        LCALL     ?XSTACK_DISP0_8
        CLR       A
        MOVX      @DPTR,A
        MOV       A,#0x3
        LCALL     ?XSTACK_DISP0_8
        CLR       A
        MOVX      @DPTR,A
        INC       DPTR
        MOVX      @DPTR,A
        MOV       A,#0xa
        LCALL     ?XSTACK_DISP0_8
        MOV       A,#-0x80
        MOVX      @DPTR,A
        INC       DPTR
        CLR       A
        MOVX      @DPTR,A
        MOV       A,#0x12
        LCALL     ?XSTACK_DISP0_8
        CLR       A
        MOVX      @DPTR,A
        INC       DPTR
        MOVX      @DPTR,A
        MOV       A,#0x5
        LCALL     ?XSTACK_DISP0_8
        MOV       A,#0x6
        MOVX      @DPTR,A
        MOV       A,#0x16
        LCALL     ?XSTACK_DISP0_8
        MOV       A,#0x1
        MOVX      @DPTR,A
        MOV       A,#0x1b
        LCALL     ?XSTACK_DISP0_8
        MOV       A,#`??zclSampleSw_UartCB::?relay` & 0xff
        MOVX      @DPTR,A
        INC       DPTR
        MOV       A,#(`??zclSampleSw_UartCB::?relay` >> 8) & 0xff
        MOVX      @DPTR,A
        ; Setup parameters for call to function HalUARTOpen
        MOV       R2,?XSP + 0
        MOV       R3,?XSP + 1
        MOV       R1,#0x0
        LCALL     `??HalUARTOpen::?relay`; Banked call to: HalUARTOpen
//  285   HalUARTWrite(HAL_UART_PORT_0 ,  "UART0 Init Succeed\r\n" , 20);
        ; Setup parameters for call to function HalUARTWrite
        MOV       R4,#0x14
        MOV       R5,#0x0
        MOV       R2,#`?<Constant "UART0 Init Succeed\\r\\n">` & 0xff
        MOV       R3,#(`?<Constant "UART0 Init Succeed\\r\\n">` >> 8) & 0xff
        MOV       R1,#0x0
        LCALL     `??HalUARTWrite::?relay`; Banked call to: HalUARTWrite
//  286   
//  287 #ifdef ZCL_DIAGNOSTIC
//  288   // Register the application's callback function to read/write attribute data.
//  289   // This is only required when the attribute data format is unknown to ZCL.
//  290   zcl_registerReadWriteCB( SAMPLESW_ENDPOINT, zclDiagnostic_ReadWriteAttrCB, NULL );
//  291 
//  292   if ( zclDiagnostic_InitStats() == ZSuccess )
//  293   {
//  294     // Here the user could start the timer to save Diagnostics to NV
//  295   }
//  296 #endif
//  297 
//  298 #if defined (OTA_CLIENT) && (OTA_CLIENT == TRUE)
//  299   // Register for callback events from the ZCL OTA
//  300   zclOTA_Register(zclSampleSw_TaskID);
//  301 #endif
//  302 
//  303   zdpExternalStateTaskID = zclSampleSw_TaskID;
        MOV       DPTR,#zclSampleSw_TaskID
        MOVX      A,@DPTR
        MOV       DPTR,#zdpExternalStateTaskID
        MOVX      @DPTR,A
        INC       DPTR
        CLR       A
        MOVX      @DPTR,A
//  304   
//  305 #ifdef ZDO_COORDINATOR
//  306   // Init Uart
//  307   zclSampleSw_InitUart();
//  308   
//  309   ZDO_RegisterForZDOMsg ( zclSampleSw_TaskID, Device_annce );
//  310   
//  311   bdb_StartCommissioning( BDB_COMMISSIONING_MODE_NWK_FORMATION |
//  312                           BDB_COMMISSIONING_MODE_FINDING_BINDING );
//  313   
//  314   NLME_PermitJoiningRequest(255);
//  315 #else
//  316   bdb_StartCommissioning( BDB_COMMISSIONING_MODE_NWK_STEERING |
//  317                           BDB_COMMISSIONING_MODE_FINDING_BINDING );
        ; Setup parameters for call to function bdb_StartCommissioning
        MOV       R1,#0xa
        LCALL     `??bdb_StartCommissioning::?relay`; Banked call to: bdb_StartCommissioning
//  318   
//  319   osal_start_timerEx(zclSampleSw_TaskID, 
//  320                      SAMPLEAPP_REPORT_EVT, 
//  321                      SAMPLEAPP_REPORT_PERIOD);
        ; Setup parameters for call to function osal_start_timerEx
        MOV       DPTR,#__Constant_bb8
        LCALL     ?PUSH_XSTACK8_X_FOUR
          CFI CFA_XSP16 add(XSP16, 42)
        LCALL     ?Subroutine3 & 0xFFFF
??CrossCallReturnLabel_2:
        LCALL     ?DEALLOC_XSTACK8
          CFI CFA_XSP16 add(XSP16, 38)
//  322 #endif
//  323 }
        MOV       A,#0x1d
        LCALL     ?DEALLOC_XSTACK8
          CFI EndBlock cfiBlock0
        REQUIRE ?Subroutine0
        ; // Fall through to label ?Subroutine0

        RSEG BANKED_CODE:HUGECODE:NOROOT(0)
?Subroutine0:
          CFI Block cfiBlock1 Using cfiCommon0
          CFI NoFunction
          CFI CFA_SP SP+0
          CFI CFA_XSP16 add(XSP16, 9)
          CFI VB load(1, XDATA, add(CFA_XSP16, literal(-8)))
          CFI DPL0 load(1, XDATA, add(CFA_XSP16, literal(-2)))
          CFI DPH0 load(1, XDATA, add(CFA_XSP16, literal(-1)))
          CFI R6 load(1, XDATA, add(CFA_XSP16, literal(-9)))
          CFI R7 load(1, XDATA, add(CFA_XSP16, literal(-6)))
          CFI V0 load(1, XDATA, add(CFA_XSP16, literal(-7)))
          CFI ?BRET_EXT load(1, XDATA, add(CFA_XSP16, literal(-3)))
          CFI ?RET_HIGH load(1, XDATA, add(CFA_XSP16, literal(-4)))
          CFI ?RET_LOW load(1, XDATA, add(CFA_XSP16, literal(-5)))
        MOV       R7,#0x1
        LJMP      ?BANKED_LEAVE_XDATA
          CFI EndBlock cfiBlock1
//  324 
//  325 /*********************************************************************
//  326  * @fn          zclSample_event_loop
//  327  *
//  328  * @brief       Event Loop Processor for zclGeneral.
//  329  *
//  330  * @param       none
//  331  *
//  332  * @return      none
//  333  */

        RSEG BANKED_CODE:HUGECODE:NOROOT(0)
//  334 uint16 zclSampleSw_event_loop( uint8 task_id, uint16 events )
zclSampleSw_event_loop:
          CFI Block cfiBlock2 Using cfiCommon0
          CFI Function zclSampleSw_event_loop
        CODE
//  335 {
        FUNCALL zclSampleSw_event_loop, osal_start_timerEx
        LOCFRAME ISTACK, 0, STACK
        LOCFRAME PSTACK, 0, STACK
        LOCFRAME XSTACK, 16, STACK
        LOCFRAME IOVERLAY, 0, STATIC
        LOCFRAME DOVERLAY, 0, STATIC
        ARGFRAME ISTACK, 0, STACK
        ARGFRAME PSTACK, 0, STACK
        ARGFRAME XSTACK, 16, STACK
        ARGFRAME IOVERLAY, 0, STATIC
        ARGFRAME DOVERLAY, 0, STATIC
        FUNCALL zclSampleSw_event_loop, zcl_SendCommand
        LOCFRAME ISTACK, 0, STACK
        LOCFRAME PSTACK, 0, STACK
        LOCFRAME XSTACK, 23, STACK
        LOCFRAME IOVERLAY, 0, STATIC
        LOCFRAME DOVERLAY, 0, STATIC
        ARGFRAME ISTACK, 0, STACK
        ARGFRAME PSTACK, 0, STACK
        ARGFRAME XSTACK, 23, STACK
        ARGFRAME IOVERLAY, 0, STATIC
        ARGFRAME DOVERLAY, 0, STATIC
        FUNCALL zclSampleSw_event_loop, bdb_StartCommissioning
        LOCFRAME ISTACK, 0, STACK
        LOCFRAME PSTACK, 0, STACK
        LOCFRAME XSTACK, 12, STACK
        LOCFRAME IOVERLAY, 0, STATIC
        LOCFRAME DOVERLAY, 0, STATIC
        ARGFRAME ISTACK, 0, STACK
        ARGFRAME PSTACK, 0, STACK
        ARGFRAME XSTACK, 12, STACK
        ARGFRAME IOVERLAY, 0, STATIC
        ARGFRAME DOVERLAY, 0, STATIC
        FUNCALL zclSampleSw_event_loop, HalLedSet
        LOCFRAME ISTACK, 0, STACK
        LOCFRAME PSTACK, 0, STACK
        LOCFRAME XSTACK, 12, STACK
        LOCFRAME IOVERLAY, 0, STATIC
        LOCFRAME DOVERLAY, 0, STATIC
        ARGFRAME ISTACK, 0, STACK
        ARGFRAME PSTACK, 0, STACK
        ARGFRAME XSTACK, 12, STACK
        ARGFRAME IOVERLAY, 0, STATIC
        ARGFRAME DOVERLAY, 0, STATIC
        FUNCALL zclSampleSw_event_loop, osal_msg_deallocate
        LOCFRAME ISTACK, 0, STACK
        LOCFRAME PSTACK, 0, STACK
        LOCFRAME XSTACK, 12, STACK
        LOCFRAME IOVERLAY, 0, STATIC
        LOCFRAME DOVERLAY, 0, STATIC
        ARGFRAME ISTACK, 0, STACK
        ARGFRAME PSTACK, 0, STACK
        ARGFRAME XSTACK, 12, STACK
        ARGFRAME IOVERLAY, 0, STATIC
        ARGFRAME DOVERLAY, 0, STATIC
        FUNCALL zclSampleSw_event_loop, osal_msg_receive
        LOCFRAME ISTACK, 0, STACK
        LOCFRAME PSTACK, 0, STACK
        LOCFRAME XSTACK, 12, STACK
        LOCFRAME IOVERLAY, 0, STATIC
        LOCFRAME DOVERLAY, 0, STATIC
        ARGFRAME ISTACK, 0, STACK
        ARGFRAME PSTACK, 0, STACK
        ARGFRAME XSTACK, 12, STACK
        ARGFRAME IOVERLAY, 0, STATIC
        ARGFRAME DOVERLAY, 0, STATIC
        FUNCALL zclSampleSw_event_loop, zclSampleSw_ProcessIncomingMsg
        LOCFRAME ISTACK, 0, STACK
        LOCFRAME PSTACK, 0, STACK
        LOCFRAME XSTACK, 12, STACK
        LOCFRAME IOVERLAY, 0, STATIC
        LOCFRAME DOVERLAY, 0, STATIC
        ARGFRAME ISTACK, 0, STACK
        ARGFRAME PSTACK, 0, STACK
        ARGFRAME XSTACK, 12, STACK
        ARGFRAME IOVERLAY, 0, STATIC
        ARGFRAME DOVERLAY, 0, STATIC
        FUNCALL zclSampleSw_event_loop, zclSampleSw_ReportTest
        LOCFRAME ISTACK, 0, STACK
        LOCFRAME PSTACK, 0, STACK
        LOCFRAME XSTACK, 12, STACK
        LOCFRAME IOVERLAY, 0, STATIC
        LOCFRAME DOVERLAY, 0, STATIC
        ARGFRAME ISTACK, 0, STACK
        ARGFRAME PSTACK, 0, STACK
        ARGFRAME XSTACK, 12, STACK
        ARGFRAME IOVERLAY, 0, STATIC
        ARGFRAME DOVERLAY, 0, STATIC
        FUNCALL zclSampleSw_event_loop, osal_start_timerEx
        LOCFRAME ISTACK, 0, STACK
        LOCFRAME PSTACK, 0, STACK
        LOCFRAME XSTACK, 16, STACK
        LOCFRAME IOVERLAY, 0, STATIC
        LOCFRAME DOVERLAY, 0, STATIC
        ARGFRAME ISTACK, 0, STACK
        ARGFRAME PSTACK, 0, STACK
        ARGFRAME XSTACK, 16, STACK
        ARGFRAME IOVERLAY, 0, STATIC
        ARGFRAME DOVERLAY, 0, STATIC
        REQUIRE ?V0
        REQUIRE ?V1
        REQUIRE ?V2
        REQUIRE ?V3
        MOV       A,#-0xc
        LCALL     ?BANKED_ENTER_XDATA
          CFI DPH0 load(1, XDATA, add(CFA_XSP16, literal(-1)))
          CFI DPL0 load(1, XDATA, add(CFA_XSP16, literal(-2)))
          CFI ?BRET_EXT load(1, XDATA, add(CFA_XSP16, literal(-3)))
          CFI ?RET_HIGH load(1, XDATA, add(CFA_XSP16, literal(-4)))
          CFI ?RET_LOW load(1, XDATA, add(CFA_XSP16, literal(-5)))
          CFI R7 load(1, XDATA, add(CFA_XSP16, literal(-6)))
          CFI V3 load(1, XDATA, add(CFA_XSP16, literal(-7)))
          CFI V2 load(1, XDATA, add(CFA_XSP16, literal(-8)))
          CFI V1 load(1, XDATA, add(CFA_XSP16, literal(-9)))
          CFI V0 load(1, XDATA, add(CFA_XSP16, literal(-10)))
          CFI VB load(1, XDATA, add(CFA_XSP16, literal(-11)))
          CFI R6 load(1, XDATA, add(CFA_XSP16, literal(-12)))
          CFI CFA_SP SP+0
          CFI CFA_XSP16 add(XSP16, 12)
        ; Saved register size: 12
        ; Auto size: 0
        MOV       A,R2
        MOV       R6,A
        MOV       A,R3
        MOV       R7,A
//  336   afIncomingMSGPacket_t *MSGpkt;
//  337   (void)task_id;  // Intentionally unreferenced parameter
//  338 
//  339   //Send toggle every 500ms
//  340   if( events & SAMPLESW_TOGGLE_TEST_EVT )
        ANL       A,#0x10
        JZ        ??zclSampleSw_event_loop_0
//  341   {
//  342     osal_start_timerEx(zclSampleSw_TaskID,SAMPLESW_TOGGLE_TEST_EVT,500);
        ; Setup parameters for call to function osal_start_timerEx
        MOV       DPTR,#__Constant_1f4
        LCALL     ?PUSH_XSTACK8_X_FOUR
          CFI CFA_XSP16 add(XSP16, 16)
        MOV       R2,#0x0
        MOV       R3,#0x10
        LCALL     ??Subroutine7_0 & 0xFFFF
??CrossCallReturnLabel_5:
        LCALL     ?DEALLOC_XSTACK8
          CFI CFA_XSP16 add(XSP16, 12)
//  343     zclGeneral_SendOnOff_CmdToggle( SAMPLESW_ENDPOINT, &zclSampleSw_DstAddr, FALSE, 0 );
        ; Setup parameters for call to function zcl_SendCommand
        CLR       A
        MOV       ?V0,A
        MOV       ?V1,A
        MOV       R0,#?V0
        LCALL     ?PUSH_XSTACK_I_TWO
          CFI CFA_XSP16 add(XSP16, 14)
        MOV       R0,#?V0
        LCALL     ?PUSH_XSTACK_I_TWO
          CFI CFA_XSP16 add(XSP16, 16)
        MOV       R0,#?V0
        LCALL     ?PUSH_XSTACK_I_ONE
          CFI CFA_XSP16 add(XSP16, 17)
        MOV       R0,#?V0
        LCALL     ?PUSH_XSTACK_I_TWO
          CFI CFA_XSP16 add(XSP16, 19)
        MOV       R0,#?V0
        LCALL     ?PUSH_XSTACK_I_ONE
          CFI CFA_XSP16 add(XSP16, 20)
        MOV       R0,#?V0
        LCALL     ?PUSH_XSTACK_I_ONE
          CFI CFA_XSP16 add(XSP16, 21)
        MOV       ?V0,#0x1
        MOV       R0,#?V0
        LCALL     ?PUSH_XSTACK_I_ONE
          CFI CFA_XSP16 add(XSP16, 22)
        MOV       ?V0,#0x2
        MOV       R0,#?V0
        LCALL     ?PUSH_XSTACK_I_ONE
          CFI CFA_XSP16 add(XSP16, 23)
        MOV       R4,#0x6
        MOV       R5,#0x0
        MOV       R2,#zclSampleSw_DstAddr & 0xff
        MOV       R3,#(zclSampleSw_DstAddr >> 8) & 0xff
        MOV       R1,#0x8
        LCALL     `??zcl_SendCommand::?relay`; Banked call to: zcl_SendCommand
        MOV       A,#0xb
        LCALL     ?DEALLOC_XSTACK8
          CFI CFA_XSP16 add(XSP16, 12)
//  344     
//  345     // return unprocessed events
//  346     return (events ^ SAMPLESW_TOGGLE_TEST_EVT);
        MOV       A,R6
        MOV       R2,A
        MOV       A,R7
        XRL       A,#0x10
        SJMP      ??zclSampleSw_event_loop_1
//  347   }
//  348   
//  349   
//  350   if ( events & SYS_EVENT_MSG )
??zclSampleSw_event_loop_0:
        MOV       A,R3
        ANL       A,#0x80
        JNZ       ??zclSampleSw_event_loop_2
//  351   {
//  352     while ( (MSGpkt = (afIncomingMSGPacket_t *)osal_msg_receive( zclSampleSw_TaskID )) )
//  353     {
//  354       switch ( MSGpkt->hdr.event )
//  355       {
//  356         case ZCL_INCOMING_MSG:
//  357           // Incoming ZCL Foundation command/response messages
//  358           zclSampleSw_ProcessIncomingMsg( (zclIncomingMsg_t *)MSGpkt );
//  359           break;
//  360 
//  361         case KEY_CHANGE:
//  362           zclSampleSw_HandleKeys( ((keyChange_t *)MSGpkt)->state, ((keyChange_t *)MSGpkt)->keys );
//  363           break;
//  364 
//  365         case ZDO_STATE_CHANGE:
//  366           
//  367           break;
//  368 
//  369 #if defined (OTA_CLIENT) && (OTA_CLIENT == TRUE)
//  370         case ZCL_OTA_CALLBACK_IND:
//  371           zclSampleSw_ProcessOTAMsgs( (zclOTA_CallbackMsg_t*)MSGpkt  );
//  372           break;
//  373 #endif
//  374           
//  375         default:
//  376           break;
//  377       }
//  378 
//  379       // Release the memory
//  380       osal_msg_deallocate( (uint8 *)MSGpkt );
//  381     }
//  382 
//  383     // return unprocessed events
//  384     return (events ^ SYS_EVENT_MSG);
//  385   }
//  386 
//  387 #if ZG_BUILD_ENDDEVICE_TYPE    
//  388   if ( events & SAMPLEAPP_END_DEVICE_REJOIN_EVT )
//  389   {
//  390     bdb_ZedAttemptRecoverNwk();
//  391     return ( events ^ SAMPLEAPP_END_DEVICE_REJOIN_EVT );
//  392   }
//  393 #endif
//  394   
//  395 #ifdef ZDO_COORDINATOR
//  396 #else
//  397   // Rejoin
//  398   if ( events & SAMPLEAPP_REJOIN_EVT )
        MOV       A,R2
        ANL       A,#0x80
        JZ        ??zclSampleSw_event_loop_3
//  399   {
//  400     bdb_StartCommissioning(BDB_COMMISSIONING_MODE_NWK_STEERING |
//  401                       BDB_COMMISSIONING_MODE_FINDING_BINDING );
        ; Setup parameters for call to function bdb_StartCommissioning
        MOV       R1,#0xa
        LCALL     `??bdb_StartCommissioning::?relay`; Banked call to: bdb_StartCommissioning
//  402     
//  403     return ( events ^ SAMPLEAPP_REJOIN_EVT );
        MOV       A,R6
        XRL       A,#0x80
        SJMP      ??zclSampleSw_event_loop_4
//  404   }
??zclSampleSw_event_loop_5:
        INC       DPTR
        INC       DPTR
        INC       DPTR
        MOVX      A,@DPTR
        MOV       C,0xE0 /* A   */.5
        JNC       ??zclSampleSw_event_loop_6
        ; Setup parameters for call to function HalLedSet
        MOV       R2,#0x8
        MOV       R1,#0x2
        LCALL     `??HalLedSet::?relay`; Banked call to: HalLedSet
??zclSampleSw_event_loop_6:
        ; Setup parameters for call to function osal_msg_deallocate
        MOV       R2,?V0
        MOV       R3,?V1
        LCALL     `??osal_msg_deallocate::?relay`; Banked call to: osal_msg_deallocate
??zclSampleSw_event_loop_2:
        ; Setup parameters for call to function osal_msg_receive
        MOV       DPTR,#zclSampleSw_TaskID
        MOVX      A,@DPTR
        MOV       R1,A
        LCALL     `??osal_msg_receive::?relay`; Banked call to: osal_msg_receive
        MOV       ?V0,R2
        MOV       ?V1,R3
        MOV       A,R2
        ORL       A,R3
        JZ        ??zclSampleSw_event_loop_7
        MOV       DPL,R2
        MOV       DPH,R3
        MOVX      A,@DPTR
        ADD       A,#-0x34
        JZ        ??zclSampleSw_event_loop_8
        ADD       A,#0x74
        JZ        ??zclSampleSw_event_loop_5
        SJMP      ??zclSampleSw_event_loop_6
??zclSampleSw_event_loop_8:
        ; Setup parameters for call to function zclSampleSw_ProcessIncomingMsg
        LCALL     `??zclSampleSw_ProcessIncomingMsg::?relay`; Banked call to: zclSampleSw_ProcessIncomingMsg
        SJMP      ??zclSampleSw_event_loop_6
??zclSampleSw_event_loop_7:
        MOV       A,R6
        MOV       R2,A
        MOV       A,R7
        XRL       A,#0x80
        SJMP      ??zclSampleSw_event_loop_1
//  405   
//  406   // Report
//  407   if ( events & SAMPLEAPP_REPORT_EVT )
??zclSampleSw_event_loop_3:
        MOV       A,R2
        ANL       A,#0x40
        JZ        ??zclSampleSw_event_loop_9
//  408   {
//  409       zclSampleSw_ReportTest();
        ; Setup parameters for call to function zclSampleSw_ReportTest
        LCALL     `??zclSampleSw_ReportTest::?relay`; Banked call to: zclSampleSw_ReportTest
//  410     
//  411       osal_start_timerEx(zclSampleSw_TaskID, 
//  412                      SAMPLEAPP_REPORT_EVT, 
//  413                      SAMPLEAPP_REPORT_PERIOD);
        ; Setup parameters for call to function osal_start_timerEx
        MOV       DPTR,#__Constant_bb8
        LCALL     ?PUSH_XSTACK8_X_FOUR
          CFI CFA_XSP16 add(XSP16, 16)
        LCALL     ?Subroutine3 & 0xFFFF
??CrossCallReturnLabel_3:
        LCALL     ?DEALLOC_XSTACK8
          CFI CFA_XSP16 add(XSP16, 12)
//  414       
//  415       return ( events ^ SAMPLEAPP_REPORT_EVT );
        MOV       A,R6
        XRL       A,#0x40
??zclSampleSw_event_loop_4:
        MOV       R2,A
        MOV       A,R7
??zclSampleSw_event_loop_1:
        MOV       R3,A
        SJMP      ??zclSampleSw_event_loop_10
//  416   }
//  417 #endif
//  418   
//  419   // Discard unknown events
//  420   return 0;
??zclSampleSw_event_loop_9:
        MOV       R2,#0x0
        MOV       R3,#0x0
??zclSampleSw_event_loop_10:
          CFI EndBlock cfiBlock2
        REQUIRE ?Subroutine1
        ; // Fall through to label ?Subroutine1
//  421 }

        RSEG BANKED_CODE:HUGECODE:NOROOT(0)
?Subroutine1:
          CFI Block cfiBlock3 Using cfiCommon0
          CFI NoFunction
          CFI CFA_SP SP+0
          CFI CFA_XSP16 add(XSP16, 12)
          CFI VB load(1, XDATA, add(CFA_XSP16, literal(-11)))
          CFI DPL0 load(1, XDATA, add(CFA_XSP16, literal(-2)))
          CFI DPH0 load(1, XDATA, add(CFA_XSP16, literal(-1)))
          CFI R6 load(1, XDATA, add(CFA_XSP16, literal(-12)))
          CFI R7 load(1, XDATA, add(CFA_XSP16, literal(-6)))
          CFI V0 load(1, XDATA, add(CFA_XSP16, literal(-10)))
          CFI V1 load(1, XDATA, add(CFA_XSP16, literal(-9)))
          CFI V2 load(1, XDATA, add(CFA_XSP16, literal(-8)))
          CFI V3 load(1, XDATA, add(CFA_XSP16, literal(-7)))
          CFI ?BRET_EXT load(1, XDATA, add(CFA_XSP16, literal(-3)))
          CFI ?RET_HIGH load(1, XDATA, add(CFA_XSP16, literal(-4)))
          CFI ?RET_LOW load(1, XDATA, add(CFA_XSP16, literal(-5)))
        MOV       R7,#0x4
        LJMP      ?BANKED_LEAVE_XDATA
          CFI EndBlock cfiBlock3
//  422 
//  423 /*********************************************************************
//  424  * @fn      zclSampleSw_HandleKeys
//  425  *
//  426  * @brief   Handles all key events for this device.
//  427  *
//  428  * @param   shift - true if in shift/alt.
//  429  * @param   keys - bit field for key events. Valid entries:
//  430  *                 HAL_KEY_SW_5
//  431  *                 HAL_KEY_SW_4
//  432  *                 HAL_KEY_SW_2
//  433  *                 HAL_KEY_SW_1
//  434  *
//  435  * @return  none
//  436  */
//  437 static void zclSampleSw_HandleKeys( byte shift, byte keys )
//  438 { 
//  439   if(keys & HAL_KEY_SW_6)
//  440   {
//  441     HalLedSet(HAL_LED_2, HAL_LED_MODE_TOGGLE);  
//  442   } 
//  443 }
//  444   
//  445 /*********************************************************************
//  446  * @fn      zclSampleSw_ProcessCommissioningStatus
//  447  *
//  448  * @brief   Callback in which the status of the commissioning process are reported
//  449  *
//  450  * @param   bdbCommissioningModeMsg - Context message of the status of a commissioning process
//  451  *
//  452  * @return  none
//  453  */

        RSEG BANKED_CODE:HUGECODE:NOROOT(0)
//  454 static void zclSampleSw_ProcessCommissioningStatus(bdbCommissioningModeMsg_t *bdbCommissioningModeMsg)
zclSampleSw_ProcessCommissioningStatus:
          CFI Block cfiBlock4 Using cfiCommon0
          CFI Function zclSampleSw_ProcessCommissioningStatus
        CODE
//  455 {
        FUNCALL zclSampleSw_ProcessCommissioningStatus, bdb_StartCommissioning
        LOCFRAME ISTACK, 2, STACK
        LOCFRAME PSTACK, 0, STACK
        LOCFRAME XSTACK, 0, STACK
        LOCFRAME IOVERLAY, 0, STATIC
        LOCFRAME DOVERLAY, 0, STATIC
        ARGFRAME ISTACK, 2, STACK
        ARGFRAME PSTACK, 0, STACK
        ARGFRAME XSTACK, 0, STACK
        ARGFRAME IOVERLAY, 0, STATIC
        ARGFRAME DOVERLAY, 0, STATIC
        FUNCALL zclSampleSw_ProcessCommissioningStatus, osal_start_timerEx
        LOCFRAME ISTACK, 2, STACK
        LOCFRAME PSTACK, 0, STACK
        LOCFRAME XSTACK, 4, STACK
        LOCFRAME IOVERLAY, 0, STATIC
        LOCFRAME DOVERLAY, 0, STATIC
        ARGFRAME ISTACK, 2, STACK
        ARGFRAME PSTACK, 0, STACK
        ARGFRAME XSTACK, 4, STACK
        ARGFRAME IOVERLAY, 0, STATIC
        ARGFRAME DOVERLAY, 0, STATIC
        PUSH      DPL
          CFI DPL0 Frame(CFA_SP, 4)
          CFI CFA_SP SP+-4
        PUSH      DPH
          CFI DPH0 Frame(CFA_SP, 5)
          CFI CFA_SP SP+-5
        ; Saved register size: 2
        ; Auto size: 0
//  456   switch(bdbCommissioningModeMsg->bdbCommissioningMode)
        MOV       DPL,R2
        MOV       DPH,R3
        INC       DPTR
        MOVX      A,@DPTR
        DEC       A
        JZ        ??zclSampleSw_ProcessCommissioningStatus_0
        DEC       A
        JNZ       ??zclSampleSw_ProcessCommissioningStatus_1
//  457   {
//  458     case BDB_COMMISSIONING_FORMATION:
//  459       if(bdbCommissioningModeMsg->bdbCommissioningStatus == BDB_COMMISSIONING_SUCCESS)
        MOV       DPL,R2
        MOV       DPH,R3
        MOVX      A,@DPTR
        JNZ       ??zclSampleSw_ProcessCommissioningStatus_1
//  460       {
//  461         //After formation, perform nwk steering again plus the remaining commissioning modes that has not been processed yet
//  462         bdb_StartCommissioning(BDB_COMMISSIONING_MODE_NWK_STEERING | bdbCommissioningModeMsg->bdbRemainingCommissioningModes);
        ; Setup parameters for call to function bdb_StartCommissioning
        INC       DPTR
        INC       DPTR
        MOVX      A,@DPTR
        ORL       A,#0x2
        MOV       R1,A
        LCALL     `??bdb_StartCommissioning::?relay`; Banked call to: bdb_StartCommissioning
        SJMP      ??zclSampleSw_ProcessCommissioningStatus_1
//  463       }
//  464       else
//  465       {
//  466         //Want to try other channels?
//  467         //try with bdb_setChannelAttribute
//  468       }
//  469     break;
//  470     case BDB_COMMISSIONING_NWK_STEERING:
//  471       if(bdbCommissioningModeMsg->bdbCommissioningStatus == BDB_COMMISSIONING_SUCCESS)
??zclSampleSw_ProcessCommissioningStatus_0:
        MOV       DPL,R2
        MOV       DPH,R3
        MOVX      A,@DPTR
        JZ        ??zclSampleSw_ProcessCommissioningStatus_1
//  472       {
//  473         //YOUR JOB:
//  474         //We are on the nwk, what now?
//  475       }
//  476       else
//  477       {
//  478         #ifdef ZDO_COORDINATOR
//  479         #else
//  480         osal_start_timerEx(zclSampleSw_TaskID, 
//  481                            SAMPLEAPP_REJOIN_EVT, 
//  482                            SAMPLEAPP_REJOIN_PERIOD);
        ; Setup parameters for call to function osal_start_timerEx
        MOV       DPTR,#__Constant_3e8
        LCALL     ?PUSH_XSTACK8_X_FOUR
          CFI CFA_XSP16 add(XSP16, 4)
        MOV       R2,#-0x80
        LCALL     ??Subroutine6_0 & 0xFFFF
//  483         #endif
//  484       }
//  485     break;
//  486     case BDB_COMMISSIONING_FINDING_BINDING:
//  487       if(bdbCommissioningModeMsg->bdbCommissioningStatus == BDB_COMMISSIONING_SUCCESS)
//  488       {
//  489         //YOUR JOB:
//  490       }
//  491       else
//  492       {
//  493         //YOUR JOB:
//  494         //retry?, wait for user interaction?
//  495       }
//  496     break;
//  497     case BDB_COMMISSIONING_INITIALIZATION:
//  498       //Initialization notification can only be successful. Failure on initialization 
//  499       //only happens for ZED and is notified as BDB_COMMISSIONING_PARENT_LOST notification
//  500       
//  501       //YOUR JOB:
//  502       //We are on a network, what now?
//  503       
//  504     break;
//  505 #if ZG_BUILD_ENDDEVICE_TYPE    
//  506     case BDB_COMMISSIONING_PARENT_LOST:
//  507       if(bdbCommissioningModeMsg->bdbCommissioningStatus == BDB_COMMISSIONING_NETWORK_RESTORED)
//  508       {
//  509         //We did recover from losing parent
//  510       }
//  511       else
//  512       {
//  513         //Parent not found, attempt to rejoin again after a fixed delay
//  514         osal_start_timerEx(zclSampleSw_TaskID, SAMPLEAPP_END_DEVICE_REJOIN_EVT, SAMPLEAPP_END_DEVICE_REJOIN_DELAY);
//  515       }
//  516     break;
//  517 #endif 
//  518   }
??CrossCallReturnLabel_4:
        LCALL     ?DEALLOC_XSTACK8
          CFI CFA_XSP16 XSP16+0
//  519 }
??zclSampleSw_ProcessCommissioningStatus_1:
          CFI EndBlock cfiBlock4
        REQUIRE ?Subroutine2
        ; // Fall through to label ?Subroutine2

        RSEG BANKED_CODE:HUGECODE:NOROOT(0)
?Subroutine2:
          CFI Block cfiBlock5 Using cfiCommon0
          CFI NoFunction
          CFI CFA_SP SP+-5
          CFI DPL0 Frame(CFA_SP, 4)
          CFI DPH0 Frame(CFA_SP, 5)
        POP       DPH
          CFI CFA_SP SP+-4
          CFI DPH0 SameValue
        POP       DPL
          CFI CFA_SP SP+-3
          CFI DPL0 SameValue
        LJMP      ?BRET
          CFI EndBlock cfiBlock5

        RSEG BANKED_CODE:HUGECODE:NOROOT(0)
?Subroutine3:
          CFI Block cfiCond6 Using cfiCommon0
          CFI Function zclSampleSw_Init
          CFI Conditional ??CrossCallReturnLabel_2
          CFI R6 load(1, XDATA, add(CFA_XSP16, literal(-9)))
          CFI VB load(1, XDATA, add(CFA_XSP16, literal(-8)))
          CFI V0 load(1, XDATA, add(CFA_XSP16, literal(-7)))
          CFI R7 load(1, XDATA, add(CFA_XSP16, literal(-6)))
          CFI ?RET_LOW load(1, XDATA, add(CFA_XSP16, literal(-5)))
          CFI ?RET_HIGH load(1, XDATA, add(CFA_XSP16, literal(-4)))
          CFI ?BRET_EXT load(1, XDATA, add(CFA_XSP16, literal(-3)))
          CFI DPL0 load(1, XDATA, add(CFA_XSP16, literal(-2)))
          CFI DPH0 load(1, XDATA, add(CFA_XSP16, literal(-1)))
          CFI CFA_SP SP+-2
          CFI CFA_XSP16 add(XSP16, 42)
          CFI Block cfiCond7 Using cfiCommon0
          CFI (cfiCond7) Function zclSampleSw_event_loop
          CFI (cfiCond7) Conditional ??CrossCallReturnLabel_3
          CFI (cfiCond7) R6 load(1, XDATA, add(CFA_XSP16, literal(-12)))
          CFI (cfiCond7) VB load(1, XDATA, add(CFA_XSP16, literal(-11)))
          CFI (cfiCond7) V0 load(1, XDATA, add(CFA_XSP16, literal(-10)))
          CFI (cfiCond7) V1 load(1, XDATA, add(CFA_XSP16, literal(-9)))
          CFI (cfiCond7) V2 load(1, XDATA, add(CFA_XSP16, literal(-8)))
          CFI (cfiCond7) V3 load(1, XDATA, add(CFA_XSP16, literal(-7)))
          CFI (cfiCond7) R7 load(1, XDATA, add(CFA_XSP16, literal(-6)))
          CFI (cfiCond7) ?RET_LOW load(1, XDATA, add(CFA_XSP16, literal(-5)))
          CFI (cfiCond7) ?RET_HIGH load(1, XDATA, add(CFA_XSP16, literal(-4)))
          CFI (cfiCond7) ?BRET_EXT load(1, XDATA, add(CFA_XSP16, literal(-3)))
          CFI (cfiCond7) DPL0 load(1, XDATA, add(CFA_XSP16, literal(-2)))
          CFI (cfiCond7) DPH0 load(1, XDATA, add(CFA_XSP16, literal(-1)))
          CFI (cfiCond7) CFA_SP SP+-2
          CFI (cfiCond7) CFA_XSP16 add(XSP16, 16)
          CFI Block cfiPicker8 Using cfiCommon1
          CFI (cfiPicker8) NoFunction
          CFI (cfiPicker8) Picker
        MOV       R2,#0x40
          CFI EndBlock cfiCond6
          CFI EndBlock cfiCond7
          CFI EndBlock cfiPicker8
        REQUIRE ??Subroutine6_0
        ; // Fall through to label ??Subroutine6_0

        RSEG BANKED_CODE:HUGECODE:NOROOT(0)
??Subroutine6_0:
          CFI Block cfiCond9 Using cfiCommon0
          CFI Function zclSampleSw_ProcessCommissioningStatus
          CFI Conditional ??CrossCallReturnLabel_4
          CFI DPL0 Frame(CFA_SP, 4)
          CFI DPH0 Frame(CFA_SP, 5)
          CFI CFA_SP SP+-7
          CFI CFA_XSP16 add(XSP16, 4)
          CFI Block cfiCond10 Using cfiCommon0
          CFI (cfiCond10) Function zclSampleSw_Init
          CFI (cfiCond10) Conditional ??CrossCallReturnLabel_2
          CFI (cfiCond10) R6 load(1, XDATA, add(CFA_XSP16, literal(-9)))
          CFI (cfiCond10) VB load(1, XDATA, add(CFA_XSP16, literal(-8)))
          CFI (cfiCond10) V0 load(1, XDATA, add(CFA_XSP16, literal(-7)))
          CFI (cfiCond10) R7 load(1, XDATA, add(CFA_XSP16, literal(-6)))
          CFI (cfiCond10) ?RET_LOW load(1, XDATA, add(CFA_XSP16, literal(-5)))
          CFI (cfiCond10) ?RET_HIGH load(1, XDATA, add(CFA_XSP16, literal(-4)))
          CFI (cfiCond10) ?BRET_EXT load(1, XDATA, add(CFA_XSP16, literal(-3)))
          CFI (cfiCond10) DPL0 load(1, XDATA, add(CFA_XSP16, literal(-2)))
          CFI (cfiCond10) DPH0 load(1, XDATA, add(CFA_XSP16, literal(-1)))
          CFI (cfiCond10) CFA_SP SP+-2
          CFI (cfiCond10) CFA_XSP16 add(XSP16, 42)
          CFI Block cfiCond11 Using cfiCommon0
          CFI (cfiCond11) Function zclSampleSw_event_loop
          CFI (cfiCond11) Conditional ??CrossCallReturnLabel_3
          CFI (cfiCond11) R6 load(1, XDATA, add(CFA_XSP16, literal(-12)))
          CFI (cfiCond11) VB load(1, XDATA, add(CFA_XSP16, literal(-11)))
          CFI (cfiCond11) V0 load(1, XDATA, add(CFA_XSP16, literal(-10)))
          CFI (cfiCond11) V1 load(1, XDATA, add(CFA_XSP16, literal(-9)))
          CFI (cfiCond11) V2 load(1, XDATA, add(CFA_XSP16, literal(-8)))
          CFI (cfiCond11) V3 load(1, XDATA, add(CFA_XSP16, literal(-7)))
          CFI (cfiCond11) R7 load(1, XDATA, add(CFA_XSP16, literal(-6)))
          CFI (cfiCond11) ?RET_LOW load(1, XDATA, add(CFA_XSP16, literal(-5)))
          CFI (cfiCond11) ?RET_HIGH load(1, XDATA, add(CFA_XSP16, literal(-4)))
          CFI (cfiCond11) ?BRET_EXT load(1, XDATA, add(CFA_XSP16, literal(-3)))
          CFI (cfiCond11) DPL0 load(1, XDATA, add(CFA_XSP16, literal(-2)))
          CFI (cfiCond11) DPH0 load(1, XDATA, add(CFA_XSP16, literal(-1)))
          CFI (cfiCond11) CFA_SP SP+-2
          CFI (cfiCond11) CFA_XSP16 add(XSP16, 16)
          CFI Block cfiPicker12 Using cfiCommon1
          CFI (cfiPicker12) NoFunction
          CFI (cfiPicker12) Picker
        MOV       R3,#0x0
          CFI EndBlock cfiCond9
          CFI EndBlock cfiCond10
          CFI EndBlock cfiCond11
          CFI EndBlock cfiPicker12
        REQUIRE ??Subroutine7_0
        ; // Fall through to label ??Subroutine7_0

        RSEG BANKED_CODE:HUGECODE:NOROOT(0)
??Subroutine7_0:
          CFI Block cfiCond13 Using cfiCommon0
          CFI Function zclSampleSw_event_loop
          CFI Conditional ??CrossCallReturnLabel_5
          CFI R6 load(1, XDATA, add(CFA_XSP16, literal(-12)))
          CFI VB load(1, XDATA, add(CFA_XSP16, literal(-11)))
          CFI V0 load(1, XDATA, add(CFA_XSP16, literal(-10)))
          CFI V1 load(1, XDATA, add(CFA_XSP16, literal(-9)))
          CFI V2 load(1, XDATA, add(CFA_XSP16, literal(-8)))
          CFI V3 load(1, XDATA, add(CFA_XSP16, literal(-7)))
          CFI R7 load(1, XDATA, add(CFA_XSP16, literal(-6)))
          CFI ?RET_LOW load(1, XDATA, add(CFA_XSP16, literal(-5)))
          CFI ?RET_HIGH load(1, XDATA, add(CFA_XSP16, literal(-4)))
          CFI ?BRET_EXT load(1, XDATA, add(CFA_XSP16, literal(-3)))
          CFI DPL0 load(1, XDATA, add(CFA_XSP16, literal(-2)))
          CFI DPH0 load(1, XDATA, add(CFA_XSP16, literal(-1)))
          CFI CFA_SP SP+-2
          CFI CFA_XSP16 add(XSP16, 16)
          CFI Block cfiCond14 Using cfiCommon0
          CFI (cfiCond14) Function zclSampleSw_ProcessCommissioningStatus
          CFI (cfiCond14) Conditional ??CrossCallReturnLabel_4
          CFI (cfiCond14) DPL0 Frame(CFA_SP, 4)
          CFI (cfiCond14) DPH0 Frame(CFA_SP, 5)
          CFI (cfiCond14) CFA_SP SP+-7
          CFI (cfiCond14) CFA_XSP16 add(XSP16, 4)
          CFI Block cfiCond15 Using cfiCommon0
          CFI (cfiCond15) Function zclSampleSw_Init
          CFI (cfiCond15) Conditional ??CrossCallReturnLabel_2
          CFI (cfiCond15) R6 load(1, XDATA, add(CFA_XSP16, literal(-9)))
          CFI (cfiCond15) VB load(1, XDATA, add(CFA_XSP16, literal(-8)))
          CFI (cfiCond15) V0 load(1, XDATA, add(CFA_XSP16, literal(-7)))
          CFI (cfiCond15) R7 load(1, XDATA, add(CFA_XSP16, literal(-6)))
          CFI (cfiCond15) ?RET_LOW load(1, XDATA, add(CFA_XSP16, literal(-5)))
          CFI (cfiCond15) ?RET_HIGH load(1, XDATA, add(CFA_XSP16, literal(-4)))
          CFI (cfiCond15) ?BRET_EXT load(1, XDATA, add(CFA_XSP16, literal(-3)))
          CFI (cfiCond15) DPL0 load(1, XDATA, add(CFA_XSP16, literal(-2)))
          CFI (cfiCond15) DPH0 load(1, XDATA, add(CFA_XSP16, literal(-1)))
          CFI (cfiCond15) CFA_SP SP+-2
          CFI (cfiCond15) CFA_XSP16 add(XSP16, 42)
          CFI Block cfiCond16 Using cfiCommon0
          CFI (cfiCond16) Function zclSampleSw_event_loop
          CFI (cfiCond16) Conditional ??CrossCallReturnLabel_3
          CFI (cfiCond16) R6 load(1, XDATA, add(CFA_XSP16, literal(-12)))
          CFI (cfiCond16) VB load(1, XDATA, add(CFA_XSP16, literal(-11)))
          CFI (cfiCond16) V0 load(1, XDATA, add(CFA_XSP16, literal(-10)))
          CFI (cfiCond16) V1 load(1, XDATA, add(CFA_XSP16, literal(-9)))
          CFI (cfiCond16) V2 load(1, XDATA, add(CFA_XSP16, literal(-8)))
          CFI (cfiCond16) V3 load(1, XDATA, add(CFA_XSP16, literal(-7)))
          CFI (cfiCond16) R7 load(1, XDATA, add(CFA_XSP16, literal(-6)))
          CFI (cfiCond16) ?RET_LOW load(1, XDATA, add(CFA_XSP16, literal(-5)))
          CFI (cfiCond16) ?RET_HIGH load(1, XDATA, add(CFA_XSP16, literal(-4)))
          CFI (cfiCond16) ?BRET_EXT load(1, XDATA, add(CFA_XSP16, literal(-3)))
          CFI (cfiCond16) DPL0 load(1, XDATA, add(CFA_XSP16, literal(-2)))
          CFI (cfiCond16) DPH0 load(1, XDATA, add(CFA_XSP16, literal(-1)))
          CFI (cfiCond16) CFA_SP SP+-2
          CFI (cfiCond16) CFA_XSP16 add(XSP16, 16)
          CFI Block cfiPicker17 Using cfiCommon1
          CFI (cfiPicker17) NoFunction
          CFI (cfiPicker17) Picker
        MOV       DPTR,#zclSampleSw_TaskID
        MOVX      A,@DPTR
        MOV       R1,A
        LCALL     `??osal_start_timerEx::?relay`; Banked call to: osal_start_timerEx
        MOV       A,#0x4
        RET
          CFI EndBlock cfiCond13
          CFI EndBlock cfiCond14
          CFI EndBlock cfiCond15
          CFI EndBlock cfiCond16
          CFI EndBlock cfiPicker17
//  520 
//  521 /*********************************************************************
//  522  * @fn      zclSampleSw_BasicResetCB
//  523  *
//  524  * @brief   Callback from the ZCL General Cluster Library
//  525  *          to set all the Basic Cluster attributes to  default values.
//  526  *
//  527  * @param   none
//  528  *
//  529  * @return  none
//  530  */

        RSEG BANKED_CODE:HUGECODE:NOROOT(0)
//  531 static void zclSampleSw_BasicResetCB( void )
zclSampleSw_BasicResetCB:
          CFI Block cfiBlock18 Using cfiCommon0
          CFI Function zclSampleSw_BasicResetCB
        CODE
//  532 {
        FUNCALL zclSampleSw_BasicResetCB, zclSampleSw_ResetAttributesToDefaultValues
        LOCFRAME ISTACK, 2, STACK
        LOCFRAME PSTACK, 0, STACK
        LOCFRAME XSTACK, 0, STACK
        LOCFRAME IOVERLAY, 0, STATIC
        LOCFRAME DOVERLAY, 0, STATIC
        ARGFRAME ISTACK, 2, STACK
        ARGFRAME PSTACK, 0, STACK
        ARGFRAME XSTACK, 0, STACK
        ARGFRAME IOVERLAY, 0, STATIC
        ARGFRAME DOVERLAY, 0, STATIC
        PUSH      DPL
          CFI DPL0 Frame(CFA_SP, 4)
          CFI CFA_SP SP+-4
        PUSH      DPH
          CFI DPH0 Frame(CFA_SP, 5)
          CFI CFA_SP SP+-5
        ; Saved register size: 2
        ; Auto size: 0
//  533   zclSampleSw_ResetAttributesToDefaultValues();
        ; Setup parameters for call to function zclSampleSw_ResetAttributesToDefaultValues
        LCALL     `??zclSampleSw_ResetAttributesToDefaultValues::?`; Banked call to: zclSampleSw_ResetAttributesToDefaultValues
//  534 }
        SJMP      ?Subroutine2
          CFI EndBlock cfiBlock18
//  535 
//  536 /******************************************************************************
//  537  *
//  538  *  Functions for processing ZCL Foundation incoming Command/Response messages
//  539  *
//  540  *****************************************************************************/
//  541 
//  542 /*********************************************************************
//  543  * @fn      zclSampleSw_ProcessIncomingMsg
//  544  *
//  545  * @brief   Process ZCL Foundation incoming message
//  546  *
//  547  * @param   pInMsg - pointer to the received message
//  548  *
//  549  * @return  none
//  550  */

        RSEG BANKED_CODE:HUGECODE:NOROOT(0)
//  551 static void zclSampleSw_ProcessIncomingMsg( zclIncomingMsg_t *pInMsg )
zclSampleSw_ProcessIncomingMsg:
          CFI Block cfiBlock19 Using cfiCommon0
          CFI Function zclSampleSw_ProcessIncomingMsg
        CODE
//  552 {
        FUNCALL zclSampleSw_ProcessIncomingMsg, HalLcdWriteStringValue
        LOCFRAME ISTACK, 0, STACK
        LOCFRAME PSTACK, 0, STACK
        LOCFRAME XSTACK, 15, STACK
        LOCFRAME IOVERLAY, 0, STATIC
        LOCFRAME DOVERLAY, 0, STATIC
        ARGFRAME ISTACK, 0, STACK
        ARGFRAME PSTACK, 0, STACK
        ARGFRAME XSTACK, 15, STACK
        ARGFRAME IOVERLAY, 0, STATIC
        ARGFRAME DOVERLAY, 0, STATIC
        FUNCALL zclSampleSw_ProcessIncomingMsg, zclSampleSw_ProcessInDiscCmdsRspCmd
        LOCFRAME ISTACK, 0, STACK
        LOCFRAME PSTACK, 0, STACK
        LOCFRAME XSTACK, 14, STACK
        LOCFRAME IOVERLAY, 0, STATIC
        LOCFRAME DOVERLAY, 0, STATIC
        ARGFRAME ISTACK, 0, STACK
        ARGFRAME PSTACK, 0, STACK
        ARGFRAME XSTACK, 14, STACK
        ARGFRAME IOVERLAY, 0, STATIC
        ARGFRAME DOVERLAY, 0, STATIC
        FUNCALL zclSampleSw_ProcessIncomingMsg, zclSampleSw_ProcessInDiscCmdsRspCmd
        LOCFRAME ISTACK, 0, STACK
        LOCFRAME PSTACK, 0, STACK
        LOCFRAME XSTACK, 14, STACK
        LOCFRAME IOVERLAY, 0, STATIC
        LOCFRAME DOVERLAY, 0, STATIC
        ARGFRAME ISTACK, 0, STACK
        ARGFRAME PSTACK, 0, STACK
        ARGFRAME XSTACK, 14, STACK
        ARGFRAME IOVERLAY, 0, STATIC
        ARGFRAME DOVERLAY, 0, STATIC
        FUNCALL zclSampleSw_ProcessIncomingMsg, osal_mem_free
        LOCFRAME ISTACK, 0, STACK
        LOCFRAME PSTACK, 0, STACK
        LOCFRAME XSTACK, 14, STACK
        LOCFRAME IOVERLAY, 0, STATIC
        LOCFRAME DOVERLAY, 0, STATIC
        ARGFRAME ISTACK, 0, STACK
        ARGFRAME PSTACK, 0, STACK
        ARGFRAME XSTACK, 14, STACK
        ARGFRAME IOVERLAY, 0, STATIC
        ARGFRAME DOVERLAY, 0, STATIC
        REQUIRE ?V0
        REQUIRE ?V1
        REQUIRE ?V2
        REQUIRE ?V3
        REQUIRE ?V4
        REQUIRE ?V5
        MOV       A,#-0xe
        LCALL     ?BANKED_ENTER_XDATA
          CFI DPH0 load(1, XDATA, add(CFA_XSP16, literal(-1)))
          CFI DPL0 load(1, XDATA, add(CFA_XSP16, literal(-2)))
          CFI ?BRET_EXT load(1, XDATA, add(CFA_XSP16, literal(-3)))
          CFI ?RET_HIGH load(1, XDATA, add(CFA_XSP16, literal(-4)))
          CFI ?RET_LOW load(1, XDATA, add(CFA_XSP16, literal(-5)))
          CFI R7 load(1, XDATA, add(CFA_XSP16, literal(-6)))
          CFI V5 load(1, XDATA, add(CFA_XSP16, literal(-7)))
          CFI V4 load(1, XDATA, add(CFA_XSP16, literal(-8)))
          CFI V3 load(1, XDATA, add(CFA_XSP16, literal(-9)))
          CFI V2 load(1, XDATA, add(CFA_XSP16, literal(-10)))
          CFI V1 load(1, XDATA, add(CFA_XSP16, literal(-11)))
          CFI V0 load(1, XDATA, add(CFA_XSP16, literal(-12)))
          CFI VB load(1, XDATA, add(CFA_XSP16, literal(-13)))
          CFI R6 load(1, XDATA, add(CFA_XSP16, literal(-14)))
          CFI CFA_SP SP+0
          CFI CFA_XSP16 add(XSP16, 14)
        ; Saved register size: 14
        ; Auto size: 0
        MOV       A,R2
        MOV       R6,A
        MOV       A,R3
        MOV       R7,A
//  553   switch ( pInMsg->zclHdr.commandID )
        MOV       A,R2
        ADD       A,#0x17
        MOV       ?V0,A
        CLR       A
        ADDC      A,R7
        MOV       ?V1,A
        MOV       DPL,R2
        MOV       DPH,R3
        INC       DPTR
        INC       DPTR
        INC       DPTR
        INC       DPTR
        INC       DPTR
        INC       DPTR
        INC       DPTR
        MOVX      A,@DPTR
        DEC       A
        JZ        ??zclSampleSw_ProcessIncomingMsg_0
        ADD       A,#-0x3
        JNZ       $+5
        LJMP      ??zclSampleSw_ProcessIncomingMsg_1 & 0xFFFF
        ADD       A,#-0x9
        JNZ       $+5
        LJMP      ??zclSampleSw_ProcessIncomingMsg_2 & 0xFFFF
        ADD       A,#-0x5
        JNZ       $+5
        LJMP      ??zclSampleSw_ProcessIncomingMsg_3 & 0xFFFF
        ADD       A,#-0x2
        JNZ       $+5
        LJMP      ??zclSampleSw_ProcessIncomingMsg_3 & 0xFFFF
        ADD       A,#-0x2
        JNZ       $+5
        LJMP      ??zclSampleSw_ProcessIncomingMsg_4 & 0xFFFF
        LJMP      ??zclSampleSw_ProcessIncomingMsg_5 & 0xFFFF
//  554   {
//  555 #ifdef ZCL_READ
//  556     case ZCL_CMD_READ_RSP:
//  557       zclSampleSw_ProcessInReadRspCmd( pInMsg );
??zclSampleSw_ProcessIncomingMsg_0:
        MOV       DPL,?V0
        MOV       DPH,?V1
        MOVX      A,@DPTR
        MOV       ?V2,A
        INC       DPTR
        MOVX      A,@DPTR
        MOV       ?V3,A
        MOV       ?V4,#0x0
??zclSampleSw_ProcessIncomingMsg_6:
        MOV       DPL,?V2
        MOV       DPH,?V3
        MOVX      A,@DPTR
        MOV       R0,A
        MOV       A,?V4
        CLR       C
        SUBB      A,R0
        JC        $+5
        LJMP      ??zclSampleSw_ProcessIncomingMsg_5 & 0xFFFF
        MOV       DPL,R6
        MOV       DPH,R7
        INC       DPTR
        INC       DPTR
        INC       DPTR
        INC       DPTR
        INC       DPTR
        INC       DPTR
        INC       DPTR
        INC       DPTR
        MOVX      A,@DPTR
        XRL       A,#0x7
        JNZ       ??zclSampleSw_ProcessIncomingMsg_7
        INC       DPTR
        MOVX      A,@DPTR
??zclSampleSw_ProcessIncomingMsg_7:
        JNZ       ??zclSampleSw_ProcessIncomingMsg_8
        MOV       A,?V4
        MOV       B,#0x6
        MUL       AB
        MOV       R0,A
        MOV       R1,B
        MOV       A,?V2
        ADD       A,R0
        MOV       R0,A
        MOV       A,?V3
        ADDC      A,R1
        MOV       R1,A
        MOV       A,R0
        MOV       R2,A
        MOV       A,R1
        MOV       R3,A
        MOV       DPL,R0
        MOV       DPH,A
        INC       DPTR
        MOVX      A,@DPTR
        XRL       A,#0x10
        JNZ       ??zclSampleSw_ProcessIncomingMsg_9
        INC       DPTR
        MOVX      A,@DPTR
??zclSampleSw_ProcessIncomingMsg_9:
        JNZ       ??zclSampleSw_ProcessIncomingMsg_8
        ; Setup parameters for call to function HalLcdWriteStringValue
        MOV       ?V5,#0x4
        MOV       R0,#?V5
        LCALL     ?PUSH_XSTACK_I_ONE
          CFI CFA_XSP16 add(XSP16, 15)
        MOV       R1,#0xa
        MOV       DPL,R2
        MOV       DPH,R3
        INC       DPTR
        INC       DPTR
        INC       DPTR
        INC       DPTR
        INC       DPTR
        LCALL     ?Subroutine5 & 0xFFFF
??CrossCallReturnLabel_0:
        MOVX      A,@DPTR
        MOV       R4,A
        MOV       R5,#0x0
        MOV       R2,#`?<Constant "Read:">` & 0xff
        MOV       R3,#(`?<Constant "Read:">` >> 8) & 0xff
        LCALL     `??HalLcdWriteStringValue::?relay`; Banked call to: HalLcdWriteStringValue
        MOV       A,#0x1
        LCALL     ?DEALLOC_XSTACK8
          CFI CFA_XSP16 add(XSP16, 14)
??zclSampleSw_ProcessIncomingMsg_8:
        INC       ?V4
        SJMP      ??zclSampleSw_ProcessIncomingMsg_6
//  558       break;
//  559 #endif
//  560 #ifdef ZCL_WRITE
//  561     case ZCL_CMD_WRITE_RSP:
//  562       zclSampleSw_ProcessInWriteRspCmd( pInMsg );
??zclSampleSw_ProcessIncomingMsg_1:
        MOV       DPL,?V0
        MOV       DPH,?V1
        MOVX      A,@DPTR
        MOV       R0,A
        INC       DPTR
        MOVX      A,@DPTR
        MOV       DPL,R0
        MOV       DPH,A
        MOV       R0,#0x0
??zclSampleSw_ProcessIncomingMsg_10:
        MOVX      A,@DPTR
        MOV       R1,A
        MOV       A,R0
        CLR       C
        SUBB      A,R1
        JNC       ??zclSampleSw_ProcessIncomingMsg_5
        INC       R0
        SJMP      ??zclSampleSw_ProcessIncomingMsg_10
//  563       break;
//  564 #endif
//  565 #ifdef ZCL_REPORT
//  566     // See ZCL Test Applicaiton (zcl_testapp.c) for sample code on Attribute Reporting
//  567     case ZCL_CMD_CONFIG_REPORT:
//  568       //zclSampleSw_ProcessInConfigReportCmd( pInMsg );
//  569       break;
//  570 
//  571     case ZCL_CMD_CONFIG_REPORT_RSP:
//  572       //zclSampleSw_ProcessInConfigReportRspCmd( pInMsg );
//  573       break;
//  574 
//  575     case ZCL_CMD_READ_REPORT_CFG:
//  576       //zclSampleSw_ProcessInReadReportCfgCmd( pInMsg );
//  577       break;
//  578 
//  579     case ZCL_CMD_READ_REPORT_CFG_RSP:
//  580       //zclSampleSw_ProcessInReadReportCfgRspCmd( pInMsg );
//  581       break;
//  582 
//  583     case ZCL_CMD_REPORT:
//  584       zclSampleSw_ProcessInReportCmd( pInMsg );
//  585       break;
//  586 #endif
//  587     case ZCL_CMD_DEFAULT_RSP:
//  588       zclSampleSw_ProcessInDefaultRspCmd( pInMsg );
//  589       break;
//  590 #ifdef ZCL_DISCOVER
//  591     case ZCL_CMD_DISCOVER_CMDS_RECEIVED_RSP:
//  592       zclSampleSw_ProcessInDiscCmdsRspCmd( pInMsg );
??zclSampleSw_ProcessIncomingMsg_3:
        ; Setup parameters for call to function zclSampleSw_ProcessInDiscCmdsRspCmd
//  593       break;
//  594 
//  595     case ZCL_CMD_DISCOVER_CMDS_GEN_RSP:
//  596       zclSampleSw_ProcessInDiscCmdsRspCmd( pInMsg );
        ; Setup parameters for call to function zclSampleSw_ProcessInDiscCmdsRspCmd
        LCALL     `??zclSampleSw_ProcessInDiscCmdsRspCmd::?relay`; Banked call to: zclSampleSw_ProcessInDiscCmdsRspCmd
//  597       break;
        SJMP      ??zclSampleSw_ProcessIncomingMsg_5
//  598 
//  599     case ZCL_CMD_DISCOVER_ATTRS_RSP:
//  600       zclSampleSw_ProcessInDiscAttrsRspCmd( pInMsg );
??zclSampleSw_ProcessIncomingMsg_2:
        LCALL     ?Subroutine4 & 0xFFFF
??CrossCallReturnLabel_7:
        MOV       DPL,R0
        MOV       DPH,R1
        INC       DPTR
        MOVX      A,@DPTR
        MOV       R3,A
        MOV       A,R2
        CLR       C
        SUBB      A,R3
        JNC       ??zclSampleSw_ProcessIncomingMsg_5
        INC       R2
        SJMP      ??CrossCallReturnLabel_7
//  601       break;
//  602 
//  603     case ZCL_CMD_DISCOVER_ATTRS_EXT_RSP:
//  604       zclSampleSw_ProcessInDiscAttrsExtRspCmd( pInMsg );
??zclSampleSw_ProcessIncomingMsg_4:
        LCALL     ?Subroutine4 & 0xFFFF
//  605       break;
//  606 #endif
//  607     default:
//  608       break;
//  609   }
??CrossCallReturnLabel_8:
        SJMP      ??zclSampleSw_ProcessIncomingMsg_11
??zclSampleSw_ProcessIncomingMsg_12:
        INC       R2
??zclSampleSw_ProcessIncomingMsg_11:
        MOV       DPL,R0
        MOV       DPH,R1
        INC       DPTR
        MOVX      A,@DPTR
        MOV       R3,A
        MOV       A,R2
        CLR       C
        SUBB      A,R3
        JC        ??zclSampleSw_ProcessIncomingMsg_12
//  610 
//  611   if ( pInMsg->attrCmd )
??zclSampleSw_ProcessIncomingMsg_5:
        MOV       DPL,?V0
        MOV       DPH,?V1
        MOVX      A,@DPTR
        MOV       R2,A
        INC       DPTR
        MOVX      A,@DPTR
        MOV       R3,A
        MOV       A,R2
        ORL       A,R3
        JZ        ??zclSampleSw_ProcessIncomingMsg_13
//  612     osal_mem_free( pInMsg->attrCmd );
        ; Setup parameters for call to function osal_mem_free
        LCALL     `??osal_mem_free::?relay`; Banked call to: osal_mem_free
//  613 }
??zclSampleSw_ProcessIncomingMsg_13:
        MOV       R7,#0x6
        LJMP      ?BANKED_LEAVE_XDATA
          CFI EndBlock cfiBlock19

        RSEG BANKED_CODE:HUGECODE:NOROOT(0)
?Subroutine4:
          CFI Block cfiCond20 Using cfiCommon0
          CFI Function zclSampleSw_ProcessIncomingMsg
          CFI Conditional ??CrossCallReturnLabel_7
          CFI R6 load(1, XDATA, add(CFA_XSP16, literal(-14)))
          CFI VB load(1, XDATA, add(CFA_XSP16, literal(-13)))
          CFI V0 load(1, XDATA, add(CFA_XSP16, literal(-12)))
          CFI V1 load(1, XDATA, add(CFA_XSP16, literal(-11)))
          CFI V2 load(1, XDATA, add(CFA_XSP16, literal(-10)))
          CFI V3 load(1, XDATA, add(CFA_XSP16, literal(-9)))
          CFI V4 load(1, XDATA, add(CFA_XSP16, literal(-8)))
          CFI V5 load(1, XDATA, add(CFA_XSP16, literal(-7)))
          CFI R7 load(1, XDATA, add(CFA_XSP16, literal(-6)))
          CFI ?RET_LOW load(1, XDATA, add(CFA_XSP16, literal(-5)))
          CFI ?RET_HIGH load(1, XDATA, add(CFA_XSP16, literal(-4)))
          CFI ?BRET_EXT load(1, XDATA, add(CFA_XSP16, literal(-3)))
          CFI DPL0 load(1, XDATA, add(CFA_XSP16, literal(-2)))
          CFI DPH0 load(1, XDATA, add(CFA_XSP16, literal(-1)))
          CFI CFA_SP SP+-2
          CFI CFA_XSP16 add(XSP16, 14)
          CFI Block cfiCond21 Using cfiCommon0
          CFI (cfiCond21) Function zclSampleSw_ProcessIncomingMsg
          CFI (cfiCond21) Conditional ??CrossCallReturnLabel_8
          CFI (cfiCond21) R6 load(1, XDATA, add(CFA_XSP16, literal(-14)))
          CFI (cfiCond21) VB load(1, XDATA, add(CFA_XSP16, literal(-13)))
          CFI (cfiCond21) V0 load(1, XDATA, add(CFA_XSP16, literal(-12)))
          CFI (cfiCond21) V1 load(1, XDATA, add(CFA_XSP16, literal(-11)))
          CFI (cfiCond21) V2 load(1, XDATA, add(CFA_XSP16, literal(-10)))
          CFI (cfiCond21) V3 load(1, XDATA, add(CFA_XSP16, literal(-9)))
          CFI (cfiCond21) V4 load(1, XDATA, add(CFA_XSP16, literal(-8)))
          CFI (cfiCond21) V5 load(1, XDATA, add(CFA_XSP16, literal(-7)))
          CFI (cfiCond21) R7 load(1, XDATA, add(CFA_XSP16, literal(-6)))
          CFI (cfiCond21) ?RET_LOW load(1, XDATA, add(CFA_XSP16, literal(-5)))
          CFI (cfiCond21) ?RET_HIGH load(1, XDATA, add(CFA_XSP16, literal(-4)))
          CFI (cfiCond21) ?BRET_EXT load(1, XDATA, add(CFA_XSP16, literal(-3)))
          CFI (cfiCond21) DPL0 load(1, XDATA, add(CFA_XSP16, literal(-2)))
          CFI (cfiCond21) DPH0 load(1, XDATA, add(CFA_XSP16, literal(-1)))
          CFI (cfiCond21) CFA_SP SP+-2
          CFI (cfiCond21) CFA_XSP16 add(XSP16, 14)
          CFI Block cfiPicker22 Using cfiCommon1
          CFI (cfiPicker22) NoFunction
          CFI (cfiPicker22) Picker
        MOV       DPL,?V0
        MOV       DPH,?V1
          CFI EndBlock cfiCond20
          CFI EndBlock cfiCond21
          CFI EndBlock cfiPicker22
        REQUIRE ??Subroutine8_0
        ; // Fall through to label ??Subroutine8_0

        RSEG BANKED_CODE:HUGECODE:NOROOT(0)
??Subroutine8_0:
          CFI Block cfiCond23 Using cfiCommon0
          CFI Function zclSampleSw_ProcessInDiscCmdsRspCmd
          CFI Conditional ??CrossCallReturnLabel_6
          CFI DPL0 Frame(CFA_SP, 4)
          CFI DPH0 Frame(CFA_SP, 5)
          CFI CFA_SP SP+-7
          CFI Block cfiCond24 Using cfiCommon0
          CFI (cfiCond24) Function zclSampleSw_ProcessIncomingMsg
          CFI (cfiCond24) Conditional ??CrossCallReturnLabel_7
          CFI (cfiCond24) R6 load(1, XDATA, add(CFA_XSP16, literal(-14)))
          CFI (cfiCond24) VB load(1, XDATA, add(CFA_XSP16, literal(-13)))
          CFI (cfiCond24) V0 load(1, XDATA, add(CFA_XSP16, literal(-12)))
          CFI (cfiCond24) V1 load(1, XDATA, add(CFA_XSP16, literal(-11)))
          CFI (cfiCond24) V2 load(1, XDATA, add(CFA_XSP16, literal(-10)))
          CFI (cfiCond24) V3 load(1, XDATA, add(CFA_XSP16, literal(-9)))
          CFI (cfiCond24) V4 load(1, XDATA, add(CFA_XSP16, literal(-8)))
          CFI (cfiCond24) V5 load(1, XDATA, add(CFA_XSP16, literal(-7)))
          CFI (cfiCond24) R7 load(1, XDATA, add(CFA_XSP16, literal(-6)))
          CFI (cfiCond24) ?RET_LOW load(1, XDATA, add(CFA_XSP16, literal(-5)))
          CFI (cfiCond24) ?RET_HIGH load(1, XDATA, add(CFA_XSP16, literal(-4)))
          CFI (cfiCond24) ?BRET_EXT load(1, XDATA, add(CFA_XSP16, literal(-3)))
          CFI (cfiCond24) DPL0 load(1, XDATA, add(CFA_XSP16, literal(-2)))
          CFI (cfiCond24) DPH0 load(1, XDATA, add(CFA_XSP16, literal(-1)))
          CFI (cfiCond24) CFA_SP SP+-2
          CFI (cfiCond24) CFA_XSP16 add(XSP16, 14)
          CFI Block cfiCond25 Using cfiCommon0
          CFI (cfiCond25) Function zclSampleSw_ProcessIncomingMsg
          CFI (cfiCond25) Conditional ??CrossCallReturnLabel_8
          CFI (cfiCond25) R6 load(1, XDATA, add(CFA_XSP16, literal(-14)))
          CFI (cfiCond25) VB load(1, XDATA, add(CFA_XSP16, literal(-13)))
          CFI (cfiCond25) V0 load(1, XDATA, add(CFA_XSP16, literal(-12)))
          CFI (cfiCond25) V1 load(1, XDATA, add(CFA_XSP16, literal(-11)))
          CFI (cfiCond25) V2 load(1, XDATA, add(CFA_XSP16, literal(-10)))
          CFI (cfiCond25) V3 load(1, XDATA, add(CFA_XSP16, literal(-9)))
          CFI (cfiCond25) V4 load(1, XDATA, add(CFA_XSP16, literal(-8)))
          CFI (cfiCond25) V5 load(1, XDATA, add(CFA_XSP16, literal(-7)))
          CFI (cfiCond25) R7 load(1, XDATA, add(CFA_XSP16, literal(-6)))
          CFI (cfiCond25) ?RET_LOW load(1, XDATA, add(CFA_XSP16, literal(-5)))
          CFI (cfiCond25) ?RET_HIGH load(1, XDATA, add(CFA_XSP16, literal(-4)))
          CFI (cfiCond25) ?BRET_EXT load(1, XDATA, add(CFA_XSP16, literal(-3)))
          CFI (cfiCond25) DPL0 load(1, XDATA, add(CFA_XSP16, literal(-2)))
          CFI (cfiCond25) DPH0 load(1, XDATA, add(CFA_XSP16, literal(-1)))
          CFI (cfiCond25) CFA_SP SP+-2
          CFI (cfiCond25) CFA_XSP16 add(XSP16, 14)
          CFI Block cfiPicker26 Using cfiCommon1
          CFI (cfiPicker26) NoFunction
          CFI (cfiPicker26) Picker
        MOVX      A,@DPTR
        MOV       R0,A
        INC       DPTR
        MOVX      A,@DPTR
        MOV       R1,A
        MOV       R2,#0x0
        RET
          CFI EndBlock cfiCond23
          CFI EndBlock cfiCond24
          CFI EndBlock cfiCond25
          CFI EndBlock cfiPicker26
//  614 
//  615 #ifdef ZCL_READ
//  616 /*********************************************************************
//  617  * @fn      zclSampleSw_ProcessInReadRspCmd
//  618  *
//  619  * @brief   Process the "Profile" Read Response Command
//  620  *
//  621  * @param   pInMsg - incoming message to process
//  622  *
//  623  * @return  none
//  624  */
//  625 static uint8 zclSampleSw_ProcessInReadRspCmd( zclIncomingMsg_t *pInMsg )
//  626 {
//  627   zclReadRspCmd_t *readRspCmd;
//  628   uint8 i;
//  629 
//  630   readRspCmd = (zclReadRspCmd_t *)pInMsg->attrCmd;
//  631   for (i = 0; i < readRspCmd->numAttr; i++)
//  632   {
//  633     // Notify the originator of the results of the original read attributes
//  634     // attempt and, for each successfull request, the value of the requested
//  635     // attribute
//  636     if( pInMsg->clusterId == ZCL_CLUSTER_ID_GEN_ON_OFF_SWITCH_CONFIG &&
//  637         readRspCmd->attrList[i].attrID == ATTRID_ON_OFF_SWITCH_ACTIONS )
//  638     {
//  639         uint8 val;
//  640         val = *(readRspCmd->attrList[i].data);
//  641         
//  642         HalLcdWriteStringValue("Read:", val, 10, 4);
//  643     }
//  644   }
//  645 
//  646   return TRUE;
//  647 }
//  648 #endif // ZCL_READ
//  649 
//  650 #ifdef ZCL_WRITE
//  651 /*********************************************************************
//  652  * @fn      zclSampleSw_ProcessInWriteRspCmd
//  653  *
//  654  * @brief   Process the "Profile" Write Response Command
//  655  *
//  656  * @param   pInMsg - incoming message to process
//  657  *
//  658  * @return  none
//  659  */
//  660 static uint8 zclSampleSw_ProcessInWriteRspCmd( zclIncomingMsg_t *pInMsg )
//  661 {
//  662   zclWriteRspCmd_t *writeRspCmd;
//  663   uint8 i;
//  664 
//  665   writeRspCmd = (zclWriteRspCmd_t *)pInMsg->attrCmd;
//  666   for (i = 0; i < writeRspCmd->numAttr; i++)
//  667   {
//  668     // Notify the device of the results of the its original write attributes
//  669     // command.
//  670   }
//  671 
//  672   return TRUE;
//  673 }
//  674 #endif // ZCL_WRITE
//  675 
//  676 /*********************************************************************
//  677  * @fn      zclSampleSw_ProcessInDefaultRspCmd
//  678  *
//  679  * @brief   Process the "Profile" Default Response Command
//  680  *
//  681  * @param   pInMsg - incoming message to process
//  682  *
//  683  * @return  none
//  684  */
//  685 static uint8 zclSampleSw_ProcessInDefaultRspCmd( zclIncomingMsg_t *pInMsg )
//  686 {
//  687   // zclDefaultRspCmd_t *defaultRspCmd = (zclDefaultRspCmd_t *)pInMsg->attrCmd;
//  688   // Device is notified of the Default Response command.
//  689   (void)pInMsg;
//  690   return TRUE;
//  691 }
//  692 
//  693 #ifdef ZCL_DISCOVER
//  694 /*********************************************************************
//  695  * @fn      zclSampleSw_ProcessInDiscCmdsRspCmd
//  696  *
//  697  * @brief   Process the Discover Commands Response Command
//  698  *
//  699  * @param   pInMsg - incoming message to process
//  700  *
//  701  * @return  none
//  702  */

        RSEG BANKED_CODE:HUGECODE:NOROOT(0)
//  703 static uint8 zclSampleSw_ProcessInDiscCmdsRspCmd( zclIncomingMsg_t *pInMsg )
zclSampleSw_ProcessInDiscCmdsRspCmd:
          CFI Block cfiBlock27 Using cfiCommon0
          CFI Function zclSampleSw_ProcessInDiscCmdsRspCmd
        CODE
//  704 {
        PUSH      DPL
          CFI DPL0 Frame(CFA_SP, 4)
          CFI CFA_SP SP+-4
        PUSH      DPH
          CFI DPH0 Frame(CFA_SP, 5)
          CFI CFA_SP SP+-5
        ; Saved register size: 2
        ; Auto size: 0
//  705   zclDiscoverCmdsCmdRsp_t *discoverRspCmd;
//  706   uint8 i;
//  707 
//  708   discoverRspCmd = (zclDiscoverCmdsCmdRsp_t *)pInMsg->attrCmd;
        MOV       A,R2
        ADD       A,#0x17
        MOV       DPL,A
        CLR       A
        ADDC      A,R3
        MOV       DPH,A
        LCALL     ??Subroutine8_0 & 0xFFFF
//  709   for ( i = 0; i < discoverRspCmd->numCmd; i++ )
??CrossCallReturnLabel_6:
        SJMP      ??zclSampleSw_ProcessInDiscCmdsRspCmd_0
??zclSampleSw_ProcessInDiscCmdsRspCmd_1:
        INC       R2
??zclSampleSw_ProcessInDiscCmdsRspCmd_0:
        MOV       DPL,R0
        MOV       DPH,R1
        INC       DPTR
        INC       DPTR
        MOVX      A,@DPTR
        MOV       R3,A
        MOV       A,R2
        CLR       C
        SUBB      A,R3
        JC        ??zclSampleSw_ProcessInDiscCmdsRspCmd_1
//  710   {
//  711     // Device is notified of the result of its attribute discovery command.
//  712   }
//  713 
//  714   return TRUE;
        MOV       R1,#0x1
        LJMP      ?Subroutine2 & 0xFFFF
//  715 }
          CFI EndBlock cfiBlock27
//  716 
//  717 /*********************************************************************
//  718  * @fn      zclSampleSw_ProcessInDiscAttrsRspCmd
//  719  *
//  720  * @brief   Process the "Profile" Discover Attributes Response Command
//  721  *
//  722  * @param   pInMsg - incoming message to process
//  723  *
//  724  * @return  none
//  725  */
//  726 static uint8 zclSampleSw_ProcessInDiscAttrsRspCmd( zclIncomingMsg_t *pInMsg )
//  727 {
//  728   zclDiscoverAttrsRspCmd_t *discoverRspCmd;
//  729   uint8 i;
//  730 
//  731   discoverRspCmd = (zclDiscoverAttrsRspCmd_t *)pInMsg->attrCmd;
//  732   for ( i = 0; i < discoverRspCmd->numAttr; i++ )
//  733   {
//  734     // Device is notified of the result of its attribute discovery command.
//  735   }
//  736 
//  737   return TRUE;
//  738 }
//  739 
//  740 /*********************************************************************
//  741  * @fn      zclSampleSw_ProcessInDiscAttrsExtRspCmd
//  742  *
//  743  * @brief   Process the "Profile" Discover Attributes Extended Response Command
//  744  *
//  745  * @param   pInMsg - incoming message to process
//  746  *
//  747  * @return  none
//  748  */
//  749 static uint8 zclSampleSw_ProcessInDiscAttrsExtRspCmd( zclIncomingMsg_t *pInMsg )
//  750 {
//  751   zclDiscoverAttrsExtRsp_t *discoverRspCmd;
//  752   uint8 i;
//  753 
//  754   discoverRspCmd = (zclDiscoverAttrsExtRsp_t *)pInMsg->attrCmd;
//  755   for ( i = 0; i < discoverRspCmd->numAttr; i++ )
//  756   {
//  757     // Device is notified of the result of its attribute discovery command.
//  758   }
//  759 
//  760   return TRUE;
//  761 }
//  762 #endif // ZCL_DISCOVER
//  763 
//  764 
//  765 
//  766 #ifdef ZCL_REPORT
//  767 /**
//  768  * @fn      zclSampleSw_ProcessInReportCmd
//  769  *
//  770  * @brief   Process the "Profile" Report Command
//  771  *
//  772  * @param   pInMsg - incoming message to process
//  773  *
//  774  * @return  none
//  775  */
//  776 static uint8 zclSampleSw_ProcessInReportCmd( zclIncomingMsg_t *pInMsg )
//  777 {
//  778   zclReportCmd_t *reportCmd;
//  779   uint8 i;
//  780   uint8 resstr[10];
//  781   HalLcdWriteString("pro report", 3);
//  782   
//  783   reportCmd = (zclReportCmd_t *)pInMsg->attrCmd;
//  784   for ( i = 0; i < reportCmd->numAttr; i++ )
//  785   {
//  786     if( pInMsg->clusterId == ZCL_CLUSTER_ID_GEN_ON_OFF_SWITCH_CONFIG && 
//  787         reportCmd->attrList[i].attrID == ATTRID_ON_OFF_SWITCH_TYPE)
//  788     {
//  789         int8 attrDat = *(reportCmd->attrList[i].attrData);
//  790         sprintf((char *)resstr,(const char*)"%d\r\n",attrDat);
//  791         HalLcdWriteStringValue("Rx Value:", attrDat, 10, 4);
//  792         HalUARTWrite(HAL_UART_PORT_0 ,resstr , osal_strlen((char *)resstr));
//  793     }
//  794   }
//  795 
//  796   return ( TRUE );
//  797 }
//  798 #endif // ZCL_REPORT
//  799 
//  800 
//  801 
//  802 
//  803 #if defined (OTA_CLIENT) && (OTA_CLIENT == TRUE)
//  804 /*********************************************************************
//  805  * @fn      zclSampleSw_ProcessOTAMsgs
//  806  *
//  807  * @brief   Called to process callbacks from the ZCL OTA.
//  808  *
//  809  * @param   none
//  810  *
//  811  * @return  none
//  812  */
//  813 static void zclSampleSw_ProcessOTAMsgs( zclOTA_CallbackMsg_t* pMsg )
//  814 {
//  815   uint8 RxOnIdle;
//  816 
//  817   switch(pMsg->ota_event)
//  818   {
//  819   case ZCL_OTA_START_CALLBACK:
//  820     if (pMsg->hdr.status == ZSuccess)
//  821     {
//  822       // Speed up the poll rate
//  823       RxOnIdle = TRUE;
//  824       ZMacSetReq( ZMacRxOnIdle, &RxOnIdle );
//  825       NLME_SetPollRate( 2000 );
//  826     }
//  827     break;
//  828 
//  829   case ZCL_OTA_DL_COMPLETE_CALLBACK:
//  830     if (pMsg->hdr.status == ZSuccess)
//  831     {
//  832       // Reset the CRC Shadow and reboot.  The bootloader will see the
//  833       // CRC shadow has been cleared and switch to the new image
//  834       HalOTAInvRC();
//  835       SystemReset();
//  836     }
//  837     else
//  838     {
//  839       // slow the poll rate back down.
//  840       RxOnIdle = FALSE;
//  841       ZMacSetReq( ZMacRxOnIdle, &RxOnIdle );
//  842       NLME_SetPollRate(DEVICE_POLL_RATE);
//  843     }
//  844     break;
//  845 
//  846   default:
//  847     break;
//  848   }
//  849 }
//  850 #endif // defined (OTA_CLIENT) && (OTA_CLIENT == TRUE)
//  851 
//  852 /****************************************************************************
//  853 ****************************************************************************/
//  854 
//  855 /**
//  856  * @fn      zclSampleSw_InitUart
//  857  *
//  858  * @brief   init. and open Uart
//  859  */
//  860 static void zclSampleSw_InitUart(void)
//  861 {
//  862   halUARTCfg_t uartConfig;
//  863 
//  864   /* UART Configuration */
//  865   uartConfig.configured           = TRUE;
//  866   uartConfig.baudRate             = HAL_UART_BR_115200;
//  867   uartConfig.flowControl          = FALSE;
//  868   uartConfig.flowControlThreshold = 0;
//  869   uartConfig.rx.maxBufSize        = ZCLSAMPLESW_UART_BUF_LEN;
//  870   uartConfig.tx.maxBufSize        = 0;
//  871   uartConfig.idleTimeout          = 6;
//  872   uartConfig.intEnable            = TRUE;
//  873   uartConfig.callBackFunc         = zclSampleSw_UartCB;
//  874 
//  875   /* Start UART */
//  876   HalUARTOpen(HAL_UART_PORT_0, &uartConfig);
//  877 }
//  878 
//  879 /**
//  880  * @fn      zclSampleSw_UartCB
//  881  *
//  882  * @brief   Uart Callback
//  883  */

        RSEG BANKED_CODE:HUGECODE:NOROOT(0)
//  884 static void zclSampleSw_UartCB(uint8 port, uint8 event)
zclSampleSw_UartCB:
          CFI Block cfiBlock28 Using cfiCommon0
          CFI Function zclSampleSw_UartCB
        CODE
//  885 {
        FUNCALL zclSampleSw_UartCB, Hal_UART_RxBufLen
        LOCFRAME ISTACK, 0, STACK
        LOCFRAME PSTACK, 0, STACK
        LOCFRAME XSTACK, 9, STACK
        LOCFRAME IOVERLAY, 0, STATIC
        LOCFRAME DOVERLAY, 0, STATIC
        ARGFRAME ISTACK, 0, STACK
        ARGFRAME PSTACK, 0, STACK
        ARGFRAME XSTACK, 9, STACK
        ARGFRAME IOVERLAY, 0, STATIC
        ARGFRAME DOVERLAY, 0, STATIC
        FUNCALL zclSampleSw_UartCB, HalUARTRead
        LOCFRAME ISTACK, 0, STACK
        LOCFRAME PSTACK, 0, STACK
        LOCFRAME XSTACK, 9, STACK
        LOCFRAME IOVERLAY, 0, STATIC
        LOCFRAME DOVERLAY, 0, STATIC
        ARGFRAME ISTACK, 0, STACK
        ARGFRAME PSTACK, 0, STACK
        ARGFRAME XSTACK, 9, STACK
        ARGFRAME IOVERLAY, 0, STATIC
        ARGFRAME DOVERLAY, 0, STATIC
        FUNCALL zclSampleSw_UartCB, HalUARTWrite
        LOCFRAME ISTACK, 0, STACK
        LOCFRAME PSTACK, 0, STACK
        LOCFRAME XSTACK, 9, STACK
        LOCFRAME IOVERLAY, 0, STATIC
        LOCFRAME DOVERLAY, 0, STATIC
        ARGFRAME ISTACK, 0, STACK
        ARGFRAME PSTACK, 0, STACK
        ARGFRAME XSTACK, 9, STACK
        ARGFRAME IOVERLAY, 0, STATIC
        ARGFRAME DOVERLAY, 0, STATIC
        MOV       A,#-0x9
        LCALL     ?BANKED_ENTER_XDATA
          CFI DPH0 load(1, XDATA, add(CFA_XSP16, literal(-1)))
          CFI DPL0 load(1, XDATA, add(CFA_XSP16, literal(-2)))
          CFI ?BRET_EXT load(1, XDATA, add(CFA_XSP16, literal(-3)))
          CFI ?RET_HIGH load(1, XDATA, add(CFA_XSP16, literal(-4)))
          CFI ?RET_LOW load(1, XDATA, add(CFA_XSP16, literal(-5)))
          CFI R7 load(1, XDATA, add(CFA_XSP16, literal(-6)))
          CFI V0 load(1, XDATA, add(CFA_XSP16, literal(-7)))
          CFI VB load(1, XDATA, add(CFA_XSP16, literal(-8)))
          CFI R6 load(1, XDATA, add(CFA_XSP16, literal(-9)))
          CFI CFA_SP SP+0
          CFI CFA_XSP16 add(XSP16, 9)
        ; Saved register size: 9
        ; Auto size: 0
//  886   uint8 rxLen = Hal_UART_RxBufLen(HAL_UART_PORT_0);
        ; Setup parameters for call to function Hal_UART_RxBufLen
        MOV       R1,#0x0
        LCALL     `??Hal_UART_RxBufLen::?relay`; Banked call to: Hal_UART_RxBufLen
        MOV       A,R2
//  887   
//  888   if(rxLen != 0)
        JZ        ??zclSampleSw_UartCB_0
//  889   {
//  890     HalUARTRead(HAL_UART_PORT_0  ,  zclSampleSw_UartBuf , rxLen);
        MOV       R6,A
        ; Setup parameters for call to function HalUARTRead
        MOV       R4,A
        MOV       R5,#0x0
        MOV       R2,#zclSampleSw_UartBuf & 0xff
        MOV       R3,#(zclSampleSw_UartBuf >> 8) & 0xff
        MOV       R1,#0x0
        LCALL     `??HalUARTRead::?relay`; Banked call to: HalUARTRead
//  891     HalUARTWrite(HAL_UART_PORT_0 ,  zclSampleSw_UartBuf , rxLen);
        ; Setup parameters for call to function HalUARTWrite
        MOV       A,R6
        MOV       R4,A
        MOV       R5,#0x0
        MOV       R2,#zclSampleSw_UartBuf & 0xff
        MOV       R3,#(zclSampleSw_UartBuf >> 8) & 0xff
        MOV       R1,#0x0
        LCALL     `??HalUARTWrite::?relay`; Banked call to: HalUARTWrite
//  892   }
//  893 }
??zclSampleSw_UartCB_0:
        LJMP      ?Subroutine0 & 0xFFFF
          CFI EndBlock cfiBlock28
//  894 
//  895 
//  896 //œ¬√Ê’‚∏ˆ∫Ø ˝ «÷’∂À∑¢ÀÕ ˝æ›µΩ–≠µ˜∆˜∫Ø ˝
//  897 #ifdef ZDO_COORDINATOR  // Coordinator!
//  898 #else

        RSEG BANKED_CODE:HUGECODE:NOROOT(0)
//  899   static void zclSampleSw_ReportTest(void)
zclSampleSw_ReportTest:
          CFI Block cfiBlock29 Using cfiCommon0
          CFI Function zclSampleSw_ReportTest
        CODE
//  900   {
        FUNCALL zclSampleSw_ReportTest, osal_mem_alloc
        LOCFRAME ISTACK, 0, STACK
        LOCFRAME PSTACK, 0, STACK
        LOCFRAME XSTACK, 34, STACK
        LOCFRAME IOVERLAY, 0, STATIC
        LOCFRAME DOVERLAY, 0, STATIC
        ARGFRAME ISTACK, 0, STACK
        ARGFRAME PSTACK, 0, STACK
        ARGFRAME XSTACK, 34, STACK
        ARGFRAME IOVERLAY, 0, STATIC
        ARGFRAME DOVERLAY, 0, STATIC
        FUNCALL zclSampleSw_ReportTest, osal_mem_alloc
        LOCFRAME ISTACK, 0, STACK
        LOCFRAME PSTACK, 0, STACK
        LOCFRAME XSTACK, 34, STACK
        LOCFRAME IOVERLAY, 0, STATIC
        LOCFRAME DOVERLAY, 0, STATIC
        ARGFRAME ISTACK, 0, STACK
        ARGFRAME PSTACK, 0, STACK
        ARGFRAME XSTACK, 34, STACK
        ARGFRAME IOVERLAY, 0, STATIC
        ARGFRAME DOVERLAY, 0, STATIC
        FUNCALL zclSampleSw_ReportTest, zcl_SendReportCmd
        LOCFRAME ISTACK, 0, STACK
        LOCFRAME PSTACK, 0, STACK
        LOCFRAME XSTACK, 39, STACK
        LOCFRAME IOVERLAY, 0, STATIC
        LOCFRAME DOVERLAY, 0, STATIC
        ARGFRAME ISTACK, 0, STACK
        ARGFRAME PSTACK, 0, STACK
        ARGFRAME XSTACK, 39, STACK
        ARGFRAME IOVERLAY, 0, STATIC
        ARGFRAME DOVERLAY, 0, STATIC
        FUNCALL zclSampleSw_ReportTest, HalLcdWriteStringValue
        LOCFRAME ISTACK, 0, STACK
        LOCFRAME PSTACK, 0, STACK
        LOCFRAME XSTACK, 35, STACK
        LOCFRAME IOVERLAY, 0, STATIC
        LOCFRAME DOVERLAY, 0, STATIC
        ARGFRAME ISTACK, 0, STACK
        ARGFRAME PSTACK, 0, STACK
        ARGFRAME XSTACK, 35, STACK
        ARGFRAME IOVERLAY, 0, STATIC
        ARGFRAME DOVERLAY, 0, STATIC
        FUNCALL zclSampleSw_ReportTest, sprintf
        LOCFRAME ISTACK, 0, STACK
        LOCFRAME PSTACK, 0, STACK
        LOCFRAME XSTACK, 36, STACK
        LOCFRAME IOVERLAY, 0, STATIC
        LOCFRAME DOVERLAY, 0, STATIC
        ARGFRAME ISTACK, 0, STACK
        ARGFRAME PSTACK, 0, STACK
        ARGFRAME XSTACK, 36, STACK
        ARGFRAME IOVERLAY, 0, STATIC
        ARGFRAME DOVERLAY, 0, STATIC
        FUNCALL zclSampleSw_ReportTest, HalUARTWrite
        LOCFRAME ISTACK, 0, STACK
        LOCFRAME PSTACK, 0, STACK
        LOCFRAME XSTACK, 34, STACK
        LOCFRAME IOVERLAY, 0, STATIC
        LOCFRAME DOVERLAY, 0, STATIC
        ARGFRAME ISTACK, 0, STACK
        ARGFRAME PSTACK, 0, STACK
        ARGFRAME XSTACK, 34, STACK
        ARGFRAME IOVERLAY, 0, STATIC
        ARGFRAME DOVERLAY, 0, STATIC
        FUNCALL zclSampleSw_ReportTest, osal_strlen
        LOCFRAME ISTACK, 0, STACK
        LOCFRAME PSTACK, 0, STACK
        LOCFRAME XSTACK, 34, STACK
        LOCFRAME IOVERLAY, 0, STATIC
        LOCFRAME DOVERLAY, 0, STATIC
        ARGFRAME ISTACK, 0, STACK
        ARGFRAME PSTACK, 0, STACK
        ARGFRAME XSTACK, 34, STACK
        ARGFRAME IOVERLAY, 0, STATIC
        ARGFRAME DOVERLAY, 0, STATIC
        FUNCALL zclSampleSw_ReportTest, HalUARTWrite
        LOCFRAME ISTACK, 0, STACK
        LOCFRAME PSTACK, 0, STACK
        LOCFRAME XSTACK, 34, STACK
        LOCFRAME IOVERLAY, 0, STATIC
        LOCFRAME DOVERLAY, 0, STATIC
        ARGFRAME ISTACK, 0, STACK
        ARGFRAME PSTACK, 0, STACK
        ARGFRAME XSTACK, 34, STACK
        ARGFRAME IOVERLAY, 0, STATIC
        ARGFRAME DOVERLAY, 0, STATIC
        FUNCALL zclSampleSw_ReportTest, osal_mem_free
        LOCFRAME ISTACK, 0, STACK
        LOCFRAME PSTACK, 0, STACK
        LOCFRAME XSTACK, 34, STACK
        LOCFRAME IOVERLAY, 0, STATIC
        LOCFRAME DOVERLAY, 0, STATIC
        ARGFRAME ISTACK, 0, STACK
        ARGFRAME PSTACK, 0, STACK
        ARGFRAME XSTACK, 34, STACK
        ARGFRAME IOVERLAY, 0, STATIC
        ARGFRAME DOVERLAY, 0, STATIC
        FUNCALL zclSampleSw_ReportTest, osal_mem_free
        LOCFRAME ISTACK, 0, STACK
        LOCFRAME PSTACK, 0, STACK
        LOCFRAME XSTACK, 34, STACK
        LOCFRAME IOVERLAY, 0, STATIC
        LOCFRAME DOVERLAY, 0, STATIC
        ARGFRAME ISTACK, 0, STACK
        ARGFRAME PSTACK, 0, STACK
        ARGFRAME XSTACK, 34, STACK
        ARGFRAME IOVERLAY, 0, STATIC
        ARGFRAME DOVERLAY, 0, STATIC
        REQUIRE ?V0
        REQUIRE ?V1
        REQUIRE ?V2
        REQUIRE ?V3
        MOV       A,#-0xc
        LCALL     ?BANKED_ENTER_XDATA
          CFI DPH0 load(1, XDATA, add(CFA_XSP16, literal(-1)))
          CFI DPL0 load(1, XDATA, add(CFA_XSP16, literal(-2)))
          CFI ?BRET_EXT load(1, XDATA, add(CFA_XSP16, literal(-3)))
          CFI ?RET_HIGH load(1, XDATA, add(CFA_XSP16, literal(-4)))
          CFI ?RET_LOW load(1, XDATA, add(CFA_XSP16, literal(-5)))
          CFI R7 load(1, XDATA, add(CFA_XSP16, literal(-6)))
          CFI V3 load(1, XDATA, add(CFA_XSP16, literal(-7)))
          CFI V2 load(1, XDATA, add(CFA_XSP16, literal(-8)))
          CFI V1 load(1, XDATA, add(CFA_XSP16, literal(-9)))
          CFI V0 load(1, XDATA, add(CFA_XSP16, literal(-10)))
          CFI VB load(1, XDATA, add(CFA_XSP16, literal(-11)))
          CFI R6 load(1, XDATA, add(CFA_XSP16, literal(-12)))
          CFI CFA_SP SP+0
          CFI CFA_XSP16 add(XSP16, 12)
        ; Saved register size: 12
        ; Auto size: 22
        MOV       A,#-0x16
        LCALL     ?ALLOC_XSTACK8
          CFI CFA_XSP16 add(XSP16, 34)
//  901       static uint8 seqNum = 0;
//  902       char seqNumstr[10];
//  903       zclReportCmd_t *reportCmd;
//  904      
//  905       afAddrType_t destAddr;
//  906       destAddr.addrMode = afAddr16Bit;
        MOV       A,#0x8
        LCALL     ?XSTACK_DISP0_8
        MOV       A,#0x2
        MOVX      @DPTR,A
//  907       destAddr.endPoint = SAMPLESW_ENDPOINT;
        MOV       A,#0x9
        LCALL     ?XSTACK_DISP0_8
        MOV       A,#0x8
        MOVX      @DPTR,A
//  908       destAddr.addr.shortAddr = 0x0000;
        MOV       DPL,?XSP + 0
        MOV       DPH,?XSP + 1
        CLR       A
        MOVX      @DPTR,A
        INC       DPTR
        MOVX      @DPTR,A
//  909         
//  910       reportCmd = (zclReportCmd_t *)osal_mem_alloc(sizeof(zclReportCmd_t) + 
//  911                                                    sizeof(zclReport_t));
        ; Setup parameters for call to function osal_mem_alloc
        MOV       R2,#0x6
        MOV       R3,A
        LCALL     `??osal_mem_alloc::?relay`; Banked call to: osal_mem_alloc
        MOV       ?V0,R2
        MOV       ?V1,R3
//  912       if(reportCmd == NULL)
        MOV       A,R2
        ORL       A,R3
        JNZ       $+5
        LJMP      ??zclSampleSw_ReportTest_0 & 0xFFFF
//  913         return;
//  914       
//  915       reportCmd->attrList[0].attrData = (uint8 *)osal_mem_alloc(sizeof(uint8));
        ; Setup parameters for call to function osal_mem_alloc
        MOV       R2,#0x1
        MOV       R3,#0x0
        LCALL     `??osal_mem_alloc::?relay`; Banked call to: osal_mem_alloc
        MOV       A,?V0
        ADD       A,#0x4
        MOV       R0,A
        CLR       A
        ADDC      A,?V1
        MOV       R1,A
        MOV       A,R0
        MOV       R6,A
        MOV       A,R1
        MOV       R7,A
        MOV       DPL,R0
        MOV       DPH,A
        MOV       A,R2
        MOVX      @DPTR,A
        INC       DPTR
        MOV       A,R3
        MOVX      @DPTR,A
//  916       if(reportCmd->attrList[0].attrData == NULL)
        MOV       A,R2
        ORL       A,R3
        JNZ       $+5
        LJMP      ??zclSampleSw_ReportTest_0 & 0xFFFF
//  917         return;
//  918       
//  919       reportCmd->numAttr = 1;
        MOV       DPL,?V0
        MOV       DPH,?V1
        MOV       A,#0x1
        MOVX      @DPTR,A
//  920       reportCmd->attrList[0].attrID = ATTRID_ON_OFF_SWITCH_TYPE;
        INC       DPTR
        CLR       A
        MOVX      @DPTR,A
        INC       DPTR
        MOVX      @DPTR,A
//  921       reportCmd->attrList[0].dataType = ZCL_DATATYPE_ENUM8;
        MOV       DPL,?V0
        MOV       DPH,?V1
        INC       DPTR
        INC       DPTR
        INC       DPTR
        MOV       A,#0x30
        MOVX      @DPTR,A
//  922       *((uint8 *)(reportCmd->attrList[0].attrData)) = seqNum;
        MOV       DPTR,#??seqNum
        MOVX      A,@DPTR
        PUSH      A
          CFI CFA_SP SP+-1
        MOV       DPL,R0
        MOV       DPH,R1
        LCALL     ?Subroutine5 & 0xFFFF
??CrossCallReturnLabel_1:
        POP       A
          CFI CFA_SP SP+0
        MOVX      @DPTR,A
//  923       
//  924       zcl_SendReportCmd( SAMPLESW_ENDPOINT, 
//  925                          &destAddr,
//  926                          ZCL_CLUSTER_ID_GEN_ON_OFF_SWITCH_CONFIG, 
//  927                          reportCmd,
//  928                          ZCL_FRAME_CLIENT_SERVER_DIR, 
//  929                          TRUE, 
//  930                          seqNum++ );
        MOV       DPTR,#??seqNum
        MOVX      A,@DPTR
        MOV       R0,A
        MOV       A,#0x1
        ADD       A,R0
        MOVX      @DPTR,A
        ; Setup parameters for call to function zcl_SendReportCmd
        MOV       A,R0
        MOV       ?V2,A
        MOV       R0,#?V2
        LCALL     ?PUSH_XSTACK_I_ONE
          CFI CFA_XSP16 add(XSP16, 35)
        MOV       ?V2,#0x1
        MOV       R0,#?V2
        LCALL     ?PUSH_XSTACK_I_ONE
          CFI CFA_XSP16 add(XSP16, 36)
        MOV       ?V2,#0x0
        MOV       R0,#?V2
        LCALL     ?PUSH_XSTACK_I_ONE
          CFI CFA_XSP16 add(XSP16, 37)
        MOV       R0,#?V0
        LCALL     ?PUSH_XSTACK_I_TWO
          CFI CFA_XSP16 add(XSP16, 39)
        MOV       R4,#0x7
        MOV       R5,#0x0
        MOV       A,#0x5
        LCALL     ?XSTACK_DISP101_8
        MOV       R1,#0x8
        LCALL     `??zcl_SendReportCmd::?relay`; Banked call to: zcl_SendReportCmd
        MOV       A,#0x5
        LCALL     ?DEALLOC_XSTACK8
          CFI CFA_XSP16 add(XSP16, 34)
//  931       
//  932       HalLcdWriteStringValue("Report: ", (seqNum-1), 10, 4);
        ; Setup parameters for call to function HalLcdWriteStringValue
        MOV       ?V2,#0x4
        MOV       R0,#?V2
        LCALL     ?PUSH_XSTACK_I_ONE
          CFI CFA_XSP16 add(XSP16, 35)
        MOV       R1,#0xa
        MOV       DPTR,#??seqNum
        MOVX      A,@DPTR
        ADD       A,#-0x1
        MOV       R4,A
        CLR       A
        ADDC      A,#-0x1
        MOV       R5,A
        MOV       R2,#`?<Constant "Report: ">` & 0xff
        MOV       R3,#(`?<Constant "Report: ">` >> 8) & 0xff
        LCALL     `??HalLcdWriteStringValue::?relay`; Banked call to: HalLcdWriteStringValue
        MOV       A,#0x1
        LCALL     ?DEALLOC_XSTACK8
          CFI CFA_XSP16 add(XSP16, 34)
//  933       sprintf(seqNumstr,"%d\r\n",seqNum);
        ; Setup parameters for call to function sprintf
        MOV       DPTR,#??seqNum
        MOVX      A,@DPTR
        MOV       ?V2,A
        MOV       ?V3,#0x0
        MOV       R0,#?V2
        LCALL     ?PUSH_XSTACK_I_TWO
          CFI CFA_XSP16 add(XSP16, 36)
        MOV       R4,#`?<Constant "%d\\r\\n">` & 0xff
        MOV       R5,#(`?<Constant "%d\\r\\n">` >> 8) & 0xff
        MOV       A,#0xe
        LCALL     ?XSTACK_DISP101_8
        LCALL     `??sprintf::?relay`; Banked call to: sprintf
        MOV       A,#0x2
        LCALL     ?DEALLOC_XSTACK8
          CFI CFA_XSP16 add(XSP16, 34)
//  934       HalUARTWrite(HAL_UART_PORT_0 ,  "seqNum:" , 7);
        ; Setup parameters for call to function HalUARTWrite
        MOV       R4,#0x7
        MOV       R5,#0x0
        MOV       R2,#`?<Constant "seqNum:">` & 0xff
        MOV       R3,#(`?<Constant "seqNum:">` >> 8) & 0xff
        MOV       R1,#0x0
        LCALL     `??HalUARTWrite::?relay`; Banked call to: HalUARTWrite
//  935       HalUARTWrite(HAL_UART_PORT_0 , (uint8 *)seqNumstr , osal_strlen(seqNumstr));
        ; Setup parameters for call to function osal_strlen
        MOV       A,#0xc
        LCALL     ?XSTACK_DISP101_8
        LCALL     `??osal_strlen::?relay`; Banked call to: osal_strlen
        MOV       ?V2,R2
        MOV       ?V3,R3
        MOV       R4,?V2
        MOV       R5,?V3
        ; Setup parameters for call to function HalUARTWrite
        MOV       A,#0xc
        LCALL     ?XSTACK_DISP101_8
        MOV       R1,#0x0
        LCALL     `??HalUARTWrite::?relay`; Banked call to: HalUARTWrite
//  936       osal_mem_free(reportCmd->attrList[0].attrData);
        ; Setup parameters for call to function osal_mem_free
        MOV       DPL,R6
        MOV       DPH,R7
        MOVX      A,@DPTR
        MOV       R2,A
        INC       DPTR
        MOVX      A,@DPTR
        MOV       R3,A
        LCALL     `??osal_mem_free::?relay`; Banked call to: osal_mem_free
//  937       osal_mem_free(reportCmd);
        ; Setup parameters for call to function osal_mem_free
        MOV       R2,?V0
        MOV       R3,?V1
        LCALL     `??osal_mem_free::?relay`; Banked call to: osal_mem_free
//  938   }
??zclSampleSw_ReportTest_0:
        MOV       A,#0x16
        LCALL     ?DEALLOC_XSTACK8
          CFI CFA_XSP16 add(XSP16, 12)
        LJMP      ?Subroutine1 & 0xFFFF
          CFI EndBlock cfiBlock29

        RSEG BANKED_CODE:HUGECODE:NOROOT(0)
?Subroutine5:
          CFI Block cfiCond30 Using cfiCommon0
          CFI Function zclSampleSw_ProcessIncomingMsg
          CFI Conditional ??CrossCallReturnLabel_0
          CFI R6 load(1, XDATA, add(CFA_XSP16, literal(-14)))
          CFI VB load(1, XDATA, add(CFA_XSP16, literal(-13)))
          CFI V0 load(1, XDATA, add(CFA_XSP16, literal(-12)))
          CFI V1 load(1, XDATA, add(CFA_XSP16, literal(-11)))
          CFI V2 load(1, XDATA, add(CFA_XSP16, literal(-10)))
          CFI V3 load(1, XDATA, add(CFA_XSP16, literal(-9)))
          CFI V4 load(1, XDATA, add(CFA_XSP16, literal(-8)))
          CFI V5 load(1, XDATA, add(CFA_XSP16, literal(-7)))
          CFI R7 load(1, XDATA, add(CFA_XSP16, literal(-6)))
          CFI ?RET_LOW load(1, XDATA, add(CFA_XSP16, literal(-5)))
          CFI ?RET_HIGH load(1, XDATA, add(CFA_XSP16, literal(-4)))
          CFI ?BRET_EXT load(1, XDATA, add(CFA_XSP16, literal(-3)))
          CFI DPL0 load(1, XDATA, add(CFA_XSP16, literal(-2)))
          CFI DPH0 load(1, XDATA, add(CFA_XSP16, literal(-1)))
          CFI CFA_SP SP+-2
          CFI CFA_XSP16 add(XSP16, 15)
          CFI Block cfiCond31 Using cfiCommon0
          CFI (cfiCond31) Function zclSampleSw_ReportTest
          CFI (cfiCond31) Conditional ??CrossCallReturnLabel_1
          CFI (cfiCond31) R6 load(1, XDATA, add(CFA_XSP16, literal(-12)))
          CFI (cfiCond31) VB load(1, XDATA, add(CFA_XSP16, literal(-11)))
          CFI (cfiCond31) V0 load(1, XDATA, add(CFA_XSP16, literal(-10)))
          CFI (cfiCond31) V1 load(1, XDATA, add(CFA_XSP16, literal(-9)))
          CFI (cfiCond31) V2 load(1, XDATA, add(CFA_XSP16, literal(-8)))
          CFI (cfiCond31) V3 load(1, XDATA, add(CFA_XSP16, literal(-7)))
          CFI (cfiCond31) R7 load(1, XDATA, add(CFA_XSP16, literal(-6)))
          CFI (cfiCond31) ?RET_LOW load(1, XDATA, add(CFA_XSP16, literal(-5)))
          CFI (cfiCond31) ?RET_HIGH load(1, XDATA, add(CFA_XSP16, literal(-4)))
          CFI (cfiCond31) ?BRET_EXT load(1, XDATA, add(CFA_XSP16, literal(-3)))
          CFI (cfiCond31) DPL0 load(1, XDATA, add(CFA_XSP16, literal(-2)))
          CFI (cfiCond31) DPH0 load(1, XDATA, add(CFA_XSP16, literal(-1)))
          CFI (cfiCond31) CFA_XSP16 add(XSP16, 34)
          CFI Block cfiPicker32 Using cfiCommon1
          CFI (cfiPicker32) NoFunction
          CFI (cfiPicker32) Picker
        MOVX      A,@DPTR
        MOV       R0,A
        INC       DPTR
        MOVX      A,@DPTR
        MOV       DPH,A
        MOV       DPL,R0
        RET
          CFI EndBlock cfiCond30
          CFI EndBlock cfiCond31
          CFI EndBlock cfiPicker32

        RSEG XDATA_Z:XDATA:NOROOT(0)
        DATA8
??seqNum:
        DS 1
        REQUIRE __INIT_XDATA_Z

        RSEG XDATA_ID:CODE:NOROOT(0)
`?<Initializer for zclSampleSw_OnOffSwitchType>`:
        DATA8
        DB 1

        RSEG XDATA_ID:CODE:NOROOT(0)
`?<Initializer for sampleSw_TestEp>`:
        DATA8
        DB 8
        DB 0
        DATA16
        DW zclSampleSw_TaskID
        DW 0H
        DATA8
        DB 0

        RSEG XDATA_ID:CODE:NOROOT(0)
`?<Initializer for zclSampleSw_NwkState>`:
        DATA8
        DB 1

        RSEG XDATA_ID:CODE:NOROOT(0)
`?<Initializer for zclSampleSw_CmdCallbacks>`:
        DATA16
        DW `??zclSampleSw_BasicResetCB::?relay`
        DW 0H
        DW 0H
        DW 0H
        DW 0H
        DW 0H
        DW 0H
        DW 0H
        DW 0H

        RSEG BANK_RELAYS:CODE:REORDER:NOROOT(0)
`??zclSampleSw_Init::?relay`:
        CODE
        LCALL   ?BDISPATCH
        DATA24
        DC24    zclSampleSw_Init

        RSEG BANK_RELAYS:CODE:REORDER:NOROOT(0)
`??zclSampleSw_event_loop::?relay`:
        CODE
        LCALL   ?BDISPATCH
        DATA24
        DC24    zclSampleSw_event_loop

        RSEG BANK_RELAYS:CODE:REORDER:NOROOT(0)
`??zclSampleSw_ProcessCommissioningStatus::?rela`:
        CODE
        LCALL   ?BDISPATCH
        DATA24
        DC24    zclSampleSw_ProcessCommissioningStatus

        RSEG BANK_RELAYS:CODE:REORDER:NOROOT(0)
`??zclSampleSw_BasicResetCB::?relay`:
        CODE
        LCALL   ?BDISPATCH
        DATA24
        DC24    zclSampleSw_BasicResetCB

        RSEG BANK_RELAYS:CODE:REORDER:NOROOT(0)
`??zclSampleSw_ProcessIncomingMsg::?relay`:
        CODE
        LCALL   ?BDISPATCH
        DATA24
        DC24    zclSampleSw_ProcessIncomingMsg

        RSEG BANK_RELAYS:CODE:REORDER:NOROOT(0)
`??zclSampleSw_ProcessInDiscCmdsRspCmd::?relay`:
        CODE
        LCALL   ?BDISPATCH
        DATA24
        DC24    zclSampleSw_ProcessInDiscCmdsRspCmd

        RSEG BANK_RELAYS:CODE:REORDER:NOROOT(0)
`??zclSampleSw_UartCB::?relay`:
        CODE
        LCALL   ?BDISPATCH
        DATA24
        DC24    zclSampleSw_UartCB

        RSEG BANK_RELAYS:CODE:REORDER:NOROOT(0)
`??zclSampleSw_ReportTest::?relay`:
        CODE
        LCALL   ?BDISPATCH
        DATA24
        DC24    zclSampleSw_ReportTest

        RSEG XDATA_ROM_C:CONST:REORDER:NOROOT(0)
        DATA8
`?<Constant "UART0 Init Succeed\\r\\n">`:
        DB "UART0 Init Succeed\015\012"

        RSEG XDATA_ROM_C:CONST:REORDER:NOROOT(0)
        DATA8
`?<Constant "Read:">`:
        DB "Read:"

        RSEG XDATA_ROM_C:CONST:REORDER:NOROOT(0)
        DATA8
`?<Constant "Report: ">`:
        DB "Report: "

        RSEG XDATA_ROM_C:CONST:REORDER:NOROOT(0)
        DATA8
`?<Constant "%d\\r\\n">`:
        DB "%d\015\012"

        RSEG XDATA_ROM_C:CONST:REORDER:NOROOT(0)
        DATA8
`?<Constant "seqNum:">`:
        DB "seqNum:"

        RSEG XDATA_ROM_C:CONST:REORDER:NOROOT(0)
        DATA32
__Constant_bb8:
        DD 3000

        RSEG XDATA_ROM_C:CONST:REORDER:NOROOT(0)
        DATA32
__Constant_1f4:
        DD 500

        RSEG XDATA_ROM_C:CONST:REORDER:NOROOT(0)
        DATA32
__Constant_3e8:
        DD 1000

        END
//  939 #endif
// 
// 1 256 bytes in segment BANKED_CODE
//    48 bytes in segment BANK_RELAYS
//    27 bytes in segment XDATA_I
//    27 bytes in segment XDATA_ID
//    61 bytes in segment XDATA_ROM_C
//   144 bytes in segment XDATA_Z
// 
//    75 bytes of CODE     memory
//    49 bytes of CONST    memory (+ 12 bytes shared)
// 1 256 bytes of HUGECODE memory
//   171 bytes of XDATA    memory
//
//Errors: none
//Warnings: none
