###############################################################################
#
# IAR C/C++ Compiler V10.20.1.5333 for 8051               28/Apr/2026  20:22:09
# Copyright 2004-2018 IAR Systems AB.
# PC-locked license - IAR Embedded Workbench for 8051
#
#    Core               =  plain
#    Code model         =  banked
#    Data model         =  large
#    Calling convention =  xdata reentrant
#    Constant location  =  data_rom
#    Dptr setup         =  1,16
#                          
#    Source file        =  
#        E:\BaiduNetdiskDownload\´đ°¸\ĘµŃéČý ZigBee´úÂë\Z-Stack 3.0.1\Z-Stack
#        3.0.1\Components\stack\af\AF.c
#    Command line       =  
#        -f C:\Users\ZH\AppData\Local\Temp\EW4A1C.tmp
#        ("E:\BaiduNetdiskDownload\´đ°¸\ĘµŃéČý ZigBee´úÂë\Z-Stack 3.0.1\Z-Stack
#        3.0.1\Components\stack\af\AF.c" -D SECURE=1 -D TC_LINKKEY_JOIN -D
#        NV_INIT -D NV_RESTORE -D xZTOOL_P1 -D xMT_TASK -D xMT_APP_FUNC -D
#        xMT_SYS_FUNC -D xMT_ZDO_FUNC -D xMT_ZDO_MGMT -D xMT_APP_CNF_FUNC -D
#        LCD_SUPPORTED=DEBUG -D MULTICAST_ENABLED=FALSE -D ZCL_READ -D
#        ZCL_DISCOVER -D ZCL_WRITE -D ZCL_BASIC -D ZCL_IDENTIFY -D ZCL_ON_OFF
#        -D ZCL_GROUPS -D ZCL_REPORT_DESTINATION_DEVICE -D ZCL_REPORT -D
#        HAL_LED=TRUE -D HAL_KEY=TRUE -D ISR_KEYINTERRUPT -D HAL_UART=TRUE -D
#        INT_HEAP_LEN=2300 -D HAL_LCD=TRUE -D xHAL_LCD_OLED12864 -D
#        HAL_ADC=TRUE -D HAL_UART=TRUE -D INT_HEAP_LEN=2048 -lC
#        "E:\BaiduNetdiskDownload\´đ°¸\ĘµŃéČý ZigBee´úÂë\Z-Stack 3.0.1\Z-Stack
#        3.0.1\Projects\zstack\HomeAutomation\SampleSwitch\CC2530DB\CoordinatorEB\List"
#        -lA "E:\BaiduNetdiskDownload\´đ°¸\ĘµŃéČý ZigBee´úÂë\Z-Stack
#        3.0.1\Z-Stack
#        3.0.1\Projects\zstack\HomeAutomation\SampleSwitch\CC2530DB\CoordinatorEB\List"
#        --diag_suppress Pe001,Pa010 -o "E:\BaiduNetdiskDownload\´đ°¸\ĘµŃéČý
#        ZigBee´úÂë\Z-Stack 3.0.1\Z-Stack
#        3.0.1\Projects\zstack\HomeAutomation\SampleSwitch\CC2530DB\CoordinatorEB\Obj"
#        -e --debug --core=plain --dptr=16,1 --data_model=large
#        --code_model=banked --calling_convention=xdata_reentrant
#        --place_constants=data_rom --nr_virtual_regs 8 -f
#        "E:\BaiduNetdiskDownload\´đ°¸\ĘµŃéČý ZigBee´úÂë\Z-Stack 3.0.1\Z-Stack
#        3.0.1\Projects\zstack\HomeAutomation\SampleSwitch\CC2530DB\..\..\..\Tools\CC2530DB\f8wCoord.cfg"
#        (-DCPU32MHZ -DROOT=__near_func -DMAC_CFG_APP_PENDING_QUEUE=TRUE
#        -DMAC_CFG_TX_DATA_MAX=5 -DMAC_CFG_TX_MAX=8 -DMAC_CFG_RX_MAX=5
#        -DZDO_COORDINATOR -DRTR_NWK) -f "E:\BaiduNetdiskDownload\´đ°¸\ĘµŃéČý
#        ZigBee´úÂë\Z-Stack 3.0.1\Z-Stack
#        3.0.1\Projects\zstack\HomeAutomation\SampleSwitch\CC2530DB\..\..\..\Tools\CC2530DB\f8wConfig.cfg"
#        (-DZIGBEEPRO -DSECURE=1 -DZG_SECURE_DYNAMIC=0 -DREFLECTOR
#        -DDEFAULT_CHANLIST=0x00000800 -DZDAPP_CONFIG_PAN_ID=0xFFFF
#        -DNWK_START_DELAY=100 -DEXTENDED_JOINING_RANDOM_MASK=0x007F
#        -DBEACON_REQUEST_DELAY=100 -DBEACON_REQ_DELAY_MASK=0x00FF
#        -DLINK_STATUS_JITTER_MASK=0x007F -DROUTE_EXPIRY_TIME=30
#        -DAPSC_ACK_WAIT_DURATION_POLLED=3000 -DNWK_INDIRECT_MSG_TIMEOUT=7
#        -DMAX_RREQ_ENTRIES=8 -DAPSC_MAX_FRAME_RETRIES=3
#        -DNWK_MAX_DATA_RETRIES=2 -DMAX_POLL_FAILURE_RETRIES=2 -DMAX_BCAST=9
#        -DAPS_MAX_GROUPS=16 -DMAX_RTG_ENTRIES=40 -DNWK_MAX_BINDING_ENTRIES=4
#        -DMAX_BINDING_CLUSTER_IDS=4 -DDEFAULT_KEY={0} -DMAC_MAX_FRAME_SIZE=116
#        -DZDNWKMGR_MIN_TRANSMISSIONS=20 "-DCONST=const __code"
#        -DGENERIC=__generic -DRFD_RCVC_ALWAYS_ON=FALSE -DPOLL_RATE=1000
#        -DQUEUED_POLL_RATE=100 -DRESPONSE_POLL_RATE=100 -DREJOIN_POLL_RATE=440
#        -DREJOIN_BACKOFF=900000 -DREJOIN_SCAN=900000 -DENABLE_LED4_DISABLE_S1)
#        -f "E:\BaiduNetdiskDownload\´đ°¸\ĘµŃéČý ZigBee´úÂë\Z-Stack
#        3.0.1\Z-Stack
#        3.0.1\Projects\zstack\HomeAutomation\SampleSwitch\CC2530DB\..\..\..\Tools\CC2530DB\f8wZCL.cfg"
#        -I "E:\BaiduNetdiskDownload\´đ°¸\ĘµŃéČý ZigBee´úÂë\Z-Stack
#        3.0.1\Z-Stack
#        3.0.1\Projects\zstack\HomeAutomation\SampleSwitch\CC2530DB\" -I
#        "E:\BaiduNetdiskDownload\´đ°¸\ĘµŃéČý ZigBee´úÂë\Z-Stack 3.0.1\Z-Stack
#        3.0.1\Projects\zstack\HomeAutomation\SampleSwitch\CC2530DB\..\Source\"
#        -I "E:\BaiduNetdiskDownload\´đ°¸\ĘµŃéČý ZigBee´úÂë\Z-Stack
#        3.0.1\Z-Stack
#        3.0.1\Projects\zstack\HomeAutomation\SampleSwitch\CC2530DB\..\..\Source\"
#        -I "E:\BaiduNetdiskDownload\´đ°¸\ĘµŃéČý ZigBee´úÂë\Z-Stack
#        3.0.1\Z-Stack
#        3.0.1\Projects\zstack\HomeAutomation\SampleSwitch\CC2530DB\..\..\..\ZMain\TI2530DB\"
#        -I "E:\BaiduNetdiskDownload\´đ°¸\ĘµŃéČý ZigBee´úÂë\Z-Stack
#        3.0.1\Z-Stack
#        3.0.1\Projects\zstack\HomeAutomation\SampleSwitch\CC2530DB\..\..\..\..\..\Components\hal\include\"
#        -I "E:\BaiduNetdiskDownload\´đ°¸\ĘµŃéČý ZigBee´úÂë\Z-Stack
#        3.0.1\Z-Stack
#        3.0.1\Projects\zstack\HomeAutomation\SampleSwitch\CC2530DB\..\..\..\..\..\Components\hal\target\CC2530EB\"
#        -I "E:\BaiduNetdiskDownload\´đ°¸\ĘµŃéČý ZigBee´úÂë\Z-Stack
#        3.0.1\Z-Stack
#        3.0.1\Projects\zstack\HomeAutomation\SampleSwitch\CC2530DB\..\..\..\..\..\Components\mac\include\"
#        -I "E:\BaiduNetdiskDownload\´đ°¸\ĘµŃéČý ZigBee´úÂë\Z-Stack
#        3.0.1\Z-Stack
#        3.0.1\Projects\zstack\HomeAutomation\SampleSwitch\CC2530DB\..\..\..\..\..\Components\mac\high_level\"
#        -I "E:\BaiduNetdiskDownload\´đ°¸\ĘµŃéČý ZigBee´úÂë\Z-Stack
#        3.0.1\Z-Stack
#        3.0.1\Projects\zstack\HomeAutomation\SampleSwitch\CC2530DB\..\..\..\..\..\Components\mac\low_level\srf04\"
#        -I "E:\BaiduNetdiskDownload\´đ°¸\ĘµŃéČý ZigBee´úÂë\Z-Stack
#        3.0.1\Z-Stack
#        3.0.1\Projects\zstack\HomeAutomation\SampleSwitch\CC2530DB\..\..\..\..\..\Components\mac\low_level\srf04\single_chip\"
#        -I "E:\BaiduNetdiskDownload\´đ°¸\ĘµŃéČý ZigBee´úÂë\Z-Stack
#        3.0.1\Z-Stack
#        3.0.1\Projects\zstack\HomeAutomation\SampleSwitch\CC2530DB\..\..\..\..\..\Components\mt\"
#        -I "E:\BaiduNetdiskDownload\´đ°¸\ĘµŃéČý ZigBee´úÂë\Z-Stack
#        3.0.1\Z-Stack
#        3.0.1\Projects\zstack\HomeAutomation\SampleSwitch\CC2530DB\..\..\..\..\..\Components\osal\include\"
#        -I "E:\BaiduNetdiskDownload\´đ°¸\ĘµŃéČý ZigBee´úÂë\Z-Stack
#        3.0.1\Z-Stack
#        3.0.1\Projects\zstack\HomeAutomation\SampleSwitch\CC2530DB\..\..\..\..\..\Components\services\saddr\"
#        -I "E:\BaiduNetdiskDownload\´đ°¸\ĘµŃéČý ZigBee´úÂë\Z-Stack
#        3.0.1\Z-Stack
#        3.0.1\Projects\zstack\HomeAutomation\SampleSwitch\CC2530DB\..\..\..\..\..\Components\services\sdata\"
#        -I "E:\BaiduNetdiskDownload\´đ°¸\ĘµŃéČý ZigBee´úÂë\Z-Stack
#        3.0.1\Z-Stack
#        3.0.1\Projects\zstack\HomeAutomation\SampleSwitch\CC2530DB\..\..\..\..\..\Components\stack\af\"
#        -I "E:\BaiduNetdiskDownload\´đ°¸\ĘµŃéČý ZigBee´úÂë\Z-Stack
#        3.0.1\Z-Stack
#        3.0.1\Projects\zstack\HomeAutomation\SampleSwitch\CC2530DB\..\..\..\..\..\Components\stack\bdb\"
#        -I "E:\BaiduNetdiskDownload\´đ°¸\ĘµŃéČý ZigBee´úÂë\Z-Stack
#        3.0.1\Z-Stack
#        3.0.1\Projects\zstack\HomeAutomation\SampleSwitch\CC2530DB\..\..\..\..\..\Components\stack\gp\"
#        -I "E:\BaiduNetdiskDownload\´đ°¸\ĘµŃéČý ZigBee´úÂë\Z-Stack
#        3.0.1\Z-Stack
#        3.0.1\Projects\zstack\HomeAutomation\SampleSwitch\CC2530DB\..\..\..\..\..\Components\stack\nwk\"
#        -I "E:\BaiduNetdiskDownload\´đ°¸\ĘµŃéČý ZigBee´úÂë\Z-Stack
#        3.0.1\Z-Stack
#        3.0.1\Projects\zstack\HomeAutomation\SampleSwitch\CC2530DB\..\..\..\..\..\Components\stack\sapi\"
#        -I "E:\BaiduNetdiskDownload\´đ°¸\ĘµŃéČý ZigBee´úÂë\Z-Stack
#        3.0.1\Z-Stack
#        3.0.1\Projects\zstack\HomeAutomation\SampleSwitch\CC2530DB\..\..\..\..\..\Components\stack\sec\"
#        -I "E:\BaiduNetdiskDownload\´đ°¸\ĘµŃéČý ZigBee´úÂë\Z-Stack
#        3.0.1\Z-Stack
#        3.0.1\Projects\zstack\HomeAutomation\SampleSwitch\CC2530DB\..\..\..\..\..\Components\stack\sys\"
#        -I "E:\BaiduNetdiskDownload\´đ°¸\ĘµŃéČý ZigBee´úÂë\Z-Stack
#        3.0.1\Z-Stack
#        3.0.1\Projects\zstack\HomeAutomation\SampleSwitch\CC2530DB\..\..\..\..\..\Components\stack\zcl\"
#        -I "E:\BaiduNetdiskDownload\´đ°¸\ĘµŃéČý ZigBee´úÂë\Z-Stack
#        3.0.1\Z-Stack
#        3.0.1\Projects\zstack\HomeAutomation\SampleSwitch\CC2530DB\..\..\..\..\..\Components\stack\zdo\"
#        -I "E:\BaiduNetdiskDownload\´đ°¸\ĘµŃéČý ZigBee´úÂë\Z-Stack
#        3.0.1\Z-Stack
#        3.0.1\Projects\zstack\HomeAutomation\SampleSwitch\CC2530DB\..\..\..\..\..\Components\zmac\"
#        -I "E:\BaiduNetdiskDownload\´đ°¸\ĘµŃéČý ZigBee´úÂë\Z-Stack
#        3.0.1\Z-Stack
#        3.0.1\Projects\zstack\HomeAutomation\SampleSwitch\CC2530DB\..\..\..\..\..\Components\zmac\f8w\"
#        -I "E:\BaiduNetdiskDownload\´đ°¸\ĘµŃéČý ZigBee´úÂë\Z-Stack
#        3.0.1\Z-Stack
#        3.0.1\Projects\zstack\HomeAutomation\SampleSwitch\CC2530DB\..\..\..\..\..\Components\hal\target\CC2530EB\Common\"
#        -I "E:\BaiduNetdiskDownload\´đ°¸\ĘµŃéČý ZigBee´úÂë\Z-Stack
#        3.0.1\Z-Stack
#        3.0.1\Projects\zstack\HomeAutomation\SampleSwitch\CC2530DB\..\..\..\..\..\Components\hal\target\CC2530EB\SPI\"
#        -I "E:\BaiduNetdiskDownload\´đ°¸\ĘµŃéČý ZigBee´úÂë\Z-Stack
#        3.0.1\Z-Stack
#        3.0.1\Projects\zstack\HomeAutomation\SampleSwitch\CC2530DB\..\..\..\..\..\Components\hal\target\CC2530EB\HW_LCD\Font\"
#        -I "E:\BaiduNetdiskDownload\´đ°¸\ĘµŃéČý ZigBee´úÂë\Z-Stack
#        3.0.1\Z-Stack
#        3.0.1\Projects\zstack\HomeAutomation\SampleSwitch\CC2530DB\..\..\..\..\..\Components\hal\target\CC2530EB\HW_LCD\HAL_LCD_SPI\"
#        -I "E:\BaiduNetdiskDownload\´đ°¸\ĘµŃéČý ZigBee´úÂë\Z-Stack
#        3.0.1\Z-Stack
#        3.0.1\Projects\zstack\HomeAutomation\SampleSwitch\CC2530DB\..\..\..\..\..\Components\hal\target\CC2530EB\HW_LCD\HAL_OLED\"
#        -I "E:\BaiduNetdiskDownload\´đ°¸\ĘµŃéČý ZigBee´úÂë\Z-Stack
#        3.0.1\Z-Stack
#        3.0.1\Projects\zstack\HomeAutomation\SampleSwitch\CC2530DB\..\..\..\..\..\Components\hal\target\CC2530EB\HW_LCD\HAL_TFT\"
#        -Ohz --require_prototypes)
#    Locale             =  Chinese (Simplified)_CHN.936
#    List file          =  
#        E:\BaiduNetdiskDownload\´đ°¸\ĘµŃéČý ZigBee´úÂë\Z-Stack 3.0.1\Z-Stack
#        3.0.1\Projects\zstack\HomeAutomation\SampleSwitch\CC2530DB\CoordinatorEB\List\AF.lst
#    Object file        =  
#        E:\BaiduNetdiskDownload\´đ°¸\ĘµŃéČý ZigBee´úÂë\Z-Stack 3.0.1\Z-Stack
#        3.0.1\Projects\zstack\HomeAutomation\SampleSwitch\CC2530DB\CoordinatorEB\Obj\AF.r51
#
###############################################################################

E:\BaiduNetdiskDownload\´đ°¸\ĘµŃéČý ZigBee´úÂë\Z-Stack 3.0.1\Z-Stack 3.0.1\Components\stack\af\AF.c
      1          /**************************************************************************************************
      2            Filename:       AF.c
      3            Revised:        $Date: 2014-11-04 10:53:36 -0800 (Tue, 04 Nov 2014) $
      4            Revision:       $Revision: 40974 $
      5          
      6            Description:    Application Framework - Device Description helper functions
      7          
      8          
      9            Copyright 2004-2014 Texas Instruments Incorporated. All rights reserved.
     10          
     11            IMPORTANT: Your use of this Software is limited to those specific rights
     12            granted under the terms of a software license agreement between the user
     13            who downloaded the software, his/her employer (which must be your employer)
     14            and Texas Instruments Incorporated (the "License").  You may not use this
     15            Software unless you agree to abide by the terms of the License. The License
     16            limits your use, and you acknowledge, that the Software may not be modified,
     17            copied or distributed unless embedded on a Texas Instruments microcontroller
     18            or used solely and exclusively in conjunction with a Texas Instruments radio
     19            frequency transceiver, which is integrated into your product.  Other than for
     20            the foregoing purpose, you may not use, reproduce, copy, prepare derivative
     21            works of, modify, distribute, perform, display or sell this Software and/or
     22            its documentation for any purpose.
     23          
     24            YOU FURTHER ACKNOWLEDGE AND AGREE THAT THE SOFTWARE AND DOCUMENTATION ARE
     25            PROVIDED "AS IS" WITHOUT WARRANTY OF ANY KIND, EITHER EXPRESS OR IMPLIED,
     26            INCLUDING WITHOUT LIMITATION, ANY WARRANTY OF MERCHANTABILITY, TITLE,
     27            NON-INFRINGEMENT AND FITNESS FOR A PARTICULAR PURPOSE. IN NO EVENT SHALL
     28            TEXAS INSTRUMENTS OR ITS LICENSORS BE LIABLE OR OBLIGATED UNDER CONTRACT,
     29            NEGLIGENCE, STRICT LIABILITY, CONTRIBUTION, BREACH OF WARRANTY, OR OTHER
     30            LEGAL EQUITABLE THEORY ANY DIRECT OR INDIRECT DAMAGES OR EXPENSES
     31            INCLUDING BUT NOT LIMITED TO ANY INCIDENTAL, SPECIAL, INDIRECT, PUNITIVE
     32            OR CONSEQUENTIAL DAMAGES, LOST PROFITS OR LOST DATA, COST OF PROCUREMENT
     33            OF SUBSTITUTE GOODS, TECHNOLOGY, SERVICES, OR ANY CLAIMS BY THIRD PARTIES
     34            (INCLUDING BUT NOT LIMITED TO ANY DEFENSE THEREOF), OR OTHER SIMILAR COSTS.
     35          
     36            Should you have any questions regarding your right to use this Software,
     37            contact Texas Instruments Incorporated at www.TI.com.
     38          **************************************************************************************************/
     39          
     40          /*********************************************************************
     41           * INCLUDES
     42           */
     43          
     44          #include "OSAL.h"
     45          #include "AF.h"
     46          #include "nwk_globals.h"
     47          #include "nwk_util.h"
     48          #include "aps_groups.h"
     49          #include "ZDProfile.h"
     50          #include "aps_frag.h"
     51          #include "rtg.h"
     52          
     53          #if defined ( MT_AF_CB_FUNC )
     54            #include "MT_AF.h"
     55          #endif
     56          
     57          #if defined ( INTER_PAN )
     58            #include "stub_aps.h"
     59          #endif
     60          
     61          #include "bdb.h" 
     62          #if (BDB_TOUCHLINK_CAPABILITY_ENABLED==1)
     63            #include "bdb_tlCommissioning.h"
     64          #endif
     65          
     66          /*********************************************************************
     67           * MACROS
     68           */
     69          
     70          /*********************************************************************
     71           * @fn      afSend
     72           *
     73           * @brief   Helper macro for V1 API to invoke V2 API.
     74           *
     75           * input parameters
     76           *
     77           * @param  *dstAddr - Full ZB destination address: Nwk Addr + End Point.
     78           * @param   srcEP - Origination (i.e. respond to or ack to) End Point.
     79           * @param   cID - A valid cluster ID as specified by the Profile.
     80           * @param   len - Number of bytes of data pointed to by next param.
     81           * @param  *buf - A pointer to the data bytes to send.
     82           * @param   options - Valid bit mask of AF Tx Options as defined in AF.h.
     83           * @param  *transID - A pointer to a byte which can be modified and which will
     84           *                    be used as the transaction sequence number of the msg.
     85           *
     86           * output parameters
     87           *
     88           * @param  *transID - Incremented by one if the return value is success.
     89           *
     90           * @return  afStatus_t - See previous definition of afStatus_... types.
     91           */
     92          #define afSend( dstAddr, srcEP, cID, len, buf, transID, options, radius ) \
     93                  AF_DataRequest( (dstAddr), afFindEndPointDesc( (srcEP) ), \
     94                                    (cID), (len), (buf), (transID), (options), (radius) )
     95          
     96          /*********************************************************************
     97           * GLOBAL VARIABLES
     98           */
     99          

   \                                 In  segment XDATA_Z, align 1, keep-with-next
    100          epList_t *epList;
   \                     epList:
   \   000000                DS 2
   \   000002                REQUIRE __INIT_XDATA_Z
    101          
    102          /*********************************************************************
    103           * LOCAL FUNCTIONS
    104           */
    105          
    106          static void afBuildMSGIncoming( aps_FrameFormat_t *aff, endPointDesc_t *epDesc,
    107                          zAddrType_t *SrcAddress, uint16 SrcPanId, NLDE_Signal_t *sig,
    108                          uint8 nwkSeqNum, uint8 SecurityUse, uint32 timestamp, uint8 radius );
    109          
    110          static epList_t *afFindEndPointDescList( uint8 EndPoint );
    111          
    112          static pDescCB afGetDescCB( endPointDesc_t *epDesc );
    113          
    114          /*********************************************************************
    115           * PUBLIC FUNCTIONS
    116           */
    117          
    118          /*********************************************************************
    119           * @fn      afInit
    120           *
    121           * @brief   Initialization function for the AF.
    122           *
    123           * @param   none
    124           *
    125           * @return  none
    126          void afInit( void )
    127          {
    128          }
    129           */
    130          
    131          /*********************************************************************
    132           * @fn      afRegisterExtended
    133           *
    134           * @brief   Register an Application's EndPoint description.
    135           *
    136           * @param   epDesc - pointer to the Application's endpoint descriptor.
    137           * @param   descFn - pointer to descriptor callback function
    138           * @param   applFn - pointer to the Application callback function
    139           *
    140           * NOTE:  The memory that epDesc is pointing to must exist after this call.
    141           *
    142           * @return  Pointer to epList_t on success, NULL otherwise.
    143           */

   \                                 In  segment BANKED_CODE, align 1, keep-with-next
    144          epList_t *afRegisterExtended( endPointDesc_t *epDesc, pDescCB descFn, pApplCB applFn )
   \                     afRegisterExtended:
    145          {
   \   000000                REQUIRE ?V0
   \   000000                REQUIRE ?V1
   \   000000                REQUIRE ?V2
   \   000000                REQUIRE ?V3
   \   000000                REQUIRE ?V4
   \   000000                REQUIRE ?V5
   \   000000   74F2         MOV       A,#-0xe
   \   000002   12....       LCALL     ?BANKED_ENTER_XDATA
   \   000005                ; Saved register size: 14
   \   000005                ; Auto size: 0
   \   000005   8A..         MOV       ?V4,R2
   \   000007   8B..         MOV       ?V5,R3
   \   000009   8C..         MOV       ?V2,R4
   \   00000B   8D..         MOV       ?V3,R5
    146            epList_t *ep = osal_mem_alloc(sizeof(epList_t));
   \   00000D                ; Setup parameters for call to function osal_mem_alloc
   \   00000D   7A0B         MOV       R2,#0xb
   \   00000F   7B00         MOV       R3,#0x0
   \   000011   12....       LCALL     `??osal_mem_alloc::?relay`; Banked call to: osal_mem_alloc
   \   000014   8A..         MOV       ?V0,R2
   \   000016   8B..         MOV       ?V1,R3
   \   000018   AE..         MOV       R6,?V0
   \   00001A   AF..         MOV       R7,?V1
    147          
    148            if (ep != NULL)
   \   00001C   EA           MOV       A,R2
   \   00001D   4F           ORL       A,R7
   \   00001E   606A         JZ        ??afRegisterExtended_0
    149            {
    150              ep->nextDesc = epList;
   \   000020   90....       MOV       DPTR,#epList
   \   000023   12....       LCALL     ?Subroutine12 & 0xFFFF
    151              epList = ep;
   \                     ??CrossCallReturnLabel_16:
   \   000026   90....       MOV       DPTR,#epList
   \   000029   12....       LCALL     ?Subroutine31 & 0xFFFF
    152              ep->epDesc = epDesc;
   \                     ??CrossCallReturnLabel_61:
   \   00002C   EA           MOV       A,R2
   \   00002D   2402         ADD       A,#0x2
   \   00002F   F5..         MOV       ?V0,A
   \   000031   E4           CLR       A
   \   000032   3F           ADDC      A,R7
   \   000033   F5..         MOV       ?V1,A
   \   000035   85..82       MOV       DPL,?V0
   \   000038   F583         MOV       DPH,A
   \   00003A   E5..         MOV       A,?V4
   \   00003C   F0           MOVX      @DPTR,A
   \   00003D   A3           INC       DPTR
   \   00003E   E5..         MOV       A,?V5
   \   000040   12....       LCALL     ?Subroutine30 & 0xFFFF
    153              ep->pfnDescCB = descFn;
   \                     ??CrossCallReturnLabel_59:
   \   000043   E5..         MOV       A,?V2
   \   000045   F0           MOVX      @DPTR,A
   \   000046   A3           INC       DPTR
   \   000047   E5..         MOV       A,?V3
   \   000049   12....       LCALL     ?Subroutine29 & 0xFFFF
    154              ep->apsfCfg.frameDelay = APSF_DEFAULT_INTERFRAME_DELAY;
   \                     ??CrossCallReturnLabel_57:
   \   00004C   A3           INC       DPTR
   \   00004D   7432         MOV       A,#0x32
   \   00004F   12....       LCALL     ?Subroutine27 & 0xFFFF
    155              ep->apsfCfg.windowSize = APSF_DEFAULT_WINDOW_SIZE;
   \                     ??CrossCallReturnLabel_52:
   \   000052   7401         MOV       A,#0x1
   \   000054   12....       LCALL     ?Subroutine27 & 0xFFFF
    156              ep->flags = eEP_AllowMatch;  // Default to allow Match Descriptor.
   \                     ??CrossCallReturnLabel_53:
   \   000057   A3           INC       DPTR
   \   000058   F0           MOVX      @DPTR,A
    157              ep->pfnApplCB = applFn;
   \   000059   740E         MOV       A,#0xe
   \   00005B   12....       LCALL     ?XSTACK_DISP0_8
   \   00005E   12....       LCALL     ?Subroutine13 & 0xFFFF
   \                     ??CrossCallReturnLabel_18:
   \   000061   A3           INC       DPTR
   \   000062   A3           INC       DPTR
   \   000063   A3           INC       DPTR
   \   000064   A3           INC       DPTR
   \   000065   A3           INC       DPTR
   \   000066   E8           MOV       A,R0
   \   000067   F0           MOVX      @DPTR,A
   \   000068   A3           INC       DPTR
   \   000069   12....       LCALL     ?Subroutine21 & 0xFFFF
    158              
    159            #if (BDB_FINDING_BINDING_CAPABILITY_ENABLED==1) 
    160              //Make sure we add at least one application endpoint
    161              if ((epDesc->endPoint != 0)  || (epDesc->endPoint < BDB_ZIGBEE_RESERVED_ENDPOINTS_START))
    162              {
    163                bdb_HeadEpDescriptorList = epList;
   \                     ??CrossCallReturnLabel_101:
   \   00006C   90....       MOV       DPTR,#bdb_HeadEpDescriptorList
   \   00006F   12....       LCALL     ??Subroutine42_0 & 0xFFFF
    164                ep->epDesc->epType = bdb_zclFindingBindingEpType(ep->epDesc);
   \                     ??CrossCallReturnLabel_88:
   \   000072                ; Setup parameters for call to function bdb_zclFindingBindingEpType
   \   000072   85..82       MOV       DPL,?V0
   \   000075   85..83       MOV       DPH,?V1
   \   000078   12....       LCALL     ??Subroutine45_0 & 0xFFFF
    165              }
    166          
    167            #endif
    168          #if defined ( BDB_TL_INITIATOR ) || defined ( BDB_TL_TARGET )
    169              // find the first empty entry in the device info table
    170              for ( uint8 i = 0; i < 5; i++ )
    171              {
    172                if ( touchLinkSubDevicesTbl[i] == NULL )
    173                {
    174                  touchLinkSubDevicesTbl[i] = osal_mem_alloc(sizeof(bdbTLDeviceInfo_t));
    175                  if ( touchLinkSubDevicesTbl[i] != NULL )
    176                  {
    177                    touchLinkSubDevicesTbl[i]->deviceID = epDesc->simpleDesc->AppDeviceId;
    178                    touchLinkSubDevicesTbl[i]->endpoint = epDesc->simpleDesc->EndPoint;
    179                    touchLinkSubDevicesTbl[i]->profileID = epDesc->simpleDesc->AppProfId;
    180                    touchLinkSubDevicesTbl[i]->version = epDesc->simpleDesc->AppDevVer;
    181                    break;
    182                  }
    183                }
    184              }
    185          #endif  // BDB_TL_INITIATOR || BDB_TL_TARGET
    186            }
   \                     ??CrossCallReturnLabel_112:
   \   00007B   12....       LCALL     `??bdb_zclFindingBindingEpType::?relay`; Banked call to: bdb_zclFindingBindingEpType
   \   00007E   85..82       MOV       DPL,?V0
   \   000081   85..83       MOV       DPH,?V1
   \   000084   12....       LCALL     ?Subroutine22 & 0xFFFF
   \                     ??CrossCallReturnLabel_86:
   \   000087   A3           INC       DPTR
   \   000088   E9           MOV       A,R1
   \   000089   F0           MOVX      @DPTR,A
    187           
    188            return ep;
   \                     ??afRegisterExtended_0:
   \   00008A   EE           MOV       A,R6
   \   00008B   FA           MOV       R2,A
   \   00008C   EF           MOV       A,R7
   \   00008D   FB           MOV       R3,A
   \   00008E                REQUIRE ?Subroutine0
   \   00008E                ; // Fall through to label ?Subroutine0
    189          }

   \                                 In  segment BANKED_CODE, align 1, keep-with-next
   \                     ?Subroutine0:
   \   000000   7F06         MOV       R7,#0x6
   \   000002   02....       LJMP      ?BANKED_LEAVE_XDATA

   \                                 In  segment BANKED_CODE, align 1, keep-with-next
   \                     ?Subroutine27:
   \   000000   12....       LCALL     ?Subroutine34 & 0xFFFF
   \                     ??CrossCallReturnLabel_72:
   \   000003   A3           INC       DPTR
   \   000004   A3           INC       DPTR
   \   000005   22           RET

   \                                 In  segment BANKED_CODE, align 1, keep-with-next
   \                     ?Subroutine30:
   \   000000   12....       LCALL     ?Subroutine39 & 0xFFFF
   \                     ??CrossCallReturnLabel_82:
   \   000003   22           RET

   \                                 In  segment BANKED_CODE, align 1, keep-with-next
   \                     ?Subroutine39:
   \   000000   F0           MOVX      @DPTR,A
   \   000001   8A82         MOV       DPL,R2
   \   000003   8B83         MOV       DPH,R3
   \   000005   A3           INC       DPTR
   \   000006   A3           INC       DPTR
   \   000007   A3           INC       DPTR
   \   000008   A3           INC       DPTR
   \   000009   22           RET

   \                                 In  segment BANKED_CODE, align 1, keep-with-next
   \                     ?Subroutine29:
   \   000000   12....       LCALL     ?Subroutine34 & 0xFFFF
   \                     ??CrossCallReturnLabel_73:
   \   000003   22           RET

   \                                 In  segment BANKED_CODE, align 1, keep-with-next
   \                     ?Subroutine34:
   \   000000   12....       LCALL     ?Subroutine39 & 0xFFFF
   \                     ??CrossCallReturnLabel_83:
   \   000003   A3           INC       DPTR
   \   000004   22           RET

   \                                 In  segment BANKED_CODE, align 1, keep-with-next
   \                     ?Subroutine22:
   \   000000   E0           MOVX      A,@DPTR
   \   000001   F8           MOV       R0,A
   \   000002                REQUIRE ??Subroutine40_0
   \   000002                ; // Fall through to label ??Subroutine40_0

   \                                 In  segment BANKED_CODE, align 1, keep-with-next
   \                     ??Subroutine40_0:
   \   000000   A3           INC       DPTR
   \   000001                REQUIRE ??Subroutine41_0
   \   000001                ; // Fall through to label ??Subroutine41_0

   \                                 In  segment BANKED_CODE, align 1, keep-with-next
   \                     ??Subroutine41_0:
   \   000000   E0           MOVX      A,@DPTR
   \   000001   F583         MOV       DPH,A
   \   000003   8882         MOV       DPL,R0
   \   000005   22           RET

   \                                 In  segment BANKED_CODE, align 1, keep-with-next
   \                     ?Subroutine31:
   \   000000   EA           MOV       A,R2
   \   000001   F0           MOVX      @DPTR,A
   \   000002   A3           INC       DPTR
   \   000003   EB           MOV       A,R3
   \   000004   F0           MOVX      @DPTR,A
   \   000005   22           RET

   \                                 In  segment BANKED_CODE, align 1, keep-with-next
   \                     ??Subroutine42_0:
   \   000000   E8           MOV       A,R0
   \   000001   F0           MOVX      @DPTR,A
   \   000002   A3           INC       DPTR
   \   000003   E9           MOV       A,R1
   \   000004   F0           MOVX      @DPTR,A
   \   000005   22           RET

   \                                 In  segment BANKED_CODE, align 1, keep-with-next
   \                     ?Subroutine13:
   \   000000   12....       LCALL     ?Subroutine36 & 0xFFFF
   \                     ??CrossCallReturnLabel_79:
   \   000003   A3           INC       DPTR
   \   000004   A3           INC       DPTR
   \   000005   A3           INC       DPTR
   \   000006   A3           INC       DPTR
   \   000007   22           RET

   \                                 In  segment BANKED_CODE, align 1, keep-with-next
   \                     ?Subroutine21:
   \   000000   E9           MOV       A,R1
   \   000001   F0           MOVX      @DPTR,A
   \   000002   90....       MOV       DPTR,#epList
   \   000005                REQUIRE ??Subroutine44_0
   \   000005                ; // Fall through to label ??Subroutine44_0

   \                                 In  segment BANKED_CODE, align 1, keep-with-next
   \                     ??Subroutine44_0:
   \   000000   12....       LCALL     ??Subroutine46_0 & 0xFFFF
   \                     ??CrossCallReturnLabel_128:
   \   000003   F9           MOV       R1,A
   \   000004   22           RET

   \                                 In  segment BANKED_CODE, align 1, keep-with-next
   \                     ??Subroutine45_0:
   \   000000   E0           MOVX      A,@DPTR
   \   000001   FA           MOV       R2,A
   \   000002   A3           INC       DPTR
   \   000003   E0           MOVX      A,@DPTR
   \   000004   FB           MOV       R3,A
   \   000005   22           RET

   \                                 In  segment BANKED_CODE, align 1, keep-with-next
   \                     ??Subroutine46_0:
   \   000000   E0           MOVX      A,@DPTR
   \   000001   F8           MOV       R0,A
   \   000002   A3           INC       DPTR
   \   000003   E0           MOVX      A,@DPTR
   \   000004   22           RET

   \                                 In  segment BANKED_CODE, align 1, keep-with-next
   \                     ?Subroutine12:
   \   000000   12....       LCALL     ?Subroutine36 & 0xFFFF
   \                     ??CrossCallReturnLabel_78:
   \   000003   E8           MOV       A,R0
   \   000004   F0           MOVX      @DPTR,A
   \   000005   A3           INC       DPTR
   \   000006   E9           MOV       A,R1
   \   000007   F0           MOVX      @DPTR,A
   \   000008   22           RET

   \                                 In  segment BANKED_CODE, align 1, keep-with-next
   \                     ?Subroutine36:
   \   000000   E0           MOVX      A,@DPTR
   \   000001   F8           MOV       R0,A
   \   000002   A3           INC       DPTR
   \   000003   E0           MOVX      A,@DPTR
   \   000004   F9           MOV       R1,A
   \   000005   8A82         MOV       DPL,R2
   \   000007   8B83         MOV       DPH,R3
   \   000009   22           RET
    190          
    191          /*********************************************************************
    192           * @fn      afRegister
    193           *
    194           * @brief   Register an Application's EndPoint description.
    195           *
    196           * @param   epDesc - pointer to the Application's endpoint descriptor.
    197           *
    198           * NOTE:  The memory that epDesc is pointing to must exist after this call.
    199           *
    200           * @return  afStatus_SUCCESS - Registered
    201           *          afStatus_MEM_FAIL - not enough memory to add descriptor
    202           *          afStatus_INVALID_PARAMETER - duplicate endpoint
    203           */

   \                                 In  segment BANKED_CODE, align 1, keep-with-next
    204          afStatus_t afRegister( endPointDesc_t *epDesc )
   \                     afRegister:
    205          {
   \   000000                REQUIRE ?V0
   \   000000                REQUIRE ?V1
   \   000000   74F6         MOV       A,#-0xa
   \   000002   12....       LCALL     ?BANKED_ENTER_XDATA
   \   000005                ; Saved register size: 10
   \   000005                ; Auto size: 0
   \   000005   EA           MOV       A,R2
   \   000006   FE           MOV       R6,A
   \   000007   EB           MOV       A,R3
   \   000008   FF           MOV       R7,A
    206            if (afFindEndPointDescList(epDesc->endPoint))  // Look for duplicate endpoint.
   \   000009                ; Setup parameters for call to function afFindEndPointDescList
   \   000009   8A82         MOV       DPL,R2
   \   00000B   F583         MOV       DPH,A
   \   00000D   12....       LCALL     ?Subroutine18 & 0xFFFF
   \                     ??CrossCallReturnLabel_37:
   \   000010   EA           MOV       A,R2
   \   000011   4B           ORL       A,R3
   \   000012   6004         JZ        ??afRegister_0
    207            {
    208              return afStatus_INVALID_PARAMETER;
   \   000014   7902         MOV       R1,#0x2
   \   000016   8024         SJMP      ??afRegister_1
    209            }
    210          
    211            return ((NULL == afRegisterExtended(epDesc, NULL, NULL)) ? afStatus_MEM_FAIL : afStatus_SUCCESS);
   \                     ??afRegister_0:
   \   000018                ; Setup parameters for call to function afRegisterExtended
   \   000018   E4           CLR       A
   \   000019   F5..         MOV       ?V0,A
   \   00001B   F5..         MOV       ?V1,A
   \   00001D   78..         MOV       R0,#?V0
   \   00001F   12....       LCALL     ?PUSH_XSTACK_I_TWO
   \   000022   7C00         MOV       R4,#0x0
   \   000024   7D00         MOV       R5,#0x0
   \   000026   EE           MOV       A,R6
   \   000027   FA           MOV       R2,A
   \   000028   EF           MOV       A,R7
   \   000029   FB           MOV       R3,A
   \   00002A   12....       LCALL     `??afRegisterExtended::?relay`; Banked call to: afRegisterExtended
   \   00002D   7402         MOV       A,#0x2
   \   00002F   12....       LCALL     ?DEALLOC_XSTACK8
   \   000032   EA           MOV       A,R2
   \   000033   4B           ORL       A,R3
   \   000034   7004         JNZ       ??afRegister_2
   \   000036   7910         MOV       R1,#0x10
   \   000038   8002         SJMP      ??afRegister_1
   \                     ??afRegister_2:
   \   00003A   7900         MOV       R1,#0x0
   \                     ??afRegister_1:
   \   00003C   02....       LJMP      ?Subroutine1 & 0xFFFF
    212          }

   \                                 In  segment BANKED_CODE, align 1, keep-with-next
   \                     ?Subroutine18:
   \   000000   E0           MOVX      A,@DPTR
   \   000001   F9           MOV       R1,A
   \   000002   12....       LCALL     `??afFindEndPointDescList::?relay`; Banked call to: afFindEndPointDescList
   \   000005   22           RET

   \                                 In  segment BANKED_CODE, align 1, keep-with-next
   \                     ?Subroutine1:
   \   000000   7F02         MOV       R7,#0x2
   \   000002   02....       LJMP      ?BANKED_LEAVE_XDATA
    213          
    214          /*********************************************************************
    215           * @fn      afDelete
    216           *
    217           * @brief   Delete an Application's EndPoint descriptor and frees the memory
    218           *
    219           * @param   EndPoint - Application Endpoint to delete
    220           *
    221           * @return  afStatus_SUCCESS - endpoint deleted
    222           *          afStatus_INVALID_PARAMETER - endpoint not found
    223           *          afStatus_FAILED - endpoint list empty
    224           */

   \                                 In  segment BANKED_CODE, align 1, keep-with-next
    225          afStatus_t afDelete( uint8 EndPoint )
   \                     afDelete:
    226          {
   \   000000   74F7         MOV       A,#-0x9
   \   000002   12....       LCALL     ?BANKED_ENTER_XDATA
   \   000005                ; Saved register size: 9
   \   000005                ; Auto size: 0
   \   000005   E9           MOV       A,R1
   \   000006   FE           MOV       R6,A
    227            epList_t *epCurrent;
    228            epList_t *epPrevious;
    229          
    230            if ( epList != NULL )
   \   000007   90....       MOV       DPTR,#epList
   \   00000A   12....       LCALL     ?Subroutine10 & 0xFFFF
   \                     ??CrossCallReturnLabel_11:
   \   00000D   604B         JZ        ??afDelete_0
    231            {
    232              epPrevious = epCurrent = epList;
   \   00000F   90....       MOV       DPTR,#epList
   \   000012   12....       LCALL     ??Subroutine45_0 & 0xFFFF
    233          
    234              // first element of the list matches
    235              if ( epCurrent->epDesc->endPoint == EndPoint )
   \                     ??CrossCallReturnLabel_113:
   \   000015   8882         MOV       DPL,R0
   \   000017   F583         MOV       DPH,A
   \   000019   12....       LCALL     ?Subroutine17 & 0xFFFF
   \                     ??CrossCallReturnLabel_32:
   \   00001C   8882         MOV       DPL,R0
   \   00001E   8983         MOV       DPH,R1
   \   000020   12....       LCALL     ?Subroutine19 & 0xFFFF
   \                     ??CrossCallReturnLabel_41:
   \   000023   7009         JNZ       ??afDelete_1
    236              {
    237                epList = epCurrent->nextDesc;
   \   000025   90....       MOV       DPTR,#epList
   \   000028   8020         SJMP      ??afDelete_2
    238                osal_mem_free( epCurrent );
    239          
    240                return ( afStatus_SUCCESS );
    241              }
    242              else
    243              {
    244                // search the list
    245                for ( epCurrent = epPrevious->nextDesc;
    246                      epCurrent != NULL;
    247                      epCurrent = epCurrent->nextDesc )
    248                {
    249                  if ( epCurrent->epDesc->endPoint == EndPoint )
    250                  {
    251                    epPrevious->nextDesc = epCurrent->nextDesc;
    252                    osal_mem_free( epCurrent );
    253          
    254                    // delete the entry and free the memory
    255                    return ( afStatus_SUCCESS );
    256                  }
    257                  epPrevious = epCurrent;
   \                     ??afDelete_3:
   \   00002A   EA           MOV       A,R2
   \   00002B   F8           MOV       R0,A
   \   00002C   EB           MOV       A,R3
   \   00002D   F9           MOV       R1,A
   \                     ??afDelete_1:
   \   00002E   EC           MOV       A,R4
   \   00002F   FA           MOV       R2,A
   \   000030   ED           MOV       A,R5
   \   000031   FB           MOV       R3,A
   \   000032   EA           MOV       A,R2
   \   000033   4B           ORL       A,R3
   \   000034   6020         JZ        ??afDelete_4
   \   000036   8A82         MOV       DPL,R2
   \   000038   8B83         MOV       DPH,R3
   \   00003A   12....       LCALL     ?Subroutine17 & 0xFFFF
   \                     ??CrossCallReturnLabel_33:
   \   00003D   8A82         MOV       DPL,R2
   \   00003F   8B83         MOV       DPH,R3
   \   000041   12....       LCALL     ?Subroutine19 & 0xFFFF
   \                     ??CrossCallReturnLabel_42:
   \   000044   70E4         JNZ       ??afDelete_3
   \   000046   8882         MOV       DPL,R0
   \   000048   8983         MOV       DPH,R1
   \                     ??afDelete_2:
   \   00004A   EC           MOV       A,R4
   \   00004B   F0           MOVX      @DPTR,A
   \   00004C   A3           INC       DPTR
   \   00004D   ED           MOV       A,R5
   \   00004E   F0           MOVX      @DPTR,A
   \   00004F                ; Setup parameters for call to function osal_mem_free
   \   00004F   12....       LCALL     `??osal_mem_free::?relay`; Banked call to: osal_mem_free
   \   000052   7900         MOV       R1,#0x0
   \   000054   8006         SJMP      ??afDelete_5
    258                }
    259              }
    260          
    261              // no endpoint found
    262              return ( afStatus_INVALID_PARAMETER );
   \                     ??afDelete_4:
   \   000056   7902         MOV       R1,#0x2
   \   000058   8002         SJMP      ??afDelete_5
    263            }
    264            else
    265            {
    266              // epList is empty
    267              return ( afStatus_FAILED );
   \                     ??afDelete_0:
   \   00005A   7901         MOV       R1,#0x1
    268            }
   \                     ??afDelete_5:
   \   00005C                REQUIRE ?Subroutine2
   \   00005C                ; // Fall through to label ?Subroutine2
    269          }

   \                                 In  segment BANKED_CODE, align 1, keep-with-next
   \                     ?Subroutine2:
   \   000000   7F01         MOV       R7,#0x1
   \   000002   02....       LJMP      ?BANKED_LEAVE_XDATA

   \                                 In  segment BANKED_CODE, align 1, keep-with-next
   \                     ?Subroutine19:
   \   000000   A3           INC       DPTR
   \   000001   A3           INC       DPTR
   \   000002   E0           MOVX      A,@DPTR
   \   000003   FF           MOV       R7,A
   \   000004   A3           INC       DPTR
   \   000005   E0           MOVX      A,@DPTR
   \   000006   F583         MOV       DPH,A
   \   000008   8F82         MOV       DPL,R7
   \   00000A   E0           MOVX      A,@DPTR
   \   00000B   6E           XRL       A,R6
   \   00000C   22           RET

   \                                 In  segment BANKED_CODE, align 1, keep-with-next
   \                     ?Subroutine17:
   \   000000   E0           MOVX      A,@DPTR
   \   000001   FC           MOV       R4,A
   \   000002   A3           INC       DPTR
   \   000003   E0           MOVX      A,@DPTR
   \   000004   FD           MOV       R5,A
   \   000005   22           RET

   \                                 In  segment BANKED_CODE, align 1, keep-with-next
   \                     ?Subroutine10:
   \   000000   12....       LCALL     ??Subroutine46_0 & 0xFFFF
   \                     ??CrossCallReturnLabel_123:
   \   000003   F9           MOV       R1,A
   \   000004   E8           MOV       A,R0
   \   000005   49           ORL       A,R1
   \   000006   22           RET
    270          
    271          /*********************************************************************
    272           * @fn          afDataConfirm
    273           *
    274           * @brief       This function will generate the Data Confirm back to
    275           *              the application.
    276           *
    277           * @param       endPoint - confirm end point
    278           * @param       transID - transaction ID from APSDE_DATA_REQUEST
    279           * @param       status - status of APSDE_DATA_REQUEST
    280           *
    281           * @return      none
    282           */

   \                                 In  segment BANKED_CODE, align 1, keep-with-next
    283          void afDataConfirm( uint8 endPoint, uint8 transID, ZStatus_t status )
   \                     afDataConfirm:
    284          {
   \   000000                REQUIRE ?V0
   \   000000                REQUIRE ?V2
   \   000000                REQUIRE ?V3
   \   000000                REQUIRE ?V4
   \   000000                REQUIRE ?V5
   \   000000   74F2         MOV       A,#-0xe
   \   000002   12....       LCALL     ?BANKED_ENTER_XDATA
   \   000005                ; Saved register size: 14
   \   000005                ; Auto size: 0
   \   000005   E9           MOV       A,R1
   \   000006   FE           MOV       R6,A
   \   000007   EA           MOV       A,R2
   \   000008   FF           MOV       R7,A
   \   000009   8B..         MOV       ?V0,R3
    285            endPointDesc_t *epDesc;
    286            afDataConfirm_t *msgPtr;
    287          
    288            // Find the endpoint description
    289            epDesc = afFindEndPointDesc( endPoint );
   \   00000B                ; Setup parameters for call to function afFindEndPointDesc
   \   00000B   12....       LCALL     `??afFindEndPointDesc::?relay`; Banked call to: afFindEndPointDesc
   \   00000E   8A..         MOV       ?V4,R2
   \   000010   8B..         MOV       ?V5,R3
    290            if ( epDesc == NULL )
   \   000012   EA           MOV       A,R2
   \   000013   4B           ORL       A,R3
   \   000014   6030         JZ        ??CrossCallReturnLabel_6
    291              return;
    292          
    293            // Determine the incoming command type
    294            msgPtr = (afDataConfirm_t *)osal_msg_allocate( sizeof(afDataConfirm_t) );
   \   000016                ; Setup parameters for call to function osal_msg_allocate
   \   000016   7A04         MOV       R2,#0x4
   \   000018   7B00         MOV       R3,#0x0
   \   00001A   12....       LCALL     `??osal_msg_allocate::?relay`; Banked call to: osal_msg_allocate
    295            if ( msgPtr )
   \   00001D   EA           MOV       A,R2
   \   00001E   4B           ORL       A,R3
   \   00001F   6025         JZ        ??CrossCallReturnLabel_6
    296            {
    297              // Build the Data Confirm message
    298              msgPtr->hdr.event = AF_DATA_CONFIRM_CMD;
   \   000021   8A82         MOV       DPL,R2
   \   000023   8B83         MOV       DPH,R3
   \   000025   74FD         MOV       A,#-0x3
   \   000027   F0           MOVX      @DPTR,A
    299              msgPtr->hdr.status = status;
   \   000028   A3           INC       DPTR
   \   000029   E5..         MOV       A,?V0
   \   00002B   F0           MOVX      @DPTR,A
    300              msgPtr->endpoint = endPoint;
   \   00002C   EE           MOV       A,R6
   \   00002D   8A82         MOV       DPL,R2
   \   00002F   8B83         MOV       DPH,R3
   \   000031   A3           INC       DPTR
   \   000032   A3           INC       DPTR
   \   000033   F0           MOVX      @DPTR,A
    301              msgPtr->transID = transID;
   \   000034   EF           MOV       A,R7
   \   000035   8A82         MOV       DPL,R2
   \   000037   8B83         MOV       DPH,R3
   \   000039   A3           INC       DPTR
   \   00003A   A3           INC       DPTR
   \   00003B   A3           INC       DPTR
   \   00003C   F0           MOVX      @DPTR,A
    302          
    303          #if defined ( MT_AF_CB_FUNC )
    304              /* If MT has subscribed for this callback, don't send as a message. */
    305              if ( AFCB_CHECK(CB_ID_AF_DATA_CNF,*(epDesc->task_id)) )
    306              {
    307                /* Send callback if it's subscribed */
    308                MT_AfDataConfirm ((void *)msgPtr);
    309                /* Release the memory. */
    310                osal_msg_deallocate( (void *)msgPtr );
    311              }
    312              else
    313          #endif
    314              {
    315                /* send message through task message */
    316                osal_msg_send( *(epDesc->task_id), (uint8 *)msgPtr );
   \   00003D                ; Setup parameters for call to function osal_msg_send
   \   00003D   85..82       MOV       DPL,?V4
   \   000040   85..83       MOV       DPH,?V5
   \   000043   12....       LCALL     ?Subroutine8 & 0xFFFF
    317              }
    318            }
    319          }
   \                     ??CrossCallReturnLabel_6:
   \   000046   02....       LJMP      ?Subroutine0 & 0xFFFF

   \                                 In  segment BANKED_CODE, align 1, keep-with-next
   \                     ?Subroutine8:
   \   000000   A3           INC       DPTR
   \   000001   A3           INC       DPTR
   \   000002   12....       LCALL     ?Subroutine35 & 0xFFFF
   \                     ??CrossCallReturnLabel_75:
   \   000005   F9           MOV       R1,A
   \   000006   12....       LCALL     `??osal_msg_send::?relay`; Banked call to: osal_msg_send
   \   000009   22           RET

   \                                 In  segment BANKED_CODE, align 1, keep-with-next
   \                     ?Subroutine35:
   \   000000   E0           MOVX      A,@DPTR
   \   000001   F8           MOV       R0,A
   \   000002   A3           INC       DPTR
   \   000003   E0           MOVX      A,@DPTR
   \   000004   F583         MOV       DPH,A
   \   000006   8882         MOV       DPL,R0
   \   000008   E0           MOVX      A,@DPTR
   \   000009   22           RET
    320          
    321          /*********************************************************************
    322           * @fn          afReflectError
    323           *
    324           * @brief       This function will generate the Reflect Error message to
    325           *              the application.
    326           *
    327           * @param       srcEP - Source Endpoint
    328           * @param       dstAddrMode - mode of dstAdd - 0 - normal short addr, 1 - group Address
    329           * @param       dstAddr - intended destination
    330           * @param       dstEP - Destination Endpoint
    331           * @param       transID - transaction ID from APSDE_DATA_REQUEST
    332           * @param       status - status of APSDE_DATA_REQUEST
    333           *
    334           * @return      none
    335           */

   \                                 In  segment BANKED_CODE, align 1, keep-with-next
    336          void afReflectError( uint8 srcEP, uint8 dstAddrMode, uint16 dstAddr, uint8 dstEP,
   \                     afReflectError:
    337                               uint8 transID, ZStatus_t status )
    338          {
   \   000000                REQUIRE ?V0
   \   000000                REQUIRE ?V1
   \   000000                REQUIRE ?V2
   \   000000                REQUIRE ?V3
   \   000000                REQUIRE ?V4
   \   000000                REQUIRE ?V6
   \   000000                REQUIRE ?V7
   \   000000   74F0         MOV       A,#-0x10
   \   000002   12....       LCALL     ?BANKED_ENTER_XDATA
   \   000005                ; Saved register size: 16
   \   000005                ; Auto size: 0
   \   000005   8A..         MOV       ?V0,R2
   \   000007   8C..         MOV       ?V6,R4
   \   000009   8D..         MOV       ?V7,R5
   \   00000B   8B..         MOV       ?V1,R3
    339            endPointDesc_t *epDesc;
    340            afReflectError_t *msgPtr;
    341          
    342            // Find the endpoint description
    343            epDesc = afFindEndPointDesc( srcEP );
   \   00000D                ; Setup parameters for call to function afFindEndPointDesc
   \   00000D   12....       LCALL     `??afFindEndPointDesc::?relay`; Banked call to: afFindEndPointDesc
   \   000010   8A..         MOV       ?V2,R2
   \   000012   8B..         MOV       ?V3,R3
   \   000014   AE..         MOV       R6,?V2
   \   000016   AF..         MOV       R7,?V3
    344            if ( epDesc == NULL )
   \   000018   EA           MOV       A,R2
   \   000019   4F           ORL       A,R7
   \   00001A   6045         JZ        ??CrossCallReturnLabel_7
    345              return;
    346          
    347            // Determine the incoming command type
    348            msgPtr = (afReflectError_t *)osal_msg_allocate( sizeof(afReflectError_t) );
   \   00001C                ; Setup parameters for call to function osal_msg_allocate
   \   00001C   7A07         MOV       R2,#0x7
   \   00001E   7B00         MOV       R3,#0x0
   \   000020   12....       LCALL     `??osal_msg_allocate::?relay`; Banked call to: osal_msg_allocate
    349            if ( msgPtr )
   \   000023   EA           MOV       A,R2
   \   000024   4B           ORL       A,R3
   \   000025   603A         JZ        ??CrossCallReturnLabel_7
    350            {
    351              // Build the Data Confirm message
    352              msgPtr->hdr.event = AF_REFLECT_ERROR_CMD;
   \   000027   8A82         MOV       DPL,R2
   \   000029   8B83         MOV       DPH,R3
   \   00002B   74FE         MOV       A,#-0x2
   \   00002D   F0           MOVX      @DPTR,A
    353              msgPtr->hdr.status = status;
   \   00002E   7411         MOV       A,#0x11
   \   000030   12....       LCALL     ?XSTACK_DISP0_8
   \   000033   E0           MOVX      A,@DPTR
   \   000034   8A82         MOV       DPL,R2
   \   000036   8B83         MOV       DPH,R3
   \   000038   A3           INC       DPTR
   \   000039   F0           MOVX      @DPTR,A
    354              msgPtr->endpoint = dstEP;
   \   00003A   8A82         MOV       DPL,R2
   \   00003C   8B83         MOV       DPH,R3
   \   00003E   A3           INC       DPTR
   \   00003F   A3           INC       DPTR
   \   000040   E5..         MOV       A,?V1
   \   000042   F0           MOVX      @DPTR,A
    355              msgPtr->transID = transID;
   \   000043   7410         MOV       A,#0x10
   \   000045   12....       LCALL     ?XSTACK_DISP0_8
   \   000048   12....       LCALL     ?Subroutine23 & 0xFFFF
   \                     ??CrossCallReturnLabel_46:
   \   00004B   12....       LCALL     ?Subroutine30 & 0xFFFF
    356              msgPtr->dstAddrMode = dstAddrMode;
   \                     ??CrossCallReturnLabel_60:
   \   00004E   E5..         MOV       A,?V0
   \   000050   12....       LCALL     ?Subroutine29 & 0xFFFF
    357              msgPtr->dstAddr = dstAddr;
   \                     ??CrossCallReturnLabel_58:
   \   000053   E5..         MOV       A,?V6
   \   000055   F0           MOVX      @DPTR,A
   \   000056   A3           INC       DPTR
   \   000057   E5..         MOV       A,?V7
   \   000059   F0           MOVX      @DPTR,A
    358          
    359          #if defined ( MT_AF_CB_FUNC )
    360              /* If MT has subscribed for this callback, don't send as a message. */
    361              if ( AFCB_CHECK( CB_ID_AF_REFLECT_ERROR, *(epDesc->task_id) ) )
    362              {
    363                /* Send callback if it's subscribed */
    364                MT_AfReflectError( (void *)msgPtr );
    365                /* Release the memory. */
    366                osal_msg_deallocate( (void *)msgPtr );
    367              }
    368              else
    369          #endif
    370              {
    371                /* send message through task message */
    372                osal_msg_send( *(epDesc->task_id), (uint8 *)msgPtr );
   \   00005A                ; Setup parameters for call to function osal_msg_send
   \   00005A   8E82         MOV       DPL,R6
   \   00005C   8F83         MOV       DPH,R7
   \   00005E   12....       LCALL     ?Subroutine8 & 0xFFFF
    373              }
    374            }
    375          }
   \                     ??CrossCallReturnLabel_7:
   \   000061   02....       LJMP      ??Subroutine43_0 & 0xFFFF

   \                                 In  segment BANKED_CODE, align 1, keep-with-next
   \                     ??Subroutine43_0:
   \   000000   7F08         MOV       R7,#0x8
   \   000002   02....       LJMP      ?BANKED_LEAVE_XDATA

   \                                 In  segment BANKED_CODE, align 1, keep-with-next
   \                     ?Subroutine23:
   \   000000   E0           MOVX      A,@DPTR
   \   000001   8A82         MOV       DPL,R2
   \   000003   8B83         MOV       DPH,R3
   \   000005   A3           INC       DPTR
   \   000006   A3           INC       DPTR
   \   000007   A3           INC       DPTR
   \   000008   22           RET
    376          
    377          /*********************************************************************
    378           * @fn          afIncomingData
    379           *
    380           * @brief       Transfer a data PDU (ASDU) from the APS sub-layer to the AF.
    381           *
    382           * @param       aff  - pointer to APS frame format
    383           * @param       SrcAddress  - Source address
    384           * @param       SrcPanId  - Source PAN ID
    385           * @param       sig - incoming message's link quality
    386           * @param       nwkSeqNum - incoming network sequence number (from nwk header frame)
    387           * @param       SecurityUse - Security enable/disable
    388           * @param       timestamp - the MAC Timer2 timestamp at Rx.
    389           * @param       radius - incoming messages received radius
    390           *
    391           * @return      none
    392           */

   \                                 In  segment BANKED_CODE, align 1, keep-with-next
    393          void afIncomingData( aps_FrameFormat_t *aff, zAddrType_t *SrcAddress, uint16 SrcPanId,
   \                     afIncomingData:
    394                               NLDE_Signal_t *sig, uint8 nwkSeqNum, uint8 SecurityUse,
    395                               uint32 timestamp, uint8 radius )
    396          {
   \   000000                REQUIRE ?V0
   \   000000                REQUIRE ?V1
   \   000000                REQUIRE ?V2
   \   000000                REQUIRE ?V3
   \   000000                REQUIRE ?V4
   \   000000                REQUIRE ?V5
   \   000000                REQUIRE ?V6
   \   000000                REQUIRE ?V7
   \   000000   74F0         MOV       A,#-0x10
   \   000002   12....       LCALL     ?BANKED_ENTER_XDATA
   \   000005                ; Saved register size: 16
   \   000005                ; Auto size: 12
   \   000005   74F4         MOV       A,#-0xc
   \   000007   12....       LCALL     ?ALLOC_XSTACK8
   \   00000A   7403         MOV       A,#0x3
   \   00000C   12....       LCALL     ?XSTACK_DISP0_8
   \   00000F   12....       LCALL     ?Subroutine31 & 0xFFFF
   \                     ??CrossCallReturnLabel_62:
   \   000012   740A         MOV       A,#0xa
   \   000014   12....       LCALL     ?XSTACK_DISP0_8
   \   000017   EC           MOV       A,R4
   \   000018   F0           MOVX      @DPTR,A
   \   000019   A3           INC       DPTR
   \   00001A   ED           MOV       A,R5
   \   00001B   F0           MOVX      @DPTR,A
   \   00001C   7407         MOV       A,#0x7
   \   00001E   12....       LCALL     ?XSTACK_DISP0_8
   \   000021   12....       LCALL     ?Subroutine21 & 0xFFFF
    397            endPointDesc_t *epDesc = NULL;
    398            epList_t *pList = epList;
   \                     ??CrossCallReturnLabel_102:
   \   000024   7401         MOV       A,#0x1
   \   000026   12....       LCALL     ?XSTACK_DISP0_8
   \   000029   12....       LCALL     ??Subroutine42_0 & 0xFFFF
    399          #if !defined ( APS_NO_GROUPS )
    400            uint8 grpEp = APS_GROUPS_EP_NOT_FOUND;
   \                     ??CrossCallReturnLabel_89:
   \   00002C   85..82       MOV       DPL,?XSP + 0
   \   00002F   85..83       MOV       DPH,?XSP + 1
   \   000032   74FE         MOV       A,#-0x2
   \   000034   F0           MOVX      @DPTR,A
    401          #endif
    402          
    403            if ( ((aff->FrmCtrl & APS_DELIVERYMODE_MASK) == APS_FC_DM_GROUP) )
   \   000035   7403         MOV       A,#0x3
   \   000037   12....       LCALL     ?XSTACK_DISP0_8
   \   00003A   E0           MOVX      A,@DPTR
   \   00003B   2402         ADD       A,#0x2
   \   00003D   F8           MOV       R0,A
   \   00003E   A3           INC       DPTR
   \   00003F   E0           MOVX      A,@DPTR
   \   000040   3400         ADDC      A,#0x0
   \   000042   F9           MOV       R1,A
   \   000043   7405         MOV       A,#0x5
   \   000045   12....       LCALL     ?XSTACK_DISP0_8
   \   000048   12....       LCALL     ??Subroutine42_0 & 0xFFFF
   \                     ??CrossCallReturnLabel_90:
   \   00004B   7403         MOV       A,#0x3
   \   00004D   12....       LCALL     ?XSTACK_DISP0_8
   \   000050   E0           MOVX      A,@DPTR
   \   000051   2404         ADD       A,#0x4
   \   000053   F8           MOV       R0,A
   \   000054   A3           INC       DPTR
   \   000055   E0           MOVX      A,@DPTR
   \   000056   3400         ADDC      A,#0x0
   \   000058   F9           MOV       R1,A
   \   000059   7408         MOV       A,#0x8
   \   00005B   12....       LCALL     ?XSTACK_DISP0_8
   \   00005E   12....       LCALL     ??Subroutine42_0 & 0xFFFF
   \                     ??CrossCallReturnLabel_91:
   \   000061   7403         MOV       A,#0x3
   \   000063   12....       LCALL     ?XSTACK_DISP0_8
   \   000066   12....       LCALL     ?Subroutine14 & 0xFFFF
   \                     ??CrossCallReturnLabel_20:
   \   000069   7021         JNZ       ??afIncomingData_0
    404            {
    405          #if !defined ( APS_NO_GROUPS )
    406              // Find the first endpoint for this group
    407              grpEp = aps_FindGroupForEndpoint( aff->GroupID, APS_GROUPS_FIND_FIRST );
   \   00006B                ; Setup parameters for call to function aps_FindGroupForEndpoint
   \   00006B   79FE         MOV       R1,#-0x2
   \   00006D   7408         MOV       A,#0x8
   \   00006F   12....       LCALL     ?XSTACK_DISP0_8
   \   000072   12....       LCALL     ?Subroutine7 & 0xFFFF
    408              if ( grpEp == APS_GROUPS_EP_NOT_FOUND )
   \                     ??CrossCallReturnLabel_4:
   \   000075   7003         JNZ       $+5
   \   000077   02....       LJMP      ??afIncomingData_1 & 0xFFFF
    409                return;   // No endpoint found
    410          
    411              epDesc = afFindEndPointDesc( grpEp );
   \   00007A                ; Setup parameters for call to function afFindEndPointDesc
   \   00007A   12....       LCALL     `??afFindEndPointDesc::?relay`; Banked call to: afFindEndPointDesc
   \   00007D   8A..         MOV       ?V0,R2
   \   00007F   8B..         MOV       ?V1,R3
   \   000081   AE..         MOV       R6,?V0
   \   000083   AF..         MOV       R7,?V1
    412              if ( epDesc == NULL )
   \   000085   EA           MOV       A,R2
   \   000086   4F           ORL       A,R7
   \   000087   7041         JNZ       ??afIncomingData_2
    413                return;   // Endpoint descriptor not found
   \   000089   02....       LJMP      ??afIncomingData_1 & 0xFFFF
    414          
    415              pList = afFindEndPointDescList( epDesc->endPoint );
    416          #else
    417              return; // Not supported
    418          #endif
    419            }
    420            else if ( aff->DstEndPoint == AF_BROADCAST_ENDPOINT )
   \                     ??afIncomingData_0:
   \   00008C   7405         MOV       A,#0x5
   \   00008E   12....       LCALL     ?XSTACK_DISP0_8
   \   000091   12....       LCALL     ?Subroutine15 & 0xFFFF
   \                     ??CrossCallReturnLabel_22:
   \   000094   F9           MOV       R1,A
   \   000095   74FF         MOV       A,#-0x1
   \   000097   69           XRL       A,R1
   \   000098   7021         JNZ       ??afIncomingData_3
    421            {
    422              // Set the list
    423              if ( pList != NULL )
   \   00009A   7401         MOV       A,#0x1
   \   00009C   12....       LCALL     ?XSTACK_DISP0_8
   \   00009F   12....       LCALL     ?Subroutine10 & 0xFFFF
   \                     ??CrossCallReturnLabel_12:
   \   0000A2   7003         JNZ       $+5
   \   0000A4   02....       LJMP      ??afIncomingData_1 & 0xFFFF
    424              {
    425                epDesc = pList->epDesc;
   \   0000A7   7401         MOV       A,#0x1
   \   0000A9   12....       LCALL     ?XSTACK_DISP0_8
   \   0000AC   12....       LCALL     ?Subroutine16 & 0xFFFF
    426              }
    427            }
   \                     ??CrossCallReturnLabel_30:
   \   0000AF   7421         MOV       A,#0x21
   \   0000B1   12....       LCALL     ?XSTACK_DISP0_8
   \   0000B4   78..         MOV       R0,#?V0
   \   0000B6   12....       LCALL     ?L_MOV_X
   \   0000B9   8023         SJMP      ??CrossCallReturnLabel_31
    428            else if ( (epDesc = afFindEndPointDesc( aff->DstEndPoint )) )
   \                     ??afIncomingData_3:
   \   0000BB                ; Setup parameters for call to function afFindEndPointDesc
   \   0000BB   12....       LCALL     `??afFindEndPointDesc::?relay`; Banked call to: afFindEndPointDesc
   \   0000BE   8B..         MOV       ?V1,R3
   \   0000C0   A9..         MOV       R1,?V1
   \   0000C2   EA           MOV       A,R2
   \   0000C3   FE           MOV       R6,A
   \   0000C4   EB           MOV       A,R3
   \   0000C5   FF           MOV       R7,A
   \   0000C6   EA           MOV       A,R2
   \   0000C7   49           ORL       A,R1
   \   0000C8   60E5         JZ        ??CrossCallReturnLabel_30
    429            {
    430              pList = afFindEndPointDescList( epDesc->endPoint );
   \                     ??afIncomingData_2:
   \   0000CA                ; Setup parameters for call to function afFindEndPointDescList
   \   0000CA   8E82         MOV       DPL,R6
   \   0000CC   8F83         MOV       DPH,R7
   \   0000CE   12....       LCALL     ?Subroutine18 & 0xFFFF
    431            }
   \                     ??CrossCallReturnLabel_38:
   \   0000D1   7401         MOV       A,#0x1
   \   0000D3   12....       LCALL     ?XSTACK_DISP0_8
   \   0000D6   12....       LCALL     ?Subroutine31 & 0xFFFF
   \                     ??CrossCallReturnLabel_63:
   \   0000D9   80D4         SJMP      ??CrossCallReturnLabel_30
    432          
    433            while ( epDesc )
    434            {
    435              uint16 epProfileID = 0xFFFE;  // Invalid Profile ID
    436          
    437              if ( pList->pfnDescCB )
    438              {
    439                uint16 *pID = (uint16 *)(pList->pfnDescCB(
    440                                           AF_DESCRIPTOR_PROFILE_ID, epDesc->endPoint ));
    441                if ( pID )
    442                {
    443                  epProfileID = *pID;
    444                  osal_mem_free( pID );
    445                }
    446              }
    447              else if ( epDesc->simpleDesc )
    448              {
    449                epProfileID = epDesc->simpleDesc->AppProfId;
    450              }
    451          
    452              // First part of verification is to make sure that:
    453              // the local Endpoint ProfileID matches the received ProfileID OR
    454              // the message is specifically send to ZDO (this excludes the broadcast endpoint) OR
    455              // if the Wildcard ProfileID is received the message should not be sent to ZDO endpoint
    456              if ( (aff->ProfileID == epProfileID) ||
    457                   ((epDesc->endPoint == ZDO_EP) && (aff->ProfileID == ZDO_PROFILE_ID)) ||
    458                   ((epDesc->endPoint != ZDO_EP) && ( aff->ProfileID == ZDO_WILDCARD_PROFILE_ID )) )
    459              {
    460                // Save original endpoint
    461                uint8 endpoint = aff->DstEndPoint;
    462          
    463                // overwrite with descriptor's endpoint
    464                aff->DstEndPoint = epDesc->endPoint;
    465          
    466                afBuildMSGIncoming( aff, epDesc, SrcAddress, SrcPanId, sig,
    467                                   nwkSeqNum, SecurityUse, timestamp, radius );
    468          
    469                // Restore with original endpoint
    470                aff->DstEndPoint = endpoint;
    471              }
    472          
    473              if ( ((aff->FrmCtrl & APS_DELIVERYMODE_MASK) == APS_FC_DM_GROUP) )
    474              {
    475          #if !defined ( APS_NO_GROUPS )
    476                // Find the next endpoint for this group
    477                grpEp = aps_FindGroupForEndpoint( aff->GroupID, grpEp );
    478                if ( grpEp == APS_GROUPS_EP_NOT_FOUND )
    479                  return;   // No endpoint found
    480          
    481                epDesc = afFindEndPointDesc( grpEp );
    482                if ( epDesc == NULL )
    483                  return;   // Endpoint descriptor not found
    484          
    485                pList = afFindEndPointDescList( epDesc->endPoint );
    486          #else
    487                return;
    488          #endif
    489              }
    490              else if ( aff->DstEndPoint == AF_BROADCAST_ENDPOINT )
    491              {
    492                pList = pList->nextDesc;
    493                if ( pList )
    494                  epDesc = pList->epDesc;
   \                     ??afIncomingData_4:
   \   0000DB   12....       LCALL     ?Subroutine16 & 0xFFFF
   \                     ??CrossCallReturnLabel_31:
   \   0000DE   EE           MOV       A,R6
   \   0000DF   4F           ORL       A,R7
   \   0000E0   7003         JNZ       $+5
   \   0000E2   02....       LJMP      ??afIncomingData_1 & 0xFFFF
   \   0000E5   800F         SJMP      ??CrossCallReturnLabel_64
   \                     ??afIncomingData_5:
   \   0000E7                ; Setup parameters for call to function afFindEndPointDescList
   \   0000E7   8A82         MOV       DPL,R2
   \   0000E9   8B83         MOV       DPH,R3
   \   0000EB   12....       LCALL     ?Subroutine18 & 0xFFFF
   \                     ??CrossCallReturnLabel_39:
   \   0000EE   7401         MOV       A,#0x1
   \   0000F0   12....       LCALL     ?XSTACK_DISP0_8
   \   0000F3   12....       LCALL     ?Subroutine31 & 0xFFFF
   \                     ??CrossCallReturnLabel_64:
   \   0000F6   75..FE       MOV       ?V6,#-0x2
   \   0000F9   75..FF       MOV       ?V7,#-0x1
   \   0000FC   7401         MOV       A,#0x1
   \   0000FE   12....       LCALL     ?XSTACK_DISP0_8
   \   000101   12....       LCALL     ?Subroutine11 & 0xFFFF
   \                     ??CrossCallReturnLabel_14:
   \   000104   FD           MOV       R5,A
   \   000105   E8           MOV       A,R0
   \   000106   4D           ORL       A,R5
   \   000107   8E82         MOV       DPL,R6
   \   000109   8F83         MOV       DPH,R7
   \   00010B   601A         JZ        ??afIncomingData_6
   \   00010D                ; Setup parameters for indirect call
   \   00010D   12....       LCALL     ?Subroutine24 & 0xFFFF
   \                     ??CrossCallReturnLabel_48:
   \   000110   12....       LCALL     ?CALL_IND
   \   000113   EA           MOV       A,R2
   \   000114   4B           ORL       A,R3
   \   000115   601D         JZ        ??afIncomingData_7
   \   000117   8A82         MOV       DPL,R2
   \   000119   8B83         MOV       DPH,R3
   \   00011B   E0           MOVX      A,@DPTR
   \   00011C   F5..         MOV       ?V6,A
   \   00011E   A3           INC       DPTR
   \   00011F   E0           MOVX      A,@DPTR
   \   000120   F5..         MOV       ?V7,A
   \   000122                ; Setup parameters for call to function osal_mem_free
   \   000122   12....       LCALL     `??osal_mem_free::?relay`; Banked call to: osal_mem_free
   \   000125   800D         SJMP      ??afIncomingData_7
   \                     ??afIncomingData_6:
   \   000127   12....       LCALL     ?Subroutine6 & 0xFFFF
   \                     ??CrossCallReturnLabel_0:
   \   00012A   6008         JZ        ??afIncomingData_7
   \   00012C   A3           INC       DPTR
   \   00012D   E0           MOVX      A,@DPTR
   \   00012E   F5..         MOV       ?V6,A
   \   000130   A3           INC       DPTR
   \   000131   E0           MOVX      A,@DPTR
   \   000132   F5..         MOV       ?V7,A
   \                     ??afIncomingData_7:
   \   000134   7403         MOV       A,#0x3
   \   000136   12....       LCALL     ?XSTACK_DISP0_8
   \   000139   12....       LCALL     ??Subroutine46_0 & 0xFFFF
   \                     ??CrossCallReturnLabel_122:
   \   00013C   C8           XCH       A,R0
   \   00013D   2408         ADD       A,#0x8
   \   00013F   F582         MOV       DPL,A
   \   000141   E4           CLR       A
   \   000142   38           ADDC      A,R0
   \   000143   F583         MOV       DPH,A
   \   000145   12....       LCALL     ??Subroutine44_0 & 0xFFFF
   \                     ??CrossCallReturnLabel_103:
   \   000148   8E82         MOV       DPL,R6
   \   00014A   8F83         MOV       DPH,R7
   \   00014C   E0           MOVX      A,@DPTR
   \   00014D   FA           MOV       R2,A
   \   00014E   E5..         MOV       A,?V6
   \   000150   68           XRL       A,R0
   \   000151   7003         JNZ       ??afIncomingData_8
   \   000153   E5..         MOV       A,?V7
   \   000155   69           XRL       A,R1
   \                     ??afIncomingData_8:
   \   000156   6013         JZ        ??afIncomingData_9
   \   000158   EA           MOV       A,R2
   \   000159   7006         JNZ       ??afIncomingData_10
   \   00015B   E8           MOV       A,R0
   \   00015C   49           ORL       A,R1
   \   00015D   707D         JNZ       ??afIncomingData_11
   \   00015F   800A         SJMP      ??afIncomingData_9
   \                     ??afIncomingData_10:
   \   000161   74FF         MOV       A,#-0x1
   \   000163   68           XRL       A,R0
   \   000164   7003         JNZ       ??afIncomingData_12
   \   000166   74FF         MOV       A,#-0x1
   \   000168   69           XRL       A,R1
   \                     ??afIncomingData_12:
   \   000169   7071         JNZ       ??afIncomingData_11
   \                     ??afIncomingData_9:
   \   00016B   7405         MOV       A,#0x5
   \   00016D   12....       LCALL     ?XSTACK_DISP0_8
   \   000170   12....       LCALL     ?Subroutine15 & 0xFFFF
   \                     ??CrossCallReturnLabel_23:
   \   000173   F5..         MOV       ?V4,A
   \   000175   7405         MOV       A,#0x5
   \   000177   12....       LCALL     ?XSTACK_DISP0_8
   \   00017A   12....       LCALL     ??Subroutine40_0 & 0xFFFF
   \                     ??CrossCallReturnLabel_85:
   \   00017D   EA           MOV       A,R2
   \   00017E   F0           MOVX      @DPTR,A
   \   00017F                ; Setup parameters for call to function afBuildMSGIncoming
   \   00017F   7425         MOV       A,#0x25
   \   000181   12....       LCALL     ?XSTACK_DISP0_8
   \   000184   E0           MOVX      A,@DPTR
   \   000185   F5..         MOV       ?V5,A
   \   000187   78..         MOV       R0,#?V5
   \   000189   12....       LCALL     ?PUSH_XSTACK_I_ONE
   \   00018C   78..         MOV       R0,#?V0
   \   00018E   12....       LCALL     ?PUSH_XSTACK_I_FOUR
   \   000191   7425         MOV       A,#0x25
   \   000193   12....       LCALL     ?XSTACK_DISP0_8
   \   000196   E0           MOVX      A,@DPTR
   \   000197   F5..         MOV       ?V5,A
   \   000199   78..         MOV       R0,#?V5
   \   00019B   12....       LCALL     ?PUSH_XSTACK_I_ONE
   \   00019E   7424         MOV       A,#0x24
   \   0001A0   12....       LCALL     ?XSTACK_DISP0_8
   \   0001A3   12....       LCALL     ?PUSH_XSTACK8_X_TWO
   \   0001A6   7424         MOV       A,#0x24
   \   0001A8   12....       LCALL     ?XSTACK_DISP0_8
   \   0001AB   12....       LCALL     ?PUSH_XSTACK8_X_TWO
   \   0001AE   7414         MOV       A,#0x14
   \   0001B0   12....       LCALL     ?XSTACK_DISP0_8
   \   0001B3   12....       LCALL     ?PUSH_XSTACK8_X_TWO
   \   0001B6   7413         MOV       A,#0x13
   \   0001B8   12....       LCALL     ?XSTACK_DISP0_8
   \   0001BB   E0           MOVX      A,@DPTR
   \   0001BC   F9           MOV       R1,A
   \   0001BD   EE           MOV       A,R6
   \   0001BE   FC           MOV       R4,A
   \   0001BF   EF           MOV       A,R7
   \   0001C0   FD           MOV       R5,A
   \   0001C1   740F         MOV       A,#0xf
   \   0001C3   12....       LCALL     ?XSTACK_DISP0_8
   \   0001C6   12....       LCALL     ??Subroutine45_0 & 0xFFFF
   \                     ??CrossCallReturnLabel_114:
   \   0001C9   12....       LCALL     `??afBuildMSGIncoming::?relay`; Banked call to: afBuildMSGIncoming
   \   0001CC   740C         MOV       A,#0xc
   \   0001CE   12....       LCALL     ?DEALLOC_XSTACK8
   \   0001D1   7405         MOV       A,#0x5
   \   0001D3   12....       LCALL     ?XSTACK_DISP0_8
   \   0001D6   12....       LCALL     ?Subroutine22 & 0xFFFF
   \                     ??CrossCallReturnLabel_87:
   \   0001D9   E5..         MOV       A,?V4
   \   0001DB   F0           MOVX      @DPTR,A
   \                     ??afIncomingData_11:
   \   0001DC   7403         MOV       A,#0x3
   \   0001DE   12....       LCALL     ?XSTACK_DISP0_8
   \   0001E1   12....       LCALL     ?Subroutine14 & 0xFFFF
   \                     ??CrossCallReturnLabel_21:
   \   0001E4   7026         JNZ       ??afIncomingData_13
   \   0001E6                ; Setup parameters for call to function aps_FindGroupForEndpoint
   \   0001E6   85..82       MOV       DPL,?XSP + 0
   \   0001E9   85..83       MOV       DPH,?XSP + 1
   \   0001EC   E0           MOVX      A,@DPTR
   \   0001ED   F9           MOV       R1,A
   \   0001EE   7408         MOV       A,#0x8
   \   0001F0   12....       LCALL     ?XSTACK_DISP0_8
   \   0001F3   12....       LCALL     ?Subroutine7 & 0xFFFF
   \                     ??CrossCallReturnLabel_5:
   \   0001F6   6040         JZ        ??afIncomingData_1
   \   0001F8                ; Setup parameters for call to function afFindEndPointDesc
   \   0001F8   12....       LCALL     `??afFindEndPointDesc::?relay`; Banked call to: afFindEndPointDesc
   \   0001FB   8A..         MOV       ?V4,R2
   \   0001FD   8B..         MOV       ?V5,R3
   \   0001FF   AE..         MOV       R6,?V4
   \   000201   AF..         MOV       R7,?V5
   \   000203   EA           MOV       A,R2
   \   000204   4F           ORL       A,R7
   \   000205   6003         JZ        $+5
   \   000207   02....       LJMP      ??afIncomingData_5 & 0xFFFF
   \   00020A   802C         SJMP      ??afIncomingData_1
   \                     ??afIncomingData_13:
   \   00020C   7405         MOV       A,#0x5
   \   00020E   12....       LCALL     ?XSTACK_DISP0_8
   \   000211   12....       LCALL     ?Subroutine15 & 0xFFFF
   \                     ??CrossCallReturnLabel_24:
   \   000214   F4           CPL       A
   \   000215   7021         JNZ       ??afIncomingData_1
   \   000217   7401         MOV       A,#0x1
   \   000219   12....       LCALL     ?XSTACK_DISP0_8
   \   00021C   12....       LCALL     ?Subroutine15 & 0xFFFF
   \                     ??CrossCallReturnLabel_25:
   \   00021F   F8           MOV       R0,A
   \   000220   A3           INC       DPTR
   \   000221   E0           MOVX      A,@DPTR
   \   000222   F9           MOV       R1,A
   \   000223   7401         MOV       A,#0x1
   \   000225   12....       LCALL     ?XSTACK_DISP0_8
   \   000228   12....       LCALL     ??Subroutine42_0 & 0xFFFF
   \                     ??CrossCallReturnLabel_92:
   \   00022B   7401         MOV       A,#0x1
   \   00022D   12....       LCALL     ?XSTACK_DISP0_8
   \   000230   E0           MOVX      A,@DPTR
   \   000231   F8           MOV       R0,A
   \   000232   49           ORL       A,R1
   \   000233   6003         JZ        $+5
   \   000235   02....       LJMP      ??afIncomingData_4 & 0xFFFF
    495                else
    496                  epDesc = NULL;
    497              }
    498              else
    499                epDesc = NULL;
    500            }
    501          }
   \                     ??afIncomingData_1:
   \   000238   740C         MOV       A,#0xc
   \   00023A   02....       LJMP      ?Subroutine3 & 0xFFFF

   \                                 In  segment BANKED_CODE, align 1, keep-with-next
   \                     ?Subroutine16:
   \   000000   A3           INC       DPTR
   \   000001   E0           MOVX      A,@DPTR
   \   000002   F583         MOV       DPH,A
   \   000004   8882         MOV       DPL,R0
   \   000006   A3           INC       DPTR
   \   000007   A3           INC       DPTR
   \   000008   E0           MOVX      A,@DPTR
   \   000009   FE           MOV       R6,A
   \   00000A   A3           INC       DPTR
   \   00000B   E0           MOVX      A,@DPTR
   \   00000C   FF           MOV       R7,A
   \   00000D   22           RET

   \                                 In  segment BANKED_CODE, align 1, keep-with-next
   \                     ?Subroutine14:
   \   000000   12....       LCALL     ?Subroutine35 & 0xFFFF
   \                     ??CrossCallReturnLabel_76:
   \   000003   540C         ANL       A,#0xc
   \   000005   640C         XRL       A,#0xc
   \   000007   22           RET

   \                                 In  segment BANKED_CODE, align 1, keep-with-next
   \                     ?Subroutine7:
   \   000000   12....       LCALL     ?Subroutine35 & 0xFFFF
   \                     ??CrossCallReturnLabel_74:
   \   000003   FA           MOV       R2,A
   \   000004   A3           INC       DPTR
   \   000005   E0           MOVX      A,@DPTR
   \   000006   FB           MOV       R3,A
   \   000007   12....       LCALL     `??aps_FindGroupForEndpoint::?relay`; Banked call to: aps_FindGroupForEndpoint
   \   00000A   E9           MOV       A,R1
   \   00000B   85..82       MOV       DPL,?XSP + 0
   \   00000E   85..83       MOV       DPH,?XSP + 1
   \   000011   F0           MOVX      @DPTR,A
   \   000012   64FE         XRL       A,#0xfe
   \   000014   22           RET

   \                                 In  segment BANKED_CODE, align 1, keep-with-next
   \                     ?Subroutine3:
   \   000000   12....       LCALL     ?DEALLOC_XSTACK8
   \   000003                REQUIRE ??Subroutine43_0
   \   000003                ; // Fall through to label ??Subroutine43_0

   \                                 In  segment BANKED_CODE, align 1, keep-with-next
   \                     ?Subroutine24:
   \   000000   E0           MOVX      A,@DPTR
   \   000001   FA           MOV       R2,A
   \   000002   7902         MOV       R1,#0x2
   \   000004   8882         MOV       DPL,R0
   \   000006   8D83         MOV       DPH,R5
   \   000008   22           RET

   \                                 In  segment BANKED_CODE, align 1, keep-with-next
   \                     ?Subroutine15:
   \   000000   12....       LCALL     ?Subroutine35 & 0xFFFF
   \                     ??CrossCallReturnLabel_77:
   \   000003   22           RET

   \                                 In  segment BANKED_CODE, align 1, keep-with-next
   \                     ?Subroutine6:
   \   000000   A3           INC       DPTR
   \   000001   A3           INC       DPTR
   \   000002   A3           INC       DPTR
   \   000003   A3           INC       DPTR
   \   000004   12....       LCALL     ?Subroutine37 & 0xFFFF
   \                     ??CrossCallReturnLabel_81:
   \   000007   E582         MOV       A,DPL
   \   000009   4583         ORL       A,DPH
   \   00000B   22           RET

   \                                 In  segment BANKED_CODE, align 1, keep-with-next
   \                     ?Subroutine11:
   \   000000   12....       LCALL     ??Subroutine46_0 & 0xFFFF
   \                     ??CrossCallReturnLabel_124:
   \   000003   F583         MOV       DPH,A
   \   000005   8882         MOV       DPL,R0
   \   000007   12....       LCALL     ?Subroutine38 & 0xFFFF
   \                     ??CrossCallReturnLabel_127:
   \   00000A   22           RET

   \                                 In  segment BANKED_CODE, align 1, keep-with-next
   \                     ?Subroutine38:
   \   000000   A3           INC       DPTR
   \   000001   A3           INC       DPTR
   \   000002   A3           INC       DPTR
   \   000003   A3           INC       DPTR
   \   000004                REQUIRE ??Subroutine46_0
   \   000004                ; // Fall through to label ??Subroutine46_0

   \                                 In  segment BANKED_CODE, align 1, keep-with-next
   \                     ?Subroutine37:
   \   000000   E0           MOVX      A,@DPTR
   \   000001   F8           MOV       R0,A
   \   000002   A3           INC       DPTR
   \   000003   E0           MOVX      A,@DPTR
   \   000004   8882         MOV       DPL,R0
   \   000006   F583         MOV       DPH,A
   \   000008   22           RET
    502          
    503          /*********************************************************************
    504           * @fn          afBuildMSGIncoming
    505           *
    506           * @brief       Build the message for the app
    507           *
    508           * @param
    509           *
    510           * @return      pointer to next in data buffer
    511           */

   \                                 In  segment BANKED_CODE, align 1, keep-with-next
    512          static void afBuildMSGIncoming( aps_FrameFormat_t *aff, endPointDesc_t *epDesc,
   \                     afBuildMSGIncoming:
    513                           zAddrType_t *SrcAddress, uint16 SrcPanId, NLDE_Signal_t *sig,
    514                           uint8 nwkSeqNum, uint8 SecurityUse, uint32 timestamp, uint8 radius )
    515          {
   \   000000                REQUIRE ?V0
   \   000000                REQUIRE ?V1
   \   000000                REQUIRE ?V2
   \   000000                REQUIRE ?V3
   \   000000                REQUIRE ?V4
   \   000000                REQUIRE ?V5
   \   000000                REQUIRE ?V6
   \   000000                REQUIRE ?V7
   \   000000   74F0         MOV       A,#-0x10
   \   000002   12....       LCALL     ?BANKED_ENTER_XDATA
   \   000005                ; Saved register size: 16
   \   000005                ; Auto size: 3
   \   000005   74FD         MOV       A,#-0x3
   \   000007   12....       LCALL     ?ALLOC_XSTACK8
   \   00000A   E9           MOV       A,R1
   \   00000B   85..82       MOV       DPL,?XSP + 0
   \   00000E   85..83       MOV       DPH,?XSP + 1
   \   000011   F0           MOVX      @DPTR,A
   \   000012   8A..         MOV       ?V0,R2
   \   000014   8B..         MOV       ?V1,R3
   \   000016   8C..         MOV       ?V6,R4
   \   000018   8D..         MOV       ?V7,R5
    516            afIncomingMSGPacket_t *MSGpkt;
    517            const uint8 len = sizeof( afIncomingMSGPacket_t ) + aff->asduLength;
    518            uint8 *asdu = aff->asdu;
   \   00001A   EA           MOV       A,R2
   \   00001B   240E         ADD       A,#0xe
   \   00001D   F582         MOV       DPL,A
   \   00001F   E4           CLR       A
   \   000020   35..         ADDC      A,?V1
   \   000022   F583         MOV       DPH,A
   \   000024   12....       LCALL     ??Subroutine44_0 & 0xFFFF
   \                     ??CrossCallReturnLabel_104:
   \   000027   7401         MOV       A,#0x1
   \   000029   12....       LCALL     ?XSTACK_DISP0_8
   \   00002C   12....       LCALL     ??Subroutine42_0 & 0xFFFF
    519            MSGpkt = (afIncomingMSGPacket_t *)osal_msg_allocate( len );
   \                     ??CrossCallReturnLabel_93:
   \   00002F   EA           MOV       A,R2
   \   000030   2410         ADD       A,#0x10
   \   000032   F5..         MOV       ?V2,A
   \   000034   E4           CLR       A
   \   000035   35..         ADDC      A,?V1
   \   000037   F5..         MOV       ?V3,A
   \   000039                ; Setup parameters for call to function osal_msg_allocate
   \   000039   85..82       MOV       DPL,?V2
   \   00003C   F583         MOV       DPH,A
   \   00003E   E0           MOVX      A,@DPTR
   \   00003F   2427         ADD       A,#0x27
   \   000041   FA           MOV       R2,A
   \   000042   7B00         MOV       R3,#0x0
   \   000044   12....       LCALL     `??osal_msg_allocate::?relay`; Banked call to: osal_msg_allocate
   \   000047   8A..         MOV       ?V4,R2
   \   000049   8B..         MOV       ?V5,R3
   \   00004B   AE..         MOV       R6,?V4
   \   00004D   AF..         MOV       R7,?V5
    520          
    521            if ( MSGpkt == NULL )
   \   00004F   EA           MOV       A,R2
   \   000050   4F           ORL       A,R7
   \   000051   7003         JNZ       $+5
   \   000053   02....       LJMP      ??CrossCallReturnLabel_8 & 0xFFFF
    522            {
    523              return;
    524            }
    525          
    526            MSGpkt->hdr.event = AF_INCOMING_MSG_CMD;
   \   000056   8A82         MOV       DPL,R2
   \   000058   8B83         MOV       DPH,R3
   \   00005A   741A         MOV       A,#0x1a
   \   00005C   12....       LCALL     ?Subroutine28 & 0xFFFF
    527            MSGpkt->groupId = aff->GroupID;
   \                     ??CrossCallReturnLabel_54:
   \   00005F   A3           INC       DPTR
   \   000060   A3           INC       DPTR
   \   000061   A3           INC       DPTR
   \   000062   A3           INC       DPTR
   \   000063   12....       LCALL     ??Subroutine44_0 & 0xFFFF
   \                     ??CrossCallReturnLabel_105:
   \   000066   8A82         MOV       DPL,R2
   \   000068   8B83         MOV       DPH,R3
   \   00006A   A3           INC       DPTR
   \   00006B   A3           INC       DPTR
   \   00006C   12....       LCALL     ?Subroutine25 & 0xFFFF
    528            MSGpkt->clusterId = aff->ClusterID;
   \                     ??CrossCallReturnLabel_50:
   \   00006F   12....       LCALL     ?Subroutine13 & 0xFFFF
   \                     ??CrossCallReturnLabel_19:
   \   000072   12....       LCALL     ??Subroutine42_0 & 0xFFFF
    529            afCopyAddress( &MSGpkt->srcAddr, SrcAddress );
   \                     ??CrossCallReturnLabel_94:
   \   000075                ; Setup parameters for call to function afCopyAddress
   \   000075   7413         MOV       A,#0x13
   \   000077   12....       LCALL     ?XSTACK_DISP0_8
   \   00007A   12....       LCALL     ?Subroutine17 & 0xFFFF
   \                     ??CrossCallReturnLabel_34:
   \   00007D   EA           MOV       A,R2
   \   00007E   2406         ADD       A,#0x6
   \   000080   FA           MOV       R2,A
   \   000081   E4           CLR       A
   \   000082   3F           ADDC      A,R7
   \   000083   FB           MOV       R3,A
   \   000084   12....       LCALL     `??afCopyAddress::?relay`; Banked call to: afCopyAddress
    530            MSGpkt->srcAddr.endPoint = aff->SrcEndPoint;
   \   000087   85..82       MOV       DPL,?V0
   \   00008A   85..83       MOV       DPH,?V1
   \   00008D   A3           INC       DPTR
   \   00008E   A3           INC       DPTR
   \   00008F   A3           INC       DPTR
   \   000090   E0           MOVX      A,@DPTR
   \   000091   C0E0         PUSH      A
   \   000093   EE           MOV       A,R6
   \   000094   240F         ADD       A,#0xf
   \   000096   F582         MOV       DPL,A
   \   000098   E4           CLR       A
   \   000099   3F           ADDC      A,R7
   \   00009A   F583         MOV       DPH,A
   \   00009C   D0E0         POP       A
   \   00009E   F0           MOVX      @DPTR,A
    531            MSGpkt->endPoint = epDesc->endPoint;
   \   00009F   85..82       MOV       DPL,?V6
   \   0000A2   85..83       MOV       DPH,?V7
   \   0000A5   E0           MOVX      A,@DPTR
   \   0000A6   C0E0         PUSH      A
   \   0000A8   EE           MOV       A,R6
   \   0000A9   2414         ADD       A,#0x14
   \   0000AB   F582         MOV       DPL,A
   \   0000AD   E4           CLR       A
   \   0000AE   3F           ADDC      A,R7
   \   0000AF   F583         MOV       DPH,A
   \   0000B1   D0E0         POP       A
   \   0000B3   F0           MOVX      @DPTR,A
    532            MSGpkt->wasBroadcast = aff->wasBroadcast;
   \   0000B4   E5..         MOV       A,?V0
   \   0000B6   240C         ADD       A,#0xc
   \   0000B8   F582         MOV       DPL,A
   \   0000BA   E4           CLR       A
   \   0000BB   35..         ADDC      A,?V1
   \   0000BD   F583         MOV       DPH,A
   \   0000BF   E0           MOVX      A,@DPTR
   \   0000C0   C0E0         PUSH      A
   \   0000C2   EE           MOV       A,R6
   \   0000C3   2415         ADD       A,#0x15
   \   0000C5   F582         MOV       DPL,A
   \   0000C7   E4           CLR       A
   \   0000C8   3F           ADDC      A,R7
   \   0000C9   F583         MOV       DPH,A
   \   0000CB   D0E0         POP       A
   \   0000CD   F0           MOVX      @DPTR,A
   \   0000CE   7417         MOV       A,#0x17
   \   0000D0   12....       LCALL     ?XSTACK_DISP0_8
   \   0000D3   12....       LCALL     ??Subroutine44_0 & 0xFFFF
    533            MSGpkt->LinkQuality = sig->LinkQuality;
   \                     ??CrossCallReturnLabel_106:
   \   0000D6   8882         MOV       DPL,R0
   \   0000D8   F583         MOV       DPH,A
   \   0000DA   E0           MOVX      A,@DPTR
   \   0000DB   C0E0         PUSH      A
   \   0000DD   EE           MOV       A,R6
   \   0000DE   2416         ADD       A,#0x16
   \   0000E0   F582         MOV       DPL,A
   \   0000E2   E4           CLR       A
   \   0000E3   3F           ADDC      A,R7
   \   0000E4   F583         MOV       DPH,A
   \   0000E6   D0E0         POP       A
   \   0000E8   F0           MOVX      @DPTR,A
    534            MSGpkt->correlation = sig->correlation;
   \   0000E9   8882         MOV       DPL,R0
   \   0000EB   8983         MOV       DPH,R1
   \   0000ED   A3           INC       DPTR
   \   0000EE   E0           MOVX      A,@DPTR
   \   0000EF   C0E0         PUSH      A
   \   0000F1   EE           MOV       A,R6
   \   0000F2   2417         ADD       A,#0x17
   \   0000F4   F582         MOV       DPL,A
   \   0000F6   E4           CLR       A
   \   0000F7   3F           ADDC      A,R7
   \   0000F8   F583         MOV       DPH,A
   \   0000FA   D0E0         POP       A
   \   0000FC   F0           MOVX      @DPTR,A
    535            MSGpkt->rssi = sig->rssi;
   \   0000FD   8882         MOV       DPL,R0
   \   0000FF   8983         MOV       DPH,R1
   \   000101   A3           INC       DPTR
   \   000102   A3           INC       DPTR
   \   000103   E0           MOVX      A,@DPTR
   \   000104   C0E0         PUSH      A
   \   000106   EE           MOV       A,R6
   \   000107   2418         ADD       A,#0x18
   \   000109   F582         MOV       DPL,A
   \   00010B   E4           CLR       A
   \   00010C   3F           ADDC      A,R7
   \   00010D   F583         MOV       DPH,A
   \   00010F   D0E0         POP       A
   \   000111   F0           MOVX      @DPTR,A
    536            MSGpkt->SecurityUse = SecurityUse;
   \   000112   7419         MOV       A,#0x19
   \   000114   12....       LCALL     ?XSTACK_DISP0_8
   \   000117   E0           MOVX      A,@DPTR
   \   000118   C0E0         PUSH      A
   \   00011A   EE           MOV       A,R6
   \   00011B   2419         ADD       A,#0x19
   \   00011D   F582         MOV       DPL,A
   \   00011F   E4           CLR       A
   \   000120   3F           ADDC      A,R7
   \   000121   F583         MOV       DPH,A
   \   000123   D0E0         POP       A
   \   000125   F0           MOVX      @DPTR,A
    537            MSGpkt->timestamp = timestamp;
   \   000126   741A         MOV       A,#0x1a
   \   000128   12....       LCALL     ?XSTACK_DISP0_8
   \   00012B   12....       LCALL     ?XLOAD_R0123
   \   00012E   EE           MOV       A,R6
   \   00012F   241A         ADD       A,#0x1a
   \   000131   F582         MOV       DPL,A
   \   000133   E4           CLR       A
   \   000134   3F           ADDC      A,R7
   \   000135   F583         MOV       DPH,A
   \   000137   12....       LCALL     ?XSTORE_R0123
    538            MSGpkt->nwkSeqNum = nwkSeqNum;
   \   00013A   85..82       MOV       DPL,?XSP + 0
   \   00013D   85..83       MOV       DPH,?XSP + 1
   \   000140   E0           MOVX      A,@DPTR
   \   000141   C0E0         PUSH      A
   \   000143   EE           MOV       A,R6
   \   000144   241E         ADD       A,#0x1e
   \   000146   F582         MOV       DPL,A
   \   000148   E4           CLR       A
   \   000149   3F           ADDC      A,R7
   \   00014A   F583         MOV       DPH,A
   \   00014C   D0E0         POP       A
   \   00014E   F0           MOVX      @DPTR,A
    539            MSGpkt->macSrcAddr = aff->macSrcAddr;
   \   00014F   E5..         MOV       A,?V0
   \   000151   2415         ADD       A,#0x15
   \   000153   F582         MOV       DPL,A
   \   000155   E4           CLR       A
   \   000156   35..         ADDC      A,?V1
   \   000158   F583         MOV       DPH,A
   \   00015A   12....       LCALL     ?Subroutine20 & 0xFFFF
   \                     ??CrossCallReturnLabel_43:
   \   00015D   2424         ADD       A,#0x24
   \   00015F   F582         MOV       DPL,A
   \   000161   E4           CLR       A
   \   000162   3F           ADDC      A,R7
   \   000163   F583         MOV       DPH,A
   \   000165   12....       LCALL     ?Subroutine25 & 0xFFFF
    540            MSGpkt->macDestAddr = aff->macDestAddr;
   \                     ??CrossCallReturnLabel_51:
   \   000168   A3           INC       DPTR
   \   000169   A3           INC       DPTR
   \   00016A   A3           INC       DPTR
   \   00016B   A3           INC       DPTR
   \   00016C   12....       LCALL     ?Subroutine20 & 0xFFFF
   \                     ??CrossCallReturnLabel_44:
   \   00016F   2412         ADD       A,#0x12
   \   000171   12....       LCALL     ?Subroutine26 & 0xFFFF
    541            MSGpkt->srcAddr.panId = SrcPanId;
   \                     ??CrossCallReturnLabel_99:
   \   000174   7415         MOV       A,#0x15
   \   000176   12....       LCALL     ?XSTACK_DISP0_8
   \   000179   12....       LCALL     ?Subroutine20 & 0xFFFF
   \                     ??CrossCallReturnLabel_45:
   \   00017C   2410         ADD       A,#0x10
   \   00017E   12....       LCALL     ?Subroutine26 & 0xFFFF
    542            MSGpkt->cmd.TransSeqNumber = 0;
   \                     ??CrossCallReturnLabel_100:
   \   000181   EE           MOV       A,R6
   \   000182   241F         ADD       A,#0x1f
   \   000184   F582         MOV       DPL,A
   \   000186   E4           CLR       A
   \   000187   3F           ADDC      A,R7
   \   000188   F583         MOV       DPH,A
   \   00018A   E4           CLR       A
   \   00018B   F0           MOVX      @DPTR,A
    543            MSGpkt->cmd.DataLength = aff->asduLength;
   \   00018C   EE           MOV       A,R6
   \   00018D   2420         ADD       A,#0x20
   \   00018F   FC           MOV       R4,A
   \   000190   E4           CLR       A
   \   000191   3F           ADDC      A,R7
   \   000192   FD           MOV       R5,A
   \   000193   85..82       MOV       DPL,?V2
   \   000196   85..83       MOV       DPH,?V3
   \   000199   E0           MOVX      A,@DPTR
   \   00019A   8C82         MOV       DPL,R4
   \   00019C   8D83         MOV       DPH,R5
   \   00019E   F0           MOVX      @DPTR,A
   \   00019F   A3           INC       DPTR
   \   0001A0   E4           CLR       A
   \   0001A1   F0           MOVX      @DPTR,A
    544            MSGpkt->radius = radius;
   \   0001A2   741E         MOV       A,#0x1e
   \   0001A4   12....       LCALL     ?XSTACK_DISP0_8
   \   0001A7   E0           MOVX      A,@DPTR
   \   0001A8   C0E0         PUSH      A
   \   0001AA   EE           MOV       A,R6
   \   0001AB   2426         ADD       A,#0x26
   \   0001AD   F582         MOV       DPL,A
   \   0001AF   E4           CLR       A
   \   0001B0   3F           ADDC      A,R7
   \   0001B1   F583         MOV       DPH,A
   \   0001B3   D0E0         POP       A
   \   0001B5   F0           MOVX      @DPTR,A
    545          
    546            if ( MSGpkt->cmd.DataLength )
   \   0001B6   EE           MOV       A,R6
   \   0001B7   2422         ADD       A,#0x22
   \   0001B9   F8           MOV       R0,A
   \   0001BA   E4           CLR       A
   \   0001BB   3F           ADDC      A,R7
   \   0001BC   F9           MOV       R1,A
   \   0001BD   8C82         MOV       DPL,R4
   \   0001BF   8D83         MOV       DPH,R5
   \   0001C1   12....       LCALL     ??Subroutine45_0 & 0xFFFF
   \                     ??CrossCallReturnLabel_115:
   \   0001C4   EA           MOV       A,R2
   \   0001C5   4B           ORL       A,R3
   \   0001C6   6033         JZ        ??afBuildMSGIncoming_0
    547            {
    548              MSGpkt->cmd.Data = (uint8 *)(MSGpkt + 1);
   \   0001C8   EE           MOV       A,R6
   \   0001C9   2427         ADD       A,#0x27
   \   0001CB   FA           MOV       R2,A
   \   0001CC   E4           CLR       A
   \   0001CD   3F           ADDC      A,R7
   \   0001CE   FB           MOV       R3,A
   \   0001CF   8882         MOV       DPL,R0
   \   0001D1   8983         MOV       DPH,R1
   \   0001D3   12....       LCALL     ?Subroutine31 & 0xFFFF
    549              osal_memcpy( MSGpkt->cmd.Data, asdu, MSGpkt->cmd.DataLength );
   \                     ??CrossCallReturnLabel_65:
   \   0001D6                ; Setup parameters for call to function osal_memcpy
   \   0001D6   7401         MOV       A,#0x1
   \   0001D8   12....       LCALL     ?XSTACK_DISP0_8
   \   0001DB   E0           MOVX      A,@DPTR
   \   0001DC   F5..         MOV       ?V0,A
   \   0001DE   A3           INC       DPTR
   \   0001DF   E0           MOVX      A,@DPTR
   \   0001E0   F5..         MOV       ?V1,A
   \   0001E2   75..00       MOV       ?V2,#0x0
   \   0001E5   78..         MOV       R0,#?V0
   \   0001E7   12....       LCALL     ?PUSH_XSTACK_I_THREE
   \   0001EA   8C82         MOV       DPL,R4
   \   0001EC   8D83         MOV       DPH,R5
   \   0001EE   12....       LCALL     ?Subroutine17 & 0xFFFF
    550            }
   \                     ??CrossCallReturnLabel_35:
   \   0001F1   12....       LCALL     `??osal_memcpy::?relay`; Banked call to: osal_memcpy
   \   0001F4   7403         MOV       A,#0x3
   \   0001F6   12....       LCALL     ?DEALLOC_XSTACK8
   \   0001F9   8008         SJMP      ??afBuildMSGIncoming_1
    551            else
    552            {
    553              MSGpkt->cmd.Data = NULL;
   \                     ??afBuildMSGIncoming_0:
   \   0001FB   8882         MOV       DPL,R0
   \   0001FD   8983         MOV       DPH,R1
   \   0001FF   E4           CLR       A
   \   000200   F0           MOVX      @DPTR,A
   \   000201   A3           INC       DPTR
   \   000202   F0           MOVX      @DPTR,A
    554            }
    555          
    556          #if defined ( MT_AF_CB_FUNC )
    557            // If ZDO or SAPI have registered for this endpoint, dont intercept it here
    558            if (AFCB_CHECK(CB_ID_AF_DATA_IND, *(epDesc->task_id)))
    559            {
    560              MT_AfIncomingMsg( (void *)MSGpkt );
    561              // Release the memory.
    562              osal_msg_deallocate( (void *)MSGpkt );
    563            }
    564            else
    565          #endif
    566            {
    567              // Send message through task message.
    568              osal_msg_send( *(epDesc->task_id), (uint8 *)MSGpkt );
   \                     ??afBuildMSGIncoming_1:
   \   000203                ; Setup parameters for call to function osal_msg_send
   \   000203   EE           MOV       A,R6
   \   000204   FA           MOV       R2,A
   \   000205   EF           MOV       A,R7
   \   000206   FB           MOV       R3,A
   \   000207   85..82       MOV       DPL,?V6
   \   00020A   85..83       MOV       DPH,?V7
   \   00020D   12....       LCALL     ?Subroutine8 & 0xFFFF
    569            }
    570          }
   \                     ??CrossCallReturnLabel_8:
   \   000210   7403         MOV       A,#0x3
   \   000212   02....       LJMP      ?Subroutine3 & 0xFFFF

   \                                 In  segment BANKED_CODE, align 1, keep-with-next
   \                     ?Subroutine26:
   \   000000   F582         MOV       DPL,A
   \   000002   E4           CLR       A
   \   000003   3F           ADDC      A,R7
   \   000004   F583         MOV       DPH,A
   \   000006                REQUIRE ??Subroutine42_0
   \   000006                ; // Fall through to label ??Subroutine42_0

   \                                 In  segment BANKED_CODE, align 1, keep-with-next
   \                     ?Subroutine25:
   \   000000   E8           MOV       A,R0
   \   000001   F0           MOVX      @DPTR,A
   \   000002   A3           INC       DPTR
   \   000003   E9           MOV       A,R1
   \   000004   F0           MOVX      @DPTR,A
   \   000005   85..82       MOV       DPL,?V0
   \   000008   85..83       MOV       DPH,?V1
   \   00000B   A3           INC       DPTR
   \   00000C   A3           INC       DPTR
   \   00000D   A3           INC       DPTR
   \   00000E   A3           INC       DPTR
   \   00000F   A3           INC       DPTR
   \   000010   A3           INC       DPTR
   \   000011   22           RET

   \                                 In  segment BANKED_CODE, align 1, keep-with-next
   \                     ?Subroutine20:
   \   000000   12....       LCALL     ??Subroutine46_0 & 0xFFFF
   \                     ??CrossCallReturnLabel_125:
   \   000003   F9           MOV       R1,A
   \   000004   EE           MOV       A,R6
   \   000005   22           RET

   \                                 In  segment BANKED_CODE, align 1, keep-with-next
   \                     ?Subroutine28:
   \   000000   F0           MOVX      @DPTR,A
   \   000001                ; Setup parameters for call to function afFindEndPointDescList
   \   000001   85..82       MOV       DPL,?V0
   \   000004   85..83       MOV       DPH,?V1
   \   000007   22           RET
    571          
    572          /*********************************************************************
    573           * @fn      AF_DataRequest
    574           *
    575           * @brief   Common functionality for invoking APSDE_DataReq() for both
    576           *          SendMulti and MSG-Send.
    577           *
    578           * input parameters
    579           *
    580           * @param  *dstAddr - Full ZB destination address: Nwk Addr + End Point.
    581           * @param  *srcEP - Origination (i.e. respond to or ack to) End Point Descr.
    582           * @param   cID - A valid cluster ID as specified by the Profile.
    583           * @param   len - Number of bytes of data pointed to by next param.
    584           * @param  *buf - A pointer to the data bytes to send.
    585           * @param  *transID - A pointer to a byte which can be modified and which will
    586           *                    be used as the transaction sequence number of the msg.
    587           * @param   options - Valid bit mask of Tx options.
    588           * @param   radius - Normally set to AF_DEFAULT_RADIUS.
    589           *
    590           * output parameters
    591           *
    592           * @param  *transID - Incremented by one if the return value is success.
    593           *
    594           * @return  afStatus_t - See previous definition of afStatus_... types.
    595           */

   \                                 In  segment XDATA_I, align 1, keep-with-next
    596          uint8 AF_DataRequestDiscoverRoute = DISC_ROUTE_NETWORK;
   \                     AF_DataRequestDiscoverRoute:
   \   000000                DS 1
   \   000001                REQUIRE `?<Initializer for AF_DataRequestDiscoverRoute>`
   \   000001                REQUIRE __INIT_XDATA_I

   \                                 In  segment BANKED_CODE, align 1, keep-with-next
    597          afStatus_t AF_DataRequest( afAddrType_t *dstAddr, endPointDesc_t *srcEP,
   \                     AF_DataRequest:
    598                                     uint16 cID, uint16 len, uint8 *buf, uint8 *transID,
    599                                     uint8 options, uint8 radius )
    600          {
   \   000000                REQUIRE ?V0
   \   000000                REQUIRE ?V1
   \   000000                REQUIRE ?V2
   \   000000                REQUIRE ?V4
   \   000000                REQUIRE ?V5
   \   000000                REQUIRE ?V6
   \   000000                REQUIRE ?V7
   \   000000   74F0         MOV       A,#-0x10
   \   000002   12....       LCALL     ?BANKED_ENTER_XDATA
   \   000005                ; Saved register size: 16
   \   000005                ; Auto size: 33
   \   000005   74DF         MOV       A,#-0x21
   \   000007   12....       LCALL     ?ALLOC_XSTACK8
   \   00000A   8A..         MOV       ?V6,R2
   \   00000C   8B..         MOV       ?V7,R3
   \   00000E   8C..         MOV       ?V0,R4
   \   000010   8D..         MOV       ?V1,R5
   \   000012   89..         MOV       ?V2,R1
    601            pDescCB pfnDescCB;
    602            ZStatus_t stat;
    603            APSDE_DataReq_t req;
    604            afDataReqMTU_t mtu;
    605            epList_t *pList;
    606          
    607            // Verify source end point
    608            if ( srcEP == NULL )
   \   000014   EC           MOV       A,R4
   \   000015   4D           ORL       A,R5
   \   000016   7003         JNZ       $+5
   \   000018   02....       LJMP      ??AF_DataRequest_0 & 0xFFFF
    609            {
    610              return afStatus_INVALID_PARAMETER;
    611            }
    612          
    613          #if !defined( REFLECTOR )
    614            if ( dstAddr->addrMode == afAddrNotPresent )
    615            {
    616              return afStatus_INVALID_PARAMETER;
    617            }
    618          #endif
    619            
    620            // copy the addressing mode, to get the length of the packet
    621            mtu.aps.addressingMode = dstAddr->addrMode; 
   \   00001B   EA           MOV       A,R2
   \   00001C   2408         ADD       A,#0x8
   \   00001E   FE           MOV       R6,A
   \   00001F   E4           CLR       A
   \   000020   35..         ADDC      A,?V7
   \   000022   FF           MOV       R7,A
   \   000023   8E82         MOV       DPL,R6
   \   000025   F583         MOV       DPH,A
   \   000027   E0           MOVX      A,@DPTR
   \   000028   C0E0         PUSH      A
   \   00002A   7402         MOV       A,#0x2
   \   00002C   12....       LCALL     ?XSTACK_DISP0_8
   \   00002F   D0E0         POP       A
   \   000031   F0           MOVX      @DPTR,A
    622          
    623            // Check if route is available before sending data
    624            if ( options & AF_LIMIT_CONCENTRATOR  )
   \   000032   E9           MOV       A,R1
   \   000033   A2E3         MOV       C,0xE0 /* A   */.3
   \   000035   502C         JNC       ??AF_DataRequest_1
    625            {
    626              if ( dstAddr->addrMode != afAddr16Bit )
   \   000037   8E82         MOV       DPL,R6
   \   000039   8F83         MOV       DPH,R7
   \   00003B   E0           MOVX      A,@DPTR
   \   00003C   6402         XRL       A,#0x2
   \   00003E   7079         JNZ       ??AF_DataRequest_0
    627              {
    628                return ( afStatus_INVALID_PARAMETER );
    629              }
    630          
    631              // First, make sure the destination is not its self, then check for an existing route.
    632              if ( (dstAddr->addr.shortAddr != NLME_GetShortAddr())
    633                  && (RTG_CheckRtStatus( dstAddr->addr.shortAddr, RT_ACTIVE, (MTO_ROUTE | NO_ROUTE_CACHE) ) != RTG_SUCCESS) )
   \   000040                ; Setup parameters for call to function NLME_GetShortAddr
   \   000040   12....       LCALL     `??NLME_GetShortAddr::?relay`; Banked call to: NLME_GetShortAddr
   \   000043   8A..         MOV       ?V4,R2
   \   000045   8B..         MOV       ?V5,R3
   \   000047   12....       LCALL     ?Subroutine9 & 0xFFFF
   \                     ??CrossCallReturnLabel_120:
   \   00004A   E5..         MOV       A,?V4
   \   00004C   6A           XRL       A,R2
   \   00004D   7003         JNZ       ??AF_DataRequest_2
   \   00004F   E5..         MOV       A,?V5
   \   000051   6B           XRL       A,R3
   \                     ??AF_DataRequest_2:
   \   000052   600F         JZ        ??AF_DataRequest_1
   \   000054                ; Setup parameters for call to function RTG_CheckRtStatus
   \   000054   7C03         MOV       R4,#0x3
   \   000056   7901         MOV       R1,#0x1
   \   000058   12....       LCALL     `??RTG_CheckRtStatus::?relay`; Banked call to: RTG_CheckRtStatus
   \   00005B   E9           MOV       A,R1
   \   00005C   6005         JZ        ??AF_DataRequest_1
    634              {
    635                // A valid route to a concentrator wasn't found
    636                return ( afStatus_NO_ROUTE );
   \   00005E   79CD         MOV       R1,#-0x33
   \   000060   02....       LJMP      ??AF_DataRequest_3 & 0xFFFF
    637              }
    638            }
    639          
    640            // Validate broadcasting
    641            if ( ( dstAddr->addrMode == afAddr16Bit     ) ||
    642                 ( dstAddr->addrMode == afAddrBroadcast )    )
   \                     ??AF_DataRequest_1:
   \   000063   8E82         MOV       DPL,R6
   \   000065   8F83         MOV       DPH,R7
   \   000067   E0           MOVX      A,@DPTR
   \   000068   F8           MOV       R0,A
   \   000069   7402         MOV       A,#0x2
   \   00006B   68           XRL       A,R0
   \   00006C   6005         JZ        ??AF_DataRequest_4
   \   00006E   740F         MOV       A,#0xf
   \   000070   68           XRL       A,R0
   \   000071   7039         JNZ       ??AF_DataRequest_5
    643            {
    644              // Check for valid broadcast values
    645              if( ADDR_NOT_BCAST != NLME_IsAddressBroadcast( dstAddr->addr.shortAddr )  )
   \                     ??AF_DataRequest_4:
   \   000073                ; Setup parameters for call to function NLME_IsAddressBroadcast
   \   000073   12....       LCALL     ?Subroutine9 & 0xFFFF
   \                     ??CrossCallReturnLabel_121:
   \   000076   12....       LCALL     `??NLME_IsAddressBroadcast::?relay`; Banked call to: NLME_IsAddressBroadcast
   \   000079   E9           MOV       A,R1
   \   00007A   8E82         MOV       DPL,R6
   \   00007C   8F83         MOV       DPH,R7
   \   00007E   6025         JZ        ??AF_DataRequest_6
    646              {
    647                // Force mode to broadcast
    648                dstAddr->addrMode = afAddrBroadcast;
   \   000080   740F         MOV       A,#0xf
   \   000082   F0           MOVX      @DPTR,A
    649              }
    650              else
    651              {
    652                // Address is not a valid broadcast type
    653                if ( dstAddr->addrMode == afAddrBroadcast )
    654                {
    655                  return afStatus_INVALID_PARAMETER;
    656                }
    657              }
    658            }
    659            else if ( dstAddr->addrMode != afAddr64Bit &&
    660                      dstAddr->addrMode != afAddrGroup &&
    661                      dstAddr->addrMode != afAddrNotPresent )
    662            {
    663              return afStatus_INVALID_PARAMETER;
    664            }
    665          
    666            // Set destination address
    667            req.dstAddr.addrMode = dstAddr->addrMode;
   \                     ??AF_DataRequest_7:
   \   000083   E0           MOVX      A,@DPTR
   \   000084   C0E0         PUSH      A
   \   000086   740B         MOV       A,#0xb
   \   000088   12....       LCALL     ?XSTACK_DISP0_8
   \   00008B   D0E0         POP       A
   \   00008D   F0           MOVX      @DPTR,A
    668            if ( dstAddr->addrMode == afAddr64Bit )
   \   00008E   8E82         MOV       DPL,R6
   \   000090   8F83         MOV       DPH,R7
   \   000092   E0           MOVX      A,@DPTR
   \   000093   6403         XRL       A,#0x3
   \   000095   7027         JNZ       ??AF_DataRequest_8
    669            {
    670              osal_cpyExtAddr( req.dstAddr.addr.extAddr, dstAddr->addr.extAddr );
   \   000097                ; Setup parameters for call to function sAddrExtCpy
   \   000097   AC..         MOV       R4,?V6
   \   000099   AD..         MOV       R5,?V7
   \   00009B   7403         MOV       A,#0x3
   \   00009D   12....       LCALL     ?XSTACK_DISP101_8
   \   0000A0   12....       LCALL     `??sAddrExtCpy::?relay`; Banked call to: sAddrExtCpy
   \   0000A3   802A         SJMP      ??CrossCallReturnLabel_95
    671            }
   \                     ??AF_DataRequest_6:
   \   0000A5   E0           MOVX      A,@DPTR
   \   0000A6   640F         XRL       A,#0xf
   \   0000A8   70D9         JNZ       ??AF_DataRequest_7
   \   0000AA   800D         SJMP      ??AF_DataRequest_0
   \                     ??AF_DataRequest_5:
   \   0000AC   7403         MOV       A,#0x3
   \   0000AE   68           XRL       A,R0
   \   0000AF   60D2         JZ        ??AF_DataRequest_7
   \   0000B1   7401         MOV       A,#0x1
   \   0000B3   68           XRL       A,R0
   \   0000B4   60CD         JZ        ??AF_DataRequest_7
   \   0000B6   E8           MOV       A,R0
   \   0000B7   60CA         JZ        ??AF_DataRequest_7
   \                     ??AF_DataRequest_0:
   \   0000B9   7902         MOV       R1,#0x2
   \   0000BB   02....       LJMP      ??AF_DataRequest_3 & 0xFFFF
    672            else
    673            {
    674              req.dstAddr.addr.shortAddr = dstAddr->addr.shortAddr;
   \                     ??AF_DataRequest_8:
   \   0000BE   85..82       MOV       DPL,?V6
   \   0000C1   85..83       MOV       DPH,?V7
   \   0000C4   12....       LCALL     ??Subroutine44_0 & 0xFFFF
    675            }
   \                     ??CrossCallReturnLabel_107:
   \   0000C7   7403         MOV       A,#0x3
   \   0000C9   12....       LCALL     ?XSTACK_DISP0_8
   \   0000CC   12....       LCALL     ??Subroutine42_0 & 0xFFFF
    676          
    677            // This option is to use Wildcard ProfileID in outgoing packets
    678            if ( options & AF_WILDCARD_PROFILEID )
   \                     ??CrossCallReturnLabel_95:
   \   0000CF   E5..         MOV       A,?V2
   \   0000D1   A2E1         MOV       C,0xE0 /* A   */.1
   \   0000D3   7412         MOV       A,#0x12
   \   0000D5   5009         JNC       ??AF_DataRequest_9
    679            {
    680              req.profileID = ZDO_WILDCARD_PROFILE_ID;
   \   0000D7   12....       LCALL     ?XSTACK_DISP0_8
   \   0000DA   74FF         MOV       A,#-0x1
   \   0000DC   F0           MOVX      @DPTR,A
   \   0000DD   A3           INC       DPTR
   \   0000DE   806A         SJMP      ??AF_DataRequest_10
    681            }
    682            else
    683            {
    684              req.profileID = ZDO_PROFILE_ID;
   \                     ??AF_DataRequest_9:
   \   0000E0   12....       LCALL     ?XSTACK_DISP0_8
   \   0000E3   E4           CLR       A
   \   0000E4   F0           MOVX      @DPTR,A
   \   0000E5   A3           INC       DPTR
   \   0000E6   F0           MOVX      @DPTR,A
    685          
    686              if ( (pfnDescCB = afGetDescCB( srcEP )) )
   \   0000E7   90....       MOV       DPTR,#epList
   \                     ??AF_DataRequest_11:
   \   0000EA   12....       LCALL     ?Subroutine10 & 0xFFFF
   \                     ??CrossCallReturnLabel_9:
   \   0000ED   6043         JZ        ??AF_DataRequest_12
   \   0000EF   8882         MOV       DPL,R0
   \   0000F1   8983         MOV       DPH,R1
   \   0000F3   A3           INC       DPTR
   \   0000F4   A3           INC       DPTR
   \   0000F5   12....       LCALL     ??Subroutine45_0 & 0xFFFF
   \                     ??CrossCallReturnLabel_116:
   \   0000F8   E5..         MOV       A,?V0
   \   0000FA   6A           XRL       A,R2
   \   0000FB   7003         JNZ       ??AF_DataRequest_13
   \   0000FD   E5..         MOV       A,?V1
   \   0000FF   6B           XRL       A,R3
   \                     ??AF_DataRequest_13:
   \   000100   8882         MOV       DPL,R0
   \   000102   8983         MOV       DPH,R1
   \   000104   70E4         JNZ       ??AF_DataRequest_11
   \   000106   12....       LCALL     ?Subroutine38 & 0xFFFF
   \                     ??CrossCallReturnLabel_126:
   \   000109   FD           MOV       R5,A
   \   00010A   E8           MOV       A,R0
   \   00010B   4D           ORL       A,R5
   \   00010C   6024         JZ        ??AF_DataRequest_12
    687              {
    688                uint16 *pID = (uint16 *)(pfnDescCB(
    689                                             AF_DESCRIPTOR_PROFILE_ID, srcEP->endPoint ));
   \   00010E                ; Setup parameters for indirect call
   \   00010E   85..82       MOV       DPL,?V0
   \   000111   85..83       MOV       DPH,?V1
   \   000114   12....       LCALL     ?Subroutine24 & 0xFFFF
   \                     ??CrossCallReturnLabel_49:
   \   000117   12....       LCALL     ?CALL_IND
    690                if ( pID )
   \   00011A   EA           MOV       A,R2
   \   00011B   4B           ORL       A,R3
   \   00011C   602D         JZ        ??AF_DataRequest_14
    691                {
    692                  req.profileID = *pID;
   \   00011E   8A82         MOV       DPL,R2
   \   000120   8B83         MOV       DPH,R3
   \   000122   12....       LCALL     ??Subroutine44_0 & 0xFFFF
   \                     ??CrossCallReturnLabel_108:
   \   000125   7412         MOV       A,#0x12
   \   000127   12....       LCALL     ?XSTACK_DISP0_8
   \   00012A   12....       LCALL     ??Subroutine42_0 & 0xFFFF
    693                  osal_mem_free( pID );
   \                     ??CrossCallReturnLabel_96:
   \   00012D                ; Setup parameters for call to function osal_mem_free
   \   00012D   12....       LCALL     `??osal_mem_free::?relay`; Banked call to: osal_mem_free
   \   000130   8019         SJMP      ??AF_DataRequest_14
    694                }
    695              }
    696              else if ( srcEP->simpleDesc )
   \                     ??AF_DataRequest_12:
   \   000132   85..82       MOV       DPL,?V0
   \   000135   85..83       MOV       DPH,?V1
   \   000138   12....       LCALL     ?Subroutine6 & 0xFFFF
   \                     ??CrossCallReturnLabel_1:
   \   00013B   600E         JZ        ??AF_DataRequest_14
    697              {
    698                req.profileID = srcEP->simpleDesc->AppProfId;
   \   00013D   A3           INC       DPTR
   \   00013E   12....       LCALL     ??Subroutine44_0 & 0xFFFF
    699              }
    700            }
   \                     ??CrossCallReturnLabel_109:
   \   000141   7412         MOV       A,#0x12
   \   000143   12....       LCALL     ?XSTACK_DISP0_8
   \   000146   E8           MOV       A,R0
   \   000147   F0           MOVX      @DPTR,A
   \   000148   A3           INC       DPTR
   \   000149   E9           MOV       A,R1
   \                     ??AF_DataRequest_10:
   \   00014A   F0           MOVX      @DPTR,A
    701          
    702            req.txOptions = 0;
   \                     ??AF_DataRequest_14:
   \   00014B   7418         MOV       A,#0x18
   \   00014D   12....       LCALL     ?XSTACK_DISP0_8
   \   000150   E4           CLR       A
   \   000151   F0           MOVX      @DPTR,A
   \   000152   A3           INC       DPTR
   \   000153   F0           MOVX      @DPTR,A
    703          
    704            if ( ( options & AF_ACK_REQUEST              ) &&
    705                 ( req.dstAddr.addrMode != AddrBroadcast ) &&
    706                 ( req.dstAddr.addrMode != AddrGroup     )    )
   \   000154   E5..         MOV       A,?V2
   \   000156   A2E4         MOV       C,0xE0 /* A   */.4
   \   000158   501C         JNC       ??AF_DataRequest_15
   \   00015A   740B         MOV       A,#0xb
   \   00015C   12....       LCALL     ?XSTACK_DISP0_8
   \   00015F   E0           MOVX      A,@DPTR
   \   000160   F8           MOV       R0,A
   \   000161   740F         MOV       A,#0xf
   \   000163   68           XRL       A,R0
   \   000164   6010         JZ        ??AF_DataRequest_15
   \   000166   7401         MOV       A,#0x1
   \   000168   68           XRL       A,R0
   \   000169   600B         JZ        ??AF_DataRequest_15
    707            {
    708              req.txOptions |=  APS_TX_OPTIONS_ACK;
   \   00016B   7418         MOV       A,#0x18
   \   00016D   12....       LCALL     ?XSTACK_DISP0_8
   \   000170   7404         MOV       A,#0x4
   \   000172   F0           MOVX      @DPTR,A
   \   000173   A3           INC       DPTR
   \   000174   E4           CLR       A
   \   000175   F0           MOVX      @DPTR,A
    709            }
    710          
    711            if ( options & AF_SKIP_ROUTING )
   \                     ??AF_DataRequest_15:
   \   000176   E5..         MOV       A,?V2
   \   000178   A2E7         MOV       C,0xE0 /* A   */.7
   \   00017A   5009         JNC       ??AF_DataRequest_16
    712            {
    713              req.txOptions |=  APS_TX_OPTIONS_SKIP_ROUTING;
   \   00017C   7418         MOV       A,#0x18
   \   00017E   12....       LCALL     ?XSTACK_DISP0_8
   \   000181   E0           MOVX      A,@DPTR
   \   000182   4410         ORL       A,#0x10
   \   000184   F0           MOVX      @DPTR,A
    714            }
    715          
    716            if ( options & AF_EN_SECURITY )
   \                     ??AF_DataRequest_16:
   \   000185   E5..         MOV       A,?V2
   \   000187   A2E6         MOV       C,0xE0 /* A   */.6
   \   000189   5012         JNC       ??AF_DataRequest_17
    717            {
    718              req.txOptions |= APS_TX_OPTIONS_SECURITY_ENABLE;
   \   00018B   7418         MOV       A,#0x18
   \   00018D   12....       LCALL     ?XSTACK_DISP0_8
   \   000190   E0           MOVX      A,@DPTR
   \   000191   4401         ORL       A,#0x1
   \   000193   F0           MOVX      @DPTR,A
    719              mtu.aps.secure = TRUE;
   \   000194   7401         MOV       A,#0x1
   \   000196   12....       LCALL     ?XSTACK_DISP0_8
   \   000199   7401         MOV       A,#0x1
   \   00019B   8006         SJMP      ??AF_DataRequest_18
    720            }
    721            else
    722            {
    723              mtu.aps.secure = FALSE;
   \                     ??AF_DataRequest_17:
   \   00019D   7401         MOV       A,#0x1
   \   00019F   12....       LCALL     ?XSTACK_DISP0_8
   \   0001A2   E4           CLR       A
   \                     ??AF_DataRequest_18:
   \   0001A3   F0           MOVX      @DPTR,A
    724            }
    725          
    726            if ( options & AF_PREPROCESS )
   \   0001A4   E5..         MOV       A,?V2
   \   0001A6   A2E2         MOV       C,0xE0 /* A   */.2
   \   0001A8   5009         JNC       ??AF_DataRequest_19
    727            {
    728              req.txOptions |=  APS_TX_OPTIONS_PREPROCESS;
   \   0001AA   7418         MOV       A,#0x18
   \   0001AC   12....       LCALL     ?XSTACK_DISP0_8
   \   0001AF   E0           MOVX      A,@DPTR
   \   0001B0   4440         ORL       A,#0x40
   \   0001B2   F0           MOVX      @DPTR,A
    729            }
    730          
    731            mtu.kvp = FALSE;
   \                     ??AF_DataRequest_19:
   \   0001B3   85..82       MOV       DPL,?XSP + 0
   \   0001B6   85..83       MOV       DPH,?XSP + 1
   \   0001B9   E4           CLR       A
   \   0001BA   F0           MOVX      @DPTR,A
    732          
    733            if ( options & AF_SUPRESS_ROUTE_DISC_NETWORK )
   \   0001BB   E5..         MOV       A,?V2
   \   0001BD   A2E5         MOV       C,0xE0 /* A   */.5
   \   0001BF   5009         JNC       ??AF_DataRequest_20
    734            {
    735              req.discoverRoute = DISC_ROUTE_INITIATE;
   \   0001C1   741B         MOV       A,#0x1b
   \   0001C3   12....       LCALL     ?XSTACK_DISP0_8
   \   0001C6   7404         MOV       A,#0x4
   \   0001C8   800D         SJMP      ??AF_DataRequest_21
    736            }
    737            else
    738            {
    739              req.discoverRoute = AF_DataRequestDiscoverRoute;
   \                     ??AF_DataRequest_20:
   \   0001CA   90....       MOV       DPTR,#AF_DataRequestDiscoverRoute
   \   0001CD   E0           MOVX      A,@DPTR
   \   0001CE   C0E0         PUSH      A
   \   0001D0   741B         MOV       A,#0x1b
   \   0001D2   12....       LCALL     ?XSTACK_DISP0_8
   \   0001D5   D0E0         POP       A
   \                     ??AF_DataRequest_21:
   \   0001D7   F0           MOVX      @DPTR,A
    740            }
    741          
    742            req.transID       = *transID;
   \   0001D8   7437         MOV       A,#0x37
   \   0001DA   12....       LCALL     ?XSTACK_DISP0_8
   \   0001DD   12....       LCALL     ?Subroutine15 & 0xFFFF
   \                     ??CrossCallReturnLabel_26:
   \   0001E0   C0E0         PUSH      A
   \   0001E2   741A         MOV       A,#0x1a
   \   0001E4   12....       LCALL     ?XSTACK_DISP0_8
   \   0001E7   D0E0         POP       A
   \   0001E9   12....       LCALL     ?Subroutine28 & 0xFFFF
    743            req.srcEP         = srcEP->endPoint;
   \                     ??CrossCallReturnLabel_55:
   \   0001EC   E0           MOVX      A,@DPTR
   \   0001ED   C0E0         PUSH      A
   \   0001EF   740C         MOV       A,#0xc
   \   0001F1   12....       LCALL     ?XSTACK_DISP0_8
   \   0001F4   D0E0         POP       A
   \   0001F6   F0           MOVX      @DPTR,A
    744            req.dstEP         = dstAddr->endPoint;
   \   0001F7   85..82       MOV       DPL,?V6
   \   0001FA   85..83       MOV       DPH,?V7
   \   0001FD   A3           INC       DPTR
   \   0001FE   A3           INC       DPTR
   \   0001FF   A3           INC       DPTR
   \   000200   A3           INC       DPTR
   \   000201   A3           INC       DPTR
   \   000202   A3           INC       DPTR
   \   000203   A3           INC       DPTR
   \   000204   A3           INC       DPTR
   \   000205   A3           INC       DPTR
   \   000206   E0           MOVX      A,@DPTR
   \   000207   C0E0         PUSH      A
   \   000209   740D         MOV       A,#0xd
   \   00020B   12....       LCALL     ?XSTACK_DISP0_8
   \   00020E   D0E0         POP       A
   \   000210   F0           MOVX      @DPTR,A
    745            req.clusterID     = cID;
   \   000211   7431         MOV       A,#0x31
   \   000213   12....       LCALL     ?XSTACK_DISP0_8
   \   000216   12....       LCALL     ??Subroutine44_0 & 0xFFFF
   \                     ??CrossCallReturnLabel_110:
   \   000219   7410         MOV       A,#0x10
   \   00021B   12....       LCALL     ?XSTACK_DISP0_8
   \   00021E   12....       LCALL     ??Subroutine42_0 & 0xFFFF
   \                     ??CrossCallReturnLabel_97:
   \   000221   7433         MOV       A,#0x33
   \   000223   12....       LCALL     ?XSTACK_DISP0_8
   \   000226   E0           MOVX      A,@DPTR
   \   000227   FE           MOV       R6,A
   \   000228   A3           INC       DPTR
   \   000229   E0           MOVX      A,@DPTR
   \   00022A   FF           MOV       R7,A
    746            req.asduLen       = len;
   \   00022B   7414         MOV       A,#0x14
   \   00022D   12....       LCALL     ?XSTACK_DISP0_8
   \   000230   EE           MOV       A,R6
   \   000231   F0           MOVX      @DPTR,A
   \   000232   A3           INC       DPTR
   \   000233   EF           MOV       A,R7
   \   000234   F0           MOVX      @DPTR,A
    747            req.asdu          = buf;
   \   000235   7435         MOV       A,#0x35
   \   000237   12....       LCALL     ?XSTACK_DISP0_8
   \   00023A   12....       LCALL     ??Subroutine44_0 & 0xFFFF
   \                     ??CrossCallReturnLabel_111:
   \   00023D   7416         MOV       A,#0x16
   \   00023F   12....       LCALL     ?XSTACK_DISP0_8
   \   000242   12....       LCALL     ??Subroutine42_0 & 0xFFFF
    748            req.radiusCounter = radius;
   \                     ??CrossCallReturnLabel_98:
   \   000245   7439         MOV       A,#0x39
   \   000247   12....       LCALL     ?XSTACK_DISP0_8
   \   00024A   E0           MOVX      A,@DPTR
   \   00024B   C0E0         PUSH      A
   \   00024D   741C         MOV       A,#0x1c
   \   00024F   12....       LCALL     ?XSTACK_DISP0_8
   \   000252   D0E0         POP       A
   \   000254   12....       LCALL     ?Subroutine28 & 0xFFFF
    749          #if defined ( INTER_PAN )
    750            req.dstPanId      = dstAddr->panId;
    751          #endif // INTER_PAN
    752          
    753            // Look if there is a Callback function registered for this endpoint
    754            // The callback is used to control the AF Transaction ID used when sending messages
    755            pList = afFindEndPointDescList( srcEP->endPoint );
   \                     ??CrossCallReturnLabel_56:
   \   000257   12....       LCALL     ?Subroutine18 & 0xFFFF
   \                     ??CrossCallReturnLabel_40:
   \   00025A   8A82         MOV       DPL,R2
   \   00025C   8B83         MOV       DPH,R3
    756          
    757            if ( ( pList != NULL ) && ( pList->pfnApplCB != NULL ) )
   \   00025E   E582         MOV       A,DPL
   \   000260   4583         ORL       A,DPH
   \   000262   6012         JZ        ??AF_DataRequest_22
   \   000264   A3           INC       DPTR
   \   000265   A3           INC       DPTR
   \   000266   A3           INC       DPTR
   \   000267   A3           INC       DPTR
   \   000268   A3           INC       DPTR
   \   000269   12....       LCALL     ?Subroutine6 & 0xFFFF
   \                     ??CrossCallReturnLabel_2:
   \   00026C   6008         JZ        ??AF_DataRequest_22
    758            {
    759              pList->pfnApplCB( &req );
   \   00026E                ; Setup parameters for indirect call
   \   00026E   7403         MOV       A,#0x3
   \   000270   12....       LCALL     ?XSTACK_DISP101_8
   \   000273   12....       LCALL     ?CALL_IND
    760            }
    761          
    762          #if defined ( INTER_PAN )
    763            if ( StubAPS_InterPan( dstAddr->panId, dstAddr->endPoint ) )
    764            {
    765              if ( len > INTERP_DataReqMTU() )
    766              {
    767                stat = afStatus_INVALID_PARAMETER;
    768              }
    769              else
    770              {
    771                stat = INTERP_DataReq( &req );
    772              }
    773            }
    774            else
    775          #endif // INTER_PAN
    776            {
    777              if (len > afDataReqMTU( &mtu ) )
   \                     ??AF_DataRequest_22:
   \   000276                ; Setup parameters for call to function afDataReqMTU
   \   000276   AA..         MOV       R2,?XSP + 0
   \   000278   AB..         MOV       R3,?XSP + 1
   \   00027A   12....       LCALL     `??afDataReqMTU::?relay`; Banked call to: afDataReqMTU
   \   00027D   E9           MOV       A,R1
   \   00027E   C3           CLR       C
   \   00027F   9E           SUBB      A,R6
   \   000280   E4           CLR       A
   \   000281   9F           SUBB      A,R7
   \   000282   5019         JNC       ??AF_DataRequest_23
    778              {
    779                if (apsfSendFragmented)
   \   000284   90....       MOV       DPTR,#apsfSendFragmented
   \   000287   12....       LCALL     ?Subroutine10 & 0xFFFF
   \                     ??CrossCallReturnLabel_13:
   \   00028A   600D         JZ        ??AF_DataRequest_24
    780                {
    781                  stat = (*apsfSendFragmented)( &req );
   \   00028C                ; Setup parameters for indirect call
   \   00028C   7403         MOV       A,#0x3
   \   00028E   12....       LCALL     ?XSTACK_DISP101_8
   \   000291   12....       LCALL     ??Subroutine41_0 & 0xFFFF
    782                }
   \                     ??CrossCallReturnLabel_84:
   \   000294   12....       LCALL     ?CALL_IND
   \   000297   800C         SJMP      ??AF_DataRequest_25
    783                else
    784                {
    785                  stat = afStatus_INVALID_PARAMETER;
   \                     ??AF_DataRequest_24:
   \   000299   7E02         MOV       R6,#0x2
   \   00029B   800A         SJMP      ??AF_DataRequest_26
    786                }
    787              }
    788              else
    789              {
    790                stat = APSDE_DataReq( &req );
   \                     ??AF_DataRequest_23:
   \   00029D                ; Setup parameters for call to function APSDE_DataReq
   \   00029D   7403         MOV       A,#0x3
   \   00029F   12....       LCALL     ?XSTACK_DISP101_8
   \   0002A2   12....       LCALL     `??APSDE_DataReq::?relay`; Banked call to: APSDE_DataReq
   \                     ??AF_DataRequest_25:
   \   0002A5   E9           MOV       A,R1
   \   0002A6   FE           MOV       R6,A
    791              }
    792            }
    793          
    794            /*
    795             * If this is an EndPoint-to-EndPoint message on the same device, it will not
    796             * get added to the NWK databufs. So it will not go OTA and it will not get
    797             * a MACCB_DATA_CONFIRM_CMD callback. Thus it is necessary to generate the
    798             * AF_DATA_CONFIRM_CMD here. Note that APSDE_DataConfirm() only generates one
    799             * message with the first in line TransSeqNumber, even on a multi message.
    800             * Also note that a reflected msg will not have its confirmation generated
    801             * here.
    802             */
    803            if ( (req.dstAddr.addrMode == Addr16Bit) &&
    804                 (req.dstAddr.addr.shortAddr == NLME_GetShortAddr()) )
   \                     ??AF_DataRequest_26:
   \   0002A7   740B         MOV       A,#0xb
   \   0002A9   12....       LCALL     ?XSTACK_DISP0_8
   \   0002AC   E0           MOVX      A,@DPTR
   \   0002AD   6402         XRL       A,#0x2
   \   0002AF   702F         JNZ       ??AF_DataRequest_27
   \   0002B1                ; Setup parameters for call to function NLME_GetShortAddr
   \   0002B1   12....       LCALL     `??NLME_GetShortAddr::?relay`; Banked call to: NLME_GetShortAddr
   \   0002B4   8A..         MOV       ?V4,R2
   \   0002B6   8B..         MOV       ?V5,R3
   \   0002B8   A8..         MOV       R0,?V4
   \   0002BA   A9..         MOV       R1,?V5
   \   0002BC   7403         MOV       A,#0x3
   \   0002BE   12....       LCALL     ?XSTACK_DISP0_8
   \   0002C1   E0           MOVX      A,@DPTR
   \   0002C2   68           XRL       A,R0
   \   0002C3   7003         JNZ       ??AF_DataRequest_28
   \   0002C5   A3           INC       DPTR
   \   0002C6   E0           MOVX      A,@DPTR
   \   0002C7   69           XRL       A,R1
   \                     ??AF_DataRequest_28:
   \   0002C8   7016         JNZ       ??AF_DataRequest_27
    805            {
    806              afDataConfirm( srcEP->endPoint, *transID, stat );
   \   0002CA                ; Setup parameters for call to function afDataConfirm
   \   0002CA   EE           MOV       A,R6
   \   0002CB   FB           MOV       R3,A
   \   0002CC   7437         MOV       A,#0x37
   \   0002CE   12....       LCALL     ?XSTACK_DISP0_8
   \   0002D1   12....       LCALL     ?Subroutine15 & 0xFFFF
    807            }
   \                     ??CrossCallReturnLabel_27:
   \   0002D4   FA           MOV       R2,A
   \   0002D5   85..82       MOV       DPL,?V0
   \   0002D8   85..83       MOV       DPH,?V1
   \   0002DB   E0           MOVX      A,@DPTR
   \   0002DC   F9           MOV       R1,A
   \   0002DD   12....       LCALL     `??afDataConfirm::?relay`; Banked call to: afDataConfirm
    808          
    809            if ( stat == afStatus_SUCCESS )
   \                     ??AF_DataRequest_27:
   \   0002E0   EE           MOV       A,R6
   \   0002E1   700A         JNZ       ??AF_DataRequest_29
    810            {
    811              (*transID)++;
   \   0002E3   7437         MOV       A,#0x37
   \   0002E5   12....       LCALL     ?XSTACK_DISP0_8
   \   0002E8   12....       LCALL     ?Subroutine15 & 0xFFFF
    812            }
   \                     ??CrossCallReturnLabel_28:
   \   0002EB   04           INC       A
   \   0002EC   F0           MOVX      @DPTR,A
    813          
    814            return (afStatus_t)stat;
   \                     ??AF_DataRequest_29:
   \   0002ED   EE           MOV       A,R6
   \   0002EE   F9           MOV       R1,A
   \                     ??AF_DataRequest_3:
   \   0002EF   7421         MOV       A,#0x21
   \   0002F1                REQUIRE ?Subroutine3
   \   0002F1                ; // Fall through to label ?Subroutine3
    815          }

   \                                 In  segment BANKED_CODE, align 1, keep-with-next
   \                     ?Subroutine9:
   \   000000   85..82       MOV       DPL,?V6
   \   000003   85..83       MOV       DPH,?V7
   \   000006                REQUIRE ??Subroutine45_0
   \   000006                ; // Fall through to label ??Subroutine45_0
    816          
    817          #if defined ( ZIGBEEPRO )
    818          /*********************************************************************
    819           * @fn      AF_DataRequestSrcRtg
    820           *
    821           * @brief   Common functionality for invoking APSDE_DataReq() for both
    822           *          SendMulti and MSG-Send.
    823           *
    824           * input parameters
    825           *
    826           * @param  *dstAddr - Full ZB destination address: Nwk Addr + End Point.
    827           * @param  *srcEP - Origination (i.e. respond to or ack to) End Point Descr.
    828           * @param   cID - A valid cluster ID as specified by the Profile.
    829           * @param   len - Number of bytes of data pointed to by next param.
    830           * @param  *buf - A pointer to the data bytes to send.
    831           * @param  *transID - A pointer to a byte which can be modified and which will
    832           *                    be used as the transaction sequence number of the msg.
    833           * @param   options - Valid bit mask of Tx options.
    834           * @param   radius - Normally set to AF_DEFAULT_RADIUS.
    835           * @param   relayCnt - Number of devices in the relay list
    836           * @param   pRelayList - Pointer to the relay list
    837           *
    838           * output parameters
    839           *
    840           * @param  *transID - Incremented by one if the return value is success.
    841           *
    842           * @return  afStatus_t - See previous definition of afStatus_... types.
    843           */
    844          

   \                                 In  segment BANKED_CODE, align 1, keep-with-next
    845          afStatus_t AF_DataRequestSrcRtg( afAddrType_t *dstAddr, endPointDesc_t *srcEP,
   \                     AF_DataRequestSrcRtg:
    846                                     uint16 cID, uint16 len, uint8 *buf, uint8 *transID,
    847                                     uint8 options, uint8 radius, uint8 relayCnt, uint16* pRelayList )
    848          {
   \   000000                REQUIRE ?V0
   \   000000                REQUIRE ?V1
   \   000000                REQUIRE ?V2
   \   000000                REQUIRE ?V3
   \   000000   74F4         MOV       A,#-0xc
   \   000002   12....       LCALL     ?BANKED_ENTER_XDATA
   \   000005                ; Saved register size: 12
   \   000005                ; Auto size: 0
   \   000005   EA           MOV       A,R2
   \   000006   FE           MOV       R6,A
   \   000007   EB           MOV       A,R3
   \   000008   FF           MOV       R7,A
   \   000009   8C..         MOV       ?V2,R4
   \   00000B   8D..         MOV       ?V3,R5
   \   00000D   89..         MOV       ?V0,R1
    849            uint8 status;
    850          
    851            /* Add the source route to the source routing table */
    852            status = RTG_AddSrcRtgEntry_Guaranteed( dstAddr->addr.shortAddr, relayCnt,
    853                                                   pRelayList );
   \   00000F                ; Setup parameters for call to function RTG_AddSrcRtgEntry_Guaranteed
   \   00000F   7416         MOV       A,#0x16
   \   000011   12....       LCALL     ?XSTACK_DISP0_8
   \   000014   12....       LCALL     ?Subroutine17 & 0xFFFF
   \                     ??CrossCallReturnLabel_36:
   \   000017   7415         MOV       A,#0x15
   \   000019   12....       LCALL     ?XSTACK_DISP0_8
   \   00001C   E0           MOVX      A,@DPTR
   \   00001D   F9           MOV       R1,A
   \   00001E   8A82         MOV       DPL,R2
   \   000020   8B83         MOV       DPH,R3
   \   000022   12....       LCALL     ??Subroutine45_0 & 0xFFFF
   \                     ??CrossCallReturnLabel_117:
   \   000025   12....       LCALL     `??RTG_AddSrcRtgEntry_Guaranteed::?relay`; Banked call to: RTG_AddSrcRtgEntry_Guaranteed
   \   000028   E9           MOV       A,R1
   \   000029   F9           MOV       R1,A
    854          
    855            if( status == RTG_SUCCESS)
   \   00002A   7043         JNZ       ??AF_DataRequestSrcRtg_0
    856            {
    857              /* Call AF_DataRequest to send the data */
    858              status = AF_DataRequest( dstAddr, srcEP, cID, len, buf, transID, options, radius );
   \   00002C                ; Setup parameters for call to function AF_DataRequest
   \   00002C   7414         MOV       A,#0x14
   \   00002E   12....       LCALL     ?XSTACK_DISP0_8
   \   000031   E0           MOVX      A,@DPTR
   \   000032   F5..         MOV       ?V1,A
   \   000034   78..         MOV       R0,#?V1
   \   000036   12....       LCALL     ?PUSH_XSTACK_I_ONE
   \   000039   7413         MOV       A,#0x13
   \   00003B   12....       LCALL     ?XSTACK_DISP0_8
   \   00003E   12....       LCALL     ?PUSH_XSTACK8_X_TWO
   \   000041   7413         MOV       A,#0x13
   \   000043   12....       LCALL     ?XSTACK_DISP0_8
   \   000046   12....       LCALL     ?PUSH_XSTACK8_X_TWO
   \   000049   7413         MOV       A,#0x13
   \   00004B   12....       LCALL     ?XSTACK_DISP0_8
   \   00004E   12....       LCALL     ?PUSH_XSTACK8_X_TWO
   \   000051   7413         MOV       A,#0x13
   \   000053   12....       LCALL     ?XSTACK_DISP0_8
   \   000056   12....       LCALL     ?PUSH_XSTACK8_X_TWO
   \   000059   A9..         MOV       R1,?V0
   \   00005B   AC..         MOV       R4,?V2
   \   00005D   AD..         MOV       R5,?V3
   \   00005F   EE           MOV       A,R6
   \   000060   FA           MOV       R2,A
   \   000061   EF           MOV       A,R7
   \   000062   FB           MOV       R3,A
   \   000063   12....       LCALL     `??AF_DataRequest::?relay`; Banked call to: AF_DataRequest
   \   000066   7409         MOV       A,#0x9
   \   000068   12....       LCALL     ?DEALLOC_XSTACK8
   \   00006B   E9           MOV       A,R1
   \   00006C   F9           MOV       R1,A
   \   00006D   800B         SJMP      ??AF_DataRequestSrcRtg_1
    859            }
    860            else if( status == RTG_INVALID_PATH )
   \                     ??AF_DataRequestSrcRtg_0:
   \   00006F   7405         MOV       A,#0x5
   \   000071   69           XRL       A,R1
   \   000072   7004         JNZ       ??AF_DataRequestSrcRtg_2
    861            {
    862              /* The source route relay count is exceeding the network limit */
    863              status = afStatus_INVALID_PARAMETER;
   \   000074   7902         MOV       R1,#0x2
   \   000076   8002         SJMP      ??AF_DataRequestSrcRtg_1
    864            }
    865            else
    866            {
    867              /* The guaranteed adding entry fails due to memory failure */
    868              status = afStatus_MEM_FAIL;
   \                     ??AF_DataRequestSrcRtg_2:
   \   000078   7910         MOV       R1,#0x10
    869            }
    870            return status;
   \                     ??AF_DataRequestSrcRtg_1:
   \   00007A   02....       LJMP      ?Subroutine4 & 0xFFFF
    871          }

   \                                 In  segment BANKED_CODE, align 1, keep-with-next
   \                     ?Subroutine4:
   \   000000   7F04         MOV       R7,#0x4
   \   000002   02....       LJMP      ?BANKED_LEAVE_XDATA
    872          
    873          #endif // ZIGBEEPRO
    874          
    875          /*********************************************************************
    876           * @fn      afFindEndPointDescList
    877           *
    878           * @brief   Find the endpoint description entry from the endpoint
    879           *          number.
    880           *
    881           * @param   EndPoint - Application Endpoint to look for
    882           *
    883           * @return  the address to the endpoint/interface description entry
    884           */

   \                                 In  segment BANKED_CODE, align 1, keep-with-next
    885          static epList_t *afFindEndPointDescList( uint8 EndPoint )
   \                     afFindEndPointDescList:
    886          {
   \   000000   C082         PUSH      DPL
   \   000002   C083         PUSH      DPH
   \   000004                ; Saved register size: 2
   \   000004                ; Auto size: 0
    887            epList_t *epSearch;
    888          
    889            for (epSearch = epList; epSearch != NULL; epSearch = epSearch->nextDesc)
   \   000004   90....       MOV       DPTR,#epList
   \   000007   8004         SJMP      ??afFindEndPointDescList_0
   \                     ??afFindEndPointDescList_1:
   \   000009   8A82         MOV       DPL,R2
   \   00000B   8B83         MOV       DPH,R3
   \                     ??afFindEndPointDescList_0:
   \   00000D   12....       LCALL     ??Subroutine45_0 & 0xFFFF
   \                     ??CrossCallReturnLabel_118:
   \   000010   EA           MOV       A,R2
   \   000011   4B           ORL       A,R3
   \   000012   600C         JZ        ??afFindEndPointDescList_2
    890            {
    891              if (epSearch->epDesc->endPoint == EndPoint)
   \   000014   8A82         MOV       DPL,R2
   \   000016   8B83         MOV       DPH,R3
   \   000018   A3           INC       DPTR
   \   000019   A3           INC       DPTR
   \   00001A   12....       LCALL     ?Subroutine15 & 0xFFFF
    892              {
    893                break;
    894              }
    895            }
   \                     ??CrossCallReturnLabel_29:
   \   00001D   69           XRL       A,R1
   \   00001E   70E9         JNZ       ??afFindEndPointDescList_1
    896          
    897            return epSearch;
   \                     ??afFindEndPointDescList_2:
   \   000020                REQUIRE ?Subroutine5
   \   000020                ; // Fall through to label ?Subroutine5
    898          }

   \                                 In  segment BANKED_CODE, align 1, keep-with-next
   \                     ?Subroutine5:
   \   000000   D083         POP       DPH
   \   000002   D082         POP       DPL
   \   000004   02....       LJMP      ?BRET
    899          
    900          /*********************************************************************
    901           * @fn      afFindEndPointDesc
    902           *
    903           * @brief   Find the endpoint description entry from the endpoint
    904           *          number.
    905           *
    906           * @param   EndPoint - Application Endpoint to look for
    907           *
    908           * @return  the address to the endpoint/interface description entry
    909           */

   \                                 In  segment BANKED_CODE, align 1, keep-with-next
    910          endPointDesc_t *afFindEndPointDesc( uint8 EndPoint )
   \                     afFindEndPointDesc:
    911          {
   \   000000                REQUIRE ?V0
   \   000000                REQUIRE ?V1
   \   000000   74F6         MOV       A,#-0xa
   \   000002   12....       LCALL     ?BANKED_ENTER_XDATA
   \   000005                ; Saved register size: 10
   \   000005                ; Auto size: 0
    912            epList_t *epSearch;
    913          
    914            // Look for the endpoint
    915            epSearch = afFindEndPointDescList( EndPoint );
   \   000005                ; Setup parameters for call to function afFindEndPointDescList
   \   000005   12....       LCALL     ?Subroutine32 & 0xFFFF
    916          
    917            if ( epSearch )
   \                     ??CrossCallReturnLabel_67:
   \   000008   6007         JZ        ??afFindEndPointDesc_0
    918              return ( epSearch->epDesc );
   \   00000A   A3           INC       DPTR
   \   00000B   A3           INC       DPTR
   \   00000C   12....       LCALL     ??Subroutine45_0 & 0xFFFF
   \                     ??CrossCallReturnLabel_119:
   \   00000F   8004         SJMP      ??afFindEndPointDesc_1
    919            else
    920              return ( (endPointDesc_t *)NULL );
   \                     ??afFindEndPointDesc_0:
   \   000011   7A00         MOV       R2,#0x0
   \   000013   7B00         MOV       R3,#0x0
   \                     ??afFindEndPointDesc_1:
   \   000015   02....       LJMP      ?Subroutine1 & 0xFFFF
    921          }

   \                                 In  segment BANKED_CODE, align 1, keep-with-next
   \                     ?Subroutine32:
   \   000000   12....       LCALL     `??afFindEndPointDescList::?relay`; Banked call to: afFindEndPointDescList
   \   000003   8A82         MOV       DPL,R2
   \   000005   8B83         MOV       DPH,R3
   \   000007   E582         MOV       A,DPL
   \   000009   4583         ORL       A,DPH
   \   00000B   22           RET
    922          
    923          /*********************************************************************
    924           * @fn      afFindSimpleDesc
    925           *
    926           * @brief   Find the Simple Descriptor from the endpoint number.
    927           *
    928           * @param   EP - Application Endpoint to look for.
    929           *
    930           * @return  Non-zero to indicate that the descriptor memory must be freed.
    931           */

   \                                 In  segment BANKED_CODE, align 1, keep-with-next
    932          uint8 afFindSimpleDesc( SimpleDescriptionFormat_t **ppDesc, uint8 EP )
   \                     afFindSimpleDesc:
    933          {
   \   000000                REQUIRE ?V0
   \   000000                REQUIRE ?V2
   \   000000                REQUIRE ?V3
   \   000000   74F4         MOV       A,#-0xc
   \   000002   12....       LCALL     ?BANKED_ENTER_XDATA
   \   000005                ; Saved register size: 12
   \   000005                ; Auto size: 0
   \   000005   EA           MOV       A,R2
   \   000006   FE           MOV       R6,A
   \   000007   EB           MOV       A,R3
   \   000008   FF           MOV       R7,A
   \   000009   89..         MOV       ?V0,R1
    934            epList_t *epItem = afFindEndPointDescList( EP );
   \   00000B                ; Setup parameters for call to function afFindEndPointDescList
   \   00000B   12....       LCALL     `??afFindEndPointDescList::?relay`; Banked call to: afFindEndPointDescList
   \   00000E   8A..         MOV       ?V2,R2
   \   000010   8B..         MOV       ?V3,R3
   \   000012   AC..         MOV       R4,?V2
   \   000014   AD..         MOV       R5,?V3
    935            uint8 rtrn = FALSE;
   \   000016   7A00         MOV       R2,#0x0
    936          
    937            if ( epItem )
   \   000018   EC           MOV       A,R4
   \   000019   4D           ORL       A,R5
   \   00001A   602F         JZ        ??afFindSimpleDesc_0
    938            {
    939              if ( epItem->pfnDescCB )
   \   00001C   8C82         MOV       DPL,R4
   \   00001E   8B83         MOV       DPH,R3
   \   000020   12....       LCALL     ?Subroutine6 & 0xFFFF
   \                     ??CrossCallReturnLabel_3:
   \   000023   6012         JZ        ??afFindSimpleDesc_1
    940              {
    941                *ppDesc = epItem->pfnDescCB( AF_DESCRIPTOR_SIMPLE, EP );
   \   000025                ; Setup parameters for indirect call
   \   000025   AA..         MOV       R2,?V0
   \   000027   7901         MOV       R1,#0x1
   \   000029   12....       LCALL     ?CALL_IND
   \   00002C   8E82         MOV       DPL,R6
   \   00002E   8F83         MOV       DPH,R7
   \   000030   12....       LCALL     ?Subroutine31 & 0xFFFF
    942                rtrn = TRUE;
   \                     ??CrossCallReturnLabel_66:
   \   000033   7A01         MOV       R2,#0x1
   \   000035   801C         SJMP      ??afFindSimpleDesc_2
    943              }
    944              else
    945              {
    946                *ppDesc = epItem->epDesc->simpleDesc;
   \                     ??afFindSimpleDesc_1:
   \   000037   8C82         MOV       DPL,R4
   \   000039   8B83         MOV       DPH,R3
   \   00003B   A3           INC       DPTR
   \   00003C   A3           INC       DPTR
   \   00003D   12....       LCALL     ?Subroutine11 & 0xFFFF
    947              }
    948            }
   \                     ??CrossCallReturnLabel_15:
   \   000040   F9           MOV       R1,A
   \   000041   8E82         MOV       DPL,R6
   \   000043   8F83         MOV       DPH,R7
   \   000045   E8           MOV       A,R0
   \   000046   F0           MOVX      @DPTR,A
   \   000047   A3           INC       DPTR
   \   000048   E9           MOV       A,R1
   \   000049   8007         SJMP      ??afFindSimpleDesc_3
    949            else
    950            {
    951              *ppDesc = NULL;
   \                     ??afFindSimpleDesc_0:
   \   00004B   8E82         MOV       DPL,R6
   \   00004D   8F83         MOV       DPH,R7
   \   00004F   E4           CLR       A
   \   000050   F0           MOVX      @DPTR,A
   \   000051   A3           INC       DPTR
   \                     ??afFindSimpleDesc_3:
   \   000052   F0           MOVX      @DPTR,A
    952            }
    953          
    954            return rtrn;
   \                     ??afFindSimpleDesc_2:
   \   000053   EA           MOV       A,R2
   \   000054   F9           MOV       R1,A
   \   000055   02....       LJMP      ?Subroutine4 & 0xFFFF
    955          }
    956          
    957          /*********************************************************************
    958           * @fn      afGetDescCB
    959           *
    960           * @brief   Get the Descriptor callback function.
    961           *
    962           * @param   epDesc - pointer to the endpoint descriptor
    963           *
    964           * @return  function pointer or NULL
    965           */
    966          static pDescCB afGetDescCB( endPointDesc_t *epDesc )
    967          {
    968            epList_t *epSearch;
    969          
    970            // Start at the beginning
    971            epSearch = epList;
    972          
    973            // Look through the list until the end
    974            while ( epSearch )
    975            {
    976              // Is there a match?
    977              if ( epSearch->epDesc == epDesc )
    978              {
    979                return ( epSearch->pfnDescCB );
    980              }
    981              else
    982                epSearch = epSearch->nextDesc;  // Next entry
    983            }
    984          
    985            return ( (pDescCB)NULL );
    986          }
    987          
    988          /*********************************************************************
    989           * @fn      afDataReqMTU
    990           *
    991           * @brief   Get the Data Request MTU(Max Transport Unit).
    992           *
    993           * @param   fields - afDataReqMTU_t
    994           *
    995           * @return  uint8(MTU)
    996           */

   \                                 In  segment BANKED_CODE, align 1, keep-with-next
    997          uint8 afDataReqMTU( afDataReqMTU_t* fields )
   \                     afDataReqMTU:
    998          {
   \   000000   74F7         MOV       A,#-0x9
   \   000002   12....       LCALL     ?BANKED_ENTER_XDATA
   \   000005                ; Saved register size: 9
   \   000005                ; Auto size: 0
    999            uint8 len;
   1000            uint8 hdr;
   1001          
   1002            if ( fields->kvp == TRUE )
   \   000005   8A82         MOV       DPL,R2
   \   000007   8B83         MOV       DPH,R3
   \   000009   E0           MOVX      A,@DPTR
   \   00000A   6401         XRL       A,#0x1
   \   00000C   7004         JNZ       ??afDataReqMTU_0
   1003            {
   1004              hdr = AF_HDR_KVP_MAX_LEN;
   \   00000E   7E08         MOV       R6,#0x8
   \   000010   8002         SJMP      ??afDataReqMTU_1
   1005            }
   1006            else
   1007            {
   1008              hdr = AF_HDR_V1_1_MAX_LEN;
   \                     ??afDataReqMTU_0:
   \   000012   7E00         MOV       R6,#0x0
   1009            }
   1010          
   1011            len = (uint8)(APSDE_DataReqMTU(&fields->aps) - hdr);
   1012          
   1013            return len;
   \                     ??afDataReqMTU_1:
   \   000014                ; Setup parameters for call to function APSDE_DataReqMTU
   \   000014   A3           INC       DPTR
   \   000015   AA82         MOV       R2,DPL
   \   000017   AB83         MOV       R3,DPH
   \   000019   12....       LCALL     `??APSDE_DataReqMTU::?relay`; Banked call to: APSDE_DataReqMTU
   \   00001C   E9           MOV       A,R1
   \   00001D   C3           CLR       C
   \   00001E   9E           SUBB      A,R6
   \   00001F   F9           MOV       R1,A
   \   000020   02....       LJMP      ?Subroutine2 & 0xFFFF
   1014          }
   1015          
   1016          /*********************************************************************
   1017           * @fn      afGetMatch
   1018           *
   1019           * @brief   Set the allow response flag.
   1020           *
   1021           * @param   ep - Application Endpoint to look for
   1022           * @param   action - true - allow response, false - no response
   1023           *
   1024           * @return  TRUE allow responses, FALSE no response
   1025           */

   \                                 In  segment BANKED_CODE, align 1, keep-with-next
   1026          uint8 afGetMatch( uint8 ep )
   \                     afGetMatch:
   1027          {
   \   000000                REQUIRE ?V0
   \   000000                REQUIRE ?V1
   \   000000   74F6         MOV       A,#-0xa
   \   000002   12....       LCALL     ?BANKED_ENTER_XDATA
   \   000005                ; Saved register size: 10
   \   000005                ; Auto size: 0
   1028            epList_t *epSearch;
   1029          
   1030            // Look for the endpoint
   1031            epSearch = afFindEndPointDescList( ep );
   \   000005                ; Setup parameters for call to function afFindEndPointDescList
   \   000005   12....       LCALL     ?Subroutine32 & 0xFFFF
   1032          
   1033            if ( epSearch )
   \                     ??CrossCallReturnLabel_68:
   \   000008   6011         JZ        ??afGetMatch_0
   1034            {
   1035              if ( epSearch->flags & eEP_AllowMatch )
   \   00000A   A3           INC       DPTR
   \   00000B   A3           INC       DPTR
   \   00000C   A3           INC       DPTR
   \   00000D   A3           INC       DPTR
   \   00000E   A3           INC       DPTR
   \   00000F   A3           INC       DPTR
   \   000010   A3           INC       DPTR
   \   000011   A3           INC       DPTR
   \   000012   E0           MOVX      A,@DPTR
   \   000013   A2E0         MOV       C,0xE0 /* A   */.0
   \   000015   5004         JNC       ??afGetMatch_0
   1036                return ( TRUE );
   \   000017   7901         MOV       R1,#0x1
   \   000019   8002         SJMP      ??afGetMatch_1
   1037              else
   1038                return ( FALSE );
   1039            }
   1040            else
   1041              return ( FALSE );
   \                     ??afGetMatch_0:
   \   00001B   7900         MOV       R1,#0x0
   \                     ??afGetMatch_1:
   \   00001D                REQUIRE ?Subroutine1
   \   00001D                ; // Fall through to label ?Subroutine1
   1042          }
   1043          
   1044          /*********************************************************************
   1045           * @fn      afSetMatch
   1046           *
   1047           * @brief   Set the allow response flag.
   1048           *
   1049           * @param   ep - Application Endpoint to look for
   1050           * @param   action - true - allow response, false - no response
   1051           *
   1052           * @return  TRUE if success, FALSE if endpoint not found
   1053           */

   \                                 In  segment BANKED_CODE, align 1, keep-with-next
   1054          uint8 afSetMatch( uint8 ep, uint8 action )
   \                     afSetMatch:
   1055          {
   \   000000                REQUIRE ?V0
   \   000000                REQUIRE ?V1
   \   000000   74F6         MOV       A,#-0xa
   \   000002   12....       LCALL     ?BANKED_ENTER_XDATA
   \   000005                ; Saved register size: 10
   \   000005                ; Auto size: 0
   \   000005   EA           MOV       A,R2
   \   000006   12....       LCALL     ?Subroutine33 & 0xFFFF
   1056            epList_t *epSearch;
   1057          
   1058            // Look for the endpoint
   1059            epSearch = afFindEndPointDescList( ep );
   1060          
   1061            if ( epSearch )
   \                     ??CrossCallReturnLabel_70:
   \   000009   6019         JZ        ??afSetMatch_0
   1062            {
   1063              if ( action )
   \   00000B   EA           MOV       A,R2
   \   00000C   2408         ADD       A,#0x8
   \   00000E   F582         MOV       DPL,A
   \   000010   E4           CLR       A
   \   000011   39           ADDC      A,R1
   \   000012   F583         MOV       DPH,A
   \   000014   EF           MOV       A,R7
   \   000015   6005         JZ        ??afSetMatch_1
   1064              {
   1065                epSearch->flags |= eEP_AllowMatch;
   \   000017   E0           MOVX      A,@DPTR
   \   000018   D2E0         SETB      0xE0 /* A   */.0
   \   00001A   8003         SJMP      ??afSetMatch_2
   1066              }
   1067              else
   1068              {
   1069                epSearch->flags &= (eEP_AllowMatch ^ 0xFFFF);
   \                     ??afSetMatch_1:
   \   00001C   E0           MOVX      A,@DPTR
   \   00001D   C2E0         CLR       0xE0 /* A   */.0
   \                     ??afSetMatch_2:
   \   00001F   F0           MOVX      @DPTR,A
   1070              }
   1071              return ( TRUE );
   \   000020   7901         MOV       R1,#0x1
   \   000022   8002         SJMP      ??afSetMatch_3
   1072            }
   1073            else
   1074              return ( FALSE );
   \                     ??afSetMatch_0:
   \   000024   7900         MOV       R1,#0x0
   \                     ??afSetMatch_3:
   \   000026   80..         SJMP      ?Subroutine1
   1075          }

   \                                 In  segment BANKED_CODE, align 1, keep-with-next
   \                     ?Subroutine33:
   \   000000   FF           MOV       R7,A
   \   000001                ; Setup parameters for call to function afFindEndPointDescList
   \   000001                ; Setup parameters for call to function afFindEndPointDescList
   \   000001   12....       LCALL     `??afFindEndPointDescList::?relay`; Banked call to: afFindEndPointDescList
   \   000004   8B..         MOV       ?V1,R3
   \   000006   A9..         MOV       R1,?V1
   \   000008   EA           MOV       A,R2
   \   000009   49           ORL       A,R1
   \   00000A   22           RET
   1076          
   1077          /*********************************************************************
   1078           * @fn      afNumEndPoints
   1079           *
   1080           * @brief   Returns the number of endpoints defined (including 0)
   1081           *
   1082           * @param   none
   1083           *
   1084           * @return  number of endpoints
   1085           */

   \                                 In  segment BANKED_CODE, align 1, keep-with-next
   1086          uint8 afNumEndPoints( void )
   \                     afNumEndPoints:
   1087          {
   \   000000   C082         PUSH      DPL
   \   000002   C083         PUSH      DPH
   \   000004                ; Saved register size: 2
   \   000004                ; Auto size: 0
   1088            epList_t *epSearch;
   1089            uint8 endpoints;
   1090          
   1091            // Start at the beginning
   1092            epSearch = epList;
   \   000004   90....       MOV       DPTR,#epList
   \   000007   12....       LCALL     ?Subroutine37 & 0xFFFF
   1093            endpoints = 0;
   \                     ??CrossCallReturnLabel_80:
   \   00000A   7900         MOV       R1,#0x0
   \   00000C   8009         SJMP      ??afNumEndPoints_0
   1094          
   1095            while ( epSearch )
   1096            {
   1097              endpoints++;
   \                     ??afNumEndPoints_1:
   \   00000E   09           INC       R1
   1098              epSearch = epSearch->nextDesc;
   \   00000F   E0           MOVX      A,@DPTR
   \   000010   FA           MOV       R2,A
   \   000011   A3           INC       DPTR
   \   000012   E0           MOVX      A,@DPTR
   \   000013   8A82         MOV       DPL,R2
   \   000015   F583         MOV       DPH,A
   1099            }
   \                     ??afNumEndPoints_0:
   \   000017   E582         MOV       A,DPL
   \   000019   4583         ORL       A,DPH
   \   00001B   70F1         JNZ       ??afNumEndPoints_1
   1100          
   1101            return ( endpoints );
   \   00001D   02....       LJMP      ?Subroutine5 & 0xFFFF
   1102          }
   1103          
   1104          /*********************************************************************
   1105           * @fn      afEndPoints
   1106           *
   1107           * @brief   Fills in the passed in buffer with the endpoint (numbers).
   1108           *          Use afNumEndPoints to find out how big a buffer to supply.
   1109           *
   1110           * @param   epBuf - pointer to mem used
   1111           *
   1112           * @return  void
   1113           */

   \                                 In  segment BANKED_CODE, align 1, keep-with-next
   1114          void afEndPoints( uint8 *epBuf, uint8 skipZDO )
   \                     afEndPoints:
   1115          {
   \   000000   C082         PUSH      DPL
   \   000002   C083         PUSH      DPH
   \   000004                ; Saved register size: 2
   \   000004                ; Auto size: 0
   \   000004   E9           MOV       A,R1
   \   000005   FC           MOV       R4,A
   1116            epList_t *epSearch;
   1117            uint8 endPoint;
   1118          
   1119            // Start at the beginning
   1120            epSearch = epList;
   \   000006   90....       MOV       DPTR,#epList
   \   000009   8025         SJMP      ??afEndPoints_0
   1121          
   1122            while ( epSearch )
   1123            {
   1124              endPoint = epSearch->epDesc->endPoint;
   \                     ??afEndPoints_1:
   \   00000B   8882         MOV       DPL,R0
   \   00000D   8983         MOV       DPH,R1
   \   00000F   A3           INC       DPTR
   \   000010   A3           INC       DPTR
   \   000011   E0           MOVX      A,@DPTR
   \   000012   FD           MOV       R5,A
   \   000013   A3           INC       DPTR
   \   000014   E0           MOVX      A,@DPTR
   \   000015   F583         MOV       DPH,A
   \   000017   8D82         MOV       DPL,R5
   \   000019   E0           MOVX      A,@DPTR
   \   00001A   FD           MOV       R5,A
   1125          
   1126              if ( !skipZDO || endPoint != 0 )
   \   00001B   EC           MOV       A,R4
   \   00001C   6003         JZ        ??afEndPoints_2
   \   00001E   ED           MOV       A,R5
   \   00001F   600B         JZ        ??afEndPoints_3
   1127                *epBuf++ = endPoint;
   \                     ??afEndPoints_2:
   \   000021   ED           MOV       A,R5
   \   000022   8A82         MOV       DPL,R2
   \   000024   8B83         MOV       DPH,R3
   \   000026   F0           MOVX      @DPTR,A
   \   000027   A3           INC       DPTR
   \   000028   AA82         MOV       R2,DPL
   \   00002A   AB83         MOV       R3,DPH
   1128          
   1129              epSearch = epSearch->nextDesc;
   \                     ??afEndPoints_3:
   \   00002C   8882         MOV       DPL,R0
   \   00002E   8983         MOV       DPH,R1
   1130            }
   \                     ??afEndPoints_0:
   \   000030   12....       LCALL     ?Subroutine10 & 0xFFFF
   \                     ??CrossCallReturnLabel_10:
   \   000033   70D6         JNZ       ??afEndPoints_1
   1131          }
   \   000035   02....       LJMP      ?Subroutine5 & 0xFFFF
   1132          
   1133          /*********************************************************************
   1134           * @fn      afCopyAddress
   1135           *
   1136           * @brief   Fills in the passed in afAddrType_t parameter with the corresponding information
   1137           *          from the zAddrType_t parameter.
   1138           *
   1139           * @param   epBuf - pointer to mem used
   1140           *
   1141           * @return  void
   1142           */

   \                                 In  segment BANKED_CODE, align 1, keep-with-next
   1143          void afCopyAddress( afAddrType_t *afAddr, zAddrType_t *zAddr )
   \                     afCopyAddress:
   1144          {
   \   000000   74F7         MOV       A,#-0x9
   \   000002   12....       LCALL     ?BANKED_ENTER_XDATA
   \   000005                ; Saved register size: 9
   \   000005                ; Auto size: 0
   \   000005   EA           MOV       A,R2
   \   000006   FE           MOV       R6,A
   \   000007   EB           MOV       A,R3
   \   000008   FF           MOV       R7,A
   1145            afAddr->addrMode = (afAddrMode_t)zAddr->addrMode;
   \   000009   EC           MOV       A,R4
   \   00000A   2408         ADD       A,#0x8
   \   00000C   F8           MOV       R0,A
   \   00000D   E4           CLR       A
   \   00000E   3D           ADDC      A,R5
   \   00000F   F9           MOV       R1,A
   \   000010   8882         MOV       DPL,R0
   \   000012   F583         MOV       DPH,A
   \   000014   12....       LCALL     ?Subroutine23 & 0xFFFF
   \                     ??CrossCallReturnLabel_47:
   \   000017   A3           INC       DPTR
   \   000018   A3           INC       DPTR
   \   000019   A3           INC       DPTR
   \   00001A   A3           INC       DPTR
   \   00001B   A3           INC       DPTR
   \   00001C   F0           MOVX      @DPTR,A
   1146            if ( zAddr->addrMode == Addr64Bit )
   \   00001D   8882         MOV       DPL,R0
   \   00001F   8983         MOV       DPH,R1
   \   000021   E0           MOVX      A,@DPTR
   \   000022   6403         XRL       A,#0x3
   \   000024   7005         JNZ       ??afCopyAddress_0
   1147            {
   1148              (void)osal_cpyExtAddr( afAddr->addr.extAddr, zAddr->addr.extAddr );
   \   000026                ; Setup parameters for call to function sAddrExtCpy
   \   000026   12....       LCALL     `??sAddrExtCpy::?relay`; Banked call to: sAddrExtCpy
   \   000029   8007         SJMP      ??CrossCallReturnLabel_17
   1149            }
   1150            else
   1151            {
   1152              afAddr->addr.shortAddr = zAddr->addr.shortAddr;
   \                     ??afCopyAddress_0:
   \   00002B   8C82         MOV       DPL,R4
   \   00002D   8D83         MOV       DPH,R5
   \   00002F   12....       LCALL     ?Subroutine12 & 0xFFFF
   1153            }
   1154          
   1155            // Since zAddrType_t has no INTER-PAN information, set the panId member to zero.
   1156            afAddr->panId = 0;
   \                     ??CrossCallReturnLabel_17:
   \   000032   8E82         MOV       DPL,R6
   \   000034   8F83         MOV       DPH,R7
   \   000036   A3           INC       DPTR
   \   000037   A3           INC       DPTR
   \   000038   A3           INC       DPTR
   \   000039   A3           INC       DPTR
   \   00003A   A3           INC       DPTR
   \   00003B   A3           INC       DPTR
   \   00003C   A3           INC       DPTR
   \   00003D   A3           INC       DPTR
   \   00003E   A3           INC       DPTR
   \   00003F   A3           INC       DPTR
   \   000040   E4           CLR       A
   \   000041   F0           MOVX      @DPTR,A
   \   000042   A3           INC       DPTR
   \   000043   F0           MOVX      @DPTR,A
   1157          }
   \   000044   02....       LJMP      ?Subroutine2 & 0xFFFF
   1158          
   1159          /**************************************************************************************************
   1160           * @fn          afAPSF_ConfigGet
   1161           *
   1162           * @brief       This function ascertains the fragmentation configuration that corresponds to
   1163           *              the specified EndPoint.
   1164           *
   1165           * input parameters
   1166           *
   1167           * @param       endPoint - The source EP of a Tx or destination EP of a Rx fragmented message.
   1168           *
   1169           * output parameters
   1170           *
   1171           * @param       pCfg - A pointer to an APSF configuration structure to fill with values.
   1172           *
   1173           * @return      None.
   1174           */

   \                                 In  segment BANKED_CODE, align 1, keep-with-next
   1175          void afAPSF_ConfigGet(uint8 endPoint, afAPSF_Config_t *pCfg)
   \                     afAPSF_ConfigGet:
   1176          {
   \   000000                REQUIRE ?V0
   \   000000                REQUIRE ?V1
   \   000000                REQUIRE ?V2
   \   000000                REQUIRE ?V3
   \   000000   74F4         MOV       A,#-0xc
   \   000002   12....       LCALL     ?BANKED_ENTER_XDATA
   \   000005                ; Saved register size: 12
   \   000005                ; Auto size: 0
   \   000005   EA           MOV       A,R2
   \   000006   FE           MOV       R6,A
   \   000007   EB           MOV       A,R3
   \   000008   12....       LCALL     ?Subroutine33 & 0xFFFF
   1177            epList_t *pList = afFindEndPointDescList(endPoint);
   1178          
   1179            if (pList == NULL)
   \                     ??CrossCallReturnLabel_71:
   \   00000B   700D         JNZ       ??afAPSF_ConfigGet_0
   1180            {
   1181              pCfg->frameDelay = APSF_DEFAULT_INTERFRAME_DELAY;
   \   00000D   8E82         MOV       DPL,R6
   \   00000F   8F83         MOV       DPH,R7
   \   000011   7432         MOV       A,#0x32
   \   000013   F0           MOVX      @DPTR,A
   1182              pCfg->windowSize = APSF_DEFAULT_WINDOW_SIZE;
   \   000014   A3           INC       DPTR
   \   000015   7401         MOV       A,#0x1
   \   000017   F0           MOVX      @DPTR,A
   \   000018   8021         SJMP      ??afAPSF_ConfigGet_1
   1183            }
   1184            else
   1185            {
   1186              (void)osal_memcpy(pCfg, &pList->apsfCfg, sizeof(afAPSF_Config_t));
   \                     ??afAPSF_ConfigGet_0:
   \   00001A                ; Setup parameters for call to function osal_memcpy
   \   00001A   EA           MOV       A,R2
   \   00001B   2406         ADD       A,#0x6
   \   00001D   F5..         MOV       ?V0,A
   \   00001F   E4           CLR       A
   \   000020   39           ADDC      A,R1
   \   000021   F5..         MOV       ?V1,A
   \   000023   75..00       MOV       ?V2,#0x0
   \   000026   78..         MOV       R0,#?V0
   \   000028   12....       LCALL     ?PUSH_XSTACK_I_THREE
   \   00002B   7C02         MOV       R4,#0x2
   \   00002D   7D00         MOV       R5,#0x0
   \   00002F   EE           MOV       A,R6
   \   000030   FA           MOV       R2,A
   \   000031   EF           MOV       A,R7
   \   000032   FB           MOV       R3,A
   \   000033   12....       LCALL     `??osal_memcpy::?relay`; Banked call to: osal_memcpy
   \   000036   7403         MOV       A,#0x3
   \   000038   12....       LCALL     ?DEALLOC_XSTACK8
   1187            }
   1188          }
   \                     ??afAPSF_ConfigGet_1:
   \   00003B                REQUIRE ?Subroutine4
   \   00003B                ; // Fall through to label ?Subroutine4
   1189          
   1190          /**************************************************************************************************
   1191           * @fn          afAPSF_ConfigSet
   1192           *
   1193           * @brief       This function attempts to set the fragmentation configuration that corresponds to
   1194           *              the specified EndPoint.
   1195           *
   1196           * input parameters
   1197           *
   1198           * @param       endPoint - The specific EndPoint for which to set the fragmentation configuration.
   1199           * @param       pCfg - A pointer to an APSF configuration structure to fill with values.
   1200           *
   1201           * output parameters
   1202           *
   1203           * None.
   1204           *
   1205           * @return      afStatus_SUCCESS for success.
   1206           *              afStatus_INVALID_PARAMETER if the specified EndPoint is not registered.
   1207           */

   \                                 In  segment BANKED_CODE, align 1, keep-with-next
   1208          afStatus_t afAPSF_ConfigSet(uint8 endPoint, afAPSF_Config_t *pCfg)
   \                     afAPSF_ConfigSet:
   1209          {
   \   000000                REQUIRE ?V0
   \   000000                REQUIRE ?V2
   \   000000                REQUIRE ?V3
   \   000000                REQUIRE ?V4
   \   000000                REQUIRE ?V5
   \   000000                REQUIRE ?V6
   \   000000   74F1         MOV       A,#-0xf
   \   000002   12....       LCALL     ?BANKED_ENTER_XDATA
   \   000005                ; Saved register size: 15
   \   000005                ; Auto size: 0
   \   000005   EA           MOV       A,R2
   \   000006   FE           MOV       R6,A
   \   000007   EB           MOV       A,R3
   \   000008   FF           MOV       R7,A
   1210            epList_t *pList = afFindEndPointDescList(endPoint);
   \   000009                ; Setup parameters for call to function afFindEndPointDescList
   \   000009   12....       LCALL     `??afFindEndPointDescList::?relay`; Banked call to: afFindEndPointDescList
   1211          
   1212            if (pList == NULL)
   \   00000C   EA           MOV       A,R2
   \   00000D   4B           ORL       A,R3
   \   00000E   7004         JNZ       ??afAPSF_ConfigSet_0
   1213            {
   1214              return afStatus_INVALID_PARAMETER;
   \   000010   7902         MOV       R1,#0x2
   \   000012   8021         SJMP      ??afAPSF_ConfigSet_1
   1215            }
   1216          
   1217            (void)osal_memcpy(&pList->apsfCfg, pCfg, sizeof(afAPSF_Config_t));
   \                     ??afAPSF_ConfigSet_0:
   \   000014                ; Setup parameters for call to function osal_memcpy
   \   000014   8E..         MOV       ?V4,R6
   \   000016   8F..         MOV       ?V5,R7
   \   000018   75..00       MOV       ?V6,#0x0
   \   00001B   78..         MOV       R0,#?V4
   \   00001D   12....       LCALL     ?PUSH_XSTACK_I_THREE
   \   000020   7C02         MOV       R4,#0x2
   \   000022   7D00         MOV       R5,#0x0
   \   000024   EA           MOV       A,R2
   \   000025   2406         ADD       A,#0x6
   \   000027   FA           MOV       R2,A
   \   000028   5001         JNC       ??afAPSF_ConfigSet_2
   \   00002A   0B           INC       R3
   \                     ??afAPSF_ConfigSet_2:
   \   00002B   12....       LCALL     `??osal_memcpy::?relay`; Banked call to: osal_memcpy
   \   00002E   7403         MOV       A,#0x3
   \   000030   12....       LCALL     ?DEALLOC_XSTACK8
   1218            return afStatus_SUCCESS;
   \   000033   7900         MOV       R1,#0x0
   \                     ??afAPSF_ConfigSet_1:
   \   000035   7F07         MOV       R7,#0x7
   \   000037   02....       LJMP      ?BANKED_LEAVE_XDATA
   1219          }
   1220          
   1221          /**************************************************************************************************
   1222           * @fn          afSetApplCB
   1223           *
   1224           * @brief       Sets the pointer to the Application Callback function for a
   1225           *              specific EndPoint.
   1226           *
   1227           * input parameters
   1228           *
   1229           * @param       endPoint - The specific EndPoint for which to set Application Callback.
   1230           * @param       pApplFn - A pointer to the Application Callback function.
   1231           *
   1232           * output parameters
   1233           *
   1234           * None.
   1235           *
   1236           * @return      TRUE if success, FALSE if endpoint not found
   1237           */

   \                                 In  segment BANKED_CODE, align 1, keep-with-next
   1238          uint8 afSetApplCB( uint8 endPoint, pApplCB pApplFn )
   \                     afSetApplCB:
   1239          {
   \   000000                REQUIRE ?V0
   \   000000                REQUIRE ?V2
   \   000000                REQUIRE ?V3
   \   000000   74F4         MOV       A,#-0xc
   \   000002   12....       LCALL     ?BANKED_ENTER_XDATA
   \   000005                ; Saved register size: 12
   \   000005                ; Auto size: 0
   \   000005   EA           MOV       A,R2
   \   000006   FE           MOV       R6,A
   \   000007   EB           MOV       A,R3
   \   000008   FF           MOV       R7,A
   1240            if ( pApplFn != NULL )
   \   000009   EA           MOV       A,R2
   \   00000A   4F           ORL       A,R7
   \   00000B   6017         JZ        ??afSetApplCB_0
   1241            {
   1242              epList_t *epSearch;
   1243          
   1244              // Look for the endpoint
   1245              epSearch = afFindEndPointDescList( endPoint );
   \   00000D                ; Setup parameters for call to function afFindEndPointDescList
   \   00000D   12....       LCALL     ?Subroutine32 & 0xFFFF
   1246          
   1247              if ( epSearch )
   \                     ??CrossCallReturnLabel_69:
   \   000010   6012         JZ        ??afSetApplCB_0
   1248              {
   1249                epSearch->pfnApplCB = pApplFn;
   \   000012   A3           INC       DPTR
   \   000013   A3           INC       DPTR
   \   000014   A3           INC       DPTR
   \   000015   A3           INC       DPTR
   \   000016   A3           INC       DPTR
   \   000017   A3           INC       DPTR
   \   000018   A3           INC       DPTR
   \   000019   A3           INC       DPTR
   \   00001A   A3           INC       DPTR
   \   00001B   EE           MOV       A,R6
   \   00001C   F0           MOVX      @DPTR,A
   \   00001D   A3           INC       DPTR
   \   00001E   EF           MOV       A,R7
   \   00001F   F0           MOVX      @DPTR,A
   1250          
   1251                return ( TRUE );
   \   000020   7901         MOV       R1,#0x1
   \   000022   8002         SJMP      ??afSetApplCB_1
   1252              }
   1253            }
   1254          
   1255            return ( FALSE );
   \                     ??afSetApplCB_0:
   \   000024   7900         MOV       R1,#0x0
   \                     ??afSetApplCB_1:
   \   000026   80..         SJMP      ?Subroutine4
   1256          }

   \                                 In  segment XDATA_ID, align 1, keep-with-next
   \                     `?<Initializer for AF_DataRequestDiscoverRoute>`:
   \   000000   01           DB 1

   \                                 In  segment BANK_RELAYS, align 1
   \                     `??afRegisterExtended::?relay`:
   \   000000   12....       LCALL   ?BDISPATCH
   \   000003   ......       DC24    afRegisterExtended

   \                                 In  segment BANK_RELAYS, align 1
   \                     `??afRegister::?relay`:
   \   000000   12....       LCALL   ?BDISPATCH
   \   000003   ......       DC24    afRegister

   \                                 In  segment BANK_RELAYS, align 1
   \                     `??afDelete::?relay`:
   \   000000   12....       LCALL   ?BDISPATCH
   \   000003   ......       DC24    afDelete

   \                                 In  segment BANK_RELAYS, align 1
   \                     `??afDataConfirm::?relay`:
   \   000000   12....       LCALL   ?BDISPATCH
   \   000003   ......       DC24    afDataConfirm

   \                                 In  segment BANK_RELAYS, align 1
   \                     `??afReflectError::?relay`:
   \   000000   12....       LCALL   ?BDISPATCH
   \   000003   ......       DC24    afReflectError

   \                                 In  segment BANK_RELAYS, align 1
   \                     `??afIncomingData::?relay`:
   \   000000   12....       LCALL   ?BDISPATCH
   \   000003   ......       DC24    afIncomingData

   \                                 In  segment BANK_RELAYS, align 1
   \                     `??afBuildMSGIncoming::?relay`:
   \   000000   12....       LCALL   ?BDISPATCH
   \   000003   ......       DC24    afBuildMSGIncoming

   \                                 In  segment BANK_RELAYS, align 1
   \                     `??AF_DataRequest::?relay`:
   \   000000   12....       LCALL   ?BDISPATCH
   \   000003   ......       DC24    AF_DataRequest

   \                                 In  segment BANK_RELAYS, align 1
   \                     `??AF_DataRequestSrcRtg::?relay`:
   \   000000   12....       LCALL   ?BDISPATCH
   \   000003   ......       DC24    AF_DataRequestSrcRtg

   \                                 In  segment BANK_RELAYS, align 1
   \                     `??afFindEndPointDescList::?relay`:
   \   000000   12....       LCALL   ?BDISPATCH
   \   000003   ......       DC24    afFindEndPointDescList

   \                                 In  segment BANK_RELAYS, align 1
   \                     `??afFindEndPointDesc::?relay`:
   \   000000   12....       LCALL   ?BDISPATCH
   \   000003   ......       DC24    afFindEndPointDesc

   \                                 In  segment BANK_RELAYS, align 1
   \                     `??afFindSimpleDesc::?relay`:
   \   000000   12....       LCALL   ?BDISPATCH
   \   000003   ......       DC24    afFindSimpleDesc

   \                                 In  segment BANK_RELAYS, align 1
   \                     `??afDataReqMTU::?relay`:
   \   000000   12....       LCALL   ?BDISPATCH
   \   000003   ......       DC24    afDataReqMTU

   \                                 In  segment BANK_RELAYS, align 1
   \                     `??afGetMatch::?relay`:
   \   000000   12....       LCALL   ?BDISPATCH
   \   000003   ......       DC24    afGetMatch

   \                                 In  segment BANK_RELAYS, align 1
   \                     `??afSetMatch::?relay`:
   \   000000   12....       LCALL   ?BDISPATCH
   \   000003   ......       DC24    afSetMatch

   \                                 In  segment BANK_RELAYS, align 1
   \                     `??afNumEndPoints::?relay`:
   \   000000   12....       LCALL   ?BDISPATCH
   \   000003   ......       DC24    afNumEndPoints

   \                                 In  segment BANK_RELAYS, align 1
   \                     `??afEndPoints::?relay`:
   \   000000   12....       LCALL   ?BDISPATCH
   \   000003   ......       DC24    afEndPoints

   \                                 In  segment BANK_RELAYS, align 1
   \                     `??afCopyAddress::?relay`:
   \   000000   12....       LCALL   ?BDISPATCH
   \   000003   ......       DC24    afCopyAddress

   \                                 In  segment BANK_RELAYS, align 1
   \                     `??afAPSF_ConfigGet::?relay`:
   \   000000   12....       LCALL   ?BDISPATCH
   \   000003   ......       DC24    afAPSF_ConfigGet

   \                                 In  segment BANK_RELAYS, align 1
   \                     `??afAPSF_ConfigSet::?relay`:
   \   000000   12....       LCALL   ?BDISPATCH
   \   000003   ......       DC24    afAPSF_ConfigSet

   \                                 In  segment BANK_RELAYS, align 1
   \                     `??afSetApplCB::?relay`:
   \   000000   12....       LCALL   ?BDISPATCH
   \   000003   ......       DC24    afSetApplCB
   1257          
   1258          /**************************************************************************************************
   1259          */

   Maximum stack usage in bytes:

   ISTACK XSTACK Function
   ------ ------ --------
      1     70   AF_DataRequest
        0     49   -> APSDE_DataReq
        0     49   -> NLME_GetShortAddr
        0     49   -> NLME_IsAddressBroadcast
        0     49   -> RTG_CheckRtStatus
        0     49   -> afDataConfirm
        0     49   -> afDataReqMTU
        0     49   -> afFindEndPointDescList
        0     49   -> osal_mem_free
        0     49   -> sAddrExtCpy
      0     33   AF_DataRequestSrcRtg
        0     21   -> AF_DataRequest
        0     12   -> RTG_AddSrcRtgEntry_Guaranteed
      0     15   afAPSF_ConfigGet
        0     12   -> afFindEndPointDescList
        0     15   -> osal_memcpy
      0     18   afAPSF_ConfigSet
        0     15   -> afFindEndPointDescList
        0     18   -> osal_memcpy
      1     62   afBuildMSGIncoming
        0     19   -> afCopyAddress
        0     22   -> osal_memcpy
        0     19   -> osal_msg_allocate
        0     19   -> osal_msg_send
      1     28   afCopyAddress
        0      9   -> sAddrExtCpy
      1     63   afDataConfirm
        0     14   -> afFindEndPointDesc
        0     14   -> osal_msg_allocate
        0     14   -> osal_msg_send
      0     58   afDataReqMTU
        0      9   -> APSDE_DataReqMTU
      0      9   afDelete
        0      9   -> osal_mem_free
      3      0   afEndPoints
      0     38   afFindEndPointDesc
        0     10   -> afFindEndPointDescList
      2     49   afFindEndPointDescList
      0     12   afFindSimpleDesc
        0     12   -> afFindEndPointDescList
      0     10   afGetMatch
        0     10   -> afFindEndPointDescList
      1     50   afIncomingData
        0     40   -> afBuildMSGIncoming
        0     28   -> afFindEndPointDesc
        0     28   -> afFindEndPointDescList
        0     28   -> aps_FindGroupForEndpoint
        0     28   -> osal_mem_free
      2      0   afNumEndPoints
      1     18   afReflectError
        0     16   -> afFindEndPointDesc
        0     16   -> osal_msg_allocate
        0     16   -> osal_msg_send
      0     12   afRegister
        0     10   -> afFindEndPointDescList
        0     12   -> afRegisterExtended
      1     26   afRegisterExtended
        0     14   -> bdb_zclFindingBindingEpType
        0     14   -> osal_mem_alloc
      0     12   afSetApplCB
        0     12   -> afFindEndPointDescList
      0     10   afSetMatch
        0     10   -> afFindEndPointDescList


   Segment part sizes:

   Bytes  Function/Label
   -----  --------------
       1  ?<Initializer for AF_DataRequestDiscoverRoute>
       1  ??Subroutine40_0
       6  ??Subroutine41_0
       6  ??Subroutine42_0
       5  ??Subroutine43_0
       5  ??Subroutine44_0
       6  ??Subroutine45_0
       5  ??Subroutine46_0
       5  ?Subroutine0
       5  ?Subroutine1
       7  ?Subroutine10
      11  ?Subroutine11
       9  ?Subroutine12
       8  ?Subroutine13
       8  ?Subroutine14
       4  ?Subroutine15
      14  ?Subroutine16
       6  ?Subroutine17
       6  ?Subroutine18
      13  ?Subroutine19
       5  ?Subroutine2
       6  ?Subroutine20
       5  ?Subroutine21
       2  ?Subroutine22
       9  ?Subroutine23
       9  ?Subroutine24
      18  ?Subroutine25
       6  ?Subroutine26
       6  ?Subroutine27
       8  ?Subroutine28
       4  ?Subroutine29
       3  ?Subroutine3
       4  ?Subroutine30
       6  ?Subroutine31
      12  ?Subroutine32
      11  ?Subroutine33
       5  ?Subroutine34
      10  ?Subroutine35
      10  ?Subroutine36
       9  ?Subroutine37
       4  ?Subroutine38
      10  ?Subroutine39
       5  ?Subroutine4
       7  ?Subroutine5
      12  ?Subroutine6
      21  ?Subroutine7
      10  ?Subroutine8
       6  ?Subroutine9
     753  AF_DataRequest
       6  AF_DataRequest::?relay
       1  AF_DataRequestDiscoverRoute
     125  AF_DataRequestSrcRtg
       6  AF_DataRequestSrcRtg::?relay
      59  afAPSF_ConfigGet
       6  afAPSF_ConfigGet::?relay
      58  afAPSF_ConfigSet
       6  afAPSF_ConfigSet::?relay
     533  afBuildMSGIncoming
       6  afBuildMSGIncoming::?relay
      71  afCopyAddress
       6  afCopyAddress::?relay
      73  afDataConfirm
       6  afDataConfirm::?relay
      35  afDataReqMTU
       6  afDataReqMTU::?relay
      92  afDelete
       6  afDelete::?relay
      56  afEndPoints
       6  afEndPoints::?relay
      24  afFindEndPointDesc
       6  afFindEndPointDesc::?relay
      32  afFindEndPointDescList
       6  afFindEndPointDescList::?relay
      88  afFindSimpleDesc
       6  afFindSimpleDesc::?relay
      29  afGetMatch
       6  afGetMatch::?relay
     573  afIncomingData
       6  afIncomingData::?relay
      32  afNumEndPoints
       6  afNumEndPoints::?relay
     100  afReflectError
       6  afReflectError::?relay
      63  afRegister
       6  afRegister::?relay
     142  afRegisterExtended
       6  afRegisterExtended::?relay
      40  afSetApplCB
       6  afSetApplCB::?relay
      40  afSetMatch
       6  afSetMatch::?relay
       2  epList

 
 3 371 bytes in segment BANKED_CODE
   126 bytes in segment BANK_RELAYS
     1 byte  in segment XDATA_I
     1 byte  in segment XDATA_ID
     2 bytes in segment XDATA_Z
 
   127 bytes of CODE     memory
 3 371 bytes of HUGECODE memory
     3 bytes of XDATA    memory

Errors: none
Warnings: none
