///////////////////////////////////////////////////////////////////////////////
//
// IAR C/C++ Compiler V10.20.1.5333 for 8051              28/Apr/2026  20:22:12
// Copyright 2004-2018 IAR Systems AB.
// PC-locked license - IAR Embedded Workbench for 8051
//
//    Core               =  plain
//    Code model         =  banked
//    Data model         =  large
//    Calling convention =  xdata reentrant
//    Constant location  =  data_rom
//    Dptr setup         =  1,16
//                          
//    Source file        =  
//        E:\BaiduNetdiskDownload\´đ°¸\ĘµŃéČý ZigBee´úÂë\Z-Stack 3.0.1\Z-Stack
//        3.0.1\Components\osal\mcu\cc2530\OSAL_Nv.c
//    Command line       =  
//        -f C:\Users\ZH\AppData\Local\Temp\EW571D.tmp
//        ("E:\BaiduNetdiskDownload\´đ°¸\ĘµŃéČý ZigBee´úÂë\Z-Stack
//        3.0.1\Z-Stack 3.0.1\Components\osal\mcu\cc2530\OSAL_Nv.c" -D SECURE=1
//        -D TC_LINKKEY_JOIN -D NV_INIT -D NV_RESTORE -D xZTOOL_P1 -D xMT_TASK
//        -D xMT_APP_FUNC -D xMT_SYS_FUNC -D xMT_ZDO_FUNC -D xMT_ZDO_MGMT -D
//        xMT_APP_CNF_FUNC -D LCD_SUPPORTED=DEBUG -D MULTICAST_ENABLED=FALSE -D
//        ZCL_READ -D ZCL_DISCOVER -D ZCL_WRITE -D ZCL_BASIC -D ZCL_IDENTIFY -D
//        ZCL_ON_OFF -D ZCL_GROUPS -D ZCL_REPORT_DESTINATION_DEVICE -D
//        ZCL_REPORT -D HAL_LED=TRUE -D HAL_KEY=TRUE -D ISR_KEYINTERRUPT -D
//        HAL_UART=TRUE -D INT_HEAP_LEN=2300 -D HAL_LCD=TRUE -D
//        xHAL_LCD_OLED12864 -D HAL_ADC=TRUE -D HAL_UART=TRUE -D
//        INT_HEAP_LEN=2048 -lC "E:\BaiduNetdiskDownload\´đ°¸\ĘµŃéČý
//        ZigBee´úÂë\Z-Stack 3.0.1\Z-Stack
//        3.0.1\Projects\zstack\HomeAutomation\SampleSwitch\CC2530DB\CoordinatorEB\List"
//        -lA "E:\BaiduNetdiskDownload\´đ°¸\ĘµŃéČý ZigBee´úÂë\Z-Stack
//        3.0.1\Z-Stack
//        3.0.1\Projects\zstack\HomeAutomation\SampleSwitch\CC2530DB\CoordinatorEB\List"
//        --diag_suppress Pe001,Pa010 -o "E:\BaiduNetdiskDownload\´đ°¸\ĘµŃéČý
//        ZigBee´úÂë\Z-Stack 3.0.1\Z-Stack
//        3.0.1\Projects\zstack\HomeAutomation\SampleSwitch\CC2530DB\CoordinatorEB\Obj"
//        -e --debug --core=plain --dptr=16,1 --data_model=large
//        --code_model=banked --calling_convention=xdata_reentrant
//        --place_constants=data_rom --nr_virtual_regs 8 -f
//        "E:\BaiduNetdiskDownload\´đ°¸\ĘµŃéČý ZigBee´úÂë\Z-Stack 3.0.1\Z-Stack
//        3.0.1\Projects\zstack\HomeAutomation\SampleSwitch\CC2530DB\..\..\..\Tools\CC2530DB\f8wCoord.cfg"
//        (-DCPU32MHZ -DROOT=__near_func -DMAC_CFG_APP_PENDING_QUEUE=TRUE
//        -DMAC_CFG_TX_DATA_MAX=5 -DMAC_CFG_TX_MAX=8 -DMAC_CFG_RX_MAX=5
//        -DZDO_COORDINATOR -DRTR_NWK) -f "E:\BaiduNetdiskDownload\´đ°¸\ĘµŃéČý
//        ZigBee´úÂë\Z-Stack 3.0.1\Z-Stack
//        3.0.1\Projects\zstack\HomeAutomation\SampleSwitch\CC2530DB\..\..\..\Tools\CC2530DB\f8wConfig.cfg"
//        (-DZIGBEEPRO -DSECURE=1 -DZG_SECURE_DYNAMIC=0 -DREFLECTOR
//        -DDEFAULT_CHANLIST=0x00000800 -DZDAPP_CONFIG_PAN_ID=0xFFFF
//        -DNWK_START_DELAY=100 -DEXTENDED_JOINING_RANDOM_MASK=0x007F
//        -DBEACON_REQUEST_DELAY=100 -DBEACON_REQ_DELAY_MASK=0x00FF
//        -DLINK_STATUS_JITTER_MASK=0x007F -DROUTE_EXPIRY_TIME=30
//        -DAPSC_ACK_WAIT_DURATION_POLLED=3000 -DNWK_INDIRECT_MSG_TIMEOUT=7
//        -DMAX_RREQ_ENTRIES=8 -DAPSC_MAX_FRAME_RETRIES=3
//        -DNWK_MAX_DATA_RETRIES=2 -DMAX_POLL_FAILURE_RETRIES=2 -DMAX_BCAST=9
//        -DAPS_MAX_GROUPS=16 -DMAX_RTG_ENTRIES=40 -DNWK_MAX_BINDING_ENTRIES=4
//        -DMAX_BINDING_CLUSTER_IDS=4 -DDEFAULT_KEY={0}
//        -DMAC_MAX_FRAME_SIZE=116 -DZDNWKMGR_MIN_TRANSMISSIONS=20
//        "-DCONST=const __code" -DGENERIC=__generic -DRFD_RCVC_ALWAYS_ON=FALSE
//        -DPOLL_RATE=1000 -DQUEUED_POLL_RATE=100 -DRESPONSE_POLL_RATE=100
//        -DREJOIN_POLL_RATE=440 -DREJOIN_BACKOFF=900000 -DREJOIN_SCAN=900000
//        -DENABLE_LED4_DISABLE_S1) -f "E:\BaiduNetdiskDownload\´đ°¸\ĘµŃéČý
//        ZigBee´úÂë\Z-Stack 3.0.1\Z-Stack
//        3.0.1\Projects\zstack\HomeAutomation\SampleSwitch\CC2530DB\..\..\..\Tools\CC2530DB\f8wZCL.cfg"
//        -I "E:\BaiduNetdiskDownload\´đ°¸\ĘµŃéČý ZigBee´úÂë\Z-Stack
//        3.0.1\Z-Stack
//        3.0.1\Projects\zstack\HomeAutomation\SampleSwitch\CC2530DB\" -I
//        "E:\BaiduNetdiskDownload\´đ°¸\ĘµŃéČý ZigBee´úÂë\Z-Stack 3.0.1\Z-Stack
//        3.0.1\Projects\zstack\HomeAutomation\SampleSwitch\CC2530DB\..\Source\"
//        -I "E:\BaiduNetdiskDownload\´đ°¸\ĘµŃéČý ZigBee´úÂë\Z-Stack
//        3.0.1\Z-Stack
//        3.0.1\Projects\zstack\HomeAutomation\SampleSwitch\CC2530DB\..\..\Source\"
//        -I "E:\BaiduNetdiskDownload\´đ°¸\ĘµŃéČý ZigBee´úÂë\Z-Stack
//        3.0.1\Z-Stack
//        3.0.1\Projects\zstack\HomeAutomation\SampleSwitch\CC2530DB\..\..\..\ZMain\TI2530DB\"
//        -I "E:\BaiduNetdiskDownload\´đ°¸\ĘµŃéČý ZigBee´úÂë\Z-Stack
//        3.0.1\Z-Stack
//        3.0.1\Projects\zstack\HomeAutomation\SampleSwitch\CC2530DB\..\..\..\..\..\Components\hal\include\"
//        -I "E:\BaiduNetdiskDownload\´đ°¸\ĘµŃéČý ZigBee´úÂë\Z-Stack
//        3.0.1\Z-Stack
//        3.0.1\Projects\zstack\HomeAutomation\SampleSwitch\CC2530DB\..\..\..\..\..\Components\hal\target\CC2530EB\"
//        -I "E:\BaiduNetdiskDownload\´đ°¸\ĘµŃéČý ZigBee´úÂë\Z-Stack
//        3.0.1\Z-Stack
//        3.0.1\Projects\zstack\HomeAutomation\SampleSwitch\CC2530DB\..\..\..\..\..\Components\mac\include\"
//        -I "E:\BaiduNetdiskDownload\´đ°¸\ĘµŃéČý ZigBee´úÂë\Z-Stack
//        3.0.1\Z-Stack
//        3.0.1\Projects\zstack\HomeAutomation\SampleSwitch\CC2530DB\..\..\..\..\..\Components\mac\high_level\"
//        -I "E:\BaiduNetdiskDownload\´đ°¸\ĘµŃéČý ZigBee´úÂë\Z-Stack
//        3.0.1\Z-Stack
//        3.0.1\Projects\zstack\HomeAutomation\SampleSwitch\CC2530DB\..\..\..\..\..\Components\mac\low_level\srf04\"
//        -I "E:\BaiduNetdiskDownload\´đ°¸\ĘµŃéČý ZigBee´úÂë\Z-Stack
//        3.0.1\Z-Stack
//        3.0.1\Projects\zstack\HomeAutomation\SampleSwitch\CC2530DB\..\..\..\..\..\Components\mac\low_level\srf04\single_chip\"
//        -I "E:\BaiduNetdiskDownload\´đ°¸\ĘµŃéČý ZigBee´úÂë\Z-Stack
//        3.0.1\Z-Stack
//        3.0.1\Projects\zstack\HomeAutomation\SampleSwitch\CC2530DB\..\..\..\..\..\Components\mt\"
//        -I "E:\BaiduNetdiskDownload\´đ°¸\ĘµŃéČý ZigBee´úÂë\Z-Stack
//        3.0.1\Z-Stack
//        3.0.1\Projects\zstack\HomeAutomation\SampleSwitch\CC2530DB\..\..\..\..\..\Components\osal\include\"
//        -I "E:\BaiduNetdiskDownload\´đ°¸\ĘµŃéČý ZigBee´úÂë\Z-Stack
//        3.0.1\Z-Stack
//        3.0.1\Projects\zstack\HomeAutomation\SampleSwitch\CC2530DB\..\..\..\..\..\Components\services\saddr\"
//        -I "E:\BaiduNetdiskDownload\´đ°¸\ĘµŃéČý ZigBee´úÂë\Z-Stack
//        3.0.1\Z-Stack
//        3.0.1\Projects\zstack\HomeAutomation\SampleSwitch\CC2530DB\..\..\..\..\..\Components\services\sdata\"
//        -I "E:\BaiduNetdiskDownload\´đ°¸\ĘµŃéČý ZigBee´úÂë\Z-Stack
//        3.0.1\Z-Stack
//        3.0.1\Projects\zstack\HomeAutomation\SampleSwitch\CC2530DB\..\..\..\..\..\Components\stack\af\"
//        -I "E:\BaiduNetdiskDownload\´đ°¸\ĘµŃéČý ZigBee´úÂë\Z-Stack
//        3.0.1\Z-Stack
//        3.0.1\Projects\zstack\HomeAutomation\SampleSwitch\CC2530DB\..\..\..\..\..\Components\stack\bdb\"
//        -I "E:\BaiduNetdiskDownload\´đ°¸\ĘµŃéČý ZigBee´úÂë\Z-Stack
//        3.0.1\Z-Stack
//        3.0.1\Projects\zstack\HomeAutomation\SampleSwitch\CC2530DB\..\..\..\..\..\Components\stack\gp\"
//        -I "E:\BaiduNetdiskDownload\´đ°¸\ĘµŃéČý ZigBee´úÂë\Z-Stack
//        3.0.1\Z-Stack
//        3.0.1\Projects\zstack\HomeAutomation\SampleSwitch\CC2530DB\..\..\..\..\..\Components\stack\nwk\"
//        -I "E:\BaiduNetdiskDownload\´đ°¸\ĘµŃéČý ZigBee´úÂë\Z-Stack
//        3.0.1\Z-Stack
//        3.0.1\Projects\zstack\HomeAutomation\SampleSwitch\CC2530DB\..\..\..\..\..\Components\stack\sapi\"
//        -I "E:\BaiduNetdiskDownload\´đ°¸\ĘµŃéČý ZigBee´úÂë\Z-Stack
//        3.0.1\Z-Stack
//        3.0.1\Projects\zstack\HomeAutomation\SampleSwitch\CC2530DB\..\..\..\..\..\Components\stack\sec\"
//        -I "E:\BaiduNetdiskDownload\´đ°¸\ĘµŃéČý ZigBee´úÂë\Z-Stack
//        3.0.1\Z-Stack
//        3.0.1\Projects\zstack\HomeAutomation\SampleSwitch\CC2530DB\..\..\..\..\..\Components\stack\sys\"
//        -I "E:\BaiduNetdiskDownload\´đ°¸\ĘµŃéČý ZigBee´úÂë\Z-Stack
//        3.0.1\Z-Stack
//        3.0.1\Projects\zstack\HomeAutomation\SampleSwitch\CC2530DB\..\..\..\..\..\Components\stack\zcl\"
//        -I "E:\BaiduNetdiskDownload\´đ°¸\ĘµŃéČý ZigBee´úÂë\Z-Stack
//        3.0.1\Z-Stack
//        3.0.1\Projects\zstack\HomeAutomation\SampleSwitch\CC2530DB\..\..\..\..\..\Components\stack\zdo\"
//        -I "E:\BaiduNetdiskDownload\´đ°¸\ĘµŃéČý ZigBee´úÂë\Z-Stack
//        3.0.1\Z-Stack
//        3.0.1\Projects\zstack\HomeAutomation\SampleSwitch\CC2530DB\..\..\..\..\..\Components\zmac\"
//        -I "E:\BaiduNetdiskDownload\´đ°¸\ĘµŃéČý ZigBee´úÂë\Z-Stack
//        3.0.1\Z-Stack
//        3.0.1\Projects\zstack\HomeAutomation\SampleSwitch\CC2530DB\..\..\..\..\..\Components\zmac\f8w\"
//        -I "E:\BaiduNetdiskDownload\´đ°¸\ĘµŃéČý ZigBee´úÂë\Z-Stack
//        3.0.1\Z-Stack
//        3.0.1\Projects\zstack\HomeAutomation\SampleSwitch\CC2530DB\..\..\..\..\..\Components\hal\target\CC2530EB\Common\"
//        -I "E:\BaiduNetdiskDownload\´đ°¸\ĘµŃéČý ZigBee´úÂë\Z-Stack
//        3.0.1\Z-Stack
//        3.0.1\Projects\zstack\HomeAutomation\SampleSwitch\CC2530DB\..\..\..\..\..\Components\hal\target\CC2530EB\SPI\"
//        -I "E:\BaiduNetdiskDownload\´đ°¸\ĘµŃéČý ZigBee´úÂë\Z-Stack
//        3.0.1\Z-Stack
//        3.0.1\Projects\zstack\HomeAutomation\SampleSwitch\CC2530DB\..\..\..\..\..\Components\hal\target\CC2530EB\HW_LCD\Font\"
//        -I "E:\BaiduNetdiskDownload\´đ°¸\ĘµŃéČý ZigBee´úÂë\Z-Stack
//        3.0.1\Z-Stack
//        3.0.1\Projects\zstack\HomeAutomation\SampleSwitch\CC2530DB\..\..\..\..\..\Components\hal\target\CC2530EB\HW_LCD\HAL_LCD_SPI\"
//        -I "E:\BaiduNetdiskDownload\´đ°¸\ĘµŃéČý ZigBee´úÂë\Z-Stack
//        3.0.1\Z-Stack
//        3.0.1\Projects\zstack\HomeAutomation\SampleSwitch\CC2530DB\..\..\..\..\..\Components\hal\target\CC2530EB\HW_LCD\HAL_OLED\"
//        -I "E:\BaiduNetdiskDownload\´đ°¸\ĘµŃéČý ZigBee´úÂë\Z-Stack
//        3.0.1\Z-Stack
//        3.0.1\Projects\zstack\HomeAutomation\SampleSwitch\CC2530DB\..\..\..\..\..\Components\hal\target\CC2530EB\HW_LCD\HAL_TFT\"
//        -Ohz --require_prototypes)
//    Locale             =  Chinese (Simplified)_CHN.936
//    List file          =  
//        E:\BaiduNetdiskDownload\´đ°¸\ĘµŃéČý ZigBee´úÂë\Z-Stack 3.0.1\Z-Stack
//        3.0.1\Projects\zstack\HomeAutomation\SampleSwitch\CC2530DB\CoordinatorEB\List\OSAL_Nv.s51
//
///////////////////////////////////////////////////////////////////////////////

        NAME OSAL_Nv

        RTMODEL "__SystemLibrary", "CLib"
        RTMODEL "__calling_convention", "xdata_reentrant"
        RTMODEL "__code_model", "banked"
        RTMODEL "__core", "plain"
        RTMODEL "__data_model", "large"
        RTMODEL "__dptr_size", "16"
        RTMODEL "__extended_stack", "disabled"
        RTMODEL "__location_for_constants", "data"
        RTMODEL "__number_of_dptrs", "1"
        RTMODEL "__register_banks", "*"
        RTMODEL "__rt_version", "1"

        RSEG DOVERLAY:DATA:NOROOT(0)
        RSEG IOVERLAY:IDATA:NOROOT(0)
        RSEG ISTACK:IDATA:NOROOT(0)
        RSEG PSTACK:XDATA:NOROOT(0)
        RSEG XSTACK:XDATA:NOROOT(0)

        EXTERN ?V0
        EXTERN ?V2
        EXTERN ?V3
        EXTERN ?V1
        EXTERN ?V4
        EXTERN ?V5
        EXTERN ?V6
        EXTERN ?V7
        EXTERN ?ALLOC_XSTACK8
        EXTERN ?BANKED_ENTER_XDATA
        EXTERN ?BANKED_LEAVE_XDATA
        EXTERN ?BDISPATCH
        EXTERN ?BRET
        EXTERN ?DEALLOC_XSTACK8
        EXTERN ?PUSH_XSTACK8_X_TWO
        EXTERN ?PUSH_XSTACK_I_ONE
        EXTERN ?PUSH_XSTACK_I_TWO
        EXTERN ?S_SHL
        EXTERN ?US_SHR
        EXTERN ?XSP
        EXTERN ?XSTACK_DISP0_8
        EXTERN ?XSTACK_DISP102_8
        EXTERN __INIT_XDATA_Z

        FUNCTION `??calcChkF::?relay`,0203H
        FUNCTION `??compactPage::?relay`,0203H
        FUNCTION `??erasePage::?relay`,0203H
        FUNCTION `??findItem::?relay`,0203H
        FUNCTION `??hotItem::?relay`,0203H
        FUNCTION `??hotItemUpdate::?relay`,0203H
        FUNCTION `??initItem::?relay`,0203H
        FUNCTION `??initNV::?relay`,0203H
        FUNCTION `??initPage::?relay`,0203H
        PUBLIC `??osal_nv_delete::?relay`
        FUNCTION `??osal_nv_delete::?relay`,0203H
        PUBLIC `??osal_nv_init::?relay`
        FUNCTION `??osal_nv_init::?relay`,0203H
        PUBLIC `??osal_nv_item_init::?relay`
        FUNCTION `??osal_nv_item_init::?relay`,0203H
        PUBLIC `??osal_nv_item_len::?relay`
        FUNCTION `??osal_nv_item_len::?relay`,0203H
        PUBLIC `??osal_nv_read::?relay`
        FUNCTION `??osal_nv_read::?relay`,0203H
        PUBLIC `??osal_nv_write::?relay`
        FUNCTION `??osal_nv_write::?relay`,0203H
        FUNCTION `??setChk::?relay`,0203H
        FUNCTION `??setItem::?relay`,0203H
        FUNCTION `??setPageUse::?relay`,0203H
        FUNCTION `??writeBuf::?relay`,0203H
        FUNCTION `??writeItem::?relay`,0203H
        FUNCTION `??writeWord::?relay`,0203H
        FUNCTION `??writeWordH::?relay`,0203H
        FUNCTION `??xferBuf::?relay`,0203H
        PUBLIC _nvBuf
        FUNCTION calcChkF,0a1203H
        ARGFRAME XSTACK, 35, STACK
        ARGFRAME IOVERLAY, 0, STATIC
        ARGFRAME DOVERLAY, 0, STATIC
        LOCFRAME XSTACK, 21, STACK
        FUNCTION compactPage,0a1203H
        ARGFRAME XSTACK, 26, STACK
        ARGFRAME IOVERLAY, 0, STATIC
        ARGFRAME DOVERLAY, 0, STATIC
        LOCFRAME XSTACK, 30, STACK
        FUNCTION erasePage,021203H
        ARGFRAME XSTACK, 35, STACK
        ARGFRAME IOVERLAY, 0, STATIC
        ARGFRAME DOVERLAY, 0, STATIC
        LOCFRAME XSTACK, 9, STACK
        FUNCTION findItem,0a1203H
        ARGFRAME XSTACK, 35, STACK
        ARGFRAME IOVERLAY, 0, STATIC
        ARGFRAME DOVERLAY, 0, STATIC
        LOCFRAME XSTACK, 12, STACK
        FUNCTION hotItem,0203H
        ARGFRAME XSTACK, 18, STACK
        ARGFRAME IOVERLAY, 0, STATIC
        ARGFRAME DOVERLAY, 0, STATIC
        LOCFRAME ISTACK, 2, STACK
        FUNCTION hotItemUpdate,0a1203H
        ARGFRAME XSTACK, 35, STACK
        ARGFRAME IOVERLAY, 0, STATIC
        ARGFRAME DOVERLAY, 0, STATIC
        LOCFRAME ISTACK, 1, STACK
        LOCFRAME XSTACK, 9, STACK
        FUNCTION initItem,0a1203H
        ARGFRAME XSTACK, 37, STACK
        ARGFRAME IOVERLAY, 0, STATIC
        ARGFRAME DOVERLAY, 0, STATIC
        LOCFRAME ISTACK, 1, STACK
        LOCFRAME XSTACK, 29, STACK
        FUNCTION initNV,0a1203H
        ARGFRAME XSTACK, 0, STACK
        ARGFRAME IOVERLAY, 0, STATIC
        ARGFRAME DOVERLAY, 0, STATIC
        LOCFRAME XSTACK, 22, STACK
        FUNCTION initPage,0a1203H
        ARGFRAME XSTACK, 20, STACK
        ARGFRAME IOVERLAY, 0, STATIC
        ARGFRAME DOVERLAY, 0, STATIC
        LOCFRAME XSTACK, 28, STACK
        PUBLIC osal_nv_delete
        FUNCTION osal_nv_delete,0a1203H
        ARGFRAME XSTACK, 0, STACK
        LOCFRAME XSTACK, 14, STACK
        PUBLIC osal_nv_init
        FUNCTION osal_nv_init,021203H
        ARGFRAME XSTACK, 0, STACK
        LOCFRAME ISTACK, 2, STACK
        PUBLIC osal_nv_item_init
        FUNCTION osal_nv_item_init,0a1203H
        ARGFRAME XSTACK, 2, STACK
        LOCFRAME XSTACK, 14, STACK
        PUBLIC osal_nv_item_len
        FUNCTION osal_nv_item_len,0a1203H
        ARGFRAME XSTACK, 14, STACK
        ARGFRAME IOVERLAY, 0, STATIC
        ARGFRAME DOVERLAY, 0, STATIC
        LOCFRAME XSTACK, 20, STACK
        PUBLIC osal_nv_read
        FUNCTION osal_nv_read,0a1203H
        ARGFRAME XSTACK, 4, STACK
        LOCFRAME XSTACK, 18, STACK
        PUBLIC osal_nv_write
        FUNCTION osal_nv_write,0a1203H
        ARGFRAME XSTACK, 4, STACK
        LOCFRAME ISTACK, 2, STACK
        LOCFRAME XSTACK, 39, STACK
        FUNCTION setChk,0a1203H
        ARGFRAME XSTACK, 35, STACK
        ARGFRAME IOVERLAY, 0, STATIC
        ARGFRAME DOVERLAY, 0, STATIC
        LOCFRAME XSTACK, 16, STACK
        FUNCTION setItem,0a1203H
        ARGFRAME XSTACK, 35, STACK
        ARGFRAME IOVERLAY, 0, STATIC
        ARGFRAME DOVERLAY, 0, STATIC
        LOCFRAME XSTACK, 24, STACK
        FUNCTION setPageUse,021203H
        ARGFRAME XSTACK, 35, STACK
        ARGFRAME IOVERLAY, 0, STATIC
        ARGFRAME DOVERLAY, 0, STATIC
        LOCFRAME XSTACK, 17, STACK
        FUNCTION writeBuf,0a1203H
        ARGFRAME XSTACK, 37, STACK
        ARGFRAME IOVERLAY, 0, STATIC
        ARGFRAME DOVERLAY, 0, STATIC
        LOCFRAME ISTACK, 1, STACK
        LOCFRAME XSTACK, 22, STACK
        FUNCTION writeItem,0a1203H
        ARGFRAME XSTACK, 29, STACK
        ARGFRAME IOVERLAY, 0, STATIC
        ARGFRAME DOVERLAY, 0, STATIC
        LOCFRAME XSTACK, 30, STACK
        FUNCTION writeWord,0a1203H
        ARGFRAME XSTACK, 28, STACK
        ARGFRAME IOVERLAY, 0, STATIC
        ARGFRAME DOVERLAY, 0, STATIC
        LOCFRAME XSTACK, 14, STACK
        FUNCTION writeWordH,021203H
        ARGFRAME XSTACK, 26, STACK
        ARGFRAME IOVERLAY, 0, STATIC
        ARGFRAME DOVERLAY, 0, STATIC
        LOCFRAME ISTACK, 1, STACK
        LOCFRAME XSTACK, 13, STACK
        FUNCTION xferBuf,0a1203H
        ARGFRAME XSTACK, 39, STACK
        ARGFRAME IOVERLAY, 0, STATIC
        ARGFRAME DOVERLAY, 0, STATIC
        LOCFRAME ISTACK, 1, STACK
        LOCFRAME XSTACK, 23, STACK
        
          CFI Names cfiNames0
          CFI StackFrame CFA_SP SP IDATA
          CFI StackFrame CFA_PSP16 PSP16 XDATA
          CFI StackFrame CFA_XSP16 XSP16 XDATA
          CFI StaticOverlayFrame CFA_IOVERLAY IOVERLAY
          CFI StaticOverlayFrame CFA_DOVERLAY DOVERLAY
          CFI Resource `PSW.CY`:1, `B.BR0`:1, `B.BR1`:1, `B.BR2`:1, `B.BR3`:1
          CFI Resource `B.BR4`:1, `B.BR5`:1, `B.BR6`:1, `B.BR7`:1, `VB.BR8`:1
          CFI Resource `VB.BR9`:1, `VB.BR10`:1, `VB.BR11`:1, `VB.BR12`:1
          CFI Resource `VB.BR13`:1, `VB.BR14`:1, `VB.BR15`:1, VB:8, B:8, A:8
          CFI Resource PSW:8, DPL0:8, DPH0:8, R0:8, R1:8, R2:8, R3:8, R4:8, R5:8
          CFI Resource R6:8, R7:8, V0:8, V1:8, V2:8, V3:8, V4:8, V5:8, V6:8, V7:8
          CFI Resource SP:8, PSPH:8, PSPL:8, PSP16:16, XSPH:8, XSPL:8, XSP16:16
          CFI VirtualResource ?RET:24
          CFI Resource ?BRET_EXT:8
          CFI VirtualResource ?RET_HIGH:8, ?RET_LOW:8
          CFI ResourceParts PSP16 PSPH, PSPL
          CFI ResourceParts XSP16 XSPH, XSPL
          CFI ResourceParts ?RET ?BRET_EXT, ?RET_HIGH, ?RET_LOW
          CFI EndNames cfiNames0
        
          CFI Common cfiCommon0 Using cfiNames0
          CFI CodeAlign 1
          CFI DataAlign -1
          CFI ReturnAddress ?RET CODE
          CFI CFA_DOVERLAY Used
          CFI CFA_IOVERLAY Used
          CFI CFA_SP SP+-3
          CFI CFA_PSP16 PSP16+0
          CFI CFA_XSP16 XSP16+0
          CFI `PSW.CY` SameValue
          CFI `B.BR0` SameValue
          CFI `B.BR1` SameValue
          CFI `B.BR2` SameValue
          CFI `B.BR3` SameValue
          CFI `B.BR4` SameValue
          CFI `B.BR5` SameValue
          CFI `B.BR6` SameValue
          CFI `B.BR7` SameValue
          CFI `VB.BR8` SameValue
          CFI `VB.BR9` SameValue
          CFI `VB.BR10` SameValue
          CFI `VB.BR11` SameValue
          CFI `VB.BR12` SameValue
          CFI `VB.BR13` SameValue
          CFI `VB.BR14` SameValue
          CFI `VB.BR15` SameValue
          CFI VB SameValue
          CFI B Undefined
          CFI A Undefined
          CFI PSW SameValue
          CFI DPL0 SameValue
          CFI DPH0 SameValue
          CFI R0 Undefined
          CFI R1 Undefined
          CFI R2 Undefined
          CFI R3 Undefined
          CFI R4 Undefined
          CFI R5 Undefined
          CFI R6 SameValue
          CFI R7 SameValue
          CFI V0 SameValue
          CFI V1 SameValue
          CFI V2 SameValue
          CFI V3 SameValue
          CFI V4 SameValue
          CFI V5 SameValue
          CFI V6 SameValue
          CFI V7 SameValue
          CFI PSPH Undefined
          CFI PSPL Undefined
          CFI XSPH Undefined
          CFI XSPL Undefined
          CFI ?RET Concat
          CFI ?BRET_EXT Frame(CFA_SP, 3)
          CFI ?RET_HIGH Frame(CFA_SP, 2)
          CFI ?RET_LOW Frame(CFA_SP, 1)
          CFI EndCommon cfiCommon0
        
        
          CFI Common cfiCommon1 Using cfiNames0
          CFI CodeAlign 1
          CFI DataAlign -1
          CFI ReturnAddress ?RET CODE
          CFI CFA_DOVERLAY Used
          CFI CFA_IOVERLAY Used
          CFI CFA_SP SP+-2
          CFI CFA_PSP16 PSP16+0
          CFI CFA_XSP16 XSP16+0
          CFI `PSW.CY` SameValue
          CFI `B.BR0` SameValue
          CFI `B.BR1` SameValue
          CFI `B.BR2` SameValue
          CFI `B.BR3` SameValue
          CFI `B.BR4` SameValue
          CFI `B.BR5` SameValue
          CFI `B.BR6` SameValue
          CFI `B.BR7` SameValue
          CFI `VB.BR8` SameValue
          CFI `VB.BR9` SameValue
          CFI `VB.BR10` SameValue
          CFI `VB.BR11` SameValue
          CFI `VB.BR12` SameValue
          CFI `VB.BR13` SameValue
          CFI `VB.BR14` SameValue
          CFI `VB.BR15` SameValue
          CFI VB SameValue
          CFI B SameValue
          CFI A SameValue
          CFI PSW SameValue
          CFI DPL0 SameValue
          CFI DPH0 SameValue
          CFI R0 SameValue
          CFI R1 SameValue
          CFI R2 SameValue
          CFI R3 SameValue
          CFI R4 SameValue
          CFI R5 SameValue
          CFI R6 SameValue
          CFI R7 SameValue
          CFI V0 SameValue
          CFI V1 SameValue
          CFI V2 SameValue
          CFI V3 SameValue
          CFI V4 SameValue
          CFI V5 SameValue
          CFI V6 SameValue
          CFI V7 SameValue
          CFI PSPH Undefined
          CFI PSPL Undefined
          CFI XSPH Undefined
          CFI XSPL Undefined
          CFI ?RET Concat
          CFI ?BRET_EXT SameValue
          CFI ?RET_HIGH Frame(CFA_SP, 2)
          CFI ?RET_LOW Frame(CFA_SP, 1)
          CFI EndCommon cfiCommon1
        
HalAdcCheckVdd      SYMBOL "HalAdcCheckVdd"
`??HalAdcCheckVdd::?relay` SYMBOL "?relay", HalAdcCheckVdd
HalFlashErase       SYMBOL "HalFlashErase"
`??HalFlashErase::?relay` SYMBOL "?relay", HalFlashErase
HalFlashRead        SYMBOL "HalFlashRead"
`??HalFlashRead::?relay` SYMBOL "?relay", HalFlashRead
HalFlashWrite       SYMBOL "HalFlashWrite"
`??HalFlashWrite::?relay` SYMBOL "?relay", HalFlashWrite
osal_nv_delete      SYMBOL "osal_nv_delete"
`??osal_nv_delete::?relay` SYMBOL "?relay", osal_nv_delete
osal_nv_init        SYMBOL "osal_nv_init"
`??osal_nv_init::?relay` SYMBOL "?relay", osal_nv_init
osal_nv_item_init   SYMBOL "osal_nv_item_init"
`??osal_nv_item_init::?relay` SYMBOL "?relay", osal_nv_item_init
osal_nv_item_len    SYMBOL "osal_nv_item_len"
`??osal_nv_item_len::?relay` SYMBOL "?relay", osal_nv_item_len
osal_nv_read        SYMBOL "osal_nv_read"
`??osal_nv_read::?relay` SYMBOL "?relay", osal_nv_read
osal_nv_write       SYMBOL "osal_nv_write"
`??osal_nv_write::?relay` SYMBOL "?relay", osal_nv_write

        EXTERN `??HalAdcCheckVdd::?relay`
        FUNCTION `??HalAdcCheckVdd::?relay`,00H
        EXTERN `??HalFlashErase::?relay`
        FUNCTION `??HalFlashErase::?relay`,00H
        EXTERN `??HalFlashRead::?relay`
        FUNCTION `??HalFlashRead::?relay`,00H
        EXTERN `??HalFlashWrite::?relay`
        FUNCTION `??HalFlashWrite::?relay`,00H
        EXTERN HalAdcCheckVdd
        FUNCTION HalAdcCheckVdd,0202H
        ARGFRAME ISTACK, 0, STACK
        ARGFRAME PSTACK, 0, STACK
        ARGFRAME XSTACK, 35, STACK
        ARGFRAME IOVERLAY, 0, STATIC
        ARGFRAME DOVERLAY, 0, STATIC
        EXTERN HalFlashErase
        FUNCTION HalFlashErase,0202H
        ARGFRAME ISTACK, 0, STACK
        ARGFRAME PSTACK, 0, STACK
        ARGFRAME XSTACK, 9, STACK
        ARGFRAME IOVERLAY, 0, STATIC
        ARGFRAME DOVERLAY, 0, STATIC
        EXTERN HalFlashRead
        FUNCTION HalFlashRead,0202H
        ARGFRAME ISTACK, 0, STACK
        ARGFRAME PSTACK, 0, STACK
        ARGFRAME XSTACK, 37, STACK
        ARGFRAME IOVERLAY, 0, STATIC
        ARGFRAME DOVERLAY, 0, STATIC
        EXTERN HalFlashWrite
        FUNCTION HalFlashWrite,0202H
        ARGFRAME ISTACK, 0, STACK
        ARGFRAME PSTACK, 0, STACK
        ARGFRAME XSTACK, 22, STACK
        ARGFRAME IOVERLAY, 0, STATIC
        ARGFRAME DOVERLAY, 0, STATIC

// E:\BaiduNetdiskDownload\´đ°¸\ĘµŃéČý ZigBee´úÂë\Z-Stack 3.0.1\Z-Stack 3.0.1\Components\osal\mcu\cc2530\OSAL_Nv.c
//    1 /******************************************************************************
//    2   Filename:       OSAL_Nv.c
//    3   Revised:        $Date: 2014-12-19 13:07:30 -0800 (Fri, 19 Dec 2014) $
//    4   Revision:       $Revision: 41556 $
//    5 
//    6   Description:    This module contains the OSAL non-volatile memory functions.
//    7 
//    8 
//    9   Copyright 2006-2014 Texas Instruments Incorporated. All rights reserved.
//   10 
//   11   IMPORTANT: Your use of this Software is limited to those specific rights
//   12   granted under the terms of a software license agreement between the user
//   13   who downloaded the software, his/her employer (which must be your employer)
//   14   and Texas Instruments Incorporated (the "License"). You may not use this
//   15   Software unless you agree to abide by the terms of the License. The License
//   16   limits your use, and you acknowledge, that the Software may not be modified,
//   17   copied or distributed unless embedded on a Texas Instruments microcontroller
//   18   or used solely and exclusively in conjunction with a Texas Instruments radio
//   19   frequency transceiver, which is integrated into your product. Other than for
//   20   the foregoing purpose, you may not use, reproduce, copy, prepare derivative
//   21   works of, modify, distribute, perform, display or sell this Software and/or
//   22   its documentation for any purpose.
//   23 
//   24   YOU FURTHER ACKNOWLEDGE AND AGREE THAT THE SOFTWARE AND DOCUMENTATION ARE
//   25   PROVIDED “AS IS” WITHOUT WARRANTY OF ANY KIND, EITHER EXPRESS OR IMPLIED,
//   26   INCLUDING WITHOUT LIMITATION, ANY WARRANTY OF MERCHANTABILITY, TITLE,
//   27   NON-INFRINGEMENT AND FITNESS FOR A PARTICULAR PURPOSE. IN NO EVENT SHALL
//   28   TEXAS INSTRUMENTS OR ITS LICENSORS BE LIABLE OR OBLIGATED UNDER CONTRACT,
//   29   NEGLIGENCE, STRICT LIABILITY, CONTRIBUTION, BREACH OF WARRANTY, OR OTHER
//   30   LEGAL EQUITABLE THEORY ANY DIRECT OR INDIRECT DAMAGES OR EXPENSES
//   31   INCLUDING BUT NOT LIMITED TO ANY INCIDENTAL, SPECIAL, INDIRECT, PUNITIVE
//   32   OR CONSEQUENTIAL DAMAGES, LOST PROFITS OR LOST DATA, COST OF PROCUREMENT
//   33   OF SUBSTITUTE GOODS, TECHNOLOGY, SERVICES, OR ANY CLAIMS BY THIRD PARTIES
//   34   (INCLUDING BUT NOT LIMITED TO ANY DEFENSE THEREOF), OR OTHER SIMILAR COSTS.
//   35 
//   36   Should you have any questions regarding your right to use this Software,
//   37   contact Texas Instruments Incorporated at www.TI.com.
//   38 ******************************************************************************/
//   39 
//   40 /******************************************************************************
//   41   Notes:
//   42     - A trick buried deep in initPage() requires that the MSB of the NV Item Id
//   43       is to be reserved for use by this module.
//   44 ******************************************************************************/
//   45 
//   46 /*********************************************************************
//   47  * INCLUDES
//   48  */
//   49 
//   50 #include "hal_adc.h"
//   51 #include "hal_flash.h"
//   52 #include "hal_types.h"
//   53 #include "OSAL_Nv.h"
//   54 #include "ZComDef.h"
//   55 #ifdef HAL_MCU_CC2533
//   56 #include "hal_batmon.h"
//   57 #endif
//   58 
//   59 /*********************************************************************
//   60  * CONSTANTS
//   61  */
//   62 
//   63 #define OSAL_NV_PAGE_SIZE       HAL_FLASH_PAGE_SIZE
//   64 #define OSAL_NV_PAGES_USED      HAL_NV_PAGE_CNT
//   65 #define OSAL_NV_PAGE_BEG        HAL_NV_PAGE_BEG
//   66 #define OSAL_NV_PAGE_END       (OSAL_NV_PAGE_BEG + OSAL_NV_PAGES_USED - 1)
//   67 
//   68 #define OSAL_NV_ACTIVE          0x00
//   69 #define OSAL_NV_ERASED          0xFF
//   70 #define OSAL_NV_ERASED_ID       0xFFFF
//   71 #define OSAL_NV_ZEROED_ID       0x0000
//   72 // Reserve MSB of Id to signal a search for the "old" source copy (new write interrupted/failed.)
//   73 #define OSAL_NV_SOURCE_ID       0x8000
//   74 
//   75 // In case pages 0-1 are ever used, define a null page value.
//   76 #define OSAL_NV_PAGE_NULL       0
//   77 
//   78 // In case item Id 0 is ever used, define a null item value.
//   79 #define OSAL_NV_ITEM_NULL       0
//   80 
//   81 #define OSAL_NV_WORD_SIZE       HAL_FLASH_WORD_SIZE
//   82 
//   83 #define OSAL_NV_PAGE_HDR_OFFSET 0
//   84 
//   85 #define OSAL_NV_MAX_HOT         3

        RSEG XDATA_ROM_C:CONST:REORDER:NOROOT(0)
        DATA8
//   86 static const uint16 hotIds[OSAL_NV_MAX_HOT] = {
hotIds:
        DATA16
        DW 130
        DW 58
        DW 59
//   87   ZCD_NV_NWKKEY,
//   88   ZCD_NV_NWK_ACTIVE_KEY_INFO,
//   89   ZCD_NV_NWK_ALTERN_KEY_INFO,
//   90 };
//   91 
//   92 /*********************************************************************
//   93  * MACROS
//   94  */
//   95 
//   96 #if (defined HAL_MCU_CC2530 || defined HAL_MCU_CC2531)
//   97 #define OSAL_NV_CHECK_BUS_VOLTAGE  HalAdcCheckVdd(VDD_MIN_NV)
//   98 #elif defined HAL_MCU_CC2533
//   99 # define  OSAL_NV_CHECK_BUS_VOLTAGE  (HalBatMonRead( HAL_BATMON_MIN_FLASH ))
//  100 #else
//  101 # warning No implementation of a low Vdd check.
//  102 # define  OSAL_NV_CHECK_BUS_VOLTAGE
//  103 #endif
//  104 
//  105 #define OSAL_NV_DATA_SIZE( LEN )                      \ 
//  106   (((LEN) >= ((uint16)(65536UL - OSAL_NV_WORD_SIZE))) ? \ 
//  107              ((uint16)(65536UL - OSAL_NV_WORD_SIZE))  : \ 
//  108              ((((LEN) + OSAL_NV_WORD_SIZE - 1) / OSAL_NV_WORD_SIZE) * OSAL_NV_WORD_SIZE))
//  109 
//  110 #define OSAL_NV_ITEM_SIZE( LEN )                                         \ 
//  111   (((LEN) >= ((uint16)(65536UL - OSAL_NV_WORD_SIZE - OSAL_NV_HDR_SIZE))) ? \ 
//  112              ((uint16)(65536UL - OSAL_NV_WORD_SIZE))                     : \ 
//  113   (((((LEN) + OSAL_NV_WORD_SIZE - 1) / OSAL_NV_WORD_SIZE) * OSAL_NV_WORD_SIZE) + OSAL_NV_HDR_SIZE))
//  114 
//  115 #define COMPACT_PAGE_CLEANUP( COM_PG ) st ( \ 
//  116   /* In order to recover from a page compaction that is interrupted,\ 
//  117    * the logic in osal_nv_init() depends upon the following order:\ 
//  118    * 1. State of the target of compaction is changed to ePgInUse.\ 
//  119    * 2. Compacted page is erased.\ 
//  120    */\ 
//  121   setPageUse( pgRes, TRUE );  /* Mark the reserve page as being in use. */\ 
//  122   erasePage( (COM_PG) ); \ 
//  123   \ 
//  124   pgRes = (COM_PG);           /* Set the reserve page to be the newly erased page. */\ 
//  125 )
//  126 
//  127 /*********************************************************************
//  128  * TYPEDEFS
//  129  */
//  130 
//  131 typedef struct
//  132 {
//  133   uint16 id;
//  134   uint16 len;   // Enforce Flash-WORD size on len.
//  135   uint16 chk;   // Byte-wise checksum of the 'len' data bytes of the item.
//  136   uint16 stat;  // Item status.
//  137 } osalNvHdr_t;
//  138 // Struct member offsets.
//  139 #define OSAL_NV_HDR_ID    0
//  140 #define OSAL_NV_HDR_LEN   2
//  141 #define OSAL_NV_HDR_CHK   4
//  142 #define OSAL_NV_HDR_STAT  6
//  143 
//  144 #define OSAL_NV_HDR_ITEM  2  // Length of any item of a header struct.
//  145 #define OSAL_NV_HDR_SIZE  8
//  146 #define OSAL_NV_HDR_HALF (OSAL_NV_HDR_SIZE / 2)
//  147 
//  148 typedef struct
//  149 {
//  150   uint16 active;
//  151   uint16 inUse;
//  152   uint16 xfer;
//  153   uint16 spare;
//  154 } osalNvPgHdr_t;
//  155 // Struct member offsets.
//  156 #define OSAL_NV_PG_ACTIVE 0
//  157 #define OSAL_NV_PG_INUSE  2
//  158 #define OSAL_NV_PG_XFER   4
//  159 #define OSAL_NV_PG_SPARE  6
//  160 
//  161 #define OSAL_NV_PAGE_HDR_SIZE  8
//  162 #define OSAL_NV_PAGE_HDR_HALF (OSAL_NV_PAGE_HDR_SIZE / 2)
//  163 
//  164 typedef enum
//  165 {
//  166   eNvXfer,
//  167   eNvZero
//  168 } eNvHdrEnum;
//  169 
//  170 typedef enum
//  171 {
//  172   ePgActive,
//  173   ePgInUse,
//  174   ePgXfer,
//  175   ePgSpare
//  176 } ePgHdrEnum;
//  177 
//  178 /*********************************************************************
//  179  * GLOBAL VARIABLES
//  180  */
//  181 
//  182 #ifndef OAD_KEEP_NV_PAGES
//  183 // When NV pages are to remain intact during OAD download,
//  184 // the image itself should not include NV pages.
//  185 #pragma location="ZIGNV_ADDRESS_SPACE"

        RSEG ZIGNV_ADDRESS_SPACE:XDATA:REORDER:NOROOT(0)
        DATA8
//  186 __no_init uint8 _nvBuf[OSAL_NV_PAGES_USED * OSAL_NV_PAGE_SIZE];
_nvBuf:
        DS 12288
//  187 #pragma required=_nvBuf
//  188 #endif // OAD_KEEP_NV_PAGES
//  189 
//  190 /*********************************************************************
//  191  * LOCAL VARIABLES
//  192  */
//  193 
//  194 // Offset into the page of the first available erased space.

        RSEG XDATA_Z:XDATA:NOROOT(0)
        DATA8
//  195 static uint16 pgOff[OSAL_NV_PAGES_USED];
pgOff:
        DS 12
        REQUIRE __INIT_XDATA_Z
        REQUIRE _nvBuf
//  196 
//  197 // Count of the bytes lost for the zeroed-out items.

        RSEG XDATA_Z:XDATA:NOROOT(0)
        DATA8
//  198 static uint16 pgLost[OSAL_NV_PAGES_USED];
pgLost:
        DS 12
        REQUIRE __INIT_XDATA_Z
//  199 

        RSEG XDATA_Z:XDATA:NOROOT(0)
        DATA8
//  200 static uint8 pgRes;  // Page reserved for item compacting transfer.
pgRes:
        DS 1
        REQUIRE __INIT_XDATA_Z
//  201 
//  202 // Saving ~100 code bytes to move a uint8* parameter/return value from findItem() to a global.

        RSEG XDATA_Z:XDATA:NOROOT(0)
        DATA8
//  203 static uint8 findPg;
findPg:
        DS 1
        REQUIRE __INIT_XDATA_Z
//  204 
//  205 // NV page and offsets for hot items.

        RSEG XDATA_Z:XDATA:NOROOT(0)
        DATA8
//  206 static uint8 hotPg[OSAL_NV_MAX_HOT];
hotPg:
        DS 3
        REQUIRE __INIT_XDATA_Z

        RSEG XDATA_Z:XDATA:NOROOT(0)
        DATA8
//  207 static uint16 hotOff[OSAL_NV_MAX_HOT];
hotOff:
        DS 6
        REQUIRE __INIT_XDATA_Z
//  208 
//  209 /*********************************************************************
//  210  * LOCAL FUNCTIONS
//  211  */
//  212 
//  213 static uint8  initNV( void );
//  214 
//  215 static void   setPageUse( uint8 pg, uint8 inUse );
//  216 static uint16 initPage( uint8 pg, uint16 id, uint8 findDups );
//  217 static void   erasePage( uint8 pg );
//  218 static uint8  compactPage( uint8 srcPg, uint16 skipId );
//  219 
//  220 static uint16 findItem( uint16 id );
//  221 static uint8  initItem( uint8 flag, uint16 id, uint16 len, void *buf );
//  222 static void   setItem( uint8 pg, uint16 offset, eNvHdrEnum stat );
//  223 static uint16 setChk( uint8 pg, uint16 offset, uint16 chk );
//  224 
//  225 static uint16 calcChkB( uint16 len, uint8 *buf );
//  226 static uint16 calcChkF( uint8 pg, uint16 offset, uint16 len );
//  227 
//  228 static void   writeWord( uint8 pg, uint16 offset, uint8 *buf );
//  229 static void   writeWordH( uint8 pg, uint16 offset, uint8 *buf );
//  230 static void   writeWordM( uint8 pg, uint16 offset, uint8 *buf, uint16 cnt );
//  231 static void   writeBuf( uint8 pg, uint16 offset, uint16 len, uint8 *buf );
//  232 static void   xferBuf( uint8 srcPg, uint16 srcOff, uint8 dstPg, uint16 dstOff, uint16 len );
//  233 
//  234 static uint8  writeItem( uint8 pg, uint16 id, uint16 len, void *buf, uint8 flag );
//  235 static uint8  hotItem(uint16 id);
//  236 static void   hotItemUpdate(uint8 pg, uint16 off, uint16 id);
//  237 
//  238 /*********************************************************************
//  239  * @fn      initNV
//  240  *
//  241  * @brief   Initialize the NV flash pages.
//  242  *
//  243  * @param   none
//  244  *
//  245  * @return  TRUE
//  246  */

        RSEG BANKED_CODE:HUGECODE:NOROOT(0)
//  247 static uint8 initNV( void )
initNV:
          CFI Block cfiBlock0 Using cfiCommon0
          CFI Function initNV
        CODE
//  248 {
        FUNCALL initNV, HalFlashRead
        LOCFRAME ISTACK, 0, STACK
        LOCFRAME PSTACK, 0, STACK
        LOCFRAME XSTACK, 22, STACK
        LOCFRAME IOVERLAY, 0, STATIC
        LOCFRAME DOVERLAY, 0, STATIC
        ARGFRAME ISTACK, 0, STACK
        ARGFRAME PSTACK, 0, STACK
        ARGFRAME XSTACK, 22, STACK
        ARGFRAME IOVERLAY, 0, STATIC
        ARGFRAME DOVERLAY, 0, STATIC
        FUNCALL initNV, setPageUse
        LOCFRAME ISTACK, 0, STACK
        LOCFRAME PSTACK, 0, STACK
        LOCFRAME XSTACK, 20, STACK
        LOCFRAME IOVERLAY, 0, STATIC
        LOCFRAME DOVERLAY, 0, STATIC
        ARGFRAME ISTACK, 0, STACK
        ARGFRAME PSTACK, 0, STACK
        ARGFRAME XSTACK, 20, STACK
        ARGFRAME IOVERLAY, 0, STATIC
        ARGFRAME DOVERLAY, 0, STATIC
        FUNCALL initNV, erasePage
        LOCFRAME ISTACK, 0, STACK
        LOCFRAME PSTACK, 0, STACK
        LOCFRAME XSTACK, 20, STACK
        LOCFRAME IOVERLAY, 0, STATIC
        LOCFRAME DOVERLAY, 0, STATIC
        ARGFRAME ISTACK, 0, STACK
        ARGFRAME PSTACK, 0, STACK
        ARGFRAME XSTACK, 20, STACK
        ARGFRAME IOVERLAY, 0, STATIC
        ARGFRAME DOVERLAY, 0, STATIC
        FUNCALL initNV, compactPage
        LOCFRAME ISTACK, 0, STACK
        LOCFRAME PSTACK, 0, STACK
        LOCFRAME XSTACK, 20, STACK
        LOCFRAME IOVERLAY, 0, STATIC
        LOCFRAME DOVERLAY, 0, STATIC
        ARGFRAME ISTACK, 0, STACK
        ARGFRAME PSTACK, 0, STACK
        ARGFRAME XSTACK, 20, STACK
        ARGFRAME IOVERLAY, 0, STATIC
        ARGFRAME DOVERLAY, 0, STATIC
        FUNCALL initNV, erasePage
        LOCFRAME ISTACK, 0, STACK
        LOCFRAME PSTACK, 0, STACK
        LOCFRAME XSTACK, 20, STACK
        LOCFRAME IOVERLAY, 0, STATIC
        LOCFRAME DOVERLAY, 0, STATIC
        ARGFRAME ISTACK, 0, STACK
        ARGFRAME PSTACK, 0, STACK
        ARGFRAME XSTACK, 20, STACK
        ARGFRAME IOVERLAY, 0, STATIC
        ARGFRAME DOVERLAY, 0, STATIC
        FUNCALL initNV, erasePage
        LOCFRAME ISTACK, 0, STACK
        LOCFRAME PSTACK, 0, STACK
        LOCFRAME XSTACK, 20, STACK
        LOCFRAME IOVERLAY, 0, STATIC
        LOCFRAME DOVERLAY, 0, STATIC
        ARGFRAME ISTACK, 0, STACK
        ARGFRAME PSTACK, 0, STACK
        ARGFRAME XSTACK, 20, STACK
        ARGFRAME IOVERLAY, 0, STATIC
        ARGFRAME DOVERLAY, 0, STATIC
        FUNCALL initNV, initPage
        LOCFRAME ISTACK, 0, STACK
        LOCFRAME PSTACK, 0, STACK
        LOCFRAME XSTACK, 20, STACK
        LOCFRAME IOVERLAY, 0, STATIC
        LOCFRAME DOVERLAY, 0, STATIC
        ARGFRAME ISTACK, 0, STACK
        ARGFRAME PSTACK, 0, STACK
        ARGFRAME XSTACK, 20, STACK
        ARGFRAME IOVERLAY, 0, STATIC
        ARGFRAME DOVERLAY, 0, STATIC
        FUNCALL initNV, initPage
        LOCFRAME ISTACK, 0, STACK
        LOCFRAME PSTACK, 0, STACK
        LOCFRAME XSTACK, 20, STACK
        LOCFRAME IOVERLAY, 0, STATIC
        LOCFRAME DOVERLAY, 0, STATIC
        ARGFRAME ISTACK, 0, STACK
        ARGFRAME PSTACK, 0, STACK
        ARGFRAME XSTACK, 20, STACK
        ARGFRAME IOVERLAY, 0, STATIC
        ARGFRAME DOVERLAY, 0, STATIC
        FUNCALL initNV, erasePage
        LOCFRAME ISTACK, 0, STACK
        LOCFRAME PSTACK, 0, STACK
        LOCFRAME XSTACK, 20, STACK
        LOCFRAME IOVERLAY, 0, STATIC
        LOCFRAME DOVERLAY, 0, STATIC
        ARGFRAME ISTACK, 0, STACK
        ARGFRAME PSTACK, 0, STACK
        ARGFRAME XSTACK, 20, STACK
        ARGFRAME IOVERLAY, 0, STATIC
        ARGFRAME DOVERLAY, 0, STATIC
        REQUIRE ?V0
        REQUIRE ?V2
        REQUIRE ?V3
        MOV       A,#-0xc
        LCALL     ?BANKED_ENTER_XDATA
          CFI DPH0 load(1, XDATA, add(CFA_XSP16, literal(-1)))
          CFI DPL0 load(1, XDATA, add(CFA_XSP16, literal(-2)))
          CFI ?BRET_EXT load(1, XDATA, add(CFA_XSP16, literal(-3)))
          CFI ?RET_HIGH load(1, XDATA, add(CFA_XSP16, literal(-4)))
          CFI ?RET_LOW load(1, XDATA, add(CFA_XSP16, literal(-5)))
          CFI R7 load(1, XDATA, add(CFA_XSP16, literal(-6)))
          CFI V3 load(1, XDATA, add(CFA_XSP16, literal(-7)))
          CFI V2 load(1, XDATA, add(CFA_XSP16, literal(-8)))
          CFI V1 load(1, XDATA, add(CFA_XSP16, literal(-9)))
          CFI V0 load(1, XDATA, add(CFA_XSP16, literal(-10)))
          CFI VB load(1, XDATA, add(CFA_XSP16, literal(-11)))
          CFI R6 load(1, XDATA, add(CFA_XSP16, literal(-12)))
          CFI CFA_SP SP+0
          CFI CFA_XSP16 add(XSP16, 12)
        ; Saved register size: 12
        ; Auto size: 8
        MOV       A,#-0x8
        LCALL     ?ALLOC_XSTACK8
          CFI CFA_XSP16 add(XSP16, 20)
//  249   osalNvPgHdr_t pgHdr;
//  250   uint8 oldPg = OSAL_NV_PAGE_NULL;
        MOV       ?V0,#0x0
//  251   uint8 findDups = FALSE;
        MOV       R7,#0x0
//  252   uint8 pg;
//  253 
//  254   pgRes = OSAL_NV_PAGE_NULL;
        MOV       DPTR,#pgRes
        CLR       A
        MOVX      @DPTR,A
//  255 
//  256   for ( pg = OSAL_NV_PAGE_BEG; pg <= OSAL_NV_PAGE_END; pg++ )
        MOV       R6,#0x79
//  257   {
//  258     HalFlashRead(pg, OSAL_NV_PAGE_HDR_OFFSET, (uint8 *)(&pgHdr), OSAL_NV_HDR_SIZE);
??initNV_0:
        ; Setup parameters for call to function HalFlashRead
        MOV       ?V2,#0x8
        MOV       ?V3,R7
        MOV       R0,#?V2
        LCALL     ?PUSH_XSTACK_I_TWO
          CFI CFA_XSP16 add(XSP16, 22)
        MOV       A,#0x2
        LCALL     ?XSTACK_DISP102_8
        MOV       R2,#0x0
        MOV       R3,#0x0
        MOV       A,R6
        LCALL     ??Subroutine60_0 & 0xFFFF
??CrossCallReturnLabel_123:
        LCALL     ?DEALLOC_XSTACK8
          CFI CFA_XSP16 add(XSP16, 20)
//  259 
//  260     if ( pgHdr.active == OSAL_NV_ERASED_ID )
        MOV       DPL,?XSP + 0
        MOV       DPH,?XSP + 1
        MOVX      A,@DPTR
        CPL       A
        JNZ       ??initNV_1
        INC       DPTR
        MOVX      A,@DPTR
        CPL       A
??initNV_1:
        JNZ       ??initNV_2
//  261     {
//  262       if ( pgRes == OSAL_NV_PAGE_NULL )
        MOV       DPTR,#pgRes
        MOVX      A,@DPTR
        JNZ       ??initNV_3
//  263       {
//  264         pgRes = pg;
        MOV       A,R6
        MOVX      @DPTR,A
        SJMP      ??initNV_4
//  265       }
//  266       else
//  267       {
//  268         setPageUse( pg, TRUE );
??initNV_3:
        ; Setup parameters for call to function setPageUse
        MOV       R2,#0x1
        MOV       A,R6
        MOV       R1,A
        LCALL     `??setPageUse::?relay`; Banked call to: setPageUse
        SJMP      ??initNV_4
//  269       }
//  270     }
//  271     // An Xfer from this page was in progress.
//  272     else if ( pgHdr.xfer != OSAL_NV_ERASED_ID )
??initNV_2:
        MOV       A,#0x4
        LCALL     ?XSTACK_DISP0_8
        MOVX      A,@DPTR
        CPL       A
        JNZ       ??initNV_5
        INC       DPTR
        MOVX      A,@DPTR
        CPL       A
??initNV_5:
        JZ        ??initNV_4
//  273     {
//  274       oldPg = pg;
        MOV       ?V0,R6
//  275     }
//  276   }
??initNV_4:
        INC       R6
        MOV       A,R6
        CLR       C
        SUBB      A,#0x7f
        JC        ??initNV_0
//  277 
//  278   // If a page compaction was interrupted before the old page was erased.
//  279   if ( oldPg != OSAL_NV_PAGE_NULL )
        MOV       A,?V0
        MOV       DPTR,#pgRes
        JZ        ??initNV_6
//  280   {
//  281     /* Interrupted compaction before the target of compaction was put in use;
//  282      * so erase the target of compaction and start again.
//  283      */
//  284     if ( pgRes != OSAL_NV_PAGE_NULL )
        MOVX      A,@DPTR
        JZ        ??initNV_7
//  285     {
//  286       erasePage( pgRes );
        ; Setup parameters for call to function erasePage
        MOV       R1,A
        LCALL     `??erasePage::?relay`; Banked call to: erasePage
//  287       (void)compactPage( oldPg, OSAL_NV_ITEM_NULL );
        ; Setup parameters for call to function compactPage
        MOV       R2,#0x0
        MOV       R3,#0x0
        MOV       R1,?V0
        LCALL     `??compactPage::?relay`; Banked call to: compactPage
        SJMP      ??initNV_8
//  288     }
//  289     /* Interrupted compaction after the target of compaction was put in use,
//  290      * but before the old page was erased; so erase it now and create a new reserve page.
//  291      */
//  292     else
//  293     {
//  294       erasePage( oldPg );
??initNV_7:
        ; Setup parameters for call to function erasePage
        MOV       R1,?V0
        LCALL     `??erasePage::?relay`; Banked call to: erasePage
//  295       pgRes = oldPg;
        MOV       A,?V0
        MOV       DPTR,#pgRes
        MOVX      @DPTR,A
        SJMP      ??initNV_8
//  296     }
//  297   }
//  298   else if ( pgRes != OSAL_NV_PAGE_NULL )
??initNV_6:
        MOVX      A,@DPTR
        JZ        ??initNV_8
//  299   {
//  300     erasePage( pgRes );  // The last page erase could have been interrupted by a power-cycle.
        ; Setup parameters for call to function erasePage
        MOV       R1,A
        LCALL     `??erasePage::?relay`; Banked call to: erasePage
//  301   }
//  302   /* else if there is no reserve page, COMPACT_PAGE_CLEANUP() must have succeeded to put the old
//  303    * reserve page (i.e. the target of the compacted items) into use but got interrupted by a reset
//  304    * while trying to erase the page to be compacted. Such a page should only contain duplicate items
//  305    * (i.e. all items will be marked 'Xfer') and thus should have the lost count equal to the page
//  306    * size less the page header.
//  307    */
//  308 
//  309   for ( pg = OSAL_NV_PAGE_BEG; pg <= OSAL_NV_PAGE_END; pg++ )
??initNV_8:
        MOV       R6,#0x79
//  310   {
//  311     // Calculate page offset and lost bytes - any "old" item triggers an N^2 re-scan from start.
//  312     if ( initPage( pg, OSAL_NV_ITEM_NULL, findDups ) != OSAL_NV_ITEM_NULL )
??initNV_9:
        ; Setup parameters for call to function initPage
        MOV       A,R7
        MOV       R4,A
        MOV       R2,#0x0
        MOV       R3,#0x0
        MOV       A,R6
        MOV       R1,A
        LCALL     `??initPage::?relay`; Banked call to: initPage
        MOV       A,R2
        ORL       A,R3
        JZ        ??initNV_10
//  313     {
//  314       findDups = TRUE;
        MOV       R7,#0x1
//  315       pg = (OSAL_NV_PAGE_BEG - 1);  // Pre-decrement so that loop increment will start over at zero.
        MOV       R6,#0x78
//  316       continue;
//  317     }
//  318   }
??initNV_10:
        INC       R6
        MOV       A,R6
        CLR       C
        SUBB      A,#0x7f
        JC        ??initNV_9
//  319 
//  320   if (findDups)
        MOV       A,R7
        MOV       C,0xE0 /* A   */.0
        JNC       ??initNV_11
//  321   {
//  322     // Final pass to calculate page lost after invalidating duplicate items.
//  323     for ( pg = OSAL_NV_PAGE_BEG; pg <= OSAL_NV_PAGE_END; pg++ )
        MOV       R6,#0x79
//  324     {
//  325       (void)initPage( pg, OSAL_NV_ITEM_NULL, FALSE );
??initNV_12:
        ; Setup parameters for call to function initPage
        MOV       R4,#0x0
        MOV       R2,#0x0
        MOV       R3,#0x0
        MOV       A,R6
        MOV       R1,A
        LCALL     `??initPage::?relay`; Banked call to: initPage
//  326     }
        INC       R6
        MOV       A,R6
        CLR       C
        SUBB      A,#0x7f
        JC        ??initNV_12
//  327   }
//  328 
//  329   if ( pgRes == OSAL_NV_PAGE_NULL )
??initNV_11:
        MOV       DPTR,#pgRes
        MOVX      A,@DPTR
        JNZ       ??initNV_13
//  330   {
//  331     uint8 idx, mostLost = 0;
        MOV       R6,#0x0
//  332 
//  333     for ( idx = 0; idx < OSAL_NV_PAGES_USED; idx++ )
        MOV       R4,#0x0
//  334     {
//  335       // Is this the page that was compacted?
//  336       if (pgLost[idx] == (OSAL_NV_PAGE_SIZE - OSAL_NV_PAGE_HDR_SIZE))
??initNV_14:
        MOV       A,R4
        LCALL     ?Subroutine30 & 0xFFFF
??CrossCallReturnLabel_57:
        LCALL     ?Subroutine12 & 0xFFFF
??CrossCallReturnLabel_160:
        MOV       A,#-0x8
        XRL       A,R2
        JNZ       ??initNV_15
        MOV       A,#0x7
        XRL       A,R3
??initNV_15:
        JNZ       ??initNV_16
//  337       {
//  338         mostLost = idx;
        MOV       A,R4
        MOV       R6,A
//  339         break;
        SJMP      ??initNV_17
//  340       }
//  341       /* This check is not expected to be necessary because the above test should always succeed
//  342        * with an early loop exit.
//  343        */
//  344       else if (pgLost[idx] > pgLost[mostLost])
??initNV_16:
        MOV       A,R6
        LCALL     ?Subroutine30 & 0xFFFF
??CrossCallReturnLabel_58:
        ADDC      A,R1
        MOV       DPH,A
        CLR       C
        MOVX      A,@DPTR
        SUBB      A,R2
        INC       DPTR
        MOVX      A,@DPTR
        SUBB      A,R3
        JNC       ??initNV_18
//  345       {
//  346         mostLost = idx;
        MOV       A,R4
        MOV       R6,A
//  347       }
//  348     }
??initNV_18:
        INC       R4
        MOV       A,R4
        CLR       C
        SUBB      A,#0x6
        JC        ??initNV_14
//  349 
//  350     pgRes = mostLost + OSAL_NV_PAGE_BEG;
??initNV_17:
        MOV       A,#0x79
        ADD       A,R6
        MOV       DPTR,#pgRes
        MOVX      @DPTR,A
//  351     erasePage( pgRes );  // The last page erase had been interrupted by a power-cycle.
        ; Setup parameters for call to function erasePage
        MOV       R1,A
        LCALL     `??erasePage::?relay`; Banked call to: erasePage
//  352   }
//  353 
//  354   return TRUE;
??initNV_13:
        MOV       R1,#0x1
        MOV       A,#0x8
        SJMP      ??Subroutine51_0
//  355 }
          CFI EndBlock cfiBlock0

        RSEG BANKED_CODE:HUGECODE:NOROOT(0)
?Subroutine30:
          CFI Block cfiCond1 Using cfiCommon0
          CFI Function initNV
          CFI Conditional ??CrossCallReturnLabel_57
          CFI R6 load(1, XDATA, add(CFA_XSP16, literal(-12)))
          CFI VB load(1, XDATA, add(CFA_XSP16, literal(-11)))
          CFI V0 load(1, XDATA, add(CFA_XSP16, literal(-10)))
          CFI V1 load(1, XDATA, add(CFA_XSP16, literal(-9)))
          CFI V2 load(1, XDATA, add(CFA_XSP16, literal(-8)))
          CFI V3 load(1, XDATA, add(CFA_XSP16, literal(-7)))
          CFI R7 load(1, XDATA, add(CFA_XSP16, literal(-6)))
          CFI ?RET_LOW load(1, XDATA, add(CFA_XSP16, literal(-5)))
          CFI ?RET_HIGH load(1, XDATA, add(CFA_XSP16, literal(-4)))
          CFI ?BRET_EXT load(1, XDATA, add(CFA_XSP16, literal(-3)))
          CFI DPL0 load(1, XDATA, add(CFA_XSP16, literal(-2)))
          CFI DPH0 load(1, XDATA, add(CFA_XSP16, literal(-1)))
          CFI CFA_SP SP+-2
          CFI CFA_XSP16 add(XSP16, 20)
          CFI Block cfiCond2 Using cfiCommon0
          CFI (cfiCond2) Function initNV
          CFI (cfiCond2) Conditional ??CrossCallReturnLabel_58
          CFI (cfiCond2) R6 load(1, XDATA, add(CFA_XSP16, literal(-12)))
          CFI (cfiCond2) VB load(1, XDATA, add(CFA_XSP16, literal(-11)))
          CFI (cfiCond2) V0 load(1, XDATA, add(CFA_XSP16, literal(-10)))
          CFI (cfiCond2) V1 load(1, XDATA, add(CFA_XSP16, literal(-9)))
          CFI (cfiCond2) V2 load(1, XDATA, add(CFA_XSP16, literal(-8)))
          CFI (cfiCond2) V3 load(1, XDATA, add(CFA_XSP16, literal(-7)))
          CFI (cfiCond2) R7 load(1, XDATA, add(CFA_XSP16, literal(-6)))
          CFI (cfiCond2) ?RET_LOW load(1, XDATA, add(CFA_XSP16, literal(-5)))
          CFI (cfiCond2) ?RET_HIGH load(1, XDATA, add(CFA_XSP16, literal(-4)))
          CFI (cfiCond2) ?BRET_EXT load(1, XDATA, add(CFA_XSP16, literal(-3)))
          CFI (cfiCond2) DPL0 load(1, XDATA, add(CFA_XSP16, literal(-2)))
          CFI (cfiCond2) DPH0 load(1, XDATA, add(CFA_XSP16, literal(-1)))
          CFI (cfiCond2) CFA_SP SP+-2
          CFI (cfiCond2) CFA_XSP16 add(XSP16, 20)
          CFI Block cfiPicker3 Using cfiCommon1
          CFI (cfiPicker3) NoFunction
          CFI (cfiPicker3) Picker
        ADD       A,0xE0 /* A   */
        MOV       R0,A
        CLR       A
        RLC       A
        MOV       R1,A
        MOV       A,#pgLost & 0xff
        ADD       A,R0
        MOV       DPL,A
        MOV       A,#(pgLost >> 8) & 0xff
        RET
          CFI EndBlock cfiCond1
          CFI EndBlock cfiCond2
          CFI EndBlock cfiPicker3

        RSEG BANKED_CODE:HUGECODE:NOROOT(0)
?Subroutine0:
          CFI Block cfiBlock4 Using cfiCommon0
          CFI NoFunction
          CFI CFA_SP SP+0
          CFI CFA_XSP16 add(XSP16, 14)
          CFI VB load(1, XDATA, add(CFA_XSP16, literal(-11)))
          CFI DPL0 load(1, XDATA, add(CFA_XSP16, literal(-2)))
          CFI DPH0 load(1, XDATA, add(CFA_XSP16, literal(-1)))
          CFI R6 load(1, XDATA, add(CFA_XSP16, literal(-12)))
          CFI R7 load(1, XDATA, add(CFA_XSP16, literal(-6)))
          CFI V0 load(1, XDATA, add(CFA_XSP16, literal(-10)))
          CFI V1 load(1, XDATA, add(CFA_XSP16, literal(-9)))
          CFI V2 load(1, XDATA, add(CFA_XSP16, literal(-8)))
          CFI V3 load(1, XDATA, add(CFA_XSP16, literal(-7)))
          CFI ?BRET_EXT load(1, XDATA, add(CFA_XSP16, literal(-3)))
          CFI ?RET_HIGH load(1, XDATA, add(CFA_XSP16, literal(-4)))
          CFI ?RET_LOW load(1, XDATA, add(CFA_XSP16, literal(-5)))
        MOV       A,#0x2
          CFI EndBlock cfiBlock4
        REQUIRE ??Subroutine51_0
        ; // Fall through to label ??Subroutine51_0

        RSEG BANKED_CODE:HUGECODE:NOROOT(0)
??Subroutine51_0:
          CFI Block cfiBlock5 Using cfiCommon0
          CFI NoFunction
          CFI CFA_SP SP+0
          CFI CFA_XSP16 add(XSP16, 20)
          CFI VB load(1, XDATA, add(CFA_XSP16, literal(-11)))
          CFI DPL0 load(1, XDATA, add(CFA_XSP16, literal(-2)))
          CFI DPH0 load(1, XDATA, add(CFA_XSP16, literal(-1)))
          CFI R6 load(1, XDATA, add(CFA_XSP16, literal(-12)))
          CFI R7 load(1, XDATA, add(CFA_XSP16, literal(-6)))
          CFI V0 load(1, XDATA, add(CFA_XSP16, literal(-10)))
          CFI V1 load(1, XDATA, add(CFA_XSP16, literal(-9)))
          CFI V2 load(1, XDATA, add(CFA_XSP16, literal(-8)))
          CFI V3 load(1, XDATA, add(CFA_XSP16, literal(-7)))
          CFI ?BRET_EXT load(1, XDATA, add(CFA_XSP16, literal(-3)))
          CFI ?RET_HIGH load(1, XDATA, add(CFA_XSP16, literal(-4)))
          CFI ?RET_LOW load(1, XDATA, add(CFA_XSP16, literal(-5)))
          CFI Invalid
        LCALL     ?DEALLOC_XSTACK8
          CFI EndBlock cfiBlock5
        REQUIRE ??Subroutine52_0
        ; // Fall through to label ??Subroutine52_0

        RSEG BANKED_CODE:HUGECODE:NOROOT(0)
??Subroutine52_0:
          CFI Block cfiBlock6 Using cfiCommon0
          CFI NoFunction
          CFI CFA_SP SP+0
          CFI CFA_XSP16 add(XSP16, 12)
          CFI VB load(1, XDATA, add(CFA_XSP16, literal(-11)))
          CFI DPL0 load(1, XDATA, add(CFA_XSP16, literal(-2)))
          CFI DPH0 load(1, XDATA, add(CFA_XSP16, literal(-1)))
          CFI R6 load(1, XDATA, add(CFA_XSP16, literal(-12)))
          CFI R7 load(1, XDATA, add(CFA_XSP16, literal(-6)))
          CFI V0 load(1, XDATA, add(CFA_XSP16, literal(-10)))
          CFI V1 load(1, XDATA, add(CFA_XSP16, literal(-9)))
          CFI V2 load(1, XDATA, add(CFA_XSP16, literal(-8)))
          CFI V3 load(1, XDATA, add(CFA_XSP16, literal(-7)))
          CFI ?BRET_EXT load(1, XDATA, add(CFA_XSP16, literal(-3)))
          CFI ?RET_HIGH load(1, XDATA, add(CFA_XSP16, literal(-4)))
          CFI ?RET_LOW load(1, XDATA, add(CFA_XSP16, literal(-5)))
        MOV       R7,#0x4
        LJMP      ?BANKED_LEAVE_XDATA
          CFI EndBlock cfiBlock6
//  356 
//  357 /*********************************************************************
//  358  * @fn      setPageUse
//  359  *
//  360  * @brief   Set page header active/inUse state according to 'inUse'.
//  361  *
//  362  * @param   pg - Valid NV page to verify and init.
//  363  * @param   inUse - Boolean TRUE if inUse, FALSE if only active.
//  364  *
//  365  * @return  none
//  366  */

        RSEG BANKED_CODE:HUGECODE:NOROOT(0)
//  367 static void setPageUse( uint8 pg, uint8 inUse )
setPageUse:
          CFI Block cfiBlock7 Using cfiCommon0
          CFI Function setPageUse
        CODE
//  368 {
        FUNCALL setPageUse, writeWord
        LOCFRAME ISTACK, 0, STACK
        LOCFRAME PSTACK, 0, STACK
        LOCFRAME XSTACK, 17, STACK
        LOCFRAME IOVERLAY, 0, STATIC
        LOCFRAME DOVERLAY, 0, STATIC
        ARGFRAME ISTACK, 0, STACK
        ARGFRAME PSTACK, 0, STACK
        ARGFRAME XSTACK, 17, STACK
        ARGFRAME IOVERLAY, 0, STATIC
        ARGFRAME DOVERLAY, 0, STATIC
        MOV       A,#-0x9
        LCALL     ?BANKED_ENTER_XDATA
          CFI DPH0 load(1, XDATA, add(CFA_XSP16, literal(-1)))
          CFI DPL0 load(1, XDATA, add(CFA_XSP16, literal(-2)))
          CFI ?BRET_EXT load(1, XDATA, add(CFA_XSP16, literal(-3)))
          CFI ?RET_HIGH load(1, XDATA, add(CFA_XSP16, literal(-4)))
          CFI ?RET_LOW load(1, XDATA, add(CFA_XSP16, literal(-5)))
          CFI R7 load(1, XDATA, add(CFA_XSP16, literal(-6)))
          CFI V0 load(1, XDATA, add(CFA_XSP16, literal(-7)))
          CFI VB load(1, XDATA, add(CFA_XSP16, literal(-8)))
          CFI R6 load(1, XDATA, add(CFA_XSP16, literal(-9)))
          CFI CFA_SP SP+0
          CFI CFA_XSP16 add(XSP16, 9)
        ; Saved register size: 9
        ; Auto size: 8
        MOV       A,#-0x8
        LCALL     ?ALLOC_XSTACK8
          CFI CFA_XSP16 add(XSP16, 17)
//  369   osalNvPgHdr_t pgHdr;
//  370 
//  371   pgHdr.active = OSAL_NV_ZEROED_ID;
        MOV       DPL,?XSP + 0
        MOV       DPH,?XSP + 1
        CLR       A
        MOVX      @DPTR,A
        INC       DPTR
        MOVX      @DPTR,A
//  372 
//  373   if ( inUse )
        MOV       A,R2
        JZ        ??setPageUse_0
//  374   {
//  375     pgHdr.inUse = OSAL_NV_ZEROED_ID;
        MOV       A,#0x2
        LCALL     ?XSTACK_DISP0_8
        CLR       A
        SJMP      ??setPageUse_1
//  376   }
//  377   else
//  378   {
//  379     pgHdr.inUse = OSAL_NV_ERASED_ID;
??setPageUse_0:
        MOV       A,#0x2
        LCALL     ?XSTACK_DISP0_8
        MOV       A,#-0x1
//  380   }
??setPageUse_1:
        LCALL     ??Subroutine57_0 & 0xFFFF
//  381 
//  382   writeWord( pg, OSAL_NV_PAGE_HDR_OFFSET, (uint8*)(&pgHdr) );
??CrossCallReturnLabel_106:
        MOV       R2,#0x0
        MOV       R3,#0x0
        LCALL     `??writeWord::?relay`; Banked call to: writeWord
//  383 }
        MOV       A,#0x8
        LJMP      ?Subroutine1 & 0xFFFF
          CFI EndBlock cfiBlock7
//  384 
//  385 /*********************************************************************
//  386  * @fn      initPage
//  387  *
//  388  * @brief   Walk the page items; calculate checksums, lost bytes & page offset.
//  389  *
//  390  * @param   pg - Valid NV page to verify and init.
//  391  * @param   id - Valid NV item Id to use function as a "findItem".
//  392  *               If set to NULL then just perform the page initialization.
//  393  * @param   findDups - TRUE on recursive call from initNV() to find and zero-out duplicate items
//  394  *                     left from a write that is interrupted by a reset/power-cycle.
//  395  *                     FALSE otherwise.
//  396  *
//  397  * @return  If 'id' is non-NULL and good checksums are found, return the offset
//  398  *          of the data corresponding to item Id; else OSAL_NV_ITEM_NULL.
//  399  */

        RSEG BANKED_CODE:HUGECODE:NOROOT(0)
//  400 static uint16 initPage( uint8 pg, uint16 id, uint8 findDups )
initPage:
          CFI Block cfiBlock8 Using cfiCommon0
          CFI Function initPage
        CODE
//  401 {
        FUNCALL initPage, HalFlashRead
        LOCFRAME ISTACK, 0, STACK
        LOCFRAME PSTACK, 0, STACK
        LOCFRAME XSTACK, 28, STACK
        LOCFRAME IOVERLAY, 0, STATIC
        LOCFRAME DOVERLAY, 0, STATIC
        ARGFRAME ISTACK, 0, STACK
        ARGFRAME PSTACK, 0, STACK
        ARGFRAME XSTACK, 28, STACK
        ARGFRAME IOVERLAY, 0, STATIC
        ARGFRAME DOVERLAY, 0, STATIC
        FUNCALL initPage, calcChkF
        LOCFRAME ISTACK, 0, STACK
        LOCFRAME PSTACK, 0, STACK
        LOCFRAME XSTACK, 26, STACK
        LOCFRAME IOVERLAY, 0, STATIC
        LOCFRAME DOVERLAY, 0, STATIC
        ARGFRAME ISTACK, 0, STACK
        ARGFRAME PSTACK, 0, STACK
        ARGFRAME XSTACK, 26, STACK
        ARGFRAME IOVERLAY, 0, STATIC
        ARGFRAME DOVERLAY, 0, STATIC
        FUNCALL initPage, findItem
        LOCFRAME ISTACK, 0, STACK
        LOCFRAME PSTACK, 0, STACK
        LOCFRAME XSTACK, 26, STACK
        LOCFRAME IOVERLAY, 0, STATIC
        LOCFRAME DOVERLAY, 0, STATIC
        ARGFRAME ISTACK, 0, STACK
        ARGFRAME PSTACK, 0, STACK
        ARGFRAME XSTACK, 26, STACK
        ARGFRAME IOVERLAY, 0, STATIC
        ARGFRAME DOVERLAY, 0, STATIC
        FUNCALL initPage, setItem
        LOCFRAME ISTACK, 0, STACK
        LOCFRAME PSTACK, 0, STACK
        LOCFRAME XSTACK, 26, STACK
        LOCFRAME IOVERLAY, 0, STATIC
        LOCFRAME DOVERLAY, 0, STATIC
        ARGFRAME ISTACK, 0, STACK
        ARGFRAME PSTACK, 0, STACK
        ARGFRAME XSTACK, 26, STACK
        ARGFRAME IOVERLAY, 0, STATIC
        ARGFRAME DOVERLAY, 0, STATIC
        FUNCALL initPage, setItem
        LOCFRAME ISTACK, 0, STACK
        LOCFRAME PSTACK, 0, STACK
        LOCFRAME XSTACK, 26, STACK
        LOCFRAME IOVERLAY, 0, STATIC
        LOCFRAME DOVERLAY, 0, STATIC
        ARGFRAME ISTACK, 0, STACK
        ARGFRAME PSTACK, 0, STACK
        ARGFRAME XSTACK, 26, STACK
        ARGFRAME IOVERLAY, 0, STATIC
        ARGFRAME DOVERLAY, 0, STATIC
        REQUIRE ?V0
        REQUIRE ?V1
        REQUIRE ?V2
        REQUIRE ?V3
        REQUIRE ?V4
        REQUIRE ?V5
        REQUIRE ?V6
        REQUIRE ?V7
        MOV       A,#-0x10
        LCALL     ?BANKED_ENTER_XDATA
          CFI DPH0 load(1, XDATA, add(CFA_XSP16, literal(-1)))
          CFI DPL0 load(1, XDATA, add(CFA_XSP16, literal(-2)))
          CFI ?BRET_EXT load(1, XDATA, add(CFA_XSP16, literal(-3)))
          CFI ?RET_HIGH load(1, XDATA, add(CFA_XSP16, literal(-4)))
          CFI ?RET_LOW load(1, XDATA, add(CFA_XSP16, literal(-5)))
          CFI R7 load(1, XDATA, add(CFA_XSP16, literal(-6)))
          CFI V7 load(1, XDATA, add(CFA_XSP16, literal(-7)))
          CFI V6 load(1, XDATA, add(CFA_XSP16, literal(-8)))
          CFI V5 load(1, XDATA, add(CFA_XSP16, literal(-9)))
          CFI V4 load(1, XDATA, add(CFA_XSP16, literal(-10)))
          CFI V3 load(1, XDATA, add(CFA_XSP16, literal(-11)))
          CFI V2 load(1, XDATA, add(CFA_XSP16, literal(-12)))
          CFI V1 load(1, XDATA, add(CFA_XSP16, literal(-13)))
          CFI V0 load(1, XDATA, add(CFA_XSP16, literal(-14)))
          CFI VB load(1, XDATA, add(CFA_XSP16, literal(-15)))
          CFI R6 load(1, XDATA, add(CFA_XSP16, literal(-16)))
          CFI CFA_SP SP+0
          CFI CFA_XSP16 add(XSP16, 16)
        ; Saved register size: 16
        ; Auto size: 10
        MOV       A,#-0xa
        LCALL     ?ALLOC_XSTACK8
          CFI CFA_XSP16 add(XSP16, 26)
        MOV       DPL,?XSP + 0
        MOV       DPH,?XSP + 1
        LCALL     ?Subroutine9 & 0xFFFF
??CrossCallReturnLabel_4:
        MOV       ?V7,R4
//  402   uint16 offset = OSAL_NV_PAGE_HDR_SIZE;
        MOV       ?V0,#0x8
        MOV       ?V1,#0x0
//  403   uint16 sz, lost = 0;
        MOV       ?V2,#0x0
        MOV       ?V3,#0x0
//  404   osalNvHdr_t hdr;
//  405 
//  406   do
//  407   {
//  408     HalFlashRead(pg, offset, (uint8 *)(&hdr), OSAL_NV_HDR_SIZE);
??initPage_0:
        ; Setup parameters for call to function HalFlashRead
        MOV       ?V4,#0x8
        MOV       ?V5,#0x0
        MOV       R0,#?V4
        LCALL     ?PUSH_XSTACK_I_TWO
          CFI CFA_XSP16 add(XSP16, 28)
        MOV       A,#0x4
        LCALL     ?XSTACK_DISP102_8
        MOV       R2,?V0
        MOV       R3,?V1
        MOV       R1,?V6
        LCALL     ??Subroutine61_0 & 0xFFFF
??CrossCallReturnLabel_125:
        LCALL     ?DEALLOC_XSTACK8
          CFI CFA_XSP16 add(XSP16, 26)
//  409 
//  410     if ( hdr.id == OSAL_NV_ERASED_ID )
        MOV       A,#0x2
        LCALL     ?XSTACK_DISP0_8
        MOVX      A,@DPTR
        CPL       A
        JNZ       ??initPage_1
        INC       DPTR
        MOVX      A,@DPTR
        CPL       A
??initPage_1:
        JNZ       $+5
        LJMP      ??initPage_2 & 0xFFFF
//  411     {
//  412       break;
//  413     }
//  414 
//  415     // Get the actual size in bytes which is the ceiling(hdr.len)
//  416     sz = OSAL_NV_DATA_SIZE( hdr.len );
        MOV       A,#0x4
        LCALL     ?XSTACK_DISP0_8
        LCALL     ?Subroutine18 & 0xFFFF
??CrossCallReturnLabel_26:
        JC        ??initPage_3
        MOV       R6,#-0x4
        MOV       R7,#-0x1
        SJMP      ??CrossCallReturnLabel_68
??initPage_3:
        LCALL     ?Subroutine36 & 0xFFFF
//  417 
//  418     // A bad 'len' write has blown away the rest of the page.
//  419     if (sz > (OSAL_NV_PAGE_SIZE - OSAL_NV_HDR_SIZE - offset))
??CrossCallReturnLabel_68:
        LCALL     ?Subroutine35 & 0xFFFF
??CrossCallReturnLabel_66:
        JNC       ??initPage_4
//  420     {
//  421       lost += (OSAL_NV_PAGE_SIZE - offset);
        MOV       A,?V2
        ADD       A,#0x0
        MOV       A,?V3
        ADDC      A,#0x8
        MOV       ?V3,A
        CLR       C
        MOV       A,?V2
        SUBB      A,?V0
        MOV       ?V2,A
        MOV       A,?V3
        SUBB      A,?V1
        MOV       ?V3,A
//  422       offset = OSAL_NV_PAGE_SIZE;
        MOV       ?V0,#0x0
        MOV       ?V1,#0x8
//  423       break;
        LJMP      ??initPage_2 & 0xFFFF
//  424     }
//  425 
//  426     offset += OSAL_NV_HDR_SIZE;
??initPage_4:
        LCALL     ?Subroutine38 & 0xFFFF
//  427 
//  428     if ( hdr.id != OSAL_NV_ZEROED_ID )
??CrossCallReturnLabel_70:
        MOV       A,#0x2
        LCALL     ?XSTACK_DISP0_8
        LCALL     ?Subroutine13 & 0xFFFF
??CrossCallReturnLabel_13:
        JNZ       $+5
        LJMP      ??initPage_5 & 0xFFFF
//  429     {
//  430       /* This trick allows function to do double duty for findItem() without
//  431        * compromising its essential functionality at powerup initialization.
//  432        */
//  433       if ( id != OSAL_NV_ITEM_NULL )
        MOV       DPL,?XSP + 0
        MOV       DPH,?XSP + 1
        LCALL     ?Subroutine13 & 0xFFFF
??CrossCallReturnLabel_14:
        JZ        ??initPage_6
//  434       {
//  435         /* This trick allows asking to find the old/transferred item in case
//  436          * of a successful new item write that gets interrupted before the
//  437          * old item can be zeroed out.
//  438          */
//  439         if ( (id & 0x7fff) == hdr.id )
        MOV       DPL,?XSP + 0
        MOV       DPH,?XSP + 1
        INC       DPTR
        MOVX      A,@DPTR
        ANL       A,#0x7f
        MOV       R1,A
        MOV       A,#0x2
        LCALL     ?XSTACK_DISP0_8
        MOVX      A,@DPTR
        XRL       A,R0
        JNZ       ??initPage_7
        INC       DPTR
        MOVX      A,@DPTR
        XRL       A,R1
??initPage_7:
        JZ        $+5
        LJMP      ??initPage_8 & 0xFFFF
//  440         {
//  441           if ( (((id & OSAL_NV_SOURCE_ID) == 0) && (hdr.stat == OSAL_NV_ERASED_ID)) ||
//  442                (((id & OSAL_NV_SOURCE_ID) != 0) && (hdr.stat != OSAL_NV_ERASED_ID)) )
        MOV       A,#0x8
        LCALL     ?XSTACK_DISP0_8
        LCALL     ??Subroutine67_0 & 0xFFFF
??CrossCallReturnLabel_148:
        MOV       DPL,?XSP + 0
        MOV       DPH,?XSP + 1
        INC       DPTR
        MOVX      A,@DPTR
        ANL       A,#0x80
        JNZ       ??initPage_9
        MOV       A,#-0x1
        XRL       A,R2
        JNZ       ??initPage_10
        MOV       A,#-0x1
        XRL       A,R3
??initPage_10:
        JZ        $+5
        LJMP      ??initPage_8 & 0xFFFF
        SJMP      ??initPage_11
??initPage_9:
        MOV       A,#-0x1
        XRL       A,R2
        JNZ       ??initPage_12
        MOV       A,#-0x1
        XRL       A,R3
??initPage_12:
        JZ        ??initPage_8
//  443           {
//  444             return offset;
??initPage_11:
        MOV       R2,?V0
        MOV       R3,?V1
        LJMP      ??initPage_13 & 0xFFFF
//  445           }
//  446         }
//  447       }
//  448       // When invoked from the osal_nv_init(), verify checksums and find & zero any duplicates.
//  449       else
//  450       {
//  451         if ( hdr.chk == calcChkF( pg, offset, hdr.len ) )
??initPage_6:
        ; Setup parameters for call to function calcChkF
        MOV       R2,?V0
        MOV       R3,?V1
        LCALL     ?Subroutine40 & 0xFFFF
??CrossCallReturnLabel_74:
        MOV       A,#0x6
        LCALL     ?XSTACK_DISP0_8
        MOVX      A,@DPTR
        XRL       A,R0
        JNZ       ??initPage_14
        INC       DPTR
        MOVX      A,@DPTR
        XRL       A,R1
??initPage_14:
        JNZ       ??initPage_15
//  452         {
//  453           if ( findDups )
        MOV       A,#0x8
        LCALL     ?XSTACK_DISP0_8
        LCALL     ?Subroutine23 & 0xFFFF
??CrossCallReturnLabel_38:
        MOV       A,?V7
        JZ        ??initPage_16
//  454           {
//  455             if ( hdr.stat == OSAL_NV_ERASED_ID )
        MOV       A,#-0x1
        XRL       A,R0
        JNZ       ??initPage_17
        MOV       A,#-0x1
        XRL       A,R1
??initPage_17:
        JNZ       ??initPage_8
//  456             {
//  457               /* The trick of setting the MSB of the item Id causes the logic
//  458                * immediately above to return a valid page only if the header 'stat'
//  459                * indicates that it was the older item being transferred.
//  460                */
//  461               uint16 off = findItem( (hdr.id | OSAL_NV_SOURCE_ID) );
        ; Setup parameters for call to function findItem
        MOV       A,#0x2
        LCALL     ?XSTACK_DISP0_8
        MOVX      A,@DPTR
        MOV       R2,A
        INC       DPTR
        MOVX      A,@DPTR
        ORL       A,#0x80
        LCALL     ??Subroutine65_0 & 0xFFFF
//  462 
//  463               if ( off != OSAL_NV_ITEM_NULL )
??CrossCallReturnLabel_146:
        JZ        ??initPage_8
//  464               {
//  465                 setItem( findPg, off, eNvZero );  // Mark old duplicate as invalid.
        ; Setup parameters for call to function setItem
        MOV       R4,#0x1
        LCALL     ?Subroutine24 & 0xFFFF
//  466               }
//  467             }
//  468           }
??CrossCallReturnLabel_92:
        SJMP      ??initPage_8
//  469           // Any "old" item immediately exits and triggers the N^2 exhaustive initialization.
//  470           else if ( hdr.stat != OSAL_NV_ERASED_ID )
??initPage_16:
        MOV       A,#-0x1
        XRL       A,R0
        JNZ       ??initPage_18
        MOV       A,#-0x1
        XRL       A,R1
??initPage_18:
        JZ        ??initPage_8
//  471           {
//  472             return OSAL_NV_ERASED_ID;
        MOV       R2,#-0x1
        MOV       R3,#-0x1
        SJMP      ??initPage_13
//  473           }
//  474         }
//  475         else
//  476         {
//  477           setItem( pg, offset, eNvZero );  // Mark bad checksum as invalid.
??initPage_15:
        ; Setup parameters for call to function setItem
        MOV       R4,#0x1
        MOV       R2,?V0
        MOV       R3,?V1
        MOV       R1,?V6
        LCALL     `??setItem::?relay`; Banked call to: setItem
//  478           lost += (OSAL_NV_HDR_SIZE + sz);
//  479         }
//  480       }
//  481     }
//  482     else
//  483     {
//  484       lost += (OSAL_NV_HDR_SIZE + sz);
??initPage_5:
        MOV       A,R6
        ADD       A,#0x8
        MOV       R0,A
        CLR       A
        ADDC      A,R7
        MOV       R1,A
        MOV       A,?V2
        ADD       A,R0
        MOV       ?V2,A
        MOV       A,?V3
        ADDC      A,R1
        MOV       ?V3,A
//  485     }
//  486     offset += sz;
??initPage_8:
        MOV       A,?V0
        ADD       A,R6
        MOV       ?V0,A
        MOV       A,?V1
        ADDC      A,R7
        MOV       ?V1,A
//  487 
//  488   } while (offset < (OSAL_NV_PAGE_SIZE - OSAL_NV_HDR_SIZE));
        CLR       C
        MOV       A,?V0
        SUBB      A,#-0x8
        MOV       A,?V1
        SUBB      A,#0x7
        JNC       $+5
        LJMP      ??initPage_0 & 0xFFFF
//  489 
//  490   pgOff[pg - OSAL_NV_PAGE_BEG] = offset;
??initPage_2:
        MOV       R0,?V6
        MOV       A,R0
        ADD       A,R0
        LCALL     ??Subroutine55_0 & 0xFFFF
??CrossCallReturnLabel_96:
        MOV       A,?V0
        MOVX      @DPTR,A
        INC       DPTR
        MOV       A,?V1
        LCALL     ?Subroutine8 & 0xFFFF
//  491   pgLost[pg - OSAL_NV_PAGE_BEG] = lost;
??CrossCallReturnLabel_2:
        MOV       A,?V2
        MOVX      @DPTR,A
        INC       DPTR
        MOV       A,?V3
        MOVX      @DPTR,A
//  492 
//  493   return OSAL_NV_ITEM_NULL;
        MOV       R2,#0x0
        MOV       R3,#0x0
??initPage_13:
        LJMP      ?Subroutine2 & 0xFFFF
//  494 }
          CFI EndBlock cfiBlock8

        RSEG BANKED_CODE:HUGECODE:NOROOT(0)
?Subroutine24:
          CFI Block cfiCond9 Using cfiCommon0
          CFI Function initPage
          CFI Conditional ??CrossCallReturnLabel_92
          CFI R6 load(1, XDATA, add(CFA_XSP16, literal(-16)))
          CFI VB load(1, XDATA, add(CFA_XSP16, literal(-15)))
          CFI V0 load(1, XDATA, add(CFA_XSP16, literal(-14)))
          CFI V1 load(1, XDATA, add(CFA_XSP16, literal(-13)))
          CFI V2 load(1, XDATA, add(CFA_XSP16, literal(-12)))
          CFI V3 load(1, XDATA, add(CFA_XSP16, literal(-11)))
          CFI V4 load(1, XDATA, add(CFA_XSP16, literal(-10)))
          CFI V5 load(1, XDATA, add(CFA_XSP16, literal(-9)))
          CFI V6 load(1, XDATA, add(CFA_XSP16, literal(-8)))
          CFI V7 load(1, XDATA, add(CFA_XSP16, literal(-7)))
          CFI R7 load(1, XDATA, add(CFA_XSP16, literal(-6)))
          CFI ?RET_LOW load(1, XDATA, add(CFA_XSP16, literal(-5)))
          CFI ?RET_HIGH load(1, XDATA, add(CFA_XSP16, literal(-4)))
          CFI ?BRET_EXT load(1, XDATA, add(CFA_XSP16, literal(-3)))
          CFI DPL0 load(1, XDATA, add(CFA_XSP16, literal(-2)))
          CFI DPH0 load(1, XDATA, add(CFA_XSP16, literal(-1)))
          CFI CFA_SP SP+-2
          CFI CFA_XSP16 add(XSP16, 26)
          CFI Block cfiCond10 Using cfiCommon0
          CFI (cfiCond10) Function osal_nv_delete
          CFI (cfiCond10) Conditional ??CrossCallReturnLabel_93
          CFI (cfiCond10) R6 load(1, XDATA, add(CFA_XSP16, literal(-14)))
          CFI (cfiCond10) VB load(1, XDATA, add(CFA_XSP16, literal(-13)))
          CFI (cfiCond10) V0 load(1, XDATA, add(CFA_XSP16, literal(-12)))
          CFI (cfiCond10) V1 load(1, XDATA, add(CFA_XSP16, literal(-11)))
          CFI (cfiCond10) V2 load(1, XDATA, add(CFA_XSP16, literal(-10)))
          CFI (cfiCond10) V3 load(1, XDATA, add(CFA_XSP16, literal(-9)))
          CFI (cfiCond10) V4 load(1, XDATA, add(CFA_XSP16, literal(-8)))
          CFI (cfiCond10) V5 load(1, XDATA, add(CFA_XSP16, literal(-7)))
          CFI (cfiCond10) R7 load(1, XDATA, add(CFA_XSP16, literal(-6)))
          CFI (cfiCond10) ?RET_LOW load(1, XDATA, add(CFA_XSP16, literal(-5)))
          CFI (cfiCond10) ?RET_HIGH load(1, XDATA, add(CFA_XSP16, literal(-4)))
          CFI (cfiCond10) ?BRET_EXT load(1, XDATA, add(CFA_XSP16, literal(-3)))
          CFI (cfiCond10) DPL0 load(1, XDATA, add(CFA_XSP16, literal(-2)))
          CFI (cfiCond10) DPH0 load(1, XDATA, add(CFA_XSP16, literal(-1)))
          CFI (cfiCond10) CFA_SP SP+-2
          CFI (cfiCond10) CFA_XSP16 add(XSP16, 14)
          CFI Block cfiPicker11 Using cfiCommon1
          CFI (cfiPicker11) NoFunction
          CFI (cfiPicker11) Picker
        MOV       DPTR,#findPg
          CFI EndBlock cfiCond9
          CFI EndBlock cfiCond10
          CFI EndBlock cfiPicker11
        REQUIRE ??Subroutine53_0
        ; // Fall through to label ??Subroutine53_0

        RSEG BANKED_CODE:HUGECODE:NOROOT(0)
??Subroutine53_0:
          CFI Block cfiCond12 Using cfiCommon0
          CFI Function osal_nv_write
          CFI Conditional ??CrossCallReturnLabel_94
          CFI R6 load(1, XDATA, add(CFA_XSP16, literal(-16)))
          CFI VB load(1, XDATA, add(CFA_XSP16, literal(-15)))
          CFI V0 load(1, XDATA, add(CFA_XSP16, literal(-14)))
          CFI V1 load(1, XDATA, add(CFA_XSP16, literal(-13)))
          CFI V2 load(1, XDATA, add(CFA_XSP16, literal(-12)))
          CFI V3 load(1, XDATA, add(CFA_XSP16, literal(-11)))
          CFI V4 load(1, XDATA, add(CFA_XSP16, literal(-10)))
          CFI V5 load(1, XDATA, add(CFA_XSP16, literal(-9)))
          CFI V6 load(1, XDATA, add(CFA_XSP16, literal(-8)))
          CFI V7 load(1, XDATA, add(CFA_XSP16, literal(-7)))
          CFI R7 load(1, XDATA, add(CFA_XSP16, literal(-6)))
          CFI ?RET_LOW load(1, XDATA, add(CFA_XSP16, literal(-5)))
          CFI ?RET_HIGH load(1, XDATA, add(CFA_XSP16, literal(-4)))
          CFI ?BRET_EXT load(1, XDATA, add(CFA_XSP16, literal(-3)))
          CFI DPL0 load(1, XDATA, add(CFA_XSP16, literal(-2)))
          CFI DPH0 load(1, XDATA, add(CFA_XSP16, literal(-1)))
          CFI CFA_SP SP+-2
          CFI CFA_XSP16 add(XSP16, 35)
          CFI Block cfiCond13 Using cfiCommon0
          CFI (cfiCond13) Function osal_nv_write
          CFI (cfiCond13) Conditional ??CrossCallReturnLabel_95
          CFI (cfiCond13) R6 load(1, XDATA, add(CFA_XSP16, literal(-16)))
          CFI (cfiCond13) VB load(1, XDATA, add(CFA_XSP16, literal(-15)))
          CFI (cfiCond13) V0 load(1, XDATA, add(CFA_XSP16, literal(-14)))
          CFI (cfiCond13) V1 load(1, XDATA, add(CFA_XSP16, literal(-13)))
          CFI (cfiCond13) V2 load(1, XDATA, add(CFA_XSP16, literal(-12)))
          CFI (cfiCond13) V3 load(1, XDATA, add(CFA_XSP16, literal(-11)))
          CFI (cfiCond13) V4 load(1, XDATA, add(CFA_XSP16, literal(-10)))
          CFI (cfiCond13) V5 load(1, XDATA, add(CFA_XSP16, literal(-9)))
          CFI (cfiCond13) V6 load(1, XDATA, add(CFA_XSP16, literal(-8)))
          CFI (cfiCond13) V7 load(1, XDATA, add(CFA_XSP16, literal(-7)))
          CFI (cfiCond13) R7 load(1, XDATA, add(CFA_XSP16, literal(-6)))
          CFI (cfiCond13) ?RET_LOW load(1, XDATA, add(CFA_XSP16, literal(-5)))
          CFI (cfiCond13) ?RET_HIGH load(1, XDATA, add(CFA_XSP16, literal(-4)))
          CFI (cfiCond13) ?BRET_EXT load(1, XDATA, add(CFA_XSP16, literal(-3)))
          CFI (cfiCond13) DPL0 load(1, XDATA, add(CFA_XSP16, literal(-2)))
          CFI (cfiCond13) DPH0 load(1, XDATA, add(CFA_XSP16, literal(-1)))
          CFI (cfiCond13) CFA_SP SP+-2
          CFI (cfiCond13) CFA_XSP16 add(XSP16, 35)
          CFI Block cfiCond14 Using cfiCommon0
          CFI (cfiCond14) Function initPage
          CFI (cfiCond14) Conditional ??CrossCallReturnLabel_92
          CFI (cfiCond14) R6 load(1, XDATA, add(CFA_XSP16, literal(-16)))
          CFI (cfiCond14) VB load(1, XDATA, add(CFA_XSP16, literal(-15)))
          CFI (cfiCond14) V0 load(1, XDATA, add(CFA_XSP16, literal(-14)))
          CFI (cfiCond14) V1 load(1, XDATA, add(CFA_XSP16, literal(-13)))
          CFI (cfiCond14) V2 load(1, XDATA, add(CFA_XSP16, literal(-12)))
          CFI (cfiCond14) V3 load(1, XDATA, add(CFA_XSP16, literal(-11)))
          CFI (cfiCond14) V4 load(1, XDATA, add(CFA_XSP16, literal(-10)))
          CFI (cfiCond14) V5 load(1, XDATA, add(CFA_XSP16, literal(-9)))
          CFI (cfiCond14) V6 load(1, XDATA, add(CFA_XSP16, literal(-8)))
          CFI (cfiCond14) V7 load(1, XDATA, add(CFA_XSP16, literal(-7)))
          CFI (cfiCond14) R7 load(1, XDATA, add(CFA_XSP16, literal(-6)))
          CFI (cfiCond14) ?RET_LOW load(1, XDATA, add(CFA_XSP16, literal(-5)))
          CFI (cfiCond14) ?RET_HIGH load(1, XDATA, add(CFA_XSP16, literal(-4)))
          CFI (cfiCond14) ?BRET_EXT load(1, XDATA, add(CFA_XSP16, literal(-3)))
          CFI (cfiCond14) DPL0 load(1, XDATA, add(CFA_XSP16, literal(-2)))
          CFI (cfiCond14) DPH0 load(1, XDATA, add(CFA_XSP16, literal(-1)))
          CFI (cfiCond14) CFA_SP SP+-2
          CFI (cfiCond14) CFA_XSP16 add(XSP16, 26)
          CFI Block cfiCond15 Using cfiCommon0
          CFI (cfiCond15) Function osal_nv_delete
          CFI (cfiCond15) Conditional ??CrossCallReturnLabel_93
          CFI (cfiCond15) R6 load(1, XDATA, add(CFA_XSP16, literal(-14)))
          CFI (cfiCond15) VB load(1, XDATA, add(CFA_XSP16, literal(-13)))
          CFI (cfiCond15) V0 load(1, XDATA, add(CFA_XSP16, literal(-12)))
          CFI (cfiCond15) V1 load(1, XDATA, add(CFA_XSP16, literal(-11)))
          CFI (cfiCond15) V2 load(1, XDATA, add(CFA_XSP16, literal(-10)))
          CFI (cfiCond15) V3 load(1, XDATA, add(CFA_XSP16, literal(-9)))
          CFI (cfiCond15) V4 load(1, XDATA, add(CFA_XSP16, literal(-8)))
          CFI (cfiCond15) V5 load(1, XDATA, add(CFA_XSP16, literal(-7)))
          CFI (cfiCond15) R7 load(1, XDATA, add(CFA_XSP16, literal(-6)))
          CFI (cfiCond15) ?RET_LOW load(1, XDATA, add(CFA_XSP16, literal(-5)))
          CFI (cfiCond15) ?RET_HIGH load(1, XDATA, add(CFA_XSP16, literal(-4)))
          CFI (cfiCond15) ?BRET_EXT load(1, XDATA, add(CFA_XSP16, literal(-3)))
          CFI (cfiCond15) DPL0 load(1, XDATA, add(CFA_XSP16, literal(-2)))
          CFI (cfiCond15) DPH0 load(1, XDATA, add(CFA_XSP16, literal(-1)))
          CFI (cfiCond15) CFA_SP SP+-2
          CFI (cfiCond15) CFA_XSP16 add(XSP16, 14)
          CFI Block cfiPicker16 Using cfiCommon1
          CFI (cfiPicker16) NoFunction
          CFI (cfiPicker16) Picker
        MOVX      A,@DPTR
        MOV       R1,A
        LCALL     `??setItem::?relay`; Banked call to: setItem
        RET
          CFI EndBlock cfiCond12
          CFI EndBlock cfiCond13
          CFI EndBlock cfiCond14
          CFI EndBlock cfiCond15
          CFI EndBlock cfiPicker16
//  495 
//  496 /*********************************************************************
//  497  * @fn      erasePage
//  498  *
//  499  * @brief   Erases a page in Flash.
//  500  *
//  501  * @param   pg - Valid NV page to erase.
//  502  *
//  503  * @return  none
//  504  */

        RSEG BANKED_CODE:HUGECODE:NOROOT(0)
//  505 static void erasePage( uint8 pg )
erasePage:
          CFI Block cfiBlock17 Using cfiCommon0
          CFI Function erasePage
        CODE
//  506 {
        FUNCALL erasePage, HalFlashErase
        LOCFRAME ISTACK, 0, STACK
        LOCFRAME PSTACK, 0, STACK
        LOCFRAME XSTACK, 9, STACK
        LOCFRAME IOVERLAY, 0, STATIC
        LOCFRAME DOVERLAY, 0, STATIC
        ARGFRAME ISTACK, 0, STACK
        ARGFRAME PSTACK, 0, STACK
        ARGFRAME XSTACK, 9, STACK
        ARGFRAME IOVERLAY, 0, STATIC
        ARGFRAME DOVERLAY, 0, STATIC
        MOV       A,#-0x9
        LCALL     ?BANKED_ENTER_XDATA
          CFI DPH0 load(1, XDATA, add(CFA_XSP16, literal(-1)))
          CFI DPL0 load(1, XDATA, add(CFA_XSP16, literal(-2)))
          CFI ?BRET_EXT load(1, XDATA, add(CFA_XSP16, literal(-3)))
          CFI ?RET_HIGH load(1, XDATA, add(CFA_XSP16, literal(-4)))
          CFI ?RET_LOW load(1, XDATA, add(CFA_XSP16, literal(-5)))
          CFI R7 load(1, XDATA, add(CFA_XSP16, literal(-6)))
          CFI V0 load(1, XDATA, add(CFA_XSP16, literal(-7)))
          CFI VB load(1, XDATA, add(CFA_XSP16, literal(-8)))
          CFI R6 load(1, XDATA, add(CFA_XSP16, literal(-9)))
          CFI CFA_SP SP+0
          CFI CFA_XSP16 add(XSP16, 9)
        ; Saved register size: 9
        ; Auto size: 0
        MOV       A,R1
        MOV       R6,A
//  507   HalFlashErase(pg);
        ; Setup parameters for call to function HalFlashErase
        LCALL     `??HalFlashErase::?relay`; Banked call to: HalFlashErase
//  508 
//  509   pgOff[pg - OSAL_NV_PAGE_BEG] = OSAL_NV_PAGE_HDR_SIZE;
        MOV       A,R6
        ADD       A,R6
        LCALL     ??Subroutine55_0 & 0xFFFF
??CrossCallReturnLabel_97:
        MOV       A,#0x8
        MOVX      @DPTR,A
        INC       DPTR
        CLR       A
        LCALL     ?Subroutine8 & 0xFFFF
//  510   pgLost[pg - OSAL_NV_PAGE_BEG] = 0;
??CrossCallReturnLabel_3:
        CLR       A
        MOVX      @DPTR,A
        INC       DPTR
        MOVX      @DPTR,A
//  511 }
        SJMP      ??Subroutine54_0
          CFI EndBlock cfiBlock17

        RSEG BANKED_CODE:HUGECODE:NOROOT(0)
?Subroutine8:
          CFI Block cfiCond18 Using cfiCommon0
          CFI Function initPage
          CFI Conditional ??CrossCallReturnLabel_2
          CFI R6 load(1, XDATA, add(CFA_XSP16, literal(-16)))
          CFI VB load(1, XDATA, add(CFA_XSP16, literal(-15)))
          CFI V0 load(1, XDATA, add(CFA_XSP16, literal(-14)))
          CFI V1 load(1, XDATA, add(CFA_XSP16, literal(-13)))
          CFI V2 load(1, XDATA, add(CFA_XSP16, literal(-12)))
          CFI V3 load(1, XDATA, add(CFA_XSP16, literal(-11)))
          CFI V4 load(1, XDATA, add(CFA_XSP16, literal(-10)))
          CFI V5 load(1, XDATA, add(CFA_XSP16, literal(-9)))
          CFI V6 load(1, XDATA, add(CFA_XSP16, literal(-8)))
          CFI V7 load(1, XDATA, add(CFA_XSP16, literal(-7)))
          CFI R7 load(1, XDATA, add(CFA_XSP16, literal(-6)))
          CFI ?RET_LOW load(1, XDATA, add(CFA_XSP16, literal(-5)))
          CFI ?RET_HIGH load(1, XDATA, add(CFA_XSP16, literal(-4)))
          CFI ?BRET_EXT load(1, XDATA, add(CFA_XSP16, literal(-3)))
          CFI DPL0 load(1, XDATA, add(CFA_XSP16, literal(-2)))
          CFI DPH0 load(1, XDATA, add(CFA_XSP16, literal(-1)))
          CFI CFA_SP SP+-2
          CFI CFA_XSP16 add(XSP16, 26)
          CFI Block cfiCond19 Using cfiCommon0
          CFI (cfiCond19) Function erasePage
          CFI (cfiCond19) Conditional ??CrossCallReturnLabel_3
          CFI (cfiCond19) R6 load(1, XDATA, add(CFA_XSP16, literal(-9)))
          CFI (cfiCond19) VB load(1, XDATA, add(CFA_XSP16, literal(-8)))
          CFI (cfiCond19) V0 load(1, XDATA, add(CFA_XSP16, literal(-7)))
          CFI (cfiCond19) R7 load(1, XDATA, add(CFA_XSP16, literal(-6)))
          CFI (cfiCond19) ?RET_LOW load(1, XDATA, add(CFA_XSP16, literal(-5)))
          CFI (cfiCond19) ?RET_HIGH load(1, XDATA, add(CFA_XSP16, literal(-4)))
          CFI (cfiCond19) ?BRET_EXT load(1, XDATA, add(CFA_XSP16, literal(-3)))
          CFI (cfiCond19) DPL0 load(1, XDATA, add(CFA_XSP16, literal(-2)))
          CFI (cfiCond19) DPH0 load(1, XDATA, add(CFA_XSP16, literal(-1)))
          CFI (cfiCond19) CFA_SP SP+-2
          CFI (cfiCond19) CFA_XSP16 add(XSP16, 9)
          CFI Block cfiPicker20 Using cfiCommon1
          CFI (cfiPicker20) NoFunction
          CFI (cfiPicker20) Picker
        MOVX      @DPTR,A
        MOV       A,#(pgLost + 14) & 0xff
        ADD       A,R0
        MOV       DPL,A
        MOV       A,#((pgLost - 242) >> 8) & 0xff
        ADDC      A,R1
        MOV       DPH,A
        RET
          CFI EndBlock cfiCond18
          CFI EndBlock cfiCond19
          CFI EndBlock cfiPicker20

        RSEG BANKED_CODE:HUGECODE:NOROOT(0)
?Subroutine1:
          CFI Block cfiBlock21 Using cfiCommon0
          CFI NoFunction
          CFI CFA_SP SP+0
          CFI CFA_XSP16 add(XSP16, 17)
          CFI VB load(1, XDATA, add(CFA_XSP16, literal(-8)))
          CFI DPL0 load(1, XDATA, add(CFA_XSP16, literal(-2)))
          CFI DPH0 load(1, XDATA, add(CFA_XSP16, literal(-1)))
          CFI R6 load(1, XDATA, add(CFA_XSP16, literal(-9)))
          CFI R7 load(1, XDATA, add(CFA_XSP16, literal(-6)))
          CFI V0 load(1, XDATA, add(CFA_XSP16, literal(-7)))
          CFI ?BRET_EXT load(1, XDATA, add(CFA_XSP16, literal(-3)))
          CFI ?RET_HIGH load(1, XDATA, add(CFA_XSP16, literal(-4)))
          CFI ?RET_LOW load(1, XDATA, add(CFA_XSP16, literal(-5)))
          CFI Invalid
        LCALL     ?DEALLOC_XSTACK8
          CFI EndBlock cfiBlock21
        REQUIRE ??Subroutine54_0
        ; // Fall through to label ??Subroutine54_0

        RSEG BANKED_CODE:HUGECODE:NOROOT(0)
??Subroutine54_0:
          CFI Block cfiBlock22 Using cfiCommon0
          CFI NoFunction
          CFI CFA_SP SP+0
          CFI CFA_XSP16 add(XSP16, 9)
          CFI VB load(1, XDATA, add(CFA_XSP16, literal(-8)))
          CFI DPL0 load(1, XDATA, add(CFA_XSP16, literal(-2)))
          CFI DPH0 load(1, XDATA, add(CFA_XSP16, literal(-1)))
          CFI R6 load(1, XDATA, add(CFA_XSP16, literal(-9)))
          CFI R7 load(1, XDATA, add(CFA_XSP16, literal(-6)))
          CFI V0 load(1, XDATA, add(CFA_XSP16, literal(-7)))
          CFI ?BRET_EXT load(1, XDATA, add(CFA_XSP16, literal(-3)))
          CFI ?RET_HIGH load(1, XDATA, add(CFA_XSP16, literal(-4)))
          CFI ?RET_LOW load(1, XDATA, add(CFA_XSP16, literal(-5)))
        MOV       R7,#0x1
        LJMP      ?BANKED_LEAVE_XDATA
          CFI EndBlock cfiBlock22
//  512 
//  513 /*********************************************************************
//  514  * @fn      compactPage
//  515  *
//  516  * @brief   Compacts the page specified.
//  517  *
//  518  * @param   srcPg - Valid NV page to erase.
//  519  * @param   skipId - Item Id to not compact.
//  520  *
//  521  * @return  TRUE if valid items from 'srcPg' are successully compacted onto the 'pgRes';
//  522  *          FALSE otherwise.
//  523  *          Note that on a failure, this could loop, re-erasing the 'pgRes' and re-compacting with
//  524  *          the risk of infinitely looping on HAL flash failure.
//  525  *          Worst case scenario: HAL flash starts failing in general, perhaps low Vdd?
//  526  *          All page compactions will fail which will cause all osal_nv_write() calls to return
//  527  *          NV_OPER_FAILED.
//  528  *          Eventually, all pages in use may also be in the state of "pending compaction" where
//  529  *          the page header member OSAL_NV_PG_XFER is zeroed out.
//  530  *          During this "HAL flash brown-out", the code will run and OTA should work (until low Vdd
//  531  *          causes an actual chip brown-out, of course.) Although no new NV items will be created
//  532  *          or written, the last value written with a return value of SUCCESS can continue to be
//  533  *          read successfully.
//  534  *          If eventually HAL flash starts working again, all of the pages marked as
//  535  *          "pending compaction" may or may not be eventually compacted. But, initNV() will
//  536  *          deterministically clean-up one page pending compaction per power-cycle
//  537  *          (if HAL flash is working.) Nevertheless, one erased reserve page will be maintained
//  538  *          through such a scenario.
//  539  */

        RSEG BANKED_CODE:HUGECODE:NOROOT(0)
//  540 static uint8 compactPage( uint8 srcPg, uint16 skipId )
compactPage:
          CFI Block cfiBlock23 Using cfiCommon0
          CFI Function compactPage
        CODE
//  541 {
        FUNCALL compactPage, HalFlashRead
        LOCFRAME ISTACK, 0, STACK
        LOCFRAME PSTACK, 0, STACK
        LOCFRAME XSTACK, 28, STACK
        LOCFRAME IOVERLAY, 0, STATIC
        LOCFRAME DOVERLAY, 0, STATIC
        ARGFRAME ISTACK, 0, STACK
        ARGFRAME PSTACK, 0, STACK
        ARGFRAME XSTACK, 28, STACK
        ARGFRAME IOVERLAY, 0, STATIC
        ARGFRAME DOVERLAY, 0, STATIC
        FUNCALL compactPage, erasePage
        LOCFRAME ISTACK, 0, STACK
        LOCFRAME PSTACK, 0, STACK
        LOCFRAME XSTACK, 26, STACK
        LOCFRAME IOVERLAY, 0, STATIC
        LOCFRAME DOVERLAY, 0, STATIC
        ARGFRAME ISTACK, 0, STACK
        ARGFRAME PSTACK, 0, STACK
        ARGFRAME XSTACK, 26, STACK
        ARGFRAME IOVERLAY, 0, STATIC
        ARGFRAME DOVERLAY, 0, STATIC
        FUNCALL compactPage, HalFlashRead
        LOCFRAME ISTACK, 0, STACK
        LOCFRAME PSTACK, 0, STACK
        LOCFRAME XSTACK, 28, STACK
        LOCFRAME IOVERLAY, 0, STATIC
        LOCFRAME DOVERLAY, 0, STATIC
        ARGFRAME ISTACK, 0, STACK
        ARGFRAME PSTACK, 0, STACK
        ARGFRAME XSTACK, 28, STACK
        ARGFRAME IOVERLAY, 0, STATIC
        ARGFRAME DOVERLAY, 0, STATIC
        FUNCALL compactPage, calcChkF
        LOCFRAME ISTACK, 0, STACK
        LOCFRAME PSTACK, 0, STACK
        LOCFRAME XSTACK, 26, STACK
        LOCFRAME IOVERLAY, 0, STATIC
        LOCFRAME DOVERLAY, 0, STATIC
        ARGFRAME ISTACK, 0, STACK
        ARGFRAME PSTACK, 0, STACK
        ARGFRAME XSTACK, 26, STACK
        ARGFRAME IOVERLAY, 0, STATIC
        ARGFRAME DOVERLAY, 0, STATIC
        FUNCALL compactPage, setItem
        LOCFRAME ISTACK, 0, STACK
        LOCFRAME PSTACK, 0, STACK
        LOCFRAME XSTACK, 26, STACK
        LOCFRAME IOVERLAY, 0, STATIC
        LOCFRAME DOVERLAY, 0, STATIC
        ARGFRAME ISTACK, 0, STACK
        ARGFRAME PSTACK, 0, STACK
        ARGFRAME XSTACK, 26, STACK
        ARGFRAME IOVERLAY, 0, STATIC
        ARGFRAME DOVERLAY, 0, STATIC
        FUNCALL compactPage, writeItem
        LOCFRAME ISTACK, 0, STACK
        LOCFRAME PSTACK, 0, STACK
        LOCFRAME XSTACK, 29, STACK
        LOCFRAME IOVERLAY, 0, STATIC
        LOCFRAME DOVERLAY, 0, STATIC
        ARGFRAME ISTACK, 0, STACK
        ARGFRAME PSTACK, 0, STACK
        ARGFRAME XSTACK, 29, STACK
        ARGFRAME IOVERLAY, 0, STATIC
        ARGFRAME DOVERLAY, 0, STATIC
        FUNCALL compactPage, xferBuf
        LOCFRAME ISTACK, 0, STACK
        LOCFRAME PSTACK, 0, STACK
        LOCFRAME XSTACK, 30, STACK
        LOCFRAME IOVERLAY, 0, STATIC
        LOCFRAME DOVERLAY, 0, STATIC
        ARGFRAME ISTACK, 0, STACK
        ARGFRAME PSTACK, 0, STACK
        ARGFRAME XSTACK, 30, STACK
        ARGFRAME IOVERLAY, 0, STATIC
        ARGFRAME DOVERLAY, 0, STATIC
        FUNCALL compactPage, calcChkF
        LOCFRAME ISTACK, 0, STACK
        LOCFRAME PSTACK, 0, STACK
        LOCFRAME XSTACK, 26, STACK
        LOCFRAME IOVERLAY, 0, STATIC
        LOCFRAME DOVERLAY, 0, STATIC
        ARGFRAME ISTACK, 0, STACK
        ARGFRAME PSTACK, 0, STACK
        ARGFRAME XSTACK, 26, STACK
        ARGFRAME IOVERLAY, 0, STATIC
        ARGFRAME DOVERLAY, 0, STATIC
        FUNCALL compactPage, setChk
        LOCFRAME ISTACK, 0, STACK
        LOCFRAME PSTACK, 0, STACK
        LOCFRAME XSTACK, 26, STACK
        LOCFRAME IOVERLAY, 0, STATIC
        LOCFRAME DOVERLAY, 0, STATIC
        ARGFRAME ISTACK, 0, STACK
        ARGFRAME PSTACK, 0, STACK
        ARGFRAME XSTACK, 26, STACK
        ARGFRAME IOVERLAY, 0, STATIC
        ARGFRAME DOVERLAY, 0, STATIC
        FUNCALL compactPage, hotItemUpdate
        LOCFRAME ISTACK, 0, STACK
        LOCFRAME PSTACK, 0, STACK
        LOCFRAME XSTACK, 26, STACK
        LOCFRAME IOVERLAY, 0, STATIC
        LOCFRAME DOVERLAY, 0, STATIC
        ARGFRAME ISTACK, 0, STACK
        ARGFRAME PSTACK, 0, STACK
        ARGFRAME XSTACK, 26, STACK
        ARGFRAME IOVERLAY, 0, STATIC
        ARGFRAME DOVERLAY, 0, STATIC
        FUNCALL compactPage, erasePage
        LOCFRAME ISTACK, 0, STACK
        LOCFRAME PSTACK, 0, STACK
        LOCFRAME XSTACK, 26, STACK
        LOCFRAME IOVERLAY, 0, STATIC
        LOCFRAME DOVERLAY, 0, STATIC
        ARGFRAME ISTACK, 0, STACK
        ARGFRAME PSTACK, 0, STACK
        ARGFRAME XSTACK, 26, STACK
        ARGFRAME IOVERLAY, 0, STATIC
        ARGFRAME DOVERLAY, 0, STATIC
        FUNCALL compactPage, setPageUse
        LOCFRAME ISTACK, 0, STACK
        LOCFRAME PSTACK, 0, STACK
        LOCFRAME XSTACK, 26, STACK
        LOCFRAME IOVERLAY, 0, STATIC
        LOCFRAME DOVERLAY, 0, STATIC
        ARGFRAME ISTACK, 0, STACK
        ARGFRAME PSTACK, 0, STACK
        ARGFRAME XSTACK, 26, STACK
        ARGFRAME IOVERLAY, 0, STATIC
        ARGFRAME DOVERLAY, 0, STATIC
        FUNCALL compactPage, erasePage
        LOCFRAME ISTACK, 0, STACK
        LOCFRAME PSTACK, 0, STACK
        LOCFRAME XSTACK, 26, STACK
        LOCFRAME IOVERLAY, 0, STATIC
        LOCFRAME DOVERLAY, 0, STATIC
        ARGFRAME ISTACK, 0, STACK
        ARGFRAME PSTACK, 0, STACK
        ARGFRAME XSTACK, 26, STACK
        ARGFRAME IOVERLAY, 0, STATIC
        ARGFRAME DOVERLAY, 0, STATIC
        REQUIRE ?V0
        REQUIRE ?V1
        REQUIRE ?V2
        REQUIRE ?V3
        REQUIRE ?V4
        REQUIRE ?V5
        REQUIRE ?V6
        MOV       A,#-0xf
        LCALL     ?BANKED_ENTER_XDATA
          CFI DPH0 load(1, XDATA, add(CFA_XSP16, literal(-1)))
          CFI DPL0 load(1, XDATA, add(CFA_XSP16, literal(-2)))
          CFI ?BRET_EXT load(1, XDATA, add(CFA_XSP16, literal(-3)))
          CFI ?RET_HIGH load(1, XDATA, add(CFA_XSP16, literal(-4)))
          CFI ?RET_LOW load(1, XDATA, add(CFA_XSP16, literal(-5)))
          CFI R7 load(1, XDATA, add(CFA_XSP16, literal(-6)))
          CFI V6 load(1, XDATA, add(CFA_XSP16, literal(-7)))
          CFI V5 load(1, XDATA, add(CFA_XSP16, literal(-8)))
          CFI V4 load(1, XDATA, add(CFA_XSP16, literal(-9)))
          CFI V3 load(1, XDATA, add(CFA_XSP16, literal(-10)))
          CFI V2 load(1, XDATA, add(CFA_XSP16, literal(-11)))
          CFI V1 load(1, XDATA, add(CFA_XSP16, literal(-12)))
          CFI V0 load(1, XDATA, add(CFA_XSP16, literal(-13)))
          CFI VB load(1, XDATA, add(CFA_XSP16, literal(-14)))
          CFI R6 load(1, XDATA, add(CFA_XSP16, literal(-15)))
          CFI CFA_SP SP+0
          CFI CFA_XSP16 add(XSP16, 15)
        ; Saved register size: 15
        ; Auto size: 11
        MOV       A,#-0xb
        LCALL     ?ALLOC_XSTACK8
          CFI CFA_XSP16 add(XSP16, 26)
        MOV       A,#0x9
        LCALL     ?XSTACK_DISP0_8
        LCALL     ?Subroutine9 & 0xFFFF
//  542   uint16 srcOff;
//  543   uint8 rtrn;
//  544 
//  545   // To minimize code size, only check for a clean page here where it's absolutely required.
//  546   for (srcOff = 0; srcOff < OSAL_NV_PAGE_SIZE; srcOff++)
??CrossCallReturnLabel_5:
        MOV       ?V2,#0x0
        MOV       ?V3,#0x0
//  547   {
//  548     HalFlashRead(pgRes, srcOff, &rtrn, 1);
??compactPage_0:
        ; Setup parameters for call to function HalFlashRead
        MOV       ?V0,#0x1
        MOV       ?V1,#0x0
        MOV       R0,#?V0
        LCALL     ?PUSH_XSTACK_I_TWO
          CFI CFA_XSP16 add(XSP16, 28)
        MOV       A,#0x2
        LCALL     ?XSTACK_DISP102_8
        MOV       R2,?V2
        MOV       R3,?V3
        MOV       DPTR,#pgRes
        LCALL     ?Subroutine11 & 0xFFFF
??CrossCallReturnLabel_115:
        LCALL     ?DEALLOC_XSTACK8
          CFI CFA_XSP16 add(XSP16, 26)
//  549     if (rtrn != OSAL_NV_ERASED)
        MOV       DPL,?XSP + 0
        MOV       DPH,?XSP + 1
        MOVX      A,@DPTR
        CPL       A
        JZ        ??compactPage_1
//  550     {
//  551       erasePage(pgRes);
        ; Setup parameters for call to function erasePage
        LCALL     ?Subroutine25 & 0xFFFF
//  552       return FALSE;
??CrossCallReturnLabel_100:
        MOV       R1,#0x0
        LJMP      ??compactPage_2 & 0xFFFF
//  553     }
//  554   }
??compactPage_1:
        INC       ?V2
        MOV       A,?V2
        JNZ       ??compactPage_3
        INC       ?V3
??compactPage_3:
        CLR       C
        MOV       A,?V3
        SUBB      A,#0x8
        JC        ??compactPage_0
//  555 
//  556   srcOff = OSAL_NV_PAGE_HDR_SIZE;
        MOV       ?V2,#0x8
        MOV       ?V3,#0x0
//  557   rtrn = TRUE;
        MOV       A,#0x1
        MOVX      @DPTR,A
//  558 
//  559   while ( srcOff < (OSAL_NV_PAGE_SIZE - OSAL_NV_HDR_SIZE ) )
//  560   {
//  561     osalNvHdr_t hdr;
//  562     uint16 sz, dstOff = pgOff[pgRes-OSAL_NV_PAGE_BEG];
??compactPage_4:
        MOV       DPTR,#pgRes
        MOVX      A,@DPTR
        LCALL     ?Subroutine29 & 0xFFFF
??CrossCallReturnLabel_98:
        LCALL     ?Subroutine19 & 0xFFFF
//  563 
//  564     HalFlashRead(srcPg, srcOff, (uint8 *)(&hdr), OSAL_NV_HDR_SIZE);
??CrossCallReturnLabel_28:
        ; Setup parameters for call to function HalFlashRead
        MOV       ?V4,#0x8
        MOV       ?V5,#0x0
        MOV       R0,#?V4
        LCALL     ?PUSH_XSTACK_I_TWO
          CFI CFA_XSP16 add(XSP16, 28)
        MOV       A,#0x3
        LCALL     ?XSTACK_DISP102_8
        MOV       R2,?V2
        MOV       R3,?V3
        MOV       R1,?V6
        LCALL     ??Subroutine61_0 & 0xFFFF
??CrossCallReturnLabel_126:
        LCALL     ?DEALLOC_XSTACK8
          CFI CFA_XSP16 add(XSP16, 26)
//  565 
//  566     if ( hdr.id == OSAL_NV_ERASED_ID )
        MOV       A,#0x1
        LCALL     ?XSTACK_DISP0_8
        MOVX      A,@DPTR
        CPL       A
        JNZ       ??compactPage_5
        INC       DPTR
        MOVX      A,@DPTR
        CPL       A
??compactPage_5:
        JNZ       $+5
        LJMP      ??compactPage_6 & 0xFFFF
//  567     {
//  568       break;
//  569     }
//  570 
//  571     // Get the actual size in bytes which is the ceiling(hdr.len)
//  572     sz = OSAL_NV_DATA_SIZE( hdr.len );
        MOV       A,#0x3
        LCALL     ?XSTACK_DISP0_8
        LCALL     ?Subroutine18 & 0xFFFF
??CrossCallReturnLabel_27:
        JC        ??compactPage_7
        MOV       R6,#-0x4
        MOV       R7,#-0x1
        SJMP      ??CrossCallReturnLabel_69
??compactPage_7:
        LCALL     ?Subroutine36 & 0xFFFF
//  573 
//  574     if ( sz > (OSAL_NV_PAGE_SIZE - OSAL_NV_HDR_SIZE - srcOff) )
??CrossCallReturnLabel_69:
        MOV       A,#-0x8
        CLR       C
        SUBB      A,?V2
        MOV       R0,A
        MOV       A,#0x7
        SUBB      A,?V3
        MOV       R1,A
        CLR       C
        MOV       A,R0
        SUBB      A,R6
        MOV       A,R1
        SUBB      A,R7
        JNC       $+5
        LJMP      ??compactPage_6 & 0xFFFF
//  575     {
//  576       break;
//  577     }
//  578 
//  579     if ( sz > (OSAL_NV_PAGE_SIZE - OSAL_NV_HDR_SIZE - dstOff) )
        LCALL     ?Subroutine35 & 0xFFFF
??CrossCallReturnLabel_67:
        JNC       $+5
        LJMP      ??compactPage_8 & 0xFFFF
//  580     {
//  581       rtrn = FALSE;
//  582       break;
//  583     }
//  584 
//  585     srcOff += OSAL_NV_HDR_SIZE;
        LCALL     ?Subroutine39 & 0xFFFF
//  586 
//  587     if ( (hdr.id != OSAL_NV_ZEROED_ID) && (hdr.id != skipId) )
??CrossCallReturnLabel_72:
        MOV       A,#0x1
        LCALL     ?XSTACK_DISP0_8
        LCALL     ?Subroutine13 & 0xFFFF
??CrossCallReturnLabel_15:
        JNZ       $+5
        LJMP      ??compactPage_9 & 0xFFFF
        MOV       A,#0x9
        LCALL     ?XSTACK_DISP0_8
        MOVX      A,@DPTR
        XRL       A,R0
        JNZ       ??compactPage_10
        INC       DPTR
        MOVX      A,@DPTR
        XRL       A,R1
??compactPage_10:
        JNZ       $+5
        LJMP      ??compactPage_9 & 0xFFFF
//  588     {
//  589       if ( hdr.chk == calcChkF( srcPg, srcOff, hdr.len ) )
        ; Setup parameters for call to function calcChkF
        MOV       R2,?V2
        MOV       R3,?V3
        LCALL     ?Subroutine40 & 0xFFFF
??CrossCallReturnLabel_75:
        MOV       A,#0x5
        LCALL     ?XSTACK_DISP0_8
        MOVX      A,@DPTR
        XRL       A,R0
        JNZ       ??compactPage_11
        INC       DPTR
        MOVX      A,@DPTR
        XRL       A,R1
??compactPage_11:
        JZ        $+5
        LJMP      ??compactPage_9 & 0xFFFF
//  590       {
//  591         /* Prevent excessive re-writes to item header caused by numerous, rapid, & successive
//  592          * OSAL_Nv interruptions caused by resets.
//  593          */
//  594         if ( hdr.stat == OSAL_NV_ERASED_ID )
        MOV       A,#0x7
        LCALL     ?XSTACK_DISP0_8
        MOVX      A,@DPTR
        CPL       A
        JNZ       ??compactPage_12
        INC       DPTR
        MOVX      A,@DPTR
        CPL       A
??compactPage_12:
        JNZ       ??compactPage_13
//  595         {
//  596           setItem( srcPg, srcOff, eNvXfer );
        ; Setup parameters for call to function setItem
        MOV       R4,#0x0
        MOV       R2,?V2
        MOV       R3,?V3
        MOV       R1,?V6
        LCALL     `??setItem::?relay`; Banked call to: setItem
//  597         }
//  598 
//  599         if ( writeItem( pgRes, hdr.id, hdr.len, NULL, FALSE ) )
??compactPage_13:
        ; Setup parameters for call to function writeItem
        MOV       ?V4,#0x0
        MOV       R0,#?V4
        LCALL     ?PUSH_XSTACK_I_ONE
          CFI CFA_XSP16 add(XSP16, 27)
        CLR       A
        MOV       ?V5,A
        MOV       R0,#?V4
        LCALL     ?PUSH_XSTACK_I_TWO
          CFI CFA_XSP16 add(XSP16, 29)
        MOV       A,#0x6
        LCALL     ?XSTACK_DISP0_8
        LCALL     ?Subroutine27 & 0xFFFF
??CrossCallReturnLabel_50:
        MOV       A,#0x4
        LCALL     ?XSTACK_DISP0_8
        LCALL     ??Subroutine67_0 & 0xFFFF
??CrossCallReturnLabel_149:
        MOV       DPTR,#pgRes
        MOVX      A,@DPTR
        MOV       R1,A
        LCALL     `??writeItem::?relay`; Banked call to: writeItem
        MOV       A,#0x3
        LCALL     ?DEALLOC_XSTACK8
          CFI CFA_XSP16 add(XSP16, 26)
        MOV       A,R1
        JNZ       $+5
        LJMP      ??compactPage_8 & 0xFFFF
//  600         {
//  601           dstOff += OSAL_NV_HDR_SIZE;
        LCALL     ?Subroutine38 & 0xFFFF
//  602           xferBuf( srcPg, srcOff, pgRes, dstOff, sz );
??CrossCallReturnLabel_71:
        ; Setup parameters for call to function xferBuf
        MOV       ?V4,R6
        MOV       ?V5,R7
        MOV       R0,#?V4
        LCALL     ?PUSH_XSTACK_I_TWO
          CFI CFA_XSP16 add(XSP16, 28)
        MOV       R0,#?V0
        LCALL     ?PUSH_XSTACK_I_TWO
          CFI CFA_XSP16 add(XSP16, 30)
        MOV       DPTR,#pgRes
        MOVX      A,@DPTR
        MOV       R4,A
        MOV       R2,?V2
        MOV       R3,?V3
        MOV       R1,?V6
        LCALL     `??xferBuf::?relay`; Banked call to: xferBuf
        MOV       A,#0x4
        LCALL     ?DEALLOC_XSTACK8
          CFI CFA_XSP16 add(XSP16, 26)
//  603           // Calculate and write the new checksum.
//  604           if (hdr.chk == calcChkF(pgRes, dstOff, hdr.len))
        ; Setup parameters for call to function calcChkF
        MOV       A,#0x3
        LCALL     ?XSTACK_DISP0_8
        LCALL     ?Subroutine17 & 0xFFFF
??CrossCallReturnLabel_24:
        LCALL     `??calcChkF::?relay`; Banked call to: calcChkF
        MOV       A,#0x5
        LCALL     ?XSTACK_DISP0_8
        LCALL     ?Subroutine20 & 0xFFFF
??CrossCallReturnLabel_31:
        JNZ       ??compactPage_14
        MOV       A,R3
        XRL       A,R5
??compactPage_14:
        JNZ       ??compactPage_8
//  605           {
//  606             if ( hdr.chk != setChk( pgRes, dstOff, hdr.chk ) )
        ; Setup parameters for call to function setChk
        MOV       R2,?V0
        MOV       R3,?V1
        MOV       DPTR,#pgRes
        MOVX      A,@DPTR
        MOV       R1,A
        LCALL     `??setChk::?relay`; Banked call to: setChk
        MOV       ?V4,R2
        MOV       ?V5,R3
        MOV       R0,?V4
        MOV       R1,?V5
        MOV       A,#0x5
        LCALL     ?XSTACK_DISP0_8
        MOVX      A,@DPTR
        XRL       A,R0
        JNZ       ??compactPage_15
        INC       DPTR
        MOVX      A,@DPTR
        XRL       A,R1
??compactPage_15:
        JNZ       ??compactPage_8
//  607             {
//  608               rtrn = FALSE;
//  609               break;
//  610             }
//  611             else
//  612             {
//  613               hotItemUpdate(pgRes, dstOff, hdr.id);
        ; Setup parameters for call to function hotItemUpdate
        MOV       A,#0x1
        LCALL     ?XSTACK_DISP0_8
        LCALL     ?Subroutine17 & 0xFFFF
//  614             }
//  615           }
//  616           else
//  617           {
//  618             rtrn = FALSE;
//  619             break;
//  620           }
//  621         }
??CrossCallReturnLabel_25:
        LCALL     `??hotItemUpdate::?relay`; Banked call to: hotItemUpdate
//  622         else
//  623         {
//  624           rtrn = FALSE;
//  625           break;
//  626         }
//  627       }
//  628     }
//  629 
//  630     srcOff += sz;
??compactPage_9:
        MOV       A,?V2
        ADD       A,R6
        MOV       ?V2,A
        MOV       A,?V3
        ADDC      A,R7
        MOV       ?V3,A
        CLR       C
        MOV       A,?V2
        SUBB      A,#-0x8
        MOV       A,?V3
        SUBB      A,#0x7
        JNC       $+5
        LJMP      ??compactPage_4 & 0xFFFF
//  631   }
//  632 
//  633   if (rtrn == FALSE)
??compactPage_6:
        MOV       DPL,?XSP + 0
        MOV       DPH,?XSP + 1
        MOVX      A,@DPTR
        JNZ       ??compactPage_16
//  634   {
//  635     erasePage(pgRes);
??compactPage_17:
        ; Setup parameters for call to function erasePage
        LCALL     ?Subroutine25 & 0xFFFF
//  636   }
??CrossCallReturnLabel_101:
        SJMP      ??compactPage_18
??compactPage_8:
        MOV       DPL,?XSP + 0
        MOV       DPH,?XSP + 1
        CLR       A
        MOVX      @DPTR,A
        SJMP      ??compactPage_17
//  637   else if (skipId == OSAL_NV_ITEM_NULL)
??compactPage_16:
        MOV       A,#0x9
        LCALL     ?XSTACK_DISP0_8
        LCALL     ?Subroutine13 & 0xFFFF
??CrossCallReturnLabel_16:
        JNZ       ??compactPage_18
//  638   {
//  639     COMPACT_PAGE_CLEANUP(srcPg);
        ; Setup parameters for call to function setPageUse
        LCALL     ?Subroutine28 & 0xFFFF
??CrossCallReturnLabel_54:
        ; Setup parameters for call to function erasePage
        MOV       R1,?V6
        LCALL     `??erasePage::?relay`; Banked call to: erasePage
        MOV       A,?V6
        MOV       DPTR,#pgRes
        MOVX      @DPTR,A
//  640   }
//  641   // else invoking function must cleanup.
//  642 
//  643   return rtrn;
??compactPage_18:
        MOV       DPL,?XSP + 0
        MOV       DPH,?XSP + 1
        MOVX      A,@DPTR
        MOV       R1,A
??compactPage_2:
        MOV       A,#0xb
          CFI EndBlock cfiBlock23
        REQUIRE ?Subroutine3
        ; // Fall through to label ?Subroutine3
//  644 }

        RSEG BANKED_CODE:HUGECODE:NOROOT(0)
?Subroutine3:
          CFI Block cfiBlock24 Using cfiCommon0
          CFI NoFunction
          CFI CFA_SP SP+0
          CFI CFA_XSP16 add(XSP16, 26)
          CFI VB load(1, XDATA, add(CFA_XSP16, literal(-14)))
          CFI DPL0 load(1, XDATA, add(CFA_XSP16, literal(-2)))
          CFI DPH0 load(1, XDATA, add(CFA_XSP16, literal(-1)))
          CFI R6 load(1, XDATA, add(CFA_XSP16, literal(-15)))
          CFI R7 load(1, XDATA, add(CFA_XSP16, literal(-6)))
          CFI V0 load(1, XDATA, add(CFA_XSP16, literal(-13)))
          CFI V1 load(1, XDATA, add(CFA_XSP16, literal(-12)))
          CFI V2 load(1, XDATA, add(CFA_XSP16, literal(-11)))
          CFI V3 load(1, XDATA, add(CFA_XSP16, literal(-10)))
          CFI V4 load(1, XDATA, add(CFA_XSP16, literal(-9)))
          CFI V5 load(1, XDATA, add(CFA_XSP16, literal(-8)))
          CFI V6 load(1, XDATA, add(CFA_XSP16, literal(-7)))
          CFI ?BRET_EXT load(1, XDATA, add(CFA_XSP16, literal(-3)))
          CFI ?RET_HIGH load(1, XDATA, add(CFA_XSP16, literal(-4)))
          CFI ?RET_LOW load(1, XDATA, add(CFA_XSP16, literal(-5)))
          CFI Invalid
        LCALL     ?DEALLOC_XSTACK8
          CFI CFA_XSP16 add(XSP16, 15)
          CFI Valid
        MOV       R7,#0x7
        LJMP      ?BANKED_LEAVE_XDATA
          CFI EndBlock cfiBlock24

        RSEG BANKED_CODE:HUGECODE:NOROOT(0)
?Subroutine40:
          CFI Block cfiCond25 Using cfiCommon0
          CFI Function initPage
          CFI Conditional ??CrossCallReturnLabel_74
          CFI R6 load(1, XDATA, add(CFA_XSP16, literal(-16)))
          CFI VB load(1, XDATA, add(CFA_XSP16, literal(-15)))
          CFI V0 load(1, XDATA, add(CFA_XSP16, literal(-14)))
          CFI V1 load(1, XDATA, add(CFA_XSP16, literal(-13)))
          CFI V2 load(1, XDATA, add(CFA_XSP16, literal(-12)))
          CFI V3 load(1, XDATA, add(CFA_XSP16, literal(-11)))
          CFI V4 load(1, XDATA, add(CFA_XSP16, literal(-10)))
          CFI V5 load(1, XDATA, add(CFA_XSP16, literal(-9)))
          CFI V6 load(1, XDATA, add(CFA_XSP16, literal(-8)))
          CFI V7 load(1, XDATA, add(CFA_XSP16, literal(-7)))
          CFI R7 load(1, XDATA, add(CFA_XSP16, literal(-6)))
          CFI ?RET_LOW load(1, XDATA, add(CFA_XSP16, literal(-5)))
          CFI ?RET_HIGH load(1, XDATA, add(CFA_XSP16, literal(-4)))
          CFI ?BRET_EXT load(1, XDATA, add(CFA_XSP16, literal(-3)))
          CFI DPL0 load(1, XDATA, add(CFA_XSP16, literal(-2)))
          CFI DPH0 load(1, XDATA, add(CFA_XSP16, literal(-1)))
          CFI CFA_SP SP+-2
          CFI CFA_XSP16 add(XSP16, 26)
          CFI Block cfiCond26 Using cfiCommon0
          CFI (cfiCond26) Function compactPage
          CFI (cfiCond26) Conditional ??CrossCallReturnLabel_75
          CFI (cfiCond26) R6 load(1, XDATA, add(CFA_XSP16, literal(-15)))
          CFI (cfiCond26) VB load(1, XDATA, add(CFA_XSP16, literal(-14)))
          CFI (cfiCond26) V0 load(1, XDATA, add(CFA_XSP16, literal(-13)))
          CFI (cfiCond26) V1 load(1, XDATA, add(CFA_XSP16, literal(-12)))
          CFI (cfiCond26) V2 load(1, XDATA, add(CFA_XSP16, literal(-11)))
          CFI (cfiCond26) V3 load(1, XDATA, add(CFA_XSP16, literal(-10)))
          CFI (cfiCond26) V4 load(1, XDATA, add(CFA_XSP16, literal(-9)))
          CFI (cfiCond26) V5 load(1, XDATA, add(CFA_XSP16, literal(-8)))
          CFI (cfiCond26) V6 load(1, XDATA, add(CFA_XSP16, literal(-7)))
          CFI (cfiCond26) R7 load(1, XDATA, add(CFA_XSP16, literal(-6)))
          CFI (cfiCond26) ?RET_LOW load(1, XDATA, add(CFA_XSP16, literal(-5)))
          CFI (cfiCond26) ?RET_HIGH load(1, XDATA, add(CFA_XSP16, literal(-4)))
          CFI (cfiCond26) ?BRET_EXT load(1, XDATA, add(CFA_XSP16, literal(-3)))
          CFI (cfiCond26) DPL0 load(1, XDATA, add(CFA_XSP16, literal(-2)))
          CFI (cfiCond26) DPH0 load(1, XDATA, add(CFA_XSP16, literal(-1)))
          CFI (cfiCond26) CFA_SP SP+-2
          CFI (cfiCond26) CFA_XSP16 add(XSP16, 26)
          CFI Block cfiPicker27 Using cfiCommon1
          CFI (cfiPicker27) NoFunction
          CFI (cfiPicker27) Picker
        MOV       R1,?V6
        LCALL     `??calcChkF::?relay`; Banked call to: calcChkF
        MOV       ?V4,R2
        MOV       ?V5,R3
        MOV       R0,?V4
        MOV       R1,?V5
        RET
          CFI EndBlock cfiCond25
          CFI EndBlock cfiCond26
          CFI EndBlock cfiPicker27

        RSEG BANKED_CODE:HUGECODE:NOROOT(0)
?Subroutine38:
          CFI Block cfiCond28 Using cfiCommon0
          CFI Function initPage
          CFI Conditional ??CrossCallReturnLabel_70
          CFI R6 load(1, XDATA, add(CFA_XSP16, literal(-16)))
          CFI VB load(1, XDATA, add(CFA_XSP16, literal(-15)))
          CFI V0 load(1, XDATA, add(CFA_XSP16, literal(-14)))
          CFI V1 load(1, XDATA, add(CFA_XSP16, literal(-13)))
          CFI V2 load(1, XDATA, add(CFA_XSP16, literal(-12)))
          CFI V3 load(1, XDATA, add(CFA_XSP16, literal(-11)))
          CFI V4 load(1, XDATA, add(CFA_XSP16, literal(-10)))
          CFI V5 load(1, XDATA, add(CFA_XSP16, literal(-9)))
          CFI V6 load(1, XDATA, add(CFA_XSP16, literal(-8)))
          CFI V7 load(1, XDATA, add(CFA_XSP16, literal(-7)))
          CFI R7 load(1, XDATA, add(CFA_XSP16, literal(-6)))
          CFI ?RET_LOW load(1, XDATA, add(CFA_XSP16, literal(-5)))
          CFI ?RET_HIGH load(1, XDATA, add(CFA_XSP16, literal(-4)))
          CFI ?BRET_EXT load(1, XDATA, add(CFA_XSP16, literal(-3)))
          CFI DPL0 load(1, XDATA, add(CFA_XSP16, literal(-2)))
          CFI DPH0 load(1, XDATA, add(CFA_XSP16, literal(-1)))
          CFI CFA_SP SP+-2
          CFI CFA_XSP16 add(XSP16, 26)
          CFI Block cfiCond29 Using cfiCommon0
          CFI (cfiCond29) Function compactPage
          CFI (cfiCond29) Conditional ??CrossCallReturnLabel_71
          CFI (cfiCond29) R6 load(1, XDATA, add(CFA_XSP16, literal(-15)))
          CFI (cfiCond29) VB load(1, XDATA, add(CFA_XSP16, literal(-14)))
          CFI (cfiCond29) V0 load(1, XDATA, add(CFA_XSP16, literal(-13)))
          CFI (cfiCond29) V1 load(1, XDATA, add(CFA_XSP16, literal(-12)))
          CFI (cfiCond29) V2 load(1, XDATA, add(CFA_XSP16, literal(-11)))
          CFI (cfiCond29) V3 load(1, XDATA, add(CFA_XSP16, literal(-10)))
          CFI (cfiCond29) V4 load(1, XDATA, add(CFA_XSP16, literal(-9)))
          CFI (cfiCond29) V5 load(1, XDATA, add(CFA_XSP16, literal(-8)))
          CFI (cfiCond29) V6 load(1, XDATA, add(CFA_XSP16, literal(-7)))
          CFI (cfiCond29) R7 load(1, XDATA, add(CFA_XSP16, literal(-6)))
          CFI (cfiCond29) ?RET_LOW load(1, XDATA, add(CFA_XSP16, literal(-5)))
          CFI (cfiCond29) ?RET_HIGH load(1, XDATA, add(CFA_XSP16, literal(-4)))
          CFI (cfiCond29) ?BRET_EXT load(1, XDATA, add(CFA_XSP16, literal(-3)))
          CFI (cfiCond29) DPL0 load(1, XDATA, add(CFA_XSP16, literal(-2)))
          CFI (cfiCond29) DPH0 load(1, XDATA, add(CFA_XSP16, literal(-1)))
          CFI (cfiCond29) CFA_SP SP+-2
          CFI (cfiCond29) CFA_XSP16 add(XSP16, 26)
          CFI Block cfiPicker30 Using cfiCommon1
          CFI (cfiPicker30) NoFunction
          CFI (cfiPicker30) Picker
        MOV       A,?V0
        ADD       A,#0x8
        MOV       ?V0,A
        CLR       A
        ADDC      A,?V1
        MOV       ?V1,A
        RET
          CFI EndBlock cfiCond28
          CFI EndBlock cfiCond29
          CFI EndBlock cfiPicker30

        RSEG BANKED_CODE:HUGECODE:NOROOT(0)
?Subroutine36:
          CFI Block cfiCond31 Using cfiCommon0
          CFI Function initPage
          CFI Conditional ??CrossCallReturnLabel_68
          CFI R6 load(1, XDATA, add(CFA_XSP16, literal(-16)))
          CFI VB load(1, XDATA, add(CFA_XSP16, literal(-15)))
          CFI V0 load(1, XDATA, add(CFA_XSP16, literal(-14)))
          CFI V1 load(1, XDATA, add(CFA_XSP16, literal(-13)))
          CFI V2 load(1, XDATA, add(CFA_XSP16, literal(-12)))
          CFI V3 load(1, XDATA, add(CFA_XSP16, literal(-11)))
          CFI V4 load(1, XDATA, add(CFA_XSP16, literal(-10)))
          CFI V5 load(1, XDATA, add(CFA_XSP16, literal(-9)))
          CFI V6 load(1, XDATA, add(CFA_XSP16, literal(-8)))
          CFI V7 load(1, XDATA, add(CFA_XSP16, literal(-7)))
          CFI R7 load(1, XDATA, add(CFA_XSP16, literal(-6)))
          CFI ?RET_LOW load(1, XDATA, add(CFA_XSP16, literal(-5)))
          CFI ?RET_HIGH load(1, XDATA, add(CFA_XSP16, literal(-4)))
          CFI ?BRET_EXT load(1, XDATA, add(CFA_XSP16, literal(-3)))
          CFI DPL0 load(1, XDATA, add(CFA_XSP16, literal(-2)))
          CFI DPH0 load(1, XDATA, add(CFA_XSP16, literal(-1)))
          CFI CFA_SP SP+-2
          CFI CFA_XSP16 add(XSP16, 26)
          CFI Block cfiCond32 Using cfiCommon0
          CFI (cfiCond32) Function compactPage
          CFI (cfiCond32) Conditional ??CrossCallReturnLabel_69
          CFI (cfiCond32) R6 load(1, XDATA, add(CFA_XSP16, literal(-15)))
          CFI (cfiCond32) VB load(1, XDATA, add(CFA_XSP16, literal(-14)))
          CFI (cfiCond32) V0 load(1, XDATA, add(CFA_XSP16, literal(-13)))
          CFI (cfiCond32) V1 load(1, XDATA, add(CFA_XSP16, literal(-12)))
          CFI (cfiCond32) V2 load(1, XDATA, add(CFA_XSP16, literal(-11)))
          CFI (cfiCond32) V3 load(1, XDATA, add(CFA_XSP16, literal(-10)))
          CFI (cfiCond32) V4 load(1, XDATA, add(CFA_XSP16, literal(-9)))
          CFI (cfiCond32) V5 load(1, XDATA, add(CFA_XSP16, literal(-8)))
          CFI (cfiCond32) V6 load(1, XDATA, add(CFA_XSP16, literal(-7)))
          CFI (cfiCond32) R7 load(1, XDATA, add(CFA_XSP16, literal(-6)))
          CFI (cfiCond32) ?RET_LOW load(1, XDATA, add(CFA_XSP16, literal(-5)))
          CFI (cfiCond32) ?RET_HIGH load(1, XDATA, add(CFA_XSP16, literal(-4)))
          CFI (cfiCond32) ?BRET_EXT load(1, XDATA, add(CFA_XSP16, literal(-3)))
          CFI (cfiCond32) DPL0 load(1, XDATA, add(CFA_XSP16, literal(-2)))
          CFI (cfiCond32) DPH0 load(1, XDATA, add(CFA_XSP16, literal(-1)))
          CFI (cfiCond32) CFA_SP SP+-2
          CFI (cfiCond32) CFA_XSP16 add(XSP16, 26)
          CFI Block cfiPicker33 Using cfiCommon1
          CFI (cfiPicker33) NoFunction
          CFI (cfiPicker33) Picker
        MOV       A,R4
        ADD       A,#0x3
        MOV       R0,A
        CLR       A
        ADDC      A,R5
        MOV       R1,A
        MOV       A,R0
        ANL       A,#0xfc
        MOV       R6,A
        MOV       A,R1
        MOV       R7,A
        RET
          CFI EndBlock cfiCond31
          CFI EndBlock cfiCond32
          CFI EndBlock cfiPicker33

        RSEG BANKED_CODE:HUGECODE:NOROOT(0)
?Subroutine35:
          CFI Block cfiCond34 Using cfiCommon0
          CFI Function initPage
          CFI Conditional ??CrossCallReturnLabel_66
          CFI R6 load(1, XDATA, add(CFA_XSP16, literal(-16)))
          CFI VB load(1, XDATA, add(CFA_XSP16, literal(-15)))
          CFI V0 load(1, XDATA, add(CFA_XSP16, literal(-14)))
          CFI V1 load(1, XDATA, add(CFA_XSP16, literal(-13)))
          CFI V2 load(1, XDATA, add(CFA_XSP16, literal(-12)))
          CFI V3 load(1, XDATA, add(CFA_XSP16, literal(-11)))
          CFI V4 load(1, XDATA, add(CFA_XSP16, literal(-10)))
          CFI V5 load(1, XDATA, add(CFA_XSP16, literal(-9)))
          CFI V6 load(1, XDATA, add(CFA_XSP16, literal(-8)))
          CFI V7 load(1, XDATA, add(CFA_XSP16, literal(-7)))
          CFI R7 load(1, XDATA, add(CFA_XSP16, literal(-6)))
          CFI ?RET_LOW load(1, XDATA, add(CFA_XSP16, literal(-5)))
          CFI ?RET_HIGH load(1, XDATA, add(CFA_XSP16, literal(-4)))
          CFI ?BRET_EXT load(1, XDATA, add(CFA_XSP16, literal(-3)))
          CFI DPL0 load(1, XDATA, add(CFA_XSP16, literal(-2)))
          CFI DPH0 load(1, XDATA, add(CFA_XSP16, literal(-1)))
          CFI CFA_SP SP+-2
          CFI CFA_XSP16 add(XSP16, 26)
          CFI Block cfiCond35 Using cfiCommon0
          CFI (cfiCond35) Function compactPage
          CFI (cfiCond35) Conditional ??CrossCallReturnLabel_67
          CFI (cfiCond35) R6 load(1, XDATA, add(CFA_XSP16, literal(-15)))
          CFI (cfiCond35) VB load(1, XDATA, add(CFA_XSP16, literal(-14)))
          CFI (cfiCond35) V0 load(1, XDATA, add(CFA_XSP16, literal(-13)))
          CFI (cfiCond35) V1 load(1, XDATA, add(CFA_XSP16, literal(-12)))
          CFI (cfiCond35) V2 load(1, XDATA, add(CFA_XSP16, literal(-11)))
          CFI (cfiCond35) V3 load(1, XDATA, add(CFA_XSP16, literal(-10)))
          CFI (cfiCond35) V4 load(1, XDATA, add(CFA_XSP16, literal(-9)))
          CFI (cfiCond35) V5 load(1, XDATA, add(CFA_XSP16, literal(-8)))
          CFI (cfiCond35) V6 load(1, XDATA, add(CFA_XSP16, literal(-7)))
          CFI (cfiCond35) R7 load(1, XDATA, add(CFA_XSP16, literal(-6)))
          CFI (cfiCond35) ?RET_LOW load(1, XDATA, add(CFA_XSP16, literal(-5)))
          CFI (cfiCond35) ?RET_HIGH load(1, XDATA, add(CFA_XSP16, literal(-4)))
          CFI (cfiCond35) ?BRET_EXT load(1, XDATA, add(CFA_XSP16, literal(-3)))
          CFI (cfiCond35) DPL0 load(1, XDATA, add(CFA_XSP16, literal(-2)))
          CFI (cfiCond35) DPH0 load(1, XDATA, add(CFA_XSP16, literal(-1)))
          CFI (cfiCond35) CFA_SP SP+-2
          CFI (cfiCond35) CFA_XSP16 add(XSP16, 26)
          CFI Block cfiPicker36 Using cfiCommon1
          CFI (cfiPicker36) NoFunction
          CFI (cfiPicker36) Picker
        MOV       A,#-0x8
        CLR       C
        SUBB      A,?V0
        MOV       R0,A
        MOV       A,#0x7
        SUBB      A,?V1
        MOV       R1,A
        CLR       C
        MOV       A,R0
        SUBB      A,R6
        MOV       A,R1
        SUBB      A,R7
        RET
          CFI EndBlock cfiCond34
          CFI EndBlock cfiCond35
          CFI EndBlock cfiPicker36

        RSEG BANKED_CODE:HUGECODE:NOROOT(0)
?Subroutine29:
          CFI Block cfiCond37 Using cfiCommon0
          CFI Function compactPage
          CFI Conditional ??CrossCallReturnLabel_98
          CFI R6 load(1, XDATA, add(CFA_XSP16, literal(-15)))
          CFI VB load(1, XDATA, add(CFA_XSP16, literal(-14)))
          CFI V0 load(1, XDATA, add(CFA_XSP16, literal(-13)))
          CFI V1 load(1, XDATA, add(CFA_XSP16, literal(-12)))
          CFI V2 load(1, XDATA, add(CFA_XSP16, literal(-11)))
          CFI V3 load(1, XDATA, add(CFA_XSP16, literal(-10)))
          CFI V4 load(1, XDATA, add(CFA_XSP16, literal(-9)))
          CFI V5 load(1, XDATA, add(CFA_XSP16, literal(-8)))
          CFI V6 load(1, XDATA, add(CFA_XSP16, literal(-7)))
          CFI R7 load(1, XDATA, add(CFA_XSP16, literal(-6)))
          CFI ?RET_LOW load(1, XDATA, add(CFA_XSP16, literal(-5)))
          CFI ?RET_HIGH load(1, XDATA, add(CFA_XSP16, literal(-4)))
          CFI ?BRET_EXT load(1, XDATA, add(CFA_XSP16, literal(-3)))
          CFI DPL0 load(1, XDATA, add(CFA_XSP16, literal(-2)))
          CFI DPH0 load(1, XDATA, add(CFA_XSP16, literal(-1)))
          CFI CFA_SP SP+-2
          CFI CFA_XSP16 add(XSP16, 26)
          CFI Block cfiCond38 Using cfiCommon0
          CFI (cfiCond38) Function initItem
          CFI (cfiCond38) Conditional ??CrossCallReturnLabel_99
          CFI (cfiCond38) R6 load(1, XDATA, add(CFA_XSP16, literal(-16)))
          CFI (cfiCond38) VB load(1, XDATA, add(CFA_XSP16, literal(-15)))
          CFI (cfiCond38) V0 load(1, XDATA, add(CFA_XSP16, literal(-14)))
          CFI (cfiCond38) V1 load(1, XDATA, add(CFA_XSP16, literal(-13)))
          CFI (cfiCond38) V2 load(1, XDATA, add(CFA_XSP16, literal(-12)))
          CFI (cfiCond38) V3 load(1, XDATA, add(CFA_XSP16, literal(-11)))
          CFI (cfiCond38) V4 load(1, XDATA, add(CFA_XSP16, literal(-10)))
          CFI (cfiCond38) V5 load(1, XDATA, add(CFA_XSP16, literal(-9)))
          CFI (cfiCond38) V6 load(1, XDATA, add(CFA_XSP16, literal(-8)))
          CFI (cfiCond38) V7 load(1, XDATA, add(CFA_XSP16, literal(-7)))
          CFI (cfiCond38) R7 load(1, XDATA, add(CFA_XSP16, literal(-6)))
          CFI (cfiCond38) ?RET_LOW load(1, XDATA, add(CFA_XSP16, literal(-5)))
          CFI (cfiCond38) ?RET_HIGH load(1, XDATA, add(CFA_XSP16, literal(-4)))
          CFI (cfiCond38) ?BRET_EXT load(1, XDATA, add(CFA_XSP16, literal(-3)))
          CFI (cfiCond38) DPL0 load(1, XDATA, add(CFA_XSP16, literal(-2)))
          CFI (cfiCond38) DPH0 load(1, XDATA, add(CFA_XSP16, literal(-1)))
          CFI (cfiCond38) CFA_SP SP+-2
          CFI (cfiCond38) CFA_XSP16 add(XSP16, 26)
          CFI Block cfiPicker39 Using cfiCommon1
          CFI (cfiPicker39) NoFunction
          CFI (cfiPicker39) Picker
        ADD       A,0xE0 /* A   */
          CFI EndBlock cfiCond37
          CFI EndBlock cfiCond38
          CFI EndBlock cfiPicker39
        REQUIRE ??Subroutine55_0
        ; // Fall through to label ??Subroutine55_0

        RSEG BANKED_CODE:HUGECODE:NOROOT(0)
??Subroutine55_0:
          CFI Block cfiCond40 Using cfiCommon0
          CFI Function initPage
          CFI Conditional ??CrossCallReturnLabel_96
          CFI R6 load(1, XDATA, add(CFA_XSP16, literal(-16)))
          CFI VB load(1, XDATA, add(CFA_XSP16, literal(-15)))
          CFI V0 load(1, XDATA, add(CFA_XSP16, literal(-14)))
          CFI V1 load(1, XDATA, add(CFA_XSP16, literal(-13)))
          CFI V2 load(1, XDATA, add(CFA_XSP16, literal(-12)))
          CFI V3 load(1, XDATA, add(CFA_XSP16, literal(-11)))
          CFI V4 load(1, XDATA, add(CFA_XSP16, literal(-10)))
          CFI V5 load(1, XDATA, add(CFA_XSP16, literal(-9)))
          CFI V6 load(1, XDATA, add(CFA_XSP16, literal(-8)))
          CFI V7 load(1, XDATA, add(CFA_XSP16, literal(-7)))
          CFI R7 load(1, XDATA, add(CFA_XSP16, literal(-6)))
          CFI ?RET_LOW load(1, XDATA, add(CFA_XSP16, literal(-5)))
          CFI ?RET_HIGH load(1, XDATA, add(CFA_XSP16, literal(-4)))
          CFI ?BRET_EXT load(1, XDATA, add(CFA_XSP16, literal(-3)))
          CFI DPL0 load(1, XDATA, add(CFA_XSP16, literal(-2)))
          CFI DPH0 load(1, XDATA, add(CFA_XSP16, literal(-1)))
          CFI CFA_SP SP+-2
          CFI CFA_XSP16 add(XSP16, 26)
          CFI Block cfiCond41 Using cfiCommon0
          CFI (cfiCond41) Function erasePage
          CFI (cfiCond41) Conditional ??CrossCallReturnLabel_97
          CFI (cfiCond41) R6 load(1, XDATA, add(CFA_XSP16, literal(-9)))
          CFI (cfiCond41) VB load(1, XDATA, add(CFA_XSP16, literal(-8)))
          CFI (cfiCond41) V0 load(1, XDATA, add(CFA_XSP16, literal(-7)))
          CFI (cfiCond41) R7 load(1, XDATA, add(CFA_XSP16, literal(-6)))
          CFI (cfiCond41) ?RET_LOW load(1, XDATA, add(CFA_XSP16, literal(-5)))
          CFI (cfiCond41) ?RET_HIGH load(1, XDATA, add(CFA_XSP16, literal(-4)))
          CFI (cfiCond41) ?BRET_EXT load(1, XDATA, add(CFA_XSP16, literal(-3)))
          CFI (cfiCond41) DPL0 load(1, XDATA, add(CFA_XSP16, literal(-2)))
          CFI (cfiCond41) DPH0 load(1, XDATA, add(CFA_XSP16, literal(-1)))
          CFI (cfiCond41) CFA_SP SP+-2
          CFI (cfiCond41) CFA_XSP16 add(XSP16, 9)
          CFI Block cfiCond42 Using cfiCommon0
          CFI (cfiCond42) Function compactPage
          CFI (cfiCond42) Conditional ??CrossCallReturnLabel_98
          CFI (cfiCond42) R6 load(1, XDATA, add(CFA_XSP16, literal(-15)))
          CFI (cfiCond42) VB load(1, XDATA, add(CFA_XSP16, literal(-14)))
          CFI (cfiCond42) V0 load(1, XDATA, add(CFA_XSP16, literal(-13)))
          CFI (cfiCond42) V1 load(1, XDATA, add(CFA_XSP16, literal(-12)))
          CFI (cfiCond42) V2 load(1, XDATA, add(CFA_XSP16, literal(-11)))
          CFI (cfiCond42) V3 load(1, XDATA, add(CFA_XSP16, literal(-10)))
          CFI (cfiCond42) V4 load(1, XDATA, add(CFA_XSP16, literal(-9)))
          CFI (cfiCond42) V5 load(1, XDATA, add(CFA_XSP16, literal(-8)))
          CFI (cfiCond42) V6 load(1, XDATA, add(CFA_XSP16, literal(-7)))
          CFI (cfiCond42) R7 load(1, XDATA, add(CFA_XSP16, literal(-6)))
          CFI (cfiCond42) ?RET_LOW load(1, XDATA, add(CFA_XSP16, literal(-5)))
          CFI (cfiCond42) ?RET_HIGH load(1, XDATA, add(CFA_XSP16, literal(-4)))
          CFI (cfiCond42) ?BRET_EXT load(1, XDATA, add(CFA_XSP16, literal(-3)))
          CFI (cfiCond42) DPL0 load(1, XDATA, add(CFA_XSP16, literal(-2)))
          CFI (cfiCond42) DPH0 load(1, XDATA, add(CFA_XSP16, literal(-1)))
          CFI (cfiCond42) CFA_SP SP+-2
          CFI (cfiCond42) CFA_XSP16 add(XSP16, 26)
          CFI Block cfiCond43 Using cfiCommon0
          CFI (cfiCond43) Function initItem
          CFI (cfiCond43) Conditional ??CrossCallReturnLabel_99
          CFI (cfiCond43) R6 load(1, XDATA, add(CFA_XSP16, literal(-16)))
          CFI (cfiCond43) VB load(1, XDATA, add(CFA_XSP16, literal(-15)))
          CFI (cfiCond43) V0 load(1, XDATA, add(CFA_XSP16, literal(-14)))
          CFI (cfiCond43) V1 load(1, XDATA, add(CFA_XSP16, literal(-13)))
          CFI (cfiCond43) V2 load(1, XDATA, add(CFA_XSP16, literal(-12)))
          CFI (cfiCond43) V3 load(1, XDATA, add(CFA_XSP16, literal(-11)))
          CFI (cfiCond43) V4 load(1, XDATA, add(CFA_XSP16, literal(-10)))
          CFI (cfiCond43) V5 load(1, XDATA, add(CFA_XSP16, literal(-9)))
          CFI (cfiCond43) V6 load(1, XDATA, add(CFA_XSP16, literal(-8)))
          CFI (cfiCond43) V7 load(1, XDATA, add(CFA_XSP16, literal(-7)))
          CFI (cfiCond43) R7 load(1, XDATA, add(CFA_XSP16, literal(-6)))
          CFI (cfiCond43) ?RET_LOW load(1, XDATA, add(CFA_XSP16, literal(-5)))
          CFI (cfiCond43) ?RET_HIGH load(1, XDATA, add(CFA_XSP16, literal(-4)))
          CFI (cfiCond43) ?BRET_EXT load(1, XDATA, add(CFA_XSP16, literal(-3)))
          CFI (cfiCond43) DPL0 load(1, XDATA, add(CFA_XSP16, literal(-2)))
          CFI (cfiCond43) DPH0 load(1, XDATA, add(CFA_XSP16, literal(-1)))
          CFI (cfiCond43) CFA_SP SP+-2
          CFI (cfiCond43) CFA_XSP16 add(XSP16, 26)
          CFI Block cfiPicker44 Using cfiCommon1
          CFI (cfiPicker44) NoFunction
          CFI (cfiPicker44) Picker
        MOV       R0,A
        CLR       A
        RLC       A
        MOV       R1,A
        MOV       A,#(pgOff + 14) & 0xff
        ADD       A,R0
        MOV       DPL,A
        MOV       A,#((pgOff - 242) >> 8) & 0xff
        ADDC      A,R1
        MOV       DPH,A
        RET
          CFI EndBlock cfiCond40
          CFI EndBlock cfiCond41
          CFI EndBlock cfiCond42
          CFI EndBlock cfiCond43
          CFI EndBlock cfiPicker44

        RSEG BANKED_CODE:HUGECODE:NOROOT(0)
?Subroutine25:
          CFI Block cfiCond45 Using cfiCommon0
          CFI Function compactPage
          CFI Conditional ??CrossCallReturnLabel_100
          CFI R6 load(1, XDATA, add(CFA_XSP16, literal(-15)))
          CFI VB load(1, XDATA, add(CFA_XSP16, literal(-14)))
          CFI V0 load(1, XDATA, add(CFA_XSP16, literal(-13)))
          CFI V1 load(1, XDATA, add(CFA_XSP16, literal(-12)))
          CFI V2 load(1, XDATA, add(CFA_XSP16, literal(-11)))
          CFI V3 load(1, XDATA, add(CFA_XSP16, literal(-10)))
          CFI V4 load(1, XDATA, add(CFA_XSP16, literal(-9)))
          CFI V5 load(1, XDATA, add(CFA_XSP16, literal(-8)))
          CFI V6 load(1, XDATA, add(CFA_XSP16, literal(-7)))
          CFI R7 load(1, XDATA, add(CFA_XSP16, literal(-6)))
          CFI ?RET_LOW load(1, XDATA, add(CFA_XSP16, literal(-5)))
          CFI ?RET_HIGH load(1, XDATA, add(CFA_XSP16, literal(-4)))
          CFI ?BRET_EXT load(1, XDATA, add(CFA_XSP16, literal(-3)))
          CFI DPL0 load(1, XDATA, add(CFA_XSP16, literal(-2)))
          CFI DPH0 load(1, XDATA, add(CFA_XSP16, literal(-1)))
          CFI CFA_SP SP+-2
          CFI CFA_XSP16 add(XSP16, 26)
          CFI Block cfiCond46 Using cfiCommon0
          CFI (cfiCond46) Function compactPage
          CFI (cfiCond46) Conditional ??CrossCallReturnLabel_101
          CFI (cfiCond46) R6 load(1, XDATA, add(CFA_XSP16, literal(-15)))
          CFI (cfiCond46) VB load(1, XDATA, add(CFA_XSP16, literal(-14)))
          CFI (cfiCond46) V0 load(1, XDATA, add(CFA_XSP16, literal(-13)))
          CFI (cfiCond46) V1 load(1, XDATA, add(CFA_XSP16, literal(-12)))
          CFI (cfiCond46) V2 load(1, XDATA, add(CFA_XSP16, literal(-11)))
          CFI (cfiCond46) V3 load(1, XDATA, add(CFA_XSP16, literal(-10)))
          CFI (cfiCond46) V4 load(1, XDATA, add(CFA_XSP16, literal(-9)))
          CFI (cfiCond46) V5 load(1, XDATA, add(CFA_XSP16, literal(-8)))
          CFI (cfiCond46) V6 load(1, XDATA, add(CFA_XSP16, literal(-7)))
          CFI (cfiCond46) R7 load(1, XDATA, add(CFA_XSP16, literal(-6)))
          CFI (cfiCond46) ?RET_LOW load(1, XDATA, add(CFA_XSP16, literal(-5)))
          CFI (cfiCond46) ?RET_HIGH load(1, XDATA, add(CFA_XSP16, literal(-4)))
          CFI (cfiCond46) ?BRET_EXT load(1, XDATA, add(CFA_XSP16, literal(-3)))
          CFI (cfiCond46) DPL0 load(1, XDATA, add(CFA_XSP16, literal(-2)))
          CFI (cfiCond46) DPH0 load(1, XDATA, add(CFA_XSP16, literal(-1)))
          CFI (cfiCond46) CFA_SP SP+-2
          CFI (cfiCond46) CFA_XSP16 add(XSP16, 26)
          CFI Block cfiCond47 Using cfiCommon0
          CFI (cfiCond47) Function osal_nv_write
          CFI (cfiCond47) Conditional ??CrossCallReturnLabel_102
          CFI (cfiCond47) R6 load(1, XDATA, add(CFA_XSP16, literal(-16)))
          CFI (cfiCond47) VB load(1, XDATA, add(CFA_XSP16, literal(-15)))
          CFI (cfiCond47) V0 load(1, XDATA, add(CFA_XSP16, literal(-14)))
          CFI (cfiCond47) V1 load(1, XDATA, add(CFA_XSP16, literal(-13)))
          CFI (cfiCond47) V2 load(1, XDATA, add(CFA_XSP16, literal(-12)))
          CFI (cfiCond47) V3 load(1, XDATA, add(CFA_XSP16, literal(-11)))
          CFI (cfiCond47) V4 load(1, XDATA, add(CFA_XSP16, literal(-10)))
          CFI (cfiCond47) V5 load(1, XDATA, add(CFA_XSP16, literal(-9)))
          CFI (cfiCond47) V6 load(1, XDATA, add(CFA_XSP16, literal(-8)))
          CFI (cfiCond47) V7 load(1, XDATA, add(CFA_XSP16, literal(-7)))
          CFI (cfiCond47) R7 load(1, XDATA, add(CFA_XSP16, literal(-6)))
          CFI (cfiCond47) ?RET_LOW load(1, XDATA, add(CFA_XSP16, literal(-5)))
          CFI (cfiCond47) ?RET_HIGH load(1, XDATA, add(CFA_XSP16, literal(-4)))
          CFI (cfiCond47) ?BRET_EXT load(1, XDATA, add(CFA_XSP16, literal(-3)))
          CFI (cfiCond47) DPL0 load(1, XDATA, add(CFA_XSP16, literal(-2)))
          CFI (cfiCond47) DPH0 load(1, XDATA, add(CFA_XSP16, literal(-1)))
          CFI (cfiCond47) CFA_SP SP+-2
          CFI (cfiCond47) CFA_XSP16 add(XSP16, 35)
          CFI Block cfiPicker48 Using cfiCommon1
          CFI (cfiPicker48) NoFunction
          CFI (cfiPicker48) Picker
        MOV       DPTR,#pgRes
          CFI EndBlock cfiCond45
          CFI EndBlock cfiCond46
          CFI EndBlock cfiCond47
          CFI EndBlock cfiPicker48
        REQUIRE ??Subroutine56_0
        ; // Fall through to label ??Subroutine56_0

        RSEG BANKED_CODE:HUGECODE:NOROOT(0)
??Subroutine56_0:
          CFI Block cfiCond49 Using cfiCommon0
          CFI Function osal_nv_write
          CFI Conditional ??CrossCallReturnLabel_103
          CFI R6 load(1, XDATA, add(CFA_XSP16, literal(-16)))
          CFI VB load(1, XDATA, add(CFA_XSP16, literal(-15)))
          CFI V0 load(1, XDATA, add(CFA_XSP16, literal(-14)))
          CFI V1 load(1, XDATA, add(CFA_XSP16, literal(-13)))
          CFI V2 load(1, XDATA, add(CFA_XSP16, literal(-12)))
          CFI V3 load(1, XDATA, add(CFA_XSP16, literal(-11)))
          CFI V4 load(1, XDATA, add(CFA_XSP16, literal(-10)))
          CFI V5 load(1, XDATA, add(CFA_XSP16, literal(-9)))
          CFI V6 load(1, XDATA, add(CFA_XSP16, literal(-8)))
          CFI V7 load(1, XDATA, add(CFA_XSP16, literal(-7)))
          CFI R7 load(1, XDATA, add(CFA_XSP16, literal(-6)))
          CFI ?RET_LOW load(1, XDATA, add(CFA_XSP16, literal(-5)))
          CFI ?RET_HIGH load(1, XDATA, add(CFA_XSP16, literal(-4)))
          CFI ?BRET_EXT load(1, XDATA, add(CFA_XSP16, literal(-3)))
          CFI DPL0 load(1, XDATA, add(CFA_XSP16, literal(-2)))
          CFI DPH0 load(1, XDATA, add(CFA_XSP16, literal(-1)))
          CFI CFA_SP SP+-2
          CFI CFA_XSP16 add(XSP16, 35)
          CFI Block cfiCond50 Using cfiCommon0
          CFI (cfiCond50) Function compactPage
          CFI (cfiCond50) Conditional ??CrossCallReturnLabel_100
          CFI (cfiCond50) R6 load(1, XDATA, add(CFA_XSP16, literal(-15)))
          CFI (cfiCond50) VB load(1, XDATA, add(CFA_XSP16, literal(-14)))
          CFI (cfiCond50) V0 load(1, XDATA, add(CFA_XSP16, literal(-13)))
          CFI (cfiCond50) V1 load(1, XDATA, add(CFA_XSP16, literal(-12)))
          CFI (cfiCond50) V2 load(1, XDATA, add(CFA_XSP16, literal(-11)))
          CFI (cfiCond50) V3 load(1, XDATA, add(CFA_XSP16, literal(-10)))
          CFI (cfiCond50) V4 load(1, XDATA, add(CFA_XSP16, literal(-9)))
          CFI (cfiCond50) V5 load(1, XDATA, add(CFA_XSP16, literal(-8)))
          CFI (cfiCond50) V6 load(1, XDATA, add(CFA_XSP16, literal(-7)))
          CFI (cfiCond50) R7 load(1, XDATA, add(CFA_XSP16, literal(-6)))
          CFI (cfiCond50) ?RET_LOW load(1, XDATA, add(CFA_XSP16, literal(-5)))
          CFI (cfiCond50) ?RET_HIGH load(1, XDATA, add(CFA_XSP16, literal(-4)))
          CFI (cfiCond50) ?BRET_EXT load(1, XDATA, add(CFA_XSP16, literal(-3)))
          CFI (cfiCond50) DPL0 load(1, XDATA, add(CFA_XSP16, literal(-2)))
          CFI (cfiCond50) DPH0 load(1, XDATA, add(CFA_XSP16, literal(-1)))
          CFI (cfiCond50) CFA_SP SP+-2
          CFI (cfiCond50) CFA_XSP16 add(XSP16, 26)
          CFI Block cfiCond51 Using cfiCommon0
          CFI (cfiCond51) Function compactPage
          CFI (cfiCond51) Conditional ??CrossCallReturnLabel_101
          CFI (cfiCond51) R6 load(1, XDATA, add(CFA_XSP16, literal(-15)))
          CFI (cfiCond51) VB load(1, XDATA, add(CFA_XSP16, literal(-14)))
          CFI (cfiCond51) V0 load(1, XDATA, add(CFA_XSP16, literal(-13)))
          CFI (cfiCond51) V1 load(1, XDATA, add(CFA_XSP16, literal(-12)))
          CFI (cfiCond51) V2 load(1, XDATA, add(CFA_XSP16, literal(-11)))
          CFI (cfiCond51) V3 load(1, XDATA, add(CFA_XSP16, literal(-10)))
          CFI (cfiCond51) V4 load(1, XDATA, add(CFA_XSP16, literal(-9)))
          CFI (cfiCond51) V5 load(1, XDATA, add(CFA_XSP16, literal(-8)))
          CFI (cfiCond51) V6 load(1, XDATA, add(CFA_XSP16, literal(-7)))
          CFI (cfiCond51) R7 load(1, XDATA, add(CFA_XSP16, literal(-6)))
          CFI (cfiCond51) ?RET_LOW load(1, XDATA, add(CFA_XSP16, literal(-5)))
          CFI (cfiCond51) ?RET_HIGH load(1, XDATA, add(CFA_XSP16, literal(-4)))
          CFI (cfiCond51) ?BRET_EXT load(1, XDATA, add(CFA_XSP16, literal(-3)))
          CFI (cfiCond51) DPL0 load(1, XDATA, add(CFA_XSP16, literal(-2)))
          CFI (cfiCond51) DPH0 load(1, XDATA, add(CFA_XSP16, literal(-1)))
          CFI (cfiCond51) CFA_SP SP+-2
          CFI (cfiCond51) CFA_XSP16 add(XSP16, 26)
          CFI Block cfiCond52 Using cfiCommon0
          CFI (cfiCond52) Function osal_nv_write
          CFI (cfiCond52) Conditional ??CrossCallReturnLabel_102
          CFI (cfiCond52) R6 load(1, XDATA, add(CFA_XSP16, literal(-16)))
          CFI (cfiCond52) VB load(1, XDATA, add(CFA_XSP16, literal(-15)))
          CFI (cfiCond52) V0 load(1, XDATA, add(CFA_XSP16, literal(-14)))
          CFI (cfiCond52) V1 load(1, XDATA, add(CFA_XSP16, literal(-13)))
          CFI (cfiCond52) V2 load(1, XDATA, add(CFA_XSP16, literal(-12)))
          CFI (cfiCond52) V3 load(1, XDATA, add(CFA_XSP16, literal(-11)))
          CFI (cfiCond52) V4 load(1, XDATA, add(CFA_XSP16, literal(-10)))
          CFI (cfiCond52) V5 load(1, XDATA, add(CFA_XSP16, literal(-9)))
          CFI (cfiCond52) V6 load(1, XDATA, add(CFA_XSP16, literal(-8)))
          CFI (cfiCond52) V7 load(1, XDATA, add(CFA_XSP16, literal(-7)))
          CFI (cfiCond52) R7 load(1, XDATA, add(CFA_XSP16, literal(-6)))
          CFI (cfiCond52) ?RET_LOW load(1, XDATA, add(CFA_XSP16, literal(-5)))
          CFI (cfiCond52) ?RET_HIGH load(1, XDATA, add(CFA_XSP16, literal(-4)))
          CFI (cfiCond52) ?BRET_EXT load(1, XDATA, add(CFA_XSP16, literal(-3)))
          CFI (cfiCond52) DPL0 load(1, XDATA, add(CFA_XSP16, literal(-2)))
          CFI (cfiCond52) DPH0 load(1, XDATA, add(CFA_XSP16, literal(-1)))
          CFI (cfiCond52) CFA_SP SP+-2
          CFI (cfiCond52) CFA_XSP16 add(XSP16, 35)
          CFI Block cfiPicker53 Using cfiCommon1
          CFI (cfiPicker53) NoFunction
          CFI (cfiPicker53) Picker
        MOVX      A,@DPTR
        MOV       R1,A
        LCALL     `??erasePage::?relay`; Banked call to: erasePage
        RET
          CFI EndBlock cfiCond49
          CFI EndBlock cfiCond50
          CFI EndBlock cfiCond51
          CFI EndBlock cfiCond52
          CFI EndBlock cfiPicker53

        RSEG BANKED_CODE:HUGECODE:NOROOT(0)
?Subroutine18:
          CFI Block cfiCond54 Using cfiCommon0
          CFI Function initPage
          CFI Conditional ??CrossCallReturnLabel_26
          CFI R6 load(1, XDATA, add(CFA_XSP16, literal(-16)))
          CFI VB load(1, XDATA, add(CFA_XSP16, literal(-15)))
          CFI V0 load(1, XDATA, add(CFA_XSP16, literal(-14)))
          CFI V1 load(1, XDATA, add(CFA_XSP16, literal(-13)))
          CFI V2 load(1, XDATA, add(CFA_XSP16, literal(-12)))
          CFI V3 load(1, XDATA, add(CFA_XSP16, literal(-11)))
          CFI V4 load(1, XDATA, add(CFA_XSP16, literal(-10)))
          CFI V5 load(1, XDATA, add(CFA_XSP16, literal(-9)))
          CFI V6 load(1, XDATA, add(CFA_XSP16, literal(-8)))
          CFI V7 load(1, XDATA, add(CFA_XSP16, literal(-7)))
          CFI R7 load(1, XDATA, add(CFA_XSP16, literal(-6)))
          CFI ?RET_LOW load(1, XDATA, add(CFA_XSP16, literal(-5)))
          CFI ?RET_HIGH load(1, XDATA, add(CFA_XSP16, literal(-4)))
          CFI ?BRET_EXT load(1, XDATA, add(CFA_XSP16, literal(-3)))
          CFI DPL0 load(1, XDATA, add(CFA_XSP16, literal(-2)))
          CFI DPH0 load(1, XDATA, add(CFA_XSP16, literal(-1)))
          CFI CFA_SP SP+-2
          CFI CFA_XSP16 add(XSP16, 26)
          CFI Block cfiCond55 Using cfiCommon0
          CFI (cfiCond55) Function compactPage
          CFI (cfiCond55) Conditional ??CrossCallReturnLabel_27
          CFI (cfiCond55) R6 load(1, XDATA, add(CFA_XSP16, literal(-15)))
          CFI (cfiCond55) VB load(1, XDATA, add(CFA_XSP16, literal(-14)))
          CFI (cfiCond55) V0 load(1, XDATA, add(CFA_XSP16, literal(-13)))
          CFI (cfiCond55) V1 load(1, XDATA, add(CFA_XSP16, literal(-12)))
          CFI (cfiCond55) V2 load(1, XDATA, add(CFA_XSP16, literal(-11)))
          CFI (cfiCond55) V3 load(1, XDATA, add(CFA_XSP16, literal(-10)))
          CFI (cfiCond55) V4 load(1, XDATA, add(CFA_XSP16, literal(-9)))
          CFI (cfiCond55) V5 load(1, XDATA, add(CFA_XSP16, literal(-8)))
          CFI (cfiCond55) V6 load(1, XDATA, add(CFA_XSP16, literal(-7)))
          CFI (cfiCond55) R7 load(1, XDATA, add(CFA_XSP16, literal(-6)))
          CFI (cfiCond55) ?RET_LOW load(1, XDATA, add(CFA_XSP16, literal(-5)))
          CFI (cfiCond55) ?RET_HIGH load(1, XDATA, add(CFA_XSP16, literal(-4)))
          CFI (cfiCond55) ?BRET_EXT load(1, XDATA, add(CFA_XSP16, literal(-3)))
          CFI (cfiCond55) DPL0 load(1, XDATA, add(CFA_XSP16, literal(-2)))
          CFI (cfiCond55) DPH0 load(1, XDATA, add(CFA_XSP16, literal(-1)))
          CFI (cfiCond55) CFA_SP SP+-2
          CFI (cfiCond55) CFA_XSP16 add(XSP16, 26)
          CFI Block cfiPicker56 Using cfiCommon1
          CFI (cfiPicker56) NoFunction
          CFI (cfiPicker56) Picker
        LCALL     ?Subroutine46 & 0xFFFF
??CrossCallReturnLabel_87:
        CLR       C
        MOV       A,R4
        SUBB      A,#-0x4
        MOV       A,R5
        SUBB      A,#-0x1
        RET
          CFI EndBlock cfiCond54
          CFI EndBlock cfiCond55
          CFI EndBlock cfiPicker56

        RSEG BANKED_CODE:HUGECODE:NOROOT(0)
?Subroutine17:
          CFI Block cfiCond57 Using cfiCommon0
          CFI Function compactPage
          CFI Conditional ??CrossCallReturnLabel_24
          CFI R6 load(1, XDATA, add(CFA_XSP16, literal(-15)))
          CFI VB load(1, XDATA, add(CFA_XSP16, literal(-14)))
          CFI V0 load(1, XDATA, add(CFA_XSP16, literal(-13)))
          CFI V1 load(1, XDATA, add(CFA_XSP16, literal(-12)))
          CFI V2 load(1, XDATA, add(CFA_XSP16, literal(-11)))
          CFI V3 load(1, XDATA, add(CFA_XSP16, literal(-10)))
          CFI V4 load(1, XDATA, add(CFA_XSP16, literal(-9)))
          CFI V5 load(1, XDATA, add(CFA_XSP16, literal(-8)))
          CFI V6 load(1, XDATA, add(CFA_XSP16, literal(-7)))
          CFI R7 load(1, XDATA, add(CFA_XSP16, literal(-6)))
          CFI ?RET_LOW load(1, XDATA, add(CFA_XSP16, literal(-5)))
          CFI ?RET_HIGH load(1, XDATA, add(CFA_XSP16, literal(-4)))
          CFI ?BRET_EXT load(1, XDATA, add(CFA_XSP16, literal(-3)))
          CFI DPL0 load(1, XDATA, add(CFA_XSP16, literal(-2)))
          CFI DPH0 load(1, XDATA, add(CFA_XSP16, literal(-1)))
          CFI CFA_SP SP+-2
          CFI CFA_XSP16 add(XSP16, 26)
          CFI Block cfiCond58 Using cfiCommon0
          CFI (cfiCond58) Function compactPage
          CFI (cfiCond58) Conditional ??CrossCallReturnLabel_25
          CFI (cfiCond58) R6 load(1, XDATA, add(CFA_XSP16, literal(-15)))
          CFI (cfiCond58) VB load(1, XDATA, add(CFA_XSP16, literal(-14)))
          CFI (cfiCond58) V0 load(1, XDATA, add(CFA_XSP16, literal(-13)))
          CFI (cfiCond58) V1 load(1, XDATA, add(CFA_XSP16, literal(-12)))
          CFI (cfiCond58) V2 load(1, XDATA, add(CFA_XSP16, literal(-11)))
          CFI (cfiCond58) V3 load(1, XDATA, add(CFA_XSP16, literal(-10)))
          CFI (cfiCond58) V4 load(1, XDATA, add(CFA_XSP16, literal(-9)))
          CFI (cfiCond58) V5 load(1, XDATA, add(CFA_XSP16, literal(-8)))
          CFI (cfiCond58) V6 load(1, XDATA, add(CFA_XSP16, literal(-7)))
          CFI (cfiCond58) R7 load(1, XDATA, add(CFA_XSP16, literal(-6)))
          CFI (cfiCond58) ?RET_LOW load(1, XDATA, add(CFA_XSP16, literal(-5)))
          CFI (cfiCond58) ?RET_HIGH load(1, XDATA, add(CFA_XSP16, literal(-4)))
          CFI (cfiCond58) ?BRET_EXT load(1, XDATA, add(CFA_XSP16, literal(-3)))
          CFI (cfiCond58) DPL0 load(1, XDATA, add(CFA_XSP16, literal(-2)))
          CFI (cfiCond58) DPH0 load(1, XDATA, add(CFA_XSP16, literal(-1)))
          CFI (cfiCond58) CFA_SP SP+-2
          CFI (cfiCond58) CFA_XSP16 add(XSP16, 26)
          CFI Block cfiPicker59 Using cfiCommon1
          CFI (cfiPicker59) NoFunction
          CFI (cfiPicker59) Picker
        LCALL     ?Subroutine46 & 0xFFFF
??CrossCallReturnLabel_86:
        MOV       R2,?V0
        MOV       R3,?V1
        MOV       DPTR,#pgRes
        MOVX      A,@DPTR
        MOV       R1,A
        RET
          CFI EndBlock cfiCond57
          CFI EndBlock cfiCond58
          CFI EndBlock cfiPicker59

        RSEG BANKED_CODE:HUGECODE:NOROOT(0)
?Subroutine13:
          CFI Block cfiCond60 Using cfiCommon0
          CFI Function initPage
          CFI Conditional ??CrossCallReturnLabel_13
          CFI R6 load(1, XDATA, add(CFA_XSP16, literal(-16)))
          CFI VB load(1, XDATA, add(CFA_XSP16, literal(-15)))
          CFI V0 load(1, XDATA, add(CFA_XSP16, literal(-14)))
          CFI V1 load(1, XDATA, add(CFA_XSP16, literal(-13)))
          CFI V2 load(1, XDATA, add(CFA_XSP16, literal(-12)))
          CFI V3 load(1, XDATA, add(CFA_XSP16, literal(-11)))
          CFI V4 load(1, XDATA, add(CFA_XSP16, literal(-10)))
          CFI V5 load(1, XDATA, add(CFA_XSP16, literal(-9)))
          CFI V6 load(1, XDATA, add(CFA_XSP16, literal(-8)))
          CFI V7 load(1, XDATA, add(CFA_XSP16, literal(-7)))
          CFI R7 load(1, XDATA, add(CFA_XSP16, literal(-6)))
          CFI ?RET_LOW load(1, XDATA, add(CFA_XSP16, literal(-5)))
          CFI ?RET_HIGH load(1, XDATA, add(CFA_XSP16, literal(-4)))
          CFI ?BRET_EXT load(1, XDATA, add(CFA_XSP16, literal(-3)))
          CFI DPL0 load(1, XDATA, add(CFA_XSP16, literal(-2)))
          CFI DPH0 load(1, XDATA, add(CFA_XSP16, literal(-1)))
          CFI CFA_SP SP+-2
          CFI CFA_XSP16 add(XSP16, 26)
          CFI Block cfiCond61 Using cfiCommon0
          CFI (cfiCond61) Function initPage
          CFI (cfiCond61) Conditional ??CrossCallReturnLabel_14
          CFI (cfiCond61) R6 load(1, XDATA, add(CFA_XSP16, literal(-16)))
          CFI (cfiCond61) VB load(1, XDATA, add(CFA_XSP16, literal(-15)))
          CFI (cfiCond61) V0 load(1, XDATA, add(CFA_XSP16, literal(-14)))
          CFI (cfiCond61) V1 load(1, XDATA, add(CFA_XSP16, literal(-13)))
          CFI (cfiCond61) V2 load(1, XDATA, add(CFA_XSP16, literal(-12)))
          CFI (cfiCond61) V3 load(1, XDATA, add(CFA_XSP16, literal(-11)))
          CFI (cfiCond61) V4 load(1, XDATA, add(CFA_XSP16, literal(-10)))
          CFI (cfiCond61) V5 load(1, XDATA, add(CFA_XSP16, literal(-9)))
          CFI (cfiCond61) V6 load(1, XDATA, add(CFA_XSP16, literal(-8)))
          CFI (cfiCond61) V7 load(1, XDATA, add(CFA_XSP16, literal(-7)))
          CFI (cfiCond61) R7 load(1, XDATA, add(CFA_XSP16, literal(-6)))
          CFI (cfiCond61) ?RET_LOW load(1, XDATA, add(CFA_XSP16, literal(-5)))
          CFI (cfiCond61) ?RET_HIGH load(1, XDATA, add(CFA_XSP16, literal(-4)))
          CFI (cfiCond61) ?BRET_EXT load(1, XDATA, add(CFA_XSP16, literal(-3)))
          CFI (cfiCond61) DPL0 load(1, XDATA, add(CFA_XSP16, literal(-2)))
          CFI (cfiCond61) DPH0 load(1, XDATA, add(CFA_XSP16, literal(-1)))
          CFI (cfiCond61) CFA_SP SP+-2
          CFI (cfiCond61) CFA_XSP16 add(XSP16, 26)
          CFI Block cfiCond62 Using cfiCommon0
          CFI (cfiCond62) Function compactPage
          CFI (cfiCond62) Conditional ??CrossCallReturnLabel_15
          CFI (cfiCond62) R6 load(1, XDATA, add(CFA_XSP16, literal(-15)))
          CFI (cfiCond62) VB load(1, XDATA, add(CFA_XSP16, literal(-14)))
          CFI (cfiCond62) V0 load(1, XDATA, add(CFA_XSP16, literal(-13)))
          CFI (cfiCond62) V1 load(1, XDATA, add(CFA_XSP16, literal(-12)))
          CFI (cfiCond62) V2 load(1, XDATA, add(CFA_XSP16, literal(-11)))
          CFI (cfiCond62) V3 load(1, XDATA, add(CFA_XSP16, literal(-10)))
          CFI (cfiCond62) V4 load(1, XDATA, add(CFA_XSP16, literal(-9)))
          CFI (cfiCond62) V5 load(1, XDATA, add(CFA_XSP16, literal(-8)))
          CFI (cfiCond62) V6 load(1, XDATA, add(CFA_XSP16, literal(-7)))
          CFI (cfiCond62) R7 load(1, XDATA, add(CFA_XSP16, literal(-6)))
          CFI (cfiCond62) ?RET_LOW load(1, XDATA, add(CFA_XSP16, literal(-5)))
          CFI (cfiCond62) ?RET_HIGH load(1, XDATA, add(CFA_XSP16, literal(-4)))
          CFI (cfiCond62) ?BRET_EXT load(1, XDATA, add(CFA_XSP16, literal(-3)))
          CFI (cfiCond62) DPL0 load(1, XDATA, add(CFA_XSP16, literal(-2)))
          CFI (cfiCond62) DPH0 load(1, XDATA, add(CFA_XSP16, literal(-1)))
          CFI (cfiCond62) CFA_SP SP+-2
          CFI (cfiCond62) CFA_XSP16 add(XSP16, 26)
          CFI Block cfiCond63 Using cfiCommon0
          CFI (cfiCond63) Function compactPage
          CFI (cfiCond63) Conditional ??CrossCallReturnLabel_16
          CFI (cfiCond63) R6 load(1, XDATA, add(CFA_XSP16, literal(-15)))
          CFI (cfiCond63) VB load(1, XDATA, add(CFA_XSP16, literal(-14)))
          CFI (cfiCond63) V0 load(1, XDATA, add(CFA_XSP16, literal(-13)))
          CFI (cfiCond63) V1 load(1, XDATA, add(CFA_XSP16, literal(-12)))
          CFI (cfiCond63) V2 load(1, XDATA, add(CFA_XSP16, literal(-11)))
          CFI (cfiCond63) V3 load(1, XDATA, add(CFA_XSP16, literal(-10)))
          CFI (cfiCond63) V4 load(1, XDATA, add(CFA_XSP16, literal(-9)))
          CFI (cfiCond63) V5 load(1, XDATA, add(CFA_XSP16, literal(-8)))
          CFI (cfiCond63) V6 load(1, XDATA, add(CFA_XSP16, literal(-7)))
          CFI (cfiCond63) R7 load(1, XDATA, add(CFA_XSP16, literal(-6)))
          CFI (cfiCond63) ?RET_LOW load(1, XDATA, add(CFA_XSP16, literal(-5)))
          CFI (cfiCond63) ?RET_HIGH load(1, XDATA, add(CFA_XSP16, literal(-4)))
          CFI (cfiCond63) ?BRET_EXT load(1, XDATA, add(CFA_XSP16, literal(-3)))
          CFI (cfiCond63) DPL0 load(1, XDATA, add(CFA_XSP16, literal(-2)))
          CFI (cfiCond63) DPH0 load(1, XDATA, add(CFA_XSP16, literal(-1)))
          CFI (cfiCond63) CFA_SP SP+-2
          CFI (cfiCond63) CFA_XSP16 add(XSP16, 26)
          CFI Block cfiCond64 Using cfiCommon0
          CFI (cfiCond64) Function osal_nv_write
          CFI (cfiCond64) Conditional ??CrossCallReturnLabel_17
          CFI (cfiCond64) R6 load(1, XDATA, add(CFA_XSP16, literal(-16)))
          CFI (cfiCond64) VB load(1, XDATA, add(CFA_XSP16, literal(-15)))
          CFI (cfiCond64) V0 load(1, XDATA, add(CFA_XSP16, literal(-14)))
          CFI (cfiCond64) V1 load(1, XDATA, add(CFA_XSP16, literal(-13)))
          CFI (cfiCond64) V2 load(1, XDATA, add(CFA_XSP16, literal(-12)))
          CFI (cfiCond64) V3 load(1, XDATA, add(CFA_XSP16, literal(-11)))
          CFI (cfiCond64) V4 load(1, XDATA, add(CFA_XSP16, literal(-10)))
          CFI (cfiCond64) V5 load(1, XDATA, add(CFA_XSP16, literal(-9)))
          CFI (cfiCond64) V6 load(1, XDATA, add(CFA_XSP16, literal(-8)))
          CFI (cfiCond64) V7 load(1, XDATA, add(CFA_XSP16, literal(-7)))
          CFI (cfiCond64) R7 load(1, XDATA, add(CFA_XSP16, literal(-6)))
          CFI (cfiCond64) ?RET_LOW load(1, XDATA, add(CFA_XSP16, literal(-5)))
          CFI (cfiCond64) ?RET_HIGH load(1, XDATA, add(CFA_XSP16, literal(-4)))
          CFI (cfiCond64) ?BRET_EXT load(1, XDATA, add(CFA_XSP16, literal(-3)))
          CFI (cfiCond64) DPL0 load(1, XDATA, add(CFA_XSP16, literal(-2)))
          CFI (cfiCond64) DPH0 load(1, XDATA, add(CFA_XSP16, literal(-1)))
          CFI (cfiCond64) CFA_SP SP+-2
          CFI (cfiCond64) CFA_XSP16 add(XSP16, 35)
          CFI Block cfiCond65 Using cfiCommon0
          CFI (cfiCond65) Function osal_nv_write
          CFI (cfiCond65) Conditional ??CrossCallReturnLabel_18
          CFI (cfiCond65) R6 load(1, XDATA, add(CFA_XSP16, literal(-16)))
          CFI (cfiCond65) VB load(1, XDATA, add(CFA_XSP16, literal(-15)))
          CFI (cfiCond65) V0 load(1, XDATA, add(CFA_XSP16, literal(-14)))
          CFI (cfiCond65) V1 load(1, XDATA, add(CFA_XSP16, literal(-13)))
          CFI (cfiCond65) V2 load(1, XDATA, add(CFA_XSP16, literal(-12)))
          CFI (cfiCond65) V3 load(1, XDATA, add(CFA_XSP16, literal(-11)))
          CFI (cfiCond65) V4 load(1, XDATA, add(CFA_XSP16, literal(-10)))
          CFI (cfiCond65) V5 load(1, XDATA, add(CFA_XSP16, literal(-9)))
          CFI (cfiCond65) V6 load(1, XDATA, add(CFA_XSP16, literal(-8)))
          CFI (cfiCond65) V7 load(1, XDATA, add(CFA_XSP16, literal(-7)))
          CFI (cfiCond65) R7 load(1, XDATA, add(CFA_XSP16, literal(-6)))
          CFI (cfiCond65) ?RET_LOW load(1, XDATA, add(CFA_XSP16, literal(-5)))
          CFI (cfiCond65) ?RET_HIGH load(1, XDATA, add(CFA_XSP16, literal(-4)))
          CFI (cfiCond65) ?BRET_EXT load(1, XDATA, add(CFA_XSP16, literal(-3)))
          CFI (cfiCond65) DPL0 load(1, XDATA, add(CFA_XSP16, literal(-2)))
          CFI (cfiCond65) DPH0 load(1, XDATA, add(CFA_XSP16, literal(-1)))
          CFI (cfiCond65) CFA_SP SP+-2
          CFI (cfiCond65) CFA_XSP16 add(XSP16, 35)
          CFI Block cfiPicker66 Using cfiCommon1
          CFI (cfiPicker66) NoFunction
          CFI (cfiPicker66) Picker
        MOVX      A,@DPTR
        MOV       R0,A
        INC       DPTR
        MOVX      A,@DPTR
        MOV       R1,A
        MOV       A,R0
        ORL       A,R1
        RET
          CFI EndBlock cfiCond60
          CFI EndBlock cfiCond61
          CFI EndBlock cfiCond62
          CFI EndBlock cfiCond63
          CFI EndBlock cfiCond64
          CFI EndBlock cfiCond65
          CFI EndBlock cfiPicker66

        RSEG BANKED_CODE:HUGECODE:NOROOT(0)
?Subroutine9:
          CFI Block cfiCond67 Using cfiCommon0
          CFI Function initPage
          CFI Conditional ??CrossCallReturnLabel_4
          CFI R6 load(1, XDATA, add(CFA_XSP16, literal(-16)))
          CFI VB load(1, XDATA, add(CFA_XSP16, literal(-15)))
          CFI V0 load(1, XDATA, add(CFA_XSP16, literal(-14)))
          CFI V1 load(1, XDATA, add(CFA_XSP16, literal(-13)))
          CFI V2 load(1, XDATA, add(CFA_XSP16, literal(-12)))
          CFI V3 load(1, XDATA, add(CFA_XSP16, literal(-11)))
          CFI V4 load(1, XDATA, add(CFA_XSP16, literal(-10)))
          CFI V5 load(1, XDATA, add(CFA_XSP16, literal(-9)))
          CFI V6 load(1, XDATA, add(CFA_XSP16, literal(-8)))
          CFI V7 load(1, XDATA, add(CFA_XSP16, literal(-7)))
          CFI R7 load(1, XDATA, add(CFA_XSP16, literal(-6)))
          CFI ?RET_LOW load(1, XDATA, add(CFA_XSP16, literal(-5)))
          CFI ?RET_HIGH load(1, XDATA, add(CFA_XSP16, literal(-4)))
          CFI ?BRET_EXT load(1, XDATA, add(CFA_XSP16, literal(-3)))
          CFI DPL0 load(1, XDATA, add(CFA_XSP16, literal(-2)))
          CFI DPH0 load(1, XDATA, add(CFA_XSP16, literal(-1)))
          CFI CFA_SP SP+-2
          CFI CFA_XSP16 add(XSP16, 26)
          CFI Block cfiCond68 Using cfiCommon0
          CFI (cfiCond68) Function compactPage
          CFI (cfiCond68) Conditional ??CrossCallReturnLabel_5
          CFI (cfiCond68) R6 load(1, XDATA, add(CFA_XSP16, literal(-15)))
          CFI (cfiCond68) VB load(1, XDATA, add(CFA_XSP16, literal(-14)))
          CFI (cfiCond68) V0 load(1, XDATA, add(CFA_XSP16, literal(-13)))
          CFI (cfiCond68) V1 load(1, XDATA, add(CFA_XSP16, literal(-12)))
          CFI (cfiCond68) V2 load(1, XDATA, add(CFA_XSP16, literal(-11)))
          CFI (cfiCond68) V3 load(1, XDATA, add(CFA_XSP16, literal(-10)))
          CFI (cfiCond68) V4 load(1, XDATA, add(CFA_XSP16, literal(-9)))
          CFI (cfiCond68) V5 load(1, XDATA, add(CFA_XSP16, literal(-8)))
          CFI (cfiCond68) V6 load(1, XDATA, add(CFA_XSP16, literal(-7)))
          CFI (cfiCond68) R7 load(1, XDATA, add(CFA_XSP16, literal(-6)))
          CFI (cfiCond68) ?RET_LOW load(1, XDATA, add(CFA_XSP16, literal(-5)))
          CFI (cfiCond68) ?RET_HIGH load(1, XDATA, add(CFA_XSP16, literal(-4)))
          CFI (cfiCond68) ?BRET_EXT load(1, XDATA, add(CFA_XSP16, literal(-3)))
          CFI (cfiCond68) DPL0 load(1, XDATA, add(CFA_XSP16, literal(-2)))
          CFI (cfiCond68) DPH0 load(1, XDATA, add(CFA_XSP16, literal(-1)))
          CFI (cfiCond68) CFA_SP SP+-2
          CFI (cfiCond68) CFA_XSP16 add(XSP16, 26)
          CFI Block cfiCond69 Using cfiCommon0
          CFI (cfiCond69) Function writeItem
          CFI (cfiCond69) Conditional ??CrossCallReturnLabel_6
          CFI (cfiCond69) R6 load(1, XDATA, add(CFA_XSP16, literal(-16)))
          CFI (cfiCond69) VB load(1, XDATA, add(CFA_XSP16, literal(-15)))
          CFI (cfiCond69) V0 load(1, XDATA, add(CFA_XSP16, literal(-14)))
          CFI (cfiCond69) V1 load(1, XDATA, add(CFA_XSP16, literal(-13)))
          CFI (cfiCond69) V2 load(1, XDATA, add(CFA_XSP16, literal(-12)))
          CFI (cfiCond69) V3 load(1, XDATA, add(CFA_XSP16, literal(-11)))
          CFI (cfiCond69) V4 load(1, XDATA, add(CFA_XSP16, literal(-10)))
          CFI (cfiCond69) V5 load(1, XDATA, add(CFA_XSP16, literal(-9)))
          CFI (cfiCond69) V6 load(1, XDATA, add(CFA_XSP16, literal(-8)))
          CFI (cfiCond69) V7 load(1, XDATA, add(CFA_XSP16, literal(-7)))
          CFI (cfiCond69) R7 load(1, XDATA, add(CFA_XSP16, literal(-6)))
          CFI (cfiCond69) ?RET_LOW load(1, XDATA, add(CFA_XSP16, literal(-5)))
          CFI (cfiCond69) ?RET_HIGH load(1, XDATA, add(CFA_XSP16, literal(-4)))
          CFI (cfiCond69) ?BRET_EXT load(1, XDATA, add(CFA_XSP16, literal(-3)))
          CFI (cfiCond69) DPL0 load(1, XDATA, add(CFA_XSP16, literal(-2)))
          CFI (cfiCond69) DPH0 load(1, XDATA, add(CFA_XSP16, literal(-1)))
          CFI (cfiCond69) CFA_SP SP+-2
          CFI (cfiCond69) CFA_XSP16 add(XSP16, 28)
          CFI Block cfiPicker70 Using cfiCommon1
          CFI (cfiPicker70) NoFunction
          CFI (cfiPicker70) Picker
        MOV       A,R2
        MOVX      @DPTR,A
        INC       DPTR
        MOV       A,R3
        MOVX      @DPTR,A
        MOV       ?V6,R1
        RET
          CFI EndBlock cfiCond67
          CFI EndBlock cfiCond68
          CFI EndBlock cfiCond69
          CFI EndBlock cfiPicker70
//  645 
//  646 /*********************************************************************
//  647  * @fn      findItem
//  648  *
//  649  * @brief   Find an item Id in NV and return the page and offset to its data.
//  650  *
//  651  * @param   id - Valid NV item Id.
//  652  *
//  653  * @return  Offset of data corresponding to item Id, if found;
//  654  *          otherwise OSAL_NV_ITEM_NULL.
//  655  *
//  656  *          The page containing the item, if found;
//  657  *          otherwise no valid assignment made - left equal to item Id.
//  658  *
//  659  */

        RSEG BANKED_CODE:HUGECODE:NOROOT(0)
//  660 static uint16 findItem( uint16 id )
findItem:
          CFI Block cfiBlock71 Using cfiCommon0
          CFI Function findItem
        CODE
//  661 {
        FUNCALL findItem, initPage
        LOCFRAME ISTACK, 0, STACK
        LOCFRAME PSTACK, 0, STACK
        LOCFRAME XSTACK, 12, STACK
        LOCFRAME IOVERLAY, 0, STATIC
        LOCFRAME DOVERLAY, 0, STATIC
        ARGFRAME ISTACK, 0, STACK
        ARGFRAME PSTACK, 0, STACK
        ARGFRAME XSTACK, 12, STACK
        ARGFRAME IOVERLAY, 0, STATIC
        ARGFRAME DOVERLAY, 0, STATIC
        REQUIRE ?V0
        REQUIRE ?V2
        REQUIRE ?V3
        MOV       A,#-0xc
        LCALL     ?BANKED_ENTER_XDATA
          CFI DPH0 load(1, XDATA, add(CFA_XSP16, literal(-1)))
          CFI DPL0 load(1, XDATA, add(CFA_XSP16, literal(-2)))
          CFI ?BRET_EXT load(1, XDATA, add(CFA_XSP16, literal(-3)))
          CFI ?RET_HIGH load(1, XDATA, add(CFA_XSP16, literal(-4)))
          CFI ?RET_LOW load(1, XDATA, add(CFA_XSP16, literal(-5)))
          CFI R7 load(1, XDATA, add(CFA_XSP16, literal(-6)))
          CFI V3 load(1, XDATA, add(CFA_XSP16, literal(-7)))
          CFI V2 load(1, XDATA, add(CFA_XSP16, literal(-8)))
          CFI V1 load(1, XDATA, add(CFA_XSP16, literal(-9)))
          CFI V0 load(1, XDATA, add(CFA_XSP16, literal(-10)))
          CFI VB load(1, XDATA, add(CFA_XSP16, literal(-11)))
          CFI R6 load(1, XDATA, add(CFA_XSP16, literal(-12)))
          CFI CFA_SP SP+0
          CFI CFA_XSP16 add(XSP16, 12)
        ; Saved register size: 12
        ; Auto size: 0
        MOV       A,R2
        MOV       R6,A
        MOV       A,R3
        SJMP      ??findItem_0
//  662   uint16 off;
//  663   uint8 pg;
//  664 
//  665   for ( pg = OSAL_NV_PAGE_BEG; pg <= OSAL_NV_PAGE_END; pg++ )
//  666   {
//  667     if ( (off = initPage( pg, id, FALSE )) != OSAL_NV_ITEM_NULL )
//  668     {
//  669       findPg = pg;
//  670       return off;
//  671     }
//  672   }
//  673 
//  674   // Now attempt to find the item as the "old" item of a failed/interrupted NV write.
//  675   if ( (id & OSAL_NV_SOURCE_ID) == 0 )
//  676   {
//  677     return findItem( id | OSAL_NV_SOURCE_ID );
??findItem_1:
        MOV       A,#-0x80
        ORL       A,R7
??findItem_0:
        MOV       R7,A
//  678   }
        MOV       ?V0,#0x79
??findItem_2:
        ; Setup parameters for call to function initPage
        MOV       R4,#0x0
        MOV       A,R6
        MOV       R2,A
        MOV       A,R7
        MOV       R3,A
        MOV       R1,?V0
        LCALL     `??initPage::?relay`; Banked call to: initPage
        MOV       A,R2
        ORL       A,R3
        JZ        ??findItem_3
        MOV       A,?V0
        MOV       DPTR,#findPg
        MOVX      @DPTR,A
        SJMP      ??findItem_4
??findItem_3:
        INC       ?V0
        MOV       A,?V0
        CLR       C
        SUBB      A,#0x7f
        JC        ??findItem_2
        MOV       A,R7
        ANL       A,#0x80
        JZ        ??findItem_1
//  679   else
//  680   {
//  681     findPg = OSAL_NV_PAGE_NULL;
        MOV       DPTR,#findPg
        CLR       A
        MOVX      @DPTR,A
//  682     return OSAL_NV_ITEM_NULL;
        MOV       R2,A
        MOV       R3,A
//  683   }
??findItem_4:
        LJMP      ??Subroutine52_0 & 0xFFFF
//  684 }
          CFI EndBlock cfiBlock71
//  685 
//  686 /*********************************************************************
//  687  * @fn      initItem
//  688  *
//  689  * @brief   An NV item is created and initialized with the data passed to the function, if any.
//  690  *
//  691  * @param   flag - TRUE if the 'buf' parameter contains data for the call to writeItem().
//  692  *                 (i.e. if invoked from osal_nv_item_init() ).
//  693  *                 FALSE if writeItem() should just write the header and the 'buf' parameter
//  694  *                 is ok to use as a return value of the page number to be cleaned with
//  695  *                 COMPACT_PAGE_CLEANUP().
//  696  *                 (i.e. if invoked from osal_nv_write() ).
//  697  * @param   id  - Valid NV item Id.
//  698  * @param   len - Item data length.
//  699  * @param  *buf - Pointer to item initalization data. Set to NULL if none.
//  700  *
//  701  * @return  The OSAL Nv page number if item write and read back checksums ok;
//  702  *          OSAL_NV_PAGE_NULL otherwise.
//  703  */

        RSEG BANKED_CODE:HUGECODE:NOROOT(0)
//  704 static uint8 initItem( uint8 flag, uint16 id, uint16 len, void *buf )
initItem:
          CFI Block cfiBlock72 Using cfiCommon0
          CFI Function initItem
        CODE
//  705 {
        FUNCALL initItem, HalFlashRead
        LOCFRAME ISTACK, 0, STACK
        LOCFRAME PSTACK, 0, STACK
        LOCFRAME XSTACK, 28, STACK
        LOCFRAME IOVERLAY, 0, STATIC
        LOCFRAME DOVERLAY, 0, STATIC
        ARGFRAME ISTACK, 0, STACK
        ARGFRAME PSTACK, 0, STACK
        ARGFRAME XSTACK, 28, STACK
        ARGFRAME IOVERLAY, 0, STATIC
        ARGFRAME DOVERLAY, 0, STATIC
        FUNCALL initItem, writeWordH
        LOCFRAME ISTACK, 0, STACK
        LOCFRAME PSTACK, 0, STACK
        LOCFRAME XSTACK, 26, STACK
        LOCFRAME IOVERLAY, 0, STATIC
        LOCFRAME DOVERLAY, 0, STATIC
        ARGFRAME ISTACK, 0, STACK
        ARGFRAME PSTACK, 0, STACK
        ARGFRAME XSTACK, 26, STACK
        ARGFRAME IOVERLAY, 0, STATIC
        ARGFRAME DOVERLAY, 0, STATIC
        FUNCALL initItem, compactPage
        LOCFRAME ISTACK, 0, STACK
        LOCFRAME PSTACK, 0, STACK
        LOCFRAME XSTACK, 26, STACK
        LOCFRAME IOVERLAY, 0, STATIC
        LOCFRAME DOVERLAY, 0, STATIC
        ARGFRAME ISTACK, 0, STACK
        ARGFRAME PSTACK, 0, STACK
        ARGFRAME XSTACK, 26, STACK
        ARGFRAME IOVERLAY, 0, STATIC
        ARGFRAME DOVERLAY, 0, STATIC
        FUNCALL initItem, writeItem
        LOCFRAME ISTACK, 0, STACK
        LOCFRAME PSTACK, 0, STACK
        LOCFRAME XSTACK, 29, STACK
        LOCFRAME IOVERLAY, 0, STATIC
        LOCFRAME DOVERLAY, 0, STATIC
        ARGFRAME ISTACK, 0, STACK
        ARGFRAME PSTACK, 0, STACK
        ARGFRAME XSTACK, 29, STACK
        ARGFRAME IOVERLAY, 0, STATIC
        ARGFRAME DOVERLAY, 0, STATIC
        FUNCALL initItem, setPageUse
        LOCFRAME ISTACK, 0, STACK
        LOCFRAME PSTACK, 0, STACK
        LOCFRAME XSTACK, 26, STACK
        LOCFRAME IOVERLAY, 0, STATIC
        LOCFRAME DOVERLAY, 0, STATIC
        ARGFRAME ISTACK, 0, STACK
        ARGFRAME PSTACK, 0, STACK
        ARGFRAME XSTACK, 26, STACK
        ARGFRAME IOVERLAY, 0, STATIC
        ARGFRAME DOVERLAY, 0, STATIC
        FUNCALL initItem, erasePage
        LOCFRAME ISTACK, 0, STACK
        LOCFRAME PSTACK, 0, STACK
        LOCFRAME XSTACK, 26, STACK
        LOCFRAME IOVERLAY, 0, STATIC
        LOCFRAME DOVERLAY, 0, STATIC
        ARGFRAME ISTACK, 0, STACK
        ARGFRAME PSTACK, 0, STACK
        ARGFRAME XSTACK, 26, STACK
        ARGFRAME IOVERLAY, 0, STATIC
        ARGFRAME DOVERLAY, 0, STATIC
        FUNCALL initItem, writeItem
        LOCFRAME ISTACK, 0, STACK
        LOCFRAME PSTACK, 0, STACK
        LOCFRAME XSTACK, 29, STACK
        LOCFRAME IOVERLAY, 0, STATIC
        LOCFRAME DOVERLAY, 0, STATIC
        ARGFRAME ISTACK, 0, STACK
        ARGFRAME PSTACK, 0, STACK
        ARGFRAME XSTACK, 29, STACK
        ARGFRAME IOVERLAY, 0, STATIC
        ARGFRAME DOVERLAY, 0, STATIC
        REQUIRE ?V0
        REQUIRE ?V1
        REQUIRE ?V2
        REQUIRE ?V3
        REQUIRE ?V4
        REQUIRE ?V6
        REQUIRE ?V7
        MOV       A,#-0x10
        LCALL     ?BANKED_ENTER_XDATA
          CFI DPH0 load(1, XDATA, add(CFA_XSP16, literal(-1)))
          CFI DPL0 load(1, XDATA, add(CFA_XSP16, literal(-2)))
          CFI ?BRET_EXT load(1, XDATA, add(CFA_XSP16, literal(-3)))
          CFI ?RET_HIGH load(1, XDATA, add(CFA_XSP16, literal(-4)))
          CFI ?RET_LOW load(1, XDATA, add(CFA_XSP16, literal(-5)))
          CFI R7 load(1, XDATA, add(CFA_XSP16, literal(-6)))
          CFI V7 load(1, XDATA, add(CFA_XSP16, literal(-7)))
          CFI V6 load(1, XDATA, add(CFA_XSP16, literal(-8)))
          CFI V5 load(1, XDATA, add(CFA_XSP16, literal(-9)))
          CFI V4 load(1, XDATA, add(CFA_XSP16, literal(-10)))
          CFI V3 load(1, XDATA, add(CFA_XSP16, literal(-11)))
          CFI V2 load(1, XDATA, add(CFA_XSP16, literal(-12)))
          CFI V1 load(1, XDATA, add(CFA_XSP16, literal(-13)))
          CFI V0 load(1, XDATA, add(CFA_XSP16, literal(-14)))
          CFI VB load(1, XDATA, add(CFA_XSP16, literal(-15)))
          CFI R6 load(1, XDATA, add(CFA_XSP16, literal(-16)))
          CFI CFA_SP SP+0
          CFI CFA_XSP16 add(XSP16, 16)
        ; Saved register size: 16
        ; Auto size: 10
        MOV       A,#-0xa
        LCALL     ?ALLOC_XSTACK8
          CFI CFA_XSP16 add(XSP16, 26)
        MOV       ?V4,R1
        MOV       ?V6,R2
        MOV       ?V7,R3
        MOV       ?V0,R4
        MOV       ?V1,R5
//  706   uint16 sz = OSAL_NV_ITEM_SIZE( len );
        CLR       C
        MOV       A,R4
        SUBB      A,#-0xc
        MOV       A,R5
        SUBB      A,#-0x1
        JC        ??initItem_0
        MOV       DPL,?XSP + 0
        MOV       DPH,?XSP + 1
        MOV       A,#-0x4
        MOVX      @DPTR,A
        INC       DPTR
        MOV       A,#-0x1
        SJMP      ??initItem_1
??initItem_0:
        MOV       A,R4
        ADD       A,#0x3
        MOV       R0,A
        CLR       A
        ADDC      A,?V1
        MOV       R1,A
        MOV       A,R0
        ANL       A,#0xfc
        ADD       A,#0x8
        JNC       ??initItem_2
        INC       R1
??initItem_2:
        MOV       DPL,?XSP + 0
        MOV       DPH,?XSP + 1
        MOVX      @DPTR,A
        INC       DPTR
        MOV       A,R1
??initItem_1:
        MOVX      @DPTR,A
//  707   uint8 rtrn = OSAL_NV_PAGE_NULL;
        MOV       R7,#0x0
//  708   uint8 cnt = OSAL_NV_PAGES_USED;
        MOV       R4,#0x6
//  709   uint8 pg = pgRes+1;  // Set to 1 after the reserve page to even wear across all available pages.
        MOV       DPTR,#pgRes
        MOVX      A,@DPTR
        INC       A
        MOV       R6,A
//  710 
//  711   do {
//  712     if (pg >= OSAL_NV_PAGE_BEG+OSAL_NV_PAGES_USED)
??initItem_3:
        MOV       A,R6
        CLR       C
        SUBB      A,#0x7f
        JC        ??initItem_4
//  713     {
//  714       pg = OSAL_NV_PAGE_BEG;
        MOV       R6,#0x79
//  715     }
//  716     if ( pg != pgRes )
??initItem_4:
        MOV       DPTR,#pgRes
        MOVX      A,@DPTR
        XRL       A,R6
        JZ        ??initItem_5
//  717     {
//  718       uint8 idx = pg - OSAL_NV_PAGE_BEG;
        MOV       A,#-0x79
        ADD       A,R6
//  719       if ( sz <= (OSAL_NV_PAGE_SIZE - pgOff[idx] + pgLost[idx]) )
        ADD       A,0xE0 /* A   */
        MOV       R0,A
        CLR       A
        RLC       A
        MOV       R1,A
        MOV       A,#pgOff & 0xff
        ADD       A,R0
        MOV       DPL,A
        MOV       A,#(pgOff >> 8) & 0xff
        LCALL     ?Subroutine12 & 0xFFFF
//  720       {
//  721         break;
//  722       }
//  723     }
??CrossCallReturnLabel_161:
        CLR       A
        CLR       C
        SUBB      A,R2
        MOV       R2,A
        MOV       A,#0x8
        SUBB      A,R3
        MOV       R3,A
        MOV       A,#pgLost & 0xff
        ADD       A,R0
        MOV       DPL,A
        MOV       A,#(pgLost >> 8) & 0xff
        ADDC      A,R1
        MOV       DPH,A
        MOVX      A,@DPTR
        ADD       A,R2
        MOV       R2,A
        INC       DPTR
        MOVX      A,@DPTR
        ADDC      A,R3
        LCALL     ?Subroutine22 & 0xFFFF
??CrossCallReturnLabel_36:
        JNC       ??initItem_6
//  724     pg++;
??initItem_5:
        INC       R6
//  725   } while (--cnt);
        DEC       R4
        MOV       A,R4
        JNZ       ??initItem_3
        LJMP      ??initItem_7 & 0xFFFF
//  726 
//  727   if (cnt)
??initItem_6:
        MOV       A,R4
        JNZ       $+5
        LJMP      ??initItem_7 & 0xFFFF
//  728   {
//  729     // Item fits if an old page is compacted.
//  730     if ( sz > (OSAL_NV_PAGE_SIZE - pgOff[pg - OSAL_NV_PAGE_BEG]) )
        MOV       A,R6
        LCALL     ?Subroutine29 & 0xFFFF
??CrossCallReturnLabel_99:
        LCALL     ?Subroutine23 & 0xFFFF
??CrossCallReturnLabel_39:
        CLR       A
        CLR       C
        SUBB      A,R0
        MOV       R2,A
        MOV       A,#0x8
        SUBB      A,R1
        LCALL     ?Subroutine22 & 0xFFFF
??CrossCallReturnLabel_37:
        JC        $+5
        LJMP      ??initItem_8 & 0xFFFF
//  731     {
//  732       osalNvPgHdr_t pgHdr;
//  733 
//  734       /* Prevent excessive re-writes to page header caused by numerous, rapid, & successive
//  735        * OSAL_Nv interruptions caused by resets.
//  736        */
//  737       HalFlashRead(pg, OSAL_NV_PAGE_HDR_OFFSET, (uint8 *)(&pgHdr), OSAL_NV_PAGE_HDR_SIZE);
        ; Setup parameters for call to function HalFlashRead
        MOV       ?V2,#0x8
        MOV       ?V3,R7
        MOV       R0,#?V2
        LCALL     ?PUSH_XSTACK_I_TWO
          CFI CFA_XSP16 add(XSP16, 28)
        MOV       A,#0x4
        LCALL     ?XSTACK_DISP102_8
        MOV       R2,#0x0
        MOV       R3,#0x0
        MOV       A,R6
        LCALL     ??Subroutine60_0 & 0xFFFF
??CrossCallReturnLabel_124:
        LCALL     ?DEALLOC_XSTACK8
          CFI CFA_XSP16 add(XSP16, 26)
//  738       if ( pgHdr.xfer == OSAL_NV_ERASED_ID )
        MOV       A,#0x6
        LCALL     ?XSTACK_DISP0_8
        MOVX      A,@DPTR
        CPL       A
        JNZ       ??initItem_9
        INC       DPTR
        MOVX      A,@DPTR
        CPL       A
??initItem_9:
        JNZ       ??initItem_10
//  739       {
//  740         // Mark the old page as being in process of compaction.
//  741         sz = OSAL_NV_ZEROED_ID;
        LCALL     ?Subroutine7 & 0xFFFF
//  742         writeWordH( pg, OSAL_NV_PG_XFER, (uint8*)(&sz) );
//  743       }
??CrossCallReturnLabel_104:
        MOV       R2,#0x4
        MOV       R3,A
        MOV       A,R6
        MOV       R1,A
        LCALL     `??writeWordH::?relay`; Banked call to: writeWordH
//  744 
//  745       /* First the old page is compacted, then the new item will be the last one written to what
//  746        * had been the reserved page.
//  747        */
//  748       if (compactPage( pg, id ))
??initItem_10:
        ; Setup parameters for call to function compactPage
        MOV       R2,?V6
        MOV       R3,?V7
        MOV       A,R6
        MOV       R1,A
        LCALL     `??compactPage::?relay`; Banked call to: compactPage
        MOV       A,R1
        JZ        ??initItem_7
//  749       {
//  750         if ( writeItem( pgRes, id, len, buf, flag ) )
        ; Setup parameters for call to function writeItem
        MOV       A,?V4
        MOV       ?V2,A
        MOV       R0,#?V2
        LCALL     ?PUSH_XSTACK_I_ONE
          CFI CFA_XSP16 add(XSP16, 27)
        MOV       A,#0x1b
        LCALL     ?XSTACK_DISP0_8
        LCALL     ?PUSH_XSTACK8_X_TWO
          CFI CFA_XSP16 add(XSP16, 29)
        MOV       R4,?V0
        MOV       R5,?V1
        MOV       R2,?V6
        MOV       R3,?V7
        MOV       DPTR,#pgRes
        MOVX      A,@DPTR
        MOV       R1,A
        LCALL     `??writeItem::?relay`; Banked call to: writeItem
        MOV       A,#0x3
        LCALL     ?DEALLOC_XSTACK8
          CFI CFA_XSP16 add(XSP16, 26)
        MOV       A,R1
        JZ        ??initItem_11
//  751         {
//  752           rtrn = pgRes;
        MOV       DPTR,#pgRes
        MOVX      A,@DPTR
        MOV       R7,A
//  753         }
//  754 
//  755         if ( flag == FALSE )
??initItem_11:
        MOV       A,?V4
        JNZ       ??initItem_12
//  756         {
//  757           /* Overload 'buf' as an OUT parameter to pass back to the calling function
//  758            * the old page to be cleaned up.
//  759            */
//  760           *(uint8 *)buf = pg;
        MOV       A,#0x1a
        LCALL     ?XSTACK_DISP0_8
        LCALL     ?Subroutine50 & 0xFFFF
//  761         }
??CrossCallReturnLabel_142:
        MOV       A,R6
        SJMP      ??initItem_13
//  762         else
//  763         {
//  764           /* Safe to do the compacted page cleanup even if writeItem() above failed because the
//  765            * item does not yet exist since this call with flag==TRUE is from osal_nv_item_init().
//  766            */
//  767           COMPACT_PAGE_CLEANUP( pg );
??initItem_12:
        ; Setup parameters for call to function setPageUse
        LCALL     ?Subroutine28 & 0xFFFF
??CrossCallReturnLabel_55:
        ; Setup parameters for call to function erasePage
        MOV       A,R6
        MOV       R1,A
        LCALL     `??erasePage::?relay`; Banked call to: erasePage
        MOV       A,R6
        MOV       DPTR,#pgRes
??initItem_13:
        MOVX      @DPTR,A
        SJMP      ??initItem_7
//  768         }
//  769       }
//  770     }
//  771     else
//  772     {
//  773       if ( writeItem( pg, id, len, buf, flag ) )
??initItem_8:
        ; Setup parameters for call to function writeItem
        MOV       A,?V4
        MOV       ?V2,A
        MOV       R0,#?V2
        LCALL     ?PUSH_XSTACK_I_ONE
          CFI CFA_XSP16 add(XSP16, 27)
        MOV       A,#0x1b
        LCALL     ?XSTACK_DISP0_8
        LCALL     ?PUSH_XSTACK8_X_TWO
          CFI CFA_XSP16 add(XSP16, 29)
        MOV       R4,?V0
        MOV       R2,?V6
        MOV       R3,?V7
        MOV       A,R6
        MOV       R1,A
        LCALL     `??writeItem::?relay`; Banked call to: writeItem
        MOV       A,#0x3
        LCALL     ?DEALLOC_XSTACK8
          CFI CFA_XSP16 add(XSP16, 26)
        MOV       A,R1
        JZ        ??initItem_7
//  774       {
//  775         rtrn = pg;
        MOV       A,R6
        MOV       R7,A
//  776       }
//  777     }
//  778   }
//  779 
//  780   return rtrn;
??initItem_7:
        MOV       A,R7
        MOV       R1,A
        LJMP      ?Subroutine2 & 0xFFFF
//  781 }
          CFI EndBlock cfiBlock72

        RSEG BANKED_CODE:HUGECODE:NOROOT(0)
?Subroutine28:
          CFI Block cfiCond73 Using cfiCommon0
          CFI Function compactPage
          CFI Conditional ??CrossCallReturnLabel_54
          CFI R6 load(1, XDATA, add(CFA_XSP16, literal(-15)))
          CFI VB load(1, XDATA, add(CFA_XSP16, literal(-14)))
          CFI V0 load(1, XDATA, add(CFA_XSP16, literal(-13)))
          CFI V1 load(1, XDATA, add(CFA_XSP16, literal(-12)))
          CFI V2 load(1, XDATA, add(CFA_XSP16, literal(-11)))
          CFI V3 load(1, XDATA, add(CFA_XSP16, literal(-10)))
          CFI V4 load(1, XDATA, add(CFA_XSP16, literal(-9)))
          CFI V5 load(1, XDATA, add(CFA_XSP16, literal(-8)))
          CFI V6 load(1, XDATA, add(CFA_XSP16, literal(-7)))
          CFI R7 load(1, XDATA, add(CFA_XSP16, literal(-6)))
          CFI ?RET_LOW load(1, XDATA, add(CFA_XSP16, literal(-5)))
          CFI ?RET_HIGH load(1, XDATA, add(CFA_XSP16, literal(-4)))
          CFI ?BRET_EXT load(1, XDATA, add(CFA_XSP16, literal(-3)))
          CFI DPL0 load(1, XDATA, add(CFA_XSP16, literal(-2)))
          CFI DPH0 load(1, XDATA, add(CFA_XSP16, literal(-1)))
          CFI CFA_SP SP+-2
          CFI CFA_XSP16 add(XSP16, 26)
          CFI Block cfiCond74 Using cfiCommon0
          CFI (cfiCond74) Function initItem
          CFI (cfiCond74) Conditional ??CrossCallReturnLabel_55
          CFI (cfiCond74) R6 load(1, XDATA, add(CFA_XSP16, literal(-16)))
          CFI (cfiCond74) VB load(1, XDATA, add(CFA_XSP16, literal(-15)))
          CFI (cfiCond74) V0 load(1, XDATA, add(CFA_XSP16, literal(-14)))
          CFI (cfiCond74) V1 load(1, XDATA, add(CFA_XSP16, literal(-13)))
          CFI (cfiCond74) V2 load(1, XDATA, add(CFA_XSP16, literal(-12)))
          CFI (cfiCond74) V3 load(1, XDATA, add(CFA_XSP16, literal(-11)))
          CFI (cfiCond74) V4 load(1, XDATA, add(CFA_XSP16, literal(-10)))
          CFI (cfiCond74) V5 load(1, XDATA, add(CFA_XSP16, literal(-9)))
          CFI (cfiCond74) V6 load(1, XDATA, add(CFA_XSP16, literal(-8)))
          CFI (cfiCond74) V7 load(1, XDATA, add(CFA_XSP16, literal(-7)))
          CFI (cfiCond74) R7 load(1, XDATA, add(CFA_XSP16, literal(-6)))
          CFI (cfiCond74) ?RET_LOW load(1, XDATA, add(CFA_XSP16, literal(-5)))
          CFI (cfiCond74) ?RET_HIGH load(1, XDATA, add(CFA_XSP16, literal(-4)))
          CFI (cfiCond74) ?BRET_EXT load(1, XDATA, add(CFA_XSP16, literal(-3)))
          CFI (cfiCond74) DPL0 load(1, XDATA, add(CFA_XSP16, literal(-2)))
          CFI (cfiCond74) DPH0 load(1, XDATA, add(CFA_XSP16, literal(-1)))
          CFI (cfiCond74) CFA_SP SP+-2
          CFI (cfiCond74) CFA_XSP16 add(XSP16, 26)
          CFI Block cfiCond75 Using cfiCommon0
          CFI (cfiCond75) Function osal_nv_write
          CFI (cfiCond75) Conditional ??CrossCallReturnLabel_56
          CFI (cfiCond75) R6 load(1, XDATA, add(CFA_XSP16, literal(-16)))
          CFI (cfiCond75) VB load(1, XDATA, add(CFA_XSP16, literal(-15)))
          CFI (cfiCond75) V0 load(1, XDATA, add(CFA_XSP16, literal(-14)))
          CFI (cfiCond75) V1 load(1, XDATA, add(CFA_XSP16, literal(-13)))
          CFI (cfiCond75) V2 load(1, XDATA, add(CFA_XSP16, literal(-12)))
          CFI (cfiCond75) V3 load(1, XDATA, add(CFA_XSP16, literal(-11)))
          CFI (cfiCond75) V4 load(1, XDATA, add(CFA_XSP16, literal(-10)))
          CFI (cfiCond75) V5 load(1, XDATA, add(CFA_XSP16, literal(-9)))
          CFI (cfiCond75) V6 load(1, XDATA, add(CFA_XSP16, literal(-8)))
          CFI (cfiCond75) V7 load(1, XDATA, add(CFA_XSP16, literal(-7)))
          CFI (cfiCond75) R7 load(1, XDATA, add(CFA_XSP16, literal(-6)))
          CFI (cfiCond75) ?RET_LOW load(1, XDATA, add(CFA_XSP16, literal(-5)))
          CFI (cfiCond75) ?RET_HIGH load(1, XDATA, add(CFA_XSP16, literal(-4)))
          CFI (cfiCond75) ?BRET_EXT load(1, XDATA, add(CFA_XSP16, literal(-3)))
          CFI (cfiCond75) DPL0 load(1, XDATA, add(CFA_XSP16, literal(-2)))
          CFI (cfiCond75) DPH0 load(1, XDATA, add(CFA_XSP16, literal(-1)))
          CFI (cfiCond75) CFA_SP SP+-2
          CFI (cfiCond75) CFA_XSP16 add(XSP16, 35)
          CFI Block cfiPicker76 Using cfiCommon1
          CFI (cfiPicker76) NoFunction
          CFI (cfiPicker76) Picker
        MOV       R2,#0x1
        MOV       DPTR,#pgRes
        MOVX      A,@DPTR
        MOV       R1,A
        LCALL     `??setPageUse::?relay`; Banked call to: setPageUse
        RET
          CFI EndBlock cfiCond73
          CFI EndBlock cfiCond74
          CFI EndBlock cfiCond75
          CFI EndBlock cfiPicker76

        RSEG BANKED_CODE:HUGECODE:NOROOT(0)
?Subroutine22:
          CFI Block cfiCond77 Using cfiCommon0
          CFI Function initItem
          CFI Conditional ??CrossCallReturnLabel_36
          CFI R6 load(1, XDATA, add(CFA_XSP16, literal(-16)))
          CFI VB load(1, XDATA, add(CFA_XSP16, literal(-15)))
          CFI V0 load(1, XDATA, add(CFA_XSP16, literal(-14)))
          CFI V1 load(1, XDATA, add(CFA_XSP16, literal(-13)))
          CFI V2 load(1, XDATA, add(CFA_XSP16, literal(-12)))
          CFI V3 load(1, XDATA, add(CFA_XSP16, literal(-11)))
          CFI V4 load(1, XDATA, add(CFA_XSP16, literal(-10)))
          CFI V5 load(1, XDATA, add(CFA_XSP16, literal(-9)))
          CFI V6 load(1, XDATA, add(CFA_XSP16, literal(-8)))
          CFI V7 load(1, XDATA, add(CFA_XSP16, literal(-7)))
          CFI R7 load(1, XDATA, add(CFA_XSP16, literal(-6)))
          CFI ?RET_LOW load(1, XDATA, add(CFA_XSP16, literal(-5)))
          CFI ?RET_HIGH load(1, XDATA, add(CFA_XSP16, literal(-4)))
          CFI ?BRET_EXT load(1, XDATA, add(CFA_XSP16, literal(-3)))
          CFI DPL0 load(1, XDATA, add(CFA_XSP16, literal(-2)))
          CFI DPH0 load(1, XDATA, add(CFA_XSP16, literal(-1)))
          CFI CFA_SP SP+-2
          CFI CFA_XSP16 add(XSP16, 26)
          CFI Block cfiCond78 Using cfiCommon0
          CFI (cfiCond78) Function initItem
          CFI (cfiCond78) Conditional ??CrossCallReturnLabel_37
          CFI (cfiCond78) R6 load(1, XDATA, add(CFA_XSP16, literal(-16)))
          CFI (cfiCond78) VB load(1, XDATA, add(CFA_XSP16, literal(-15)))
          CFI (cfiCond78) V0 load(1, XDATA, add(CFA_XSP16, literal(-14)))
          CFI (cfiCond78) V1 load(1, XDATA, add(CFA_XSP16, literal(-13)))
          CFI (cfiCond78) V2 load(1, XDATA, add(CFA_XSP16, literal(-12)))
          CFI (cfiCond78) V3 load(1, XDATA, add(CFA_XSP16, literal(-11)))
          CFI (cfiCond78) V4 load(1, XDATA, add(CFA_XSP16, literal(-10)))
          CFI (cfiCond78) V5 load(1, XDATA, add(CFA_XSP16, literal(-9)))
          CFI (cfiCond78) V6 load(1, XDATA, add(CFA_XSP16, literal(-8)))
          CFI (cfiCond78) V7 load(1, XDATA, add(CFA_XSP16, literal(-7)))
          CFI (cfiCond78) R7 load(1, XDATA, add(CFA_XSP16, literal(-6)))
          CFI (cfiCond78) ?RET_LOW load(1, XDATA, add(CFA_XSP16, literal(-5)))
          CFI (cfiCond78) ?RET_HIGH load(1, XDATA, add(CFA_XSP16, literal(-4)))
          CFI (cfiCond78) ?BRET_EXT load(1, XDATA, add(CFA_XSP16, literal(-3)))
          CFI (cfiCond78) DPL0 load(1, XDATA, add(CFA_XSP16, literal(-2)))
          CFI (cfiCond78) DPH0 load(1, XDATA, add(CFA_XSP16, literal(-1)))
          CFI (cfiCond78) CFA_SP SP+-2
          CFI (cfiCond78) CFA_XSP16 add(XSP16, 26)
          CFI Block cfiPicker79 Using cfiCommon1
          CFI (cfiPicker79) NoFunction
          CFI (cfiPicker79) Picker
        MOV       R3,A
        MOV       DPL,?XSP + 0
        MOV       DPH,?XSP + 1
        MOVX      A,@DPTR
        MOV       R0,A
        INC       DPTR
        MOVX      A,@DPTR
        MOV       R1,A
        CLR       C
        MOV       A,R2
        SUBB      A,R0
        MOV       A,R3
        SUBB      A,R1
        RET
          CFI EndBlock cfiCond77
          CFI EndBlock cfiCond78
          CFI EndBlock cfiPicker79

        RSEG BANKED_CODE:HUGECODE:NOROOT(0)
?Subroutine7:
          CFI Block cfiCond80 Using cfiCommon0
          CFI Function initItem
          CFI Conditional ??CrossCallReturnLabel_104
          CFI R6 load(1, XDATA, add(CFA_XSP16, literal(-16)))
          CFI VB load(1, XDATA, add(CFA_XSP16, literal(-15)))
          CFI V0 load(1, XDATA, add(CFA_XSP16, literal(-14)))
          CFI V1 load(1, XDATA, add(CFA_XSP16, literal(-13)))
          CFI V2 load(1, XDATA, add(CFA_XSP16, literal(-12)))
          CFI V3 load(1, XDATA, add(CFA_XSP16, literal(-11)))
          CFI V4 load(1, XDATA, add(CFA_XSP16, literal(-10)))
          CFI V5 load(1, XDATA, add(CFA_XSP16, literal(-9)))
          CFI V6 load(1, XDATA, add(CFA_XSP16, literal(-8)))
          CFI V7 load(1, XDATA, add(CFA_XSP16, literal(-7)))
          CFI R7 load(1, XDATA, add(CFA_XSP16, literal(-6)))
          CFI ?RET_LOW load(1, XDATA, add(CFA_XSP16, literal(-5)))
          CFI ?RET_HIGH load(1, XDATA, add(CFA_XSP16, literal(-4)))
          CFI ?BRET_EXT load(1, XDATA, add(CFA_XSP16, literal(-3)))
          CFI DPL0 load(1, XDATA, add(CFA_XSP16, literal(-2)))
          CFI DPH0 load(1, XDATA, add(CFA_XSP16, literal(-1)))
          CFI CFA_SP SP+-2
          CFI CFA_XSP16 add(XSP16, 26)
          CFI Block cfiCond81 Using cfiCommon0
          CFI (cfiCond81) Function setItem
          CFI (cfiCond81) Conditional ??CrossCallReturnLabel_105
          CFI (cfiCond81) R6 load(1, XDATA, add(CFA_XSP16, literal(-14)))
          CFI (cfiCond81) VB load(1, XDATA, add(CFA_XSP16, literal(-13)))
          CFI (cfiCond81) V0 load(1, XDATA, add(CFA_XSP16, literal(-12)))
          CFI (cfiCond81) V1 load(1, XDATA, add(CFA_XSP16, literal(-11)))
          CFI (cfiCond81) V2 load(1, XDATA, add(CFA_XSP16, literal(-10)))
          CFI (cfiCond81) V3 load(1, XDATA, add(CFA_XSP16, literal(-9)))
          CFI (cfiCond81) V4 load(1, XDATA, add(CFA_XSP16, literal(-8)))
          CFI (cfiCond81) V5 load(1, XDATA, add(CFA_XSP16, literal(-7)))
          CFI (cfiCond81) R7 load(1, XDATA, add(CFA_XSP16, literal(-6)))
          CFI (cfiCond81) ?RET_LOW load(1, XDATA, add(CFA_XSP16, literal(-5)))
          CFI (cfiCond81) ?RET_HIGH load(1, XDATA, add(CFA_XSP16, literal(-4)))
          CFI (cfiCond81) ?BRET_EXT load(1, XDATA, add(CFA_XSP16, literal(-3)))
          CFI (cfiCond81) DPL0 load(1, XDATA, add(CFA_XSP16, literal(-2)))
          CFI (cfiCond81) DPH0 load(1, XDATA, add(CFA_XSP16, literal(-1)))
          CFI (cfiCond81) CFA_SP SP+-2
          CFI (cfiCond81) CFA_XSP16 add(XSP16, 22)
          CFI Block cfiPicker82 Using cfiCommon1
          CFI (cfiPicker82) NoFunction
          CFI (cfiPicker82) Picker
        MOV       DPL,?XSP + 0
        MOV       DPH,?XSP + 1
        CLR       A
          CFI EndBlock cfiCond80
          CFI EndBlock cfiCond81
          CFI EndBlock cfiPicker82
        REQUIRE ??Subroutine57_0
        ; // Fall through to label ??Subroutine57_0

        RSEG BANKED_CODE:HUGECODE:NOROOT(0)
??Subroutine57_0:
          CFI Block cfiCond83 Using cfiCommon0
          CFI Function setPageUse
          CFI Conditional ??CrossCallReturnLabel_106
          CFI R6 load(1, XDATA, add(CFA_XSP16, literal(-9)))
          CFI VB load(1, XDATA, add(CFA_XSP16, literal(-8)))
          CFI V0 load(1, XDATA, add(CFA_XSP16, literal(-7)))
          CFI R7 load(1, XDATA, add(CFA_XSP16, literal(-6)))
          CFI ?RET_LOW load(1, XDATA, add(CFA_XSP16, literal(-5)))
          CFI ?RET_HIGH load(1, XDATA, add(CFA_XSP16, literal(-4)))
          CFI ?BRET_EXT load(1, XDATA, add(CFA_XSP16, literal(-3)))
          CFI DPL0 load(1, XDATA, add(CFA_XSP16, literal(-2)))
          CFI DPH0 load(1, XDATA, add(CFA_XSP16, literal(-1)))
          CFI CFA_SP SP+-2
          CFI CFA_XSP16 add(XSP16, 17)
          CFI Block cfiCond84 Using cfiCommon0
          CFI (cfiCond84) Function initItem
          CFI (cfiCond84) Conditional ??CrossCallReturnLabel_104
          CFI (cfiCond84) R6 load(1, XDATA, add(CFA_XSP16, literal(-16)))
          CFI (cfiCond84) VB load(1, XDATA, add(CFA_XSP16, literal(-15)))
          CFI (cfiCond84) V0 load(1, XDATA, add(CFA_XSP16, literal(-14)))
          CFI (cfiCond84) V1 load(1, XDATA, add(CFA_XSP16, literal(-13)))
          CFI (cfiCond84) V2 load(1, XDATA, add(CFA_XSP16, literal(-12)))
          CFI (cfiCond84) V3 load(1, XDATA, add(CFA_XSP16, literal(-11)))
          CFI (cfiCond84) V4 load(1, XDATA, add(CFA_XSP16, literal(-10)))
          CFI (cfiCond84) V5 load(1, XDATA, add(CFA_XSP16, literal(-9)))
          CFI (cfiCond84) V6 load(1, XDATA, add(CFA_XSP16, literal(-8)))
          CFI (cfiCond84) V7 load(1, XDATA, add(CFA_XSP16, literal(-7)))
          CFI (cfiCond84) R7 load(1, XDATA, add(CFA_XSP16, literal(-6)))
          CFI (cfiCond84) ?RET_LOW load(1, XDATA, add(CFA_XSP16, literal(-5)))
          CFI (cfiCond84) ?RET_HIGH load(1, XDATA, add(CFA_XSP16, literal(-4)))
          CFI (cfiCond84) ?BRET_EXT load(1, XDATA, add(CFA_XSP16, literal(-3)))
          CFI (cfiCond84) DPL0 load(1, XDATA, add(CFA_XSP16, literal(-2)))
          CFI (cfiCond84) DPH0 load(1, XDATA, add(CFA_XSP16, literal(-1)))
          CFI (cfiCond84) CFA_SP SP+-2
          CFI (cfiCond84) CFA_XSP16 add(XSP16, 26)
          CFI Block cfiCond85 Using cfiCommon0
          CFI (cfiCond85) Function setItem
          CFI (cfiCond85) Conditional ??CrossCallReturnLabel_105
          CFI (cfiCond85) R6 load(1, XDATA, add(CFA_XSP16, literal(-14)))
          CFI (cfiCond85) VB load(1, XDATA, add(CFA_XSP16, literal(-13)))
          CFI (cfiCond85) V0 load(1, XDATA, add(CFA_XSP16, literal(-12)))
          CFI (cfiCond85) V1 load(1, XDATA, add(CFA_XSP16, literal(-11)))
          CFI (cfiCond85) V2 load(1, XDATA, add(CFA_XSP16, literal(-10)))
          CFI (cfiCond85) V3 load(1, XDATA, add(CFA_XSP16, literal(-9)))
          CFI (cfiCond85) V4 load(1, XDATA, add(CFA_XSP16, literal(-8)))
          CFI (cfiCond85) V5 load(1, XDATA, add(CFA_XSP16, literal(-7)))
          CFI (cfiCond85) R7 load(1, XDATA, add(CFA_XSP16, literal(-6)))
          CFI (cfiCond85) ?RET_LOW load(1, XDATA, add(CFA_XSP16, literal(-5)))
          CFI (cfiCond85) ?RET_HIGH load(1, XDATA, add(CFA_XSP16, literal(-4)))
          CFI (cfiCond85) ?BRET_EXT load(1, XDATA, add(CFA_XSP16, literal(-3)))
          CFI (cfiCond85) DPL0 load(1, XDATA, add(CFA_XSP16, literal(-2)))
          CFI (cfiCond85) DPH0 load(1, XDATA, add(CFA_XSP16, literal(-1)))
          CFI (cfiCond85) CFA_SP SP+-2
          CFI (cfiCond85) CFA_XSP16 add(XSP16, 22)
          CFI Block cfiPicker86 Using cfiCommon1
          CFI (cfiPicker86) NoFunction
          CFI (cfiPicker86) Picker
        MOVX      @DPTR,A
        INC       DPTR
        MOVX      @DPTR,A
        ; Setup parameters for call to function writeWordH
        ; Setup parameters for call to function writeWord
        ; Setup parameters for call to function writeWord
        MOV       R4,?XSP + 0
        MOV       R5,?XSP + 1
        RET
          CFI EndBlock cfiCond83
          CFI EndBlock cfiCond84
          CFI EndBlock cfiCond85
          CFI EndBlock cfiPicker86
//  782 
//  783 /*********************************************************************
//  784  * @fn      setItem
//  785  *
//  786  * @brief   Set an item Id or status to mark its state.
//  787  *
//  788  * @param   pg - Valid NV page.
//  789  * @param   offset - Valid offset into the page of the item data - the header
//  790  *                   offset is calculated from this.
//  791  * @param   stat - Valid enum value for the item status.
//  792  *
//  793  * @return  none
//  794  */

        RSEG BANKED_CODE:HUGECODE:NOROOT(0)
//  795 static void setItem( uint8 pg, uint16 offset, eNvHdrEnum stat )
setItem:
          CFI Block cfiBlock87 Using cfiCommon0
          CFI Function setItem
        CODE
//  796 {
        FUNCALL setItem, HalFlashRead
        LOCFRAME ISTACK, 0, STACK
        LOCFRAME PSTACK, 0, STACK
        LOCFRAME XSTACK, 24, STACK
        LOCFRAME IOVERLAY, 0, STATIC
        LOCFRAME DOVERLAY, 0, STATIC
        ARGFRAME ISTACK, 0, STACK
        ARGFRAME PSTACK, 0, STACK
        ARGFRAME XSTACK, 24, STACK
        ARGFRAME IOVERLAY, 0, STATIC
        ARGFRAME DOVERLAY, 0, STATIC
        FUNCALL setItem, writeWord
        LOCFRAME ISTACK, 0, STACK
        LOCFRAME PSTACK, 0, STACK
        LOCFRAME XSTACK, 22, STACK
        LOCFRAME IOVERLAY, 0, STATIC
        LOCFRAME DOVERLAY, 0, STATIC
        ARGFRAME ISTACK, 0, STACK
        ARGFRAME PSTACK, 0, STACK
        ARGFRAME XSTACK, 22, STACK
        ARGFRAME IOVERLAY, 0, STATIC
        ARGFRAME DOVERLAY, 0, STATIC
        FUNCALL setItem, writeWord
        LOCFRAME ISTACK, 0, STACK
        LOCFRAME PSTACK, 0, STACK
        LOCFRAME XSTACK, 22, STACK
        LOCFRAME IOVERLAY, 0, STATIC
        LOCFRAME DOVERLAY, 0, STATIC
        ARGFRAME ISTACK, 0, STACK
        ARGFRAME PSTACK, 0, STACK
        ARGFRAME XSTACK, 22, STACK
        ARGFRAME IOVERLAY, 0, STATIC
        ARGFRAME DOVERLAY, 0, STATIC
        REQUIRE ?V0
        REQUIRE ?V1
        REQUIRE ?V2
        REQUIRE ?V3
        REQUIRE ?V4
        REQUIRE ?V5
        MOV       A,#-0xe
        LCALL     ?BANKED_ENTER_XDATA
          CFI DPH0 load(1, XDATA, add(CFA_XSP16, literal(-1)))
          CFI DPL0 load(1, XDATA, add(CFA_XSP16, literal(-2)))
          CFI ?BRET_EXT load(1, XDATA, add(CFA_XSP16, literal(-3)))
          CFI ?RET_HIGH load(1, XDATA, add(CFA_XSP16, literal(-4)))
          CFI ?RET_LOW load(1, XDATA, add(CFA_XSP16, literal(-5)))
          CFI R7 load(1, XDATA, add(CFA_XSP16, literal(-6)))
          CFI V5 load(1, XDATA, add(CFA_XSP16, literal(-7)))
          CFI V4 load(1, XDATA, add(CFA_XSP16, literal(-8)))
          CFI V3 load(1, XDATA, add(CFA_XSP16, literal(-9)))
          CFI V2 load(1, XDATA, add(CFA_XSP16, literal(-10)))
          CFI V1 load(1, XDATA, add(CFA_XSP16, literal(-11)))
          CFI V0 load(1, XDATA, add(CFA_XSP16, literal(-12)))
          CFI VB load(1, XDATA, add(CFA_XSP16, literal(-13)))
          CFI R6 load(1, XDATA, add(CFA_XSP16, literal(-14)))
          CFI CFA_SP SP+0
          CFI CFA_XSP16 add(XSP16, 14)
        ; Saved register size: 14
        ; Auto size: 8
        MOV       A,#-0x8
        LCALL     ?ALLOC_XSTACK8
          CFI CFA_XSP16 add(XSP16, 22)
        MOV       ?V2,R1
        MOV       ?V3,R4
//  797   osalNvHdr_t hdr;
//  798 
//  799   offset -= OSAL_NV_HDR_SIZE;
        MOV       A,R2
        ADD       A,#-0x8
        MOV       ?V0,A
        MOV       A,R3
        ADDC      A,#-0x1
        MOV       ?V1,A
//  800   HalFlashRead(pg, offset, (uint8 *)(&hdr), OSAL_NV_HDR_SIZE);
        ; Setup parameters for call to function HalFlashRead
        MOV       ?V4,#0x8
        MOV       ?V5,#0x0
        MOV       R0,#?V4
        LCALL     ?PUSH_XSTACK_I_TWO
          CFI CFA_XSP16 add(XSP16, 24)
        MOV       A,#0x2
        LCALL     ?XSTACK_DISP102_8
        MOV       R2,?V0
        MOV       R3,?V1
        LCALL     ??Subroutine61_0 & 0xFFFF
??CrossCallReturnLabel_127:
        LCALL     ?DEALLOC_XSTACK8
          CFI CFA_XSP16 add(XSP16, 22)
//  801 
//  802   if ( stat == eNvXfer )
        MOV       A,?V3
        JNZ       ??setItem_0
//  803   {
//  804     hdr.stat = OSAL_NV_ACTIVE;
        MOV       A,#0x6
        LCALL     ?XSTACK_DISP0_8
        CLR       A
        MOVX      @DPTR,A
        INC       DPTR
        MOVX      @DPTR,A
//  805     /* Write status to flash. Total of 4 bytes written to Flash 
//  806      * ( 2 bytes of checksum and 2 bytes of status) 
//  807      */
//  808     writeWord( pg, offset+OSAL_NV_HDR_CHK, (uint8*)(&(hdr.chk)) );
        ; Setup parameters for call to function writeWord
        MOV       A,#0x4
        LCALL     ?XSTACK_DISP0_8
        MOV       R4,DPL
        MOV       R5,DPH
        MOV       A,?V0
        ADD       A,#0x4
        MOV       R2,A
        CLR       A
        ADDC      A,?V1
        MOV       R3,A
        MOV       R1,?V2
        LCALL     `??writeWord::?relay`; Banked call to: writeWord
        SJMP      ??CrossCallReturnLabel_108
//  809   }
//  810   else // if ( stat == eNvZero )
//  811   {
//  812     uint16 sz = ((hdr.len + (OSAL_NV_WORD_SIZE-1)) / OSAL_NV_WORD_SIZE) * OSAL_NV_WORD_SIZE +
//  813                                                                           OSAL_NV_HDR_SIZE;
??setItem_0:
        MOV       A,#0x2
        LCALL     ?XSTACK_DISP0_8
        MOVX      A,@DPTR
        ADD       A,#0x3
        MOV       R0,A
        INC       DPTR
        MOVX      A,@DPTR
        ADDC      A,#0x0
        MOV       R1,A
        MOV       A,R0
        LCALL     ?Subroutine34 & 0xFFFF
//  814     hdr.id = 0;
??CrossCallReturnLabel_63:
        LCALL     ?Subroutine7 & 0xFFFF
//  815     writeWord( pg, offset, (uint8 *)(&hdr) );
??CrossCallReturnLabel_105:
        MOV       R2,?V0
        MOV       R3,?V1
        MOV       R1,?V2
        LCALL     `??writeWord::?relay`; Banked call to: writeWord
//  816     pgLost[pg-OSAL_NV_PAGE_BEG] += sz;
        MOV       R0,?V2
        MOV       A,R0
        ADD       A,R0
        MOV       R0,A
        CLR       A
        RLC       A
        MOV       R1,A
        MOV       A,#(pgLost + 14) & 0xff
        ADD       A,R0
        MOV       DPL,A
        MOV       A,#((pgLost - 242) >> 8) & 0xff
        ADDC      A,R1
        LCALL     ?Subroutine37 & 0xFFFF
//  817   }
//  818 }
??CrossCallReturnLabel_108:
        MOV       A,#0x8
        LCALL     ?DEALLOC_XSTACK8
          CFI EndBlock cfiBlock87
        REQUIRE ?Subroutine4
        ; // Fall through to label ?Subroutine4

        RSEG BANKED_CODE:HUGECODE:NOROOT(0)
?Subroutine4:
          CFI Block cfiBlock88 Using cfiCommon0
          CFI NoFunction
          CFI CFA_SP SP+0
          CFI CFA_XSP16 add(XSP16, 14)
          CFI VB load(1, XDATA, add(CFA_XSP16, literal(-13)))
          CFI DPL0 load(1, XDATA, add(CFA_XSP16, literal(-2)))
          CFI DPH0 load(1, XDATA, add(CFA_XSP16, literal(-1)))
          CFI R6 load(1, XDATA, add(CFA_XSP16, literal(-14)))
          CFI R7 load(1, XDATA, add(CFA_XSP16, literal(-6)))
          CFI V0 load(1, XDATA, add(CFA_XSP16, literal(-12)))
          CFI V1 load(1, XDATA, add(CFA_XSP16, literal(-11)))
          CFI V2 load(1, XDATA, add(CFA_XSP16, literal(-10)))
          CFI V3 load(1, XDATA, add(CFA_XSP16, literal(-9)))
          CFI V4 load(1, XDATA, add(CFA_XSP16, literal(-8)))
          CFI V5 load(1, XDATA, add(CFA_XSP16, literal(-7)))
          CFI ?BRET_EXT load(1, XDATA, add(CFA_XSP16, literal(-3)))
          CFI ?RET_HIGH load(1, XDATA, add(CFA_XSP16, literal(-4)))
          CFI ?RET_LOW load(1, XDATA, add(CFA_XSP16, literal(-5)))
        MOV       R7,#0x6
        LJMP      ?BANKED_LEAVE_XDATA
          CFI EndBlock cfiBlock88

        RSEG BANKED_CODE:HUGECODE:NOROOT(0)
?Subroutine37:
          CFI Block cfiCond89 Using cfiCommon0
          CFI Function setItem
          CFI Conditional ??CrossCallReturnLabel_108
          CFI R6 load(1, XDATA, add(CFA_XSP16, literal(-14)))
          CFI VB load(1, XDATA, add(CFA_XSP16, literal(-13)))
          CFI V0 load(1, XDATA, add(CFA_XSP16, literal(-12)))
          CFI V1 load(1, XDATA, add(CFA_XSP16, literal(-11)))
          CFI V2 load(1, XDATA, add(CFA_XSP16, literal(-10)))
          CFI V3 load(1, XDATA, add(CFA_XSP16, literal(-9)))
          CFI V4 load(1, XDATA, add(CFA_XSP16, literal(-8)))
          CFI V5 load(1, XDATA, add(CFA_XSP16, literal(-7)))
          CFI R7 load(1, XDATA, add(CFA_XSP16, literal(-6)))
          CFI ?RET_LOW load(1, XDATA, add(CFA_XSP16, literal(-5)))
          CFI ?RET_HIGH load(1, XDATA, add(CFA_XSP16, literal(-4)))
          CFI ?BRET_EXT load(1, XDATA, add(CFA_XSP16, literal(-3)))
          CFI DPL0 load(1, XDATA, add(CFA_XSP16, literal(-2)))
          CFI DPH0 load(1, XDATA, add(CFA_XSP16, literal(-1)))
          CFI CFA_SP SP+-2
          CFI CFA_XSP16 add(XSP16, 22)
          CFI Block cfiCond90 Using cfiCommon0
          CFI (cfiCond90) Function writeItem
          CFI (cfiCond90) Conditional ??CrossCallReturnLabel_109
          CFI (cfiCond90) R6 load(1, XDATA, add(CFA_XSP16, literal(-16)))
          CFI (cfiCond90) VB load(1, XDATA, add(CFA_XSP16, literal(-15)))
          CFI (cfiCond90) V0 load(1, XDATA, add(CFA_XSP16, literal(-14)))
          CFI (cfiCond90) V1 load(1, XDATA, add(CFA_XSP16, literal(-13)))
          CFI (cfiCond90) V2 load(1, XDATA, add(CFA_XSP16, literal(-12)))
          CFI (cfiCond90) V3 load(1, XDATA, add(CFA_XSP16, literal(-11)))
          CFI (cfiCond90) V4 load(1, XDATA, add(CFA_XSP16, literal(-10)))
          CFI (cfiCond90) V5 load(1, XDATA, add(CFA_XSP16, literal(-9)))
          CFI (cfiCond90) V6 load(1, XDATA, add(CFA_XSP16, literal(-8)))
          CFI (cfiCond90) V7 load(1, XDATA, add(CFA_XSP16, literal(-7)))
          CFI (cfiCond90) R7 load(1, XDATA, add(CFA_XSP16, literal(-6)))
          CFI (cfiCond90) ?RET_LOW load(1, XDATA, add(CFA_XSP16, literal(-5)))
          CFI (cfiCond90) ?RET_HIGH load(1, XDATA, add(CFA_XSP16, literal(-4)))
          CFI (cfiCond90) ?BRET_EXT load(1, XDATA, add(CFA_XSP16, literal(-3)))
          CFI (cfiCond90) DPL0 load(1, XDATA, add(CFA_XSP16, literal(-2)))
          CFI (cfiCond90) DPH0 load(1, XDATA, add(CFA_XSP16, literal(-1)))
          CFI (cfiCond90) CFA_SP SP+-2
          CFI (cfiCond90) CFA_XSP16 add(XSP16, 28)
          CFI Block cfiPicker91 Using cfiCommon1
          CFI (cfiPicker91) NoFunction
          CFI (cfiPicker91) Picker
        MOV       DPH,A
        MOVX      A,@DPTR
          CFI EndBlock cfiCond89
          CFI EndBlock cfiCond90
          CFI EndBlock cfiPicker91
        REQUIRE ??Subroutine58_0
        ; // Fall through to label ??Subroutine58_0

        RSEG BANKED_CODE:HUGECODE:NOROOT(0)
??Subroutine58_0:
          CFI Block cfiCond92 Using cfiCommon0
          CFI Function writeItem
          CFI Conditional ??CrossCallReturnLabel_107
          CFI R6 load(1, XDATA, add(CFA_XSP16, literal(-16)))
          CFI VB load(1, XDATA, add(CFA_XSP16, literal(-15)))
          CFI V0 load(1, XDATA, add(CFA_XSP16, literal(-14)))
          CFI V1 load(1, XDATA, add(CFA_XSP16, literal(-13)))
          CFI V2 load(1, XDATA, add(CFA_XSP16, literal(-12)))
          CFI V3 load(1, XDATA, add(CFA_XSP16, literal(-11)))
          CFI V4 load(1, XDATA, add(CFA_XSP16, literal(-10)))
          CFI V5 load(1, XDATA, add(CFA_XSP16, literal(-9)))
          CFI V6 load(1, XDATA, add(CFA_XSP16, literal(-8)))
          CFI V7 load(1, XDATA, add(CFA_XSP16, literal(-7)))
          CFI R7 load(1, XDATA, add(CFA_XSP16, literal(-6)))
          CFI ?RET_LOW load(1, XDATA, add(CFA_XSP16, literal(-5)))
          CFI ?RET_HIGH load(1, XDATA, add(CFA_XSP16, literal(-4)))
          CFI ?BRET_EXT load(1, XDATA, add(CFA_XSP16, literal(-3)))
          CFI DPL0 load(1, XDATA, add(CFA_XSP16, literal(-2)))
          CFI DPH0 load(1, XDATA, add(CFA_XSP16, literal(-1)))
          CFI CFA_SP SP+-2
          CFI CFA_XSP16 add(XSP16, 28)
          CFI Block cfiCond93 Using cfiCommon0
          CFI (cfiCond93) Function setItem
          CFI (cfiCond93) Conditional ??CrossCallReturnLabel_108
          CFI (cfiCond93) R6 load(1, XDATA, add(CFA_XSP16, literal(-14)))
          CFI (cfiCond93) VB load(1, XDATA, add(CFA_XSP16, literal(-13)))
          CFI (cfiCond93) V0 load(1, XDATA, add(CFA_XSP16, literal(-12)))
          CFI (cfiCond93) V1 load(1, XDATA, add(CFA_XSP16, literal(-11)))
          CFI (cfiCond93) V2 load(1, XDATA, add(CFA_XSP16, literal(-10)))
          CFI (cfiCond93) V3 load(1, XDATA, add(CFA_XSP16, literal(-9)))
          CFI (cfiCond93) V4 load(1, XDATA, add(CFA_XSP16, literal(-8)))
          CFI (cfiCond93) V5 load(1, XDATA, add(CFA_XSP16, literal(-7)))
          CFI (cfiCond93) R7 load(1, XDATA, add(CFA_XSP16, literal(-6)))
          CFI (cfiCond93) ?RET_LOW load(1, XDATA, add(CFA_XSP16, literal(-5)))
          CFI (cfiCond93) ?RET_HIGH load(1, XDATA, add(CFA_XSP16, literal(-4)))
          CFI (cfiCond93) ?BRET_EXT load(1, XDATA, add(CFA_XSP16, literal(-3)))
          CFI (cfiCond93) DPL0 load(1, XDATA, add(CFA_XSP16, literal(-2)))
          CFI (cfiCond93) DPH0 load(1, XDATA, add(CFA_XSP16, literal(-1)))
          CFI (cfiCond93) CFA_SP SP+-2
          CFI (cfiCond93) CFA_XSP16 add(XSP16, 22)
          CFI Block cfiCond94 Using cfiCommon0
          CFI (cfiCond94) Function writeItem
          CFI (cfiCond94) Conditional ??CrossCallReturnLabel_109
          CFI (cfiCond94) R6 load(1, XDATA, add(CFA_XSP16, literal(-16)))
          CFI (cfiCond94) VB load(1, XDATA, add(CFA_XSP16, literal(-15)))
          CFI (cfiCond94) V0 load(1, XDATA, add(CFA_XSP16, literal(-14)))
          CFI (cfiCond94) V1 load(1, XDATA, add(CFA_XSP16, literal(-13)))
          CFI (cfiCond94) V2 load(1, XDATA, add(CFA_XSP16, literal(-12)))
          CFI (cfiCond94) V3 load(1, XDATA, add(CFA_XSP16, literal(-11)))
          CFI (cfiCond94) V4 load(1, XDATA, add(CFA_XSP16, literal(-10)))
          CFI (cfiCond94) V5 load(1, XDATA, add(CFA_XSP16, literal(-9)))
          CFI (cfiCond94) V6 load(1, XDATA, add(CFA_XSP16, literal(-8)))
          CFI (cfiCond94) V7 load(1, XDATA, add(CFA_XSP16, literal(-7)))
          CFI (cfiCond94) R7 load(1, XDATA, add(CFA_XSP16, literal(-6)))
          CFI (cfiCond94) ?RET_LOW load(1, XDATA, add(CFA_XSP16, literal(-5)))
          CFI (cfiCond94) ?RET_HIGH load(1, XDATA, add(CFA_XSP16, literal(-4)))
          CFI (cfiCond94) ?BRET_EXT load(1, XDATA, add(CFA_XSP16, literal(-3)))
          CFI (cfiCond94) DPL0 load(1, XDATA, add(CFA_XSP16, literal(-2)))
          CFI (cfiCond94) DPH0 load(1, XDATA, add(CFA_XSP16, literal(-1)))
          CFI (cfiCond94) CFA_SP SP+-2
          CFI (cfiCond94) CFA_XSP16 add(XSP16, 28)
          CFI Block cfiPicker95 Using cfiCommon1
          CFI (cfiPicker95) NoFunction
          CFI (cfiPicker95) Picker
        ADD       A,R6
        MOVX      @DPTR,A
        INC       DPTR
        MOVX      A,@DPTR
        ADDC      A,R7
        MOVX      @DPTR,A
        RET
          CFI EndBlock cfiCond92
          CFI EndBlock cfiCond93
          CFI EndBlock cfiCond94
          CFI EndBlock cfiPicker95
//  819 
//  820 /*********************************************************************
//  821  * @fn      setChk
//  822  *
//  823  * @brief   Set the item header checksum given the data buffer offset.
//  824  *
//  825  * @param   pg - Valid NV page.
//  826  * @param   offset - Valid offset into the page of the item data - the header
//  827  *                   offset is calculated from this.
//  828  * @param   chk - The checksum to set.
//  829  *
//  830  * @return  The checksum read back.
//  831  */

        RSEG BANKED_CODE:HUGECODE:NOROOT(0)
//  832 static uint16 setChk( uint8 pg, uint16 offset, uint16 chk )
setChk:
          CFI Block cfiBlock96 Using cfiCommon0
          CFI Function setChk
        CODE
//  833 {
        FUNCALL setChk, writeWordH
        LOCFRAME ISTACK, 0, STACK
        LOCFRAME PSTACK, 0, STACK
        LOCFRAME XSTACK, 14, STACK
        LOCFRAME IOVERLAY, 0, STATIC
        LOCFRAME DOVERLAY, 0, STATIC
        ARGFRAME ISTACK, 0, STACK
        ARGFRAME PSTACK, 0, STACK
        ARGFRAME XSTACK, 14, STACK
        ARGFRAME IOVERLAY, 0, STATIC
        ARGFRAME DOVERLAY, 0, STATIC
        FUNCALL setChk, HalFlashRead
        LOCFRAME ISTACK, 0, STACK
        LOCFRAME PSTACK, 0, STACK
        LOCFRAME XSTACK, 16, STACK
        LOCFRAME IOVERLAY, 0, STATIC
        LOCFRAME DOVERLAY, 0, STATIC
        ARGFRAME ISTACK, 0, STACK
        ARGFRAME PSTACK, 0, STACK
        ARGFRAME XSTACK, 16, STACK
        ARGFRAME IOVERLAY, 0, STATIC
        ARGFRAME DOVERLAY, 0, STATIC
        REQUIRE ?V0
        REQUIRE ?V2
        REQUIRE ?V3
        MOV       A,#-0xc
        LCALL     ?BANKED_ENTER_XDATA
          CFI DPH0 load(1, XDATA, add(CFA_XSP16, literal(-1)))
          CFI DPL0 load(1, XDATA, add(CFA_XSP16, literal(-2)))
          CFI ?BRET_EXT load(1, XDATA, add(CFA_XSP16, literal(-3)))
          CFI ?RET_HIGH load(1, XDATA, add(CFA_XSP16, literal(-4)))
          CFI ?RET_LOW load(1, XDATA, add(CFA_XSP16, literal(-5)))
          CFI R7 load(1, XDATA, add(CFA_XSP16, literal(-6)))
          CFI V3 load(1, XDATA, add(CFA_XSP16, literal(-7)))
          CFI V2 load(1, XDATA, add(CFA_XSP16, literal(-8)))
          CFI V1 load(1, XDATA, add(CFA_XSP16, literal(-9)))
          CFI V0 load(1, XDATA, add(CFA_XSP16, literal(-10)))
          CFI VB load(1, XDATA, add(CFA_XSP16, literal(-11)))
          CFI R6 load(1, XDATA, add(CFA_XSP16, literal(-12)))
          CFI CFA_SP SP+0
          CFI CFA_XSP16 add(XSP16, 12)
        ; Saved register size: 12
        ; Auto size: 2
        MOV       A,#-0x2
        LCALL     ?ALLOC_XSTACK8
          CFI CFA_XSP16 add(XSP16, 14)
        MOV       DPL,?XSP + 0
        MOV       DPH,?XSP + 1
        MOV       A,R4
        MOVX      @DPTR,A
        INC       DPTR
        MOV       A,R5
        MOVX      @DPTR,A
        MOV       ?V0,R1
//  834   offset -= OSAL_NV_WORD_SIZE;
        MOV       A,R2
        ADD       A,#-0x4
        MOV       R6,A
        MOV       A,R3
        ADDC      A,#-0x1
        MOV       R7,A
//  835   writeWordH( pg, offset, (uint8 *)&chk );
        ; Setup parameters for call to function writeWordH
        MOV       R4,?XSP + 0
        MOV       R5,?XSP + 1
        MOV       A,R6
        MOV       R2,A
        MOV       A,R7
        MOV       R3,A
        LCALL     `??writeWordH::?relay`; Banked call to: writeWordH
//  836   HalFlashRead( pg, offset, (uint8 *)(&chk), sizeof( chk ) );
        ; Setup parameters for call to function HalFlashRead
        MOV       ?V2,#0x2
        MOV       ?V3,#0x0
        MOV       R0,#?V2
        LCALL     ?PUSH_XSTACK_I_TWO
          CFI CFA_XSP16 add(XSP16, 16)
        MOV       A,#0x2
        LCALL     ?XSTACK_DISP102_8
        MOV       A,R6
        MOV       R2,A
        MOV       A,R7
        MOV       R3,A
        MOV       R1,?V0
        LCALL     ??Subroutine61_0 & 0xFFFF
??CrossCallReturnLabel_128:
        LCALL     ?DEALLOC_XSTACK8
          CFI CFA_XSP16 add(XSP16, 14)
//  837 
//  838   return chk;
        MOV       DPL,?XSP + 0
        MOV       DPH,?XSP + 1
        LCALL     ??Subroutine67_0 & 0xFFFF
??CrossCallReturnLabel_150:
        LJMP      ?Subroutine0 & 0xFFFF
//  839 }
          CFI EndBlock cfiBlock96
//  840 
//  841 /*********************************************************************
//  842  * @fn      calcChkB
//  843  *
//  844  * @brief   Calculates the data checksum over the 'buf' parameter.
//  845  *
//  846  * @param   len - Byte count of the data to be checksummed.
//  847  * @param   buf - Data buffer to be checksummed.
//  848  *
//  849  * @return  Calculated checksum of the data bytes.
//  850  */
//  851 static uint16 calcChkB( uint16 len, uint8 *buf )
//  852 {
//  853   uint8 fill = len % OSAL_NV_WORD_SIZE;
//  854   uint16 chk;
//  855 
//  856   if ( !buf )
//  857   {
//  858     chk = len * OSAL_NV_ERASED;
//  859   }
//  860   else
//  861   {
//  862     chk = 0;
//  863     while ( len-- )
//  864     {
//  865       chk += *buf++;
//  866     }
//  867   }
//  868 
//  869   // calcChkF() will calculate over OSAL_NV_WORD_SIZE alignment.
//  870   if ( fill )
//  871   {
//  872     chk += (OSAL_NV_WORD_SIZE - fill) * OSAL_NV_ERASED;
//  873   }
//  874 
//  875   return chk;
//  876 }
//  877 
//  878 /*********************************************************************
//  879  * @fn      calcChkF
//  880  *
//  881  * @brief   Calculates the data checksum by reading the data bytes from NV.
//  882  *
//  883  * @param   pg - A valid NV Flash page.
//  884  * @param   offset - A valid offset into the page.
//  885  * @param   len - Byte count of the data to be checksummed.
//  886  *
//  887  * @return  Calculated checksum of the data bytes.
//  888  */

        RSEG BANKED_CODE:HUGECODE:NOROOT(0)
//  889 static uint16 calcChkF( uint8 pg, uint16 offset, uint16 len )
calcChkF:
          CFI Block cfiBlock97 Using cfiCommon0
          CFI Function calcChkF
        CODE
//  890 {
        FUNCALL calcChkF, HalFlashRead
        LOCFRAME ISTACK, 0, STACK
        LOCFRAME PSTACK, 0, STACK
        LOCFRAME XSTACK, 21, STACK
        LOCFRAME IOVERLAY, 0, STATIC
        LOCFRAME DOVERLAY, 0, STATIC
        ARGFRAME ISTACK, 0, STACK
        ARGFRAME PSTACK, 0, STACK
        ARGFRAME XSTACK, 21, STACK
        ARGFRAME IOVERLAY, 0, STATIC
        ARGFRAME DOVERLAY, 0, STATIC
        REQUIRE ?V0
        REQUIRE ?V1
        REQUIRE ?V2
        REQUIRE ?V3
        REQUIRE ?V4
        REQUIRE ?V5
        REQUIRE ?V6
        MOV       A,#-0xf
        LCALL     ?BANKED_ENTER_XDATA
          CFI DPH0 load(1, XDATA, add(CFA_XSP16, literal(-1)))
          CFI DPL0 load(1, XDATA, add(CFA_XSP16, literal(-2)))
          CFI ?BRET_EXT load(1, XDATA, add(CFA_XSP16, literal(-3)))
          CFI ?RET_HIGH load(1, XDATA, add(CFA_XSP16, literal(-4)))
          CFI ?RET_LOW load(1, XDATA, add(CFA_XSP16, literal(-5)))
          CFI R7 load(1, XDATA, add(CFA_XSP16, literal(-6)))
          CFI V6 load(1, XDATA, add(CFA_XSP16, literal(-7)))
          CFI V5 load(1, XDATA, add(CFA_XSP16, literal(-8)))
          CFI V4 load(1, XDATA, add(CFA_XSP16, literal(-9)))
          CFI V3 load(1, XDATA, add(CFA_XSP16, literal(-10)))
          CFI V2 load(1, XDATA, add(CFA_XSP16, literal(-11)))
          CFI V1 load(1, XDATA, add(CFA_XSP16, literal(-12)))
          CFI V0 load(1, XDATA, add(CFA_XSP16, literal(-13)))
          CFI VB load(1, XDATA, add(CFA_XSP16, literal(-14)))
          CFI R6 load(1, XDATA, add(CFA_XSP16, literal(-15)))
          CFI CFA_SP SP+0
          CFI CFA_XSP16 add(XSP16, 15)
        ; Saved register size: 15
        ; Auto size: 4
        MOV       A,#-0x4
        LCALL     ?ALLOC_XSTACK8
          CFI CFA_XSP16 add(XSP16, 19)
        MOV       ?V6,R1
        MOV       ?V0,R2
        MOV       ?V1,R3
        MOV       A,R5
        MOV       R7,A
//  891   uint16 chk = 0;
        MOV       ?V2,#0x0
        MOV       ?V3,#0x0
//  892 
//  893   len = (len + (OSAL_NV_WORD_SIZE-1)) / OSAL_NV_WORD_SIZE;
        MOV       A,R4
        ADD       A,#0x3
        MOV       ?V4,A
        CLR       A
        ADDC      A,R7
        MOV       ?V5,A
        MOV       A,#0x2
        MOV       R0,#?V4
        LCALL     ?US_SHR
        MOV       R6,?V4
        MOV       R7,?V5
//  894 
//  895   while ( len-- )
??calcChkF_0:
        LCALL     ?Subroutine43 & 0xFFFF
??CrossCallReturnLabel_78:
        JZ        ??calcChkF_1
//  896   {
//  897     uint8 cnt, tmp[OSAL_NV_WORD_SIZE];
//  898 
//  899     HalFlashRead(pg, offset, tmp, OSAL_NV_WORD_SIZE);
        ; Setup parameters for call to function HalFlashRead
        MOV       ?V4,#0x4
        MOV       ?V5,#0x0
        MOV       R0,#?V4
        LCALL     ?PUSH_XSTACK_I_TWO
          CFI CFA_XSP16 add(XSP16, 21)
        MOV       A,#0x2
        LCALL     ?XSTACK_DISP102_8
        MOV       R2,?V0
        MOV       R3,?V1
        MOV       R1,?V6
        LCALL     ??Subroutine61_0 & 0xFFFF
??CrossCallReturnLabel_129:
        LCALL     ?DEALLOC_XSTACK8
          CFI CFA_XSP16 add(XSP16, 19)
//  900     offset += OSAL_NV_WORD_SIZE;
        LCALL     ?Subroutine49 & 0xFFFF
//  901 
//  902     for ( cnt = 0; cnt < OSAL_NV_WORD_SIZE; cnt++ )
??CrossCallReturnLabel_113:
        MOV       R0,#0x0
//  903     {
//  904       chk += tmp[cnt];
??calcChkF_2:
        MOV       A,R0
        MOV       R2,A
        MOV       DPL,?XSP + 0
        MOV       DPH,?XSP + 1
        MOV       A,DPL
        ADD       A,R2
        MOV       DPL,A
        CLR       A
        ADDC      A,DPH
        MOV       DPH,A
        MOVX      A,@DPTR
        MOV       R2,A
        MOV       A,?V2
        ADD       A,R2
        MOV       ?V2,A
        CLR       A
        ADDC      A,?V3
        MOV       ?V3,A
//  905     }
        INC       R0
        MOV       A,R0
        CLR       C
        SUBB      A,#0x4
        JNC       ??calcChkF_0
        SJMP      ??calcChkF_2
//  906   }
//  907 
//  908   return chk;
??calcChkF_1:
        MOV       R2,?V2
        MOV       R3,?V3
        MOV       A,#0x4
        LJMP      ?Subroutine3 & 0xFFFF
//  909 }
          CFI EndBlock cfiBlock97
//  910 
//  911 /*********************************************************************
//  912  * @fn      writeWord
//  913  *
//  914  * @brief   Writes a Flash-WORD to NV.
//  915  *
//  916  * @param   pg - A valid NV Flash page.
//  917  * @param   offset - A valid offset into the page.
//  918  * @param   buf - Pointer to source buffer.
//  919  *
//  920  * @return  none
//  921  */

        RSEG BANKED_CODE:HUGECODE:NOROOT(0)
//  922 static void writeWord( uint8 pg, uint16 offset, uint8 *buf )
writeWord:
          CFI Block cfiBlock98 Using cfiCommon0
          CFI Function writeWord
        CODE
//  923 {
        FUNCALL writeWord, HalFlashWrite
        LOCFRAME ISTACK, 0, STACK
        LOCFRAME PSTACK, 0, STACK
        LOCFRAME XSTACK, 14, STACK
        LOCFRAME IOVERLAY, 0, STATIC
        LOCFRAME DOVERLAY, 0, STATIC
        ARGFRAME ISTACK, 0, STACK
        ARGFRAME PSTACK, 0, STACK
        ARGFRAME XSTACK, 14, STACK
        ARGFRAME IOVERLAY, 0, STATIC
        ARGFRAME DOVERLAY, 0, STATIC
        REQUIRE ?V0
        REQUIRE ?V1
        REQUIRE ?V2
        REQUIRE ?V3
        MOV       A,#-0xc
        LCALL     ?BANKED_ENTER_XDATA
          CFI DPH0 load(1, XDATA, add(CFA_XSP16, literal(-1)))
          CFI DPL0 load(1, XDATA, add(CFA_XSP16, literal(-2)))
          CFI ?BRET_EXT load(1, XDATA, add(CFA_XSP16, literal(-3)))
          CFI ?RET_HIGH load(1, XDATA, add(CFA_XSP16, literal(-4)))
          CFI ?RET_LOW load(1, XDATA, add(CFA_XSP16, literal(-5)))
          CFI R7 load(1, XDATA, add(CFA_XSP16, literal(-6)))
          CFI V3 load(1, XDATA, add(CFA_XSP16, literal(-7)))
          CFI V2 load(1, XDATA, add(CFA_XSP16, literal(-8)))
          CFI V1 load(1, XDATA, add(CFA_XSP16, literal(-9)))
          CFI V0 load(1, XDATA, add(CFA_XSP16, literal(-10)))
          CFI VB load(1, XDATA, add(CFA_XSP16, literal(-11)))
          CFI R6 load(1, XDATA, add(CFA_XSP16, literal(-12)))
          CFI CFA_SP SP+0
          CFI CFA_XSP16 add(XSP16, 12)
        ; Saved register size: 12
        ; Auto size: 0
//  924   offset = (offset / HAL_FLASH_WORD_SIZE) +
//  925           ((uint16)pg * (HAL_FLASH_PAGE_SIZE / HAL_FLASH_WORD_SIZE));
//  926 
//  927   HalFlashWrite(offset, buf, 1);
        ; Setup parameters for call to function HalFlashWrite
        MOV       ?V0,#0x1
        MOV       ?V1,#0x0
        MOV       R0,#?V0
        LCALL     ?PUSH_XSTACK_I_TWO
          CFI CFA_XSP16 add(XSP16, 14)
        MOV       ?V0,R2
        MOV       ?V1,R3
        MOV       A,#0x2
        MOV       R0,#?V0
        LCALL     ?US_SHR
        MOV       A,R1
        MOV       ?V2,A
        MOV       ?V3,#0x0
        MOV       A,#0x9
        MOV       R0,#?V2
        LCALL     ?S_SHL
        MOV       A,?V0
        ADD       A,#0x0
        MOV       R2,A
        MOV       A,?V1
        ADDC      A,?V3
        MOV       R3,A
        LCALL     `??HalFlashWrite::?relay`; Banked call to: HalFlashWrite
        LJMP      ?Subroutine0 & 0xFFFF
//  928 }
          CFI EndBlock cfiBlock98
//  929 
//  930 /*********************************************************************
//  931  * @fn      writeWordM
//  932  *
//  933  * @brief   Writes multiple Flash-WORDs to NV.
//  934  *
//  935  * @param   pg - A valid NV Flash page.
//  936  * @param   offset - A valid offset into the page.
//  937  * @param   buf - Pointer to source buffer.
//  938  * @param   cnt - Number of 4-byte blocks to write.
//  939  *
//  940  * @return  none
//  941  */
//  942 static void writeWordM( uint8 pg, uint16 offset, uint8 *buf, uint16 cnt )
//  943 {
//  944   offset = (offset / HAL_FLASH_WORD_SIZE) +
//  945           ((uint16)pg * (HAL_FLASH_PAGE_SIZE / HAL_FLASH_WORD_SIZE));
//  946   HalFlashWrite(offset, buf, cnt);
//  947 }
//  948 
//  949 /*********************************************************************
//  950  * @fn      writeWordH
//  951  *
//  952  * @brief   Writes the 1st half of a Flash-WORD to NV (filling 2nd half with 0xffff).
//  953  *
//  954  * @param   pg - A valid NV Flash page.
//  955  * @param   offset - A valid offset into the page.
//  956  * @param   buf - Pointer to source buffer.
//  957  *
//  958  * @return  none
//  959  */

        RSEG BANKED_CODE:HUGECODE:NOROOT(0)
//  960 static void writeWordH( uint8 pg, uint16 offset, uint8 *buf )
writeWordH:
          CFI Block cfiBlock99 Using cfiCommon0
          CFI Function writeWordH
        CODE
//  961 {
        FUNCALL writeWordH, writeWord
        LOCFRAME ISTACK, 0, STACK
        LOCFRAME PSTACK, 0, STACK
        LOCFRAME XSTACK, 13, STACK
        LOCFRAME IOVERLAY, 0, STATIC
        LOCFRAME DOVERLAY, 0, STATIC
        ARGFRAME ISTACK, 0, STACK
        ARGFRAME PSTACK, 0, STACK
        ARGFRAME XSTACK, 13, STACK
        ARGFRAME IOVERLAY, 0, STATIC
        ARGFRAME DOVERLAY, 0, STATIC
        MOV       A,#-0x9
        LCALL     ?BANKED_ENTER_XDATA
          CFI DPH0 load(1, XDATA, add(CFA_XSP16, literal(-1)))
          CFI DPL0 load(1, XDATA, add(CFA_XSP16, literal(-2)))
          CFI ?BRET_EXT load(1, XDATA, add(CFA_XSP16, literal(-3)))
          CFI ?RET_HIGH load(1, XDATA, add(CFA_XSP16, literal(-4)))
          CFI ?RET_LOW load(1, XDATA, add(CFA_XSP16, literal(-5)))
          CFI R7 load(1, XDATA, add(CFA_XSP16, literal(-6)))
          CFI V0 load(1, XDATA, add(CFA_XSP16, literal(-7)))
          CFI VB load(1, XDATA, add(CFA_XSP16, literal(-8)))
          CFI R6 load(1, XDATA, add(CFA_XSP16, literal(-9)))
          CFI CFA_SP SP+0
          CFI CFA_XSP16 add(XSP16, 9)
        ; Saved register size: 9
        ; Auto size: 4
        MOV       A,#-0x4
        LCALL     ?ALLOC_XSTACK8
          CFI CFA_XSP16 add(XSP16, 13)
//  962   uint8 tmp[4];
//  963 
//  964   tmp[0] = buf[0];
        MOV       DPL,R4
        MOV       DPH,R5
        MOVX      A,@DPTR
        MOV       DPL,?XSP + 0
        MOV       DPH,?XSP + 1
        MOVX      @DPTR,A
//  965   tmp[1] = buf[1];
        MOV       DPL,R4
        MOV       DPH,R5
        INC       DPTR
        MOVX      A,@DPTR
        PUSH      A
          CFI CFA_SP SP+-1
        MOV       A,#0x1
        LCALL     ?XSTACK_DISP0_8
        POP       A
          CFI CFA_SP SP+0
        MOVX      @DPTR,A
//  966   tmp[2] = OSAL_NV_ERASED;
        MOV       A,#0x2
        LCALL     ?XSTACK_DISP0_8
        MOV       A,#-0x1
        MOVX      @DPTR,A
//  967   tmp[3] = OSAL_NV_ERASED;
        MOV       A,#0x3
        LCALL     ?XSTACK_DISP0_8
        MOV       A,#-0x1
        MOVX      @DPTR,A
//  968 
//  969   writeWord( pg, offset, tmp );
        ; Setup parameters for call to function writeWord
        MOV       R4,?XSP + 0
        MOV       R5,?XSP + 1
        LCALL     `??writeWord::?relay`; Banked call to: writeWord
//  970 }
        MOV       A,#0x4
        LJMP      ?Subroutine1 & 0xFFFF
          CFI EndBlock cfiBlock99
//  971 
//  972 /*********************************************************************
//  973  * @fn      writeBuf
//  974  *
//  975  * @brief   Writes a data buffer to NV.
//  976  *
//  977  * @param   dstPg - A valid NV Flash page.
//  978  * @param   offset - A valid offset into the page.
//  979  * @param   len  - Byte count of the data to write.
//  980  * @param   buf  - The data to write.
//  981  *
//  982  * @return  TRUE if data buf checksum matches read back checksum, else FALSE.
//  983  */

        RSEG BANKED_CODE:HUGECODE:NOROOT(0)
//  984 static void writeBuf( uint8 dstPg, uint16 dstOff, uint16 len, uint8 *buf )
writeBuf:
          CFI Block cfiBlock100 Using cfiCommon0
          CFI Function writeBuf
        CODE
//  985 {
        FUNCALL writeBuf, HalFlashRead
        LOCFRAME ISTACK, 0, STACK
        LOCFRAME PSTACK, 0, STACK
        LOCFRAME XSTACK, 22, STACK
        LOCFRAME IOVERLAY, 0, STATIC
        LOCFRAME DOVERLAY, 0, STATIC
        ARGFRAME ISTACK, 0, STACK
        ARGFRAME PSTACK, 0, STACK
        ARGFRAME XSTACK, 22, STACK
        ARGFRAME IOVERLAY, 0, STATIC
        ARGFRAME DOVERLAY, 0, STATIC
        FUNCALL writeBuf, writeWord
        LOCFRAME ISTACK, 0, STACK
        LOCFRAME PSTACK, 0, STACK
        LOCFRAME XSTACK, 20, STACK
        LOCFRAME IOVERLAY, 0, STATIC
        LOCFRAME DOVERLAY, 0, STATIC
        ARGFRAME ISTACK, 0, STACK
        ARGFRAME PSTACK, 0, STACK
        ARGFRAME XSTACK, 20, STACK
        ARGFRAME IOVERLAY, 0, STATIC
        ARGFRAME DOVERLAY, 0, STATIC
        FUNCALL writeBuf, HalFlashWrite
        LOCFRAME ISTACK, 0, STACK
        LOCFRAME PSTACK, 0, STACK
        LOCFRAME XSTACK, 22, STACK
        LOCFRAME IOVERLAY, 0, STATIC
        LOCFRAME DOVERLAY, 0, STATIC
        ARGFRAME ISTACK, 0, STACK
        ARGFRAME PSTACK, 0, STACK
        ARGFRAME XSTACK, 22, STACK
        ARGFRAME IOVERLAY, 0, STATIC
        ARGFRAME DOVERLAY, 0, STATIC
        FUNCALL writeBuf, HalFlashRead
        LOCFRAME ISTACK, 0, STACK
        LOCFRAME PSTACK, 0, STACK
        LOCFRAME XSTACK, 22, STACK
        LOCFRAME IOVERLAY, 0, STATIC
        LOCFRAME DOVERLAY, 0, STATIC
        ARGFRAME ISTACK, 0, STACK
        ARGFRAME PSTACK, 0, STACK
        ARGFRAME XSTACK, 22, STACK
        ARGFRAME IOVERLAY, 0, STATIC
        ARGFRAME DOVERLAY, 0, STATIC
        FUNCALL writeBuf, writeWord
        LOCFRAME ISTACK, 0, STACK
        LOCFRAME PSTACK, 0, STACK
        LOCFRAME XSTACK, 20, STACK
        LOCFRAME IOVERLAY, 0, STATIC
        LOCFRAME DOVERLAY, 0, STATIC
        ARGFRAME ISTACK, 0, STACK
        ARGFRAME PSTACK, 0, STACK
        ARGFRAME XSTACK, 20, STACK
        ARGFRAME IOVERLAY, 0, STATIC
        ARGFRAME DOVERLAY, 0, STATIC
        REQUIRE ?V0
        REQUIRE ?V1
        REQUIRE ?V2
        REQUIRE ?V3
        REQUIRE ?V4
        REQUIRE ?V5
        REQUIRE ?V6
        REQUIRE ?V7
        MOV       A,#-0x10
        LCALL     ?BANKED_ENTER_XDATA
          CFI DPH0 load(1, XDATA, add(CFA_XSP16, literal(-1)))
          CFI DPL0 load(1, XDATA, add(CFA_XSP16, literal(-2)))
          CFI ?BRET_EXT load(1, XDATA, add(CFA_XSP16, literal(-3)))
          CFI ?RET_HIGH load(1, XDATA, add(CFA_XSP16, literal(-4)))
          CFI ?RET_LOW load(1, XDATA, add(CFA_XSP16, literal(-5)))
          CFI R7 load(1, XDATA, add(CFA_XSP16, literal(-6)))
          CFI V7 load(1, XDATA, add(CFA_XSP16, literal(-7)))
          CFI V6 load(1, XDATA, add(CFA_XSP16, literal(-8)))
          CFI V5 load(1, XDATA, add(CFA_XSP16, literal(-9)))
          CFI V4 load(1, XDATA, add(CFA_XSP16, literal(-10)))
          CFI V3 load(1, XDATA, add(CFA_XSP16, literal(-11)))
          CFI V2 load(1, XDATA, add(CFA_XSP16, literal(-12)))
          CFI V1 load(1, XDATA, add(CFA_XSP16, literal(-13)))
          CFI V0 load(1, XDATA, add(CFA_XSP16, literal(-14)))
          CFI VB load(1, XDATA, add(CFA_XSP16, literal(-15)))
          CFI R6 load(1, XDATA, add(CFA_XSP16, literal(-16)))
          CFI CFA_SP SP+0
          CFI CFA_XSP16 add(XSP16, 16)
        ; Saved register size: 16
        ; Auto size: 4
        MOV       A,#-0x4
        LCALL     ?ALLOC_XSTACK8
          CFI CFA_XSP16 add(XSP16, 20)
        MOV       ?V7,R1
        MOV       ?V0,R2
        MOV       ?V1,R3
        MOV       A,R4
        MOV       R6,A
        MOV       A,R5
        MOV       R7,A
//  986   uint8 rem = dstOff % OSAL_NV_WORD_SIZE;
        MOV       A,R2
        ANL       A,#0x3
        MOV       ?V6,A
//  987   uint8 tmp[OSAL_NV_WORD_SIZE];
//  988 
//  989   if ( rem )
        JZ        ??CrossCallReturnLabel_112
//  990   {
//  991     dstOff = (dstOff / OSAL_NV_WORD_SIZE) * OSAL_NV_WORD_SIZE;
        MOV       A,#-0x4
        ANL       A,R2
        MOV       ?V0,A
//  992     HalFlashRead(dstPg, dstOff, tmp, OSAL_NV_WORD_SIZE);
        ; Setup parameters for call to function HalFlashRead
        MOV       ?V2,#0x4
        MOV       ?V3,#0x0
        MOV       R0,#?V2
        LCALL     ?PUSH_XSTACK_I_TWO
          CFI CFA_XSP16 add(XSP16, 22)
        MOV       A,#0x2
        LCALL     ?XSTACK_DISP102_8
        MOV       R2,?V0
        LCALL     ??Subroutine61_0 & 0xFFFF
??CrossCallReturnLabel_130:
        LCALL     ?DEALLOC_XSTACK8
          CFI CFA_XSP16 add(XSP16, 20)
??writeBuf_0:
        MOV       A,R6
        ORL       A,R7
        JZ        ??writeBuf_1
//  993 
//  994     while ( (rem < OSAL_NV_WORD_SIZE) && len )
//  995     {
//  996       tmp[rem++] = *buf++;
        MOV       A,#0x14
        LCALL     ?XSTACK_DISP0_8
        LCALL     ??Subroutine64_0 & 0xFFFF
??CrossCallReturnLabel_135:
        PUSH      A
          CFI CFA_SP SP+-1
        MOV       R0,?V6
        LCALL     ?Subroutine32 & 0xFFFF
??CrossCallReturnLabel_61:
        POP       A
          CFI CFA_SP SP+0
        MOVX      @DPTR,A
        MOV       A,#0x14
        LCALL     ?XSTACK_DISP0_8
        LCALL     ?Subroutine21 & 0xFFFF
??CrossCallReturnLabel_34:
        LCALL     ?XSTACK_DISP0_8
        LCALL     ?Subroutine10 & 0xFFFF
??CrossCallReturnLabel_7:
        INC       ?V6
//  997       len--;
        MOV       A,R6
        ADD       A,#-0x1
        DEC       R6
        MOV       A,R7
        ADDC      A,#-0x1
        MOV       R7,A
//  998     }
        MOV       A,?V6
        CLR       C
        SUBB      A,#0x4
        JC        ??writeBuf_0
//  999 
// 1000     writeWord( dstPg, dstOff, tmp );
??writeBuf_1:
        ; Setup parameters for call to function writeWord
        MOV       R4,?XSP + 0
        MOV       R5,?XSP + 1
        MOV       R2,?V0
        MOV       R3,?V1
        MOV       R1,?V7
        LCALL     ??Subroutine59_0 & 0xFFFF
// 1001     dstOff += OSAL_NV_WORD_SIZE;
// 1002   }
// 1003 
// 1004   rem = len % OSAL_NV_WORD_SIZE;
??CrossCallReturnLabel_112:
        MOV       A,R6
        ANL       A,#0x3
        MOV       ?V6,A
// 1005   len /= OSAL_NV_WORD_SIZE;
        MOV       ?V2,R6
        MOV       ?V3,R7
        MOV       A,#0x2
        MOV       R0,#?V2
        LCALL     ?US_SHR
        MOV       R6,?V2
        MOV       R7,?V3
// 1006 
// 1007   if ( len )
        MOV       A,R6
        ORL       A,R7
        JZ        ??CrossCallReturnLabel_8
// 1008   {
// 1009     writeWordM( dstPg, dstOff, buf, len );
        ; Setup parameters for call to function HalFlashWrite
        MOV       R0,#?V2
        LCALL     ?PUSH_XSTACK_I_TWO
          CFI CFA_XSP16 add(XSP16, 22)
        MOV       A,#0x16
        LCALL     ?XSTACK_DISP0_8
        LCALL     ?Subroutine27 & 0xFFFF
??CrossCallReturnLabel_51:
        MOV       ?V2,?V0
        MOV       ?V3,?V1
        MOV       A,#0x2
        MOV       R0,#?V2
        LCALL     ?US_SHR
        MOV       A,?V7
        MOV       ?V4,A
        MOV       ?V5,#0x0
        MOV       A,#0x9
        MOV       R0,#?V4
        LCALL     ?S_SHL
        MOV       A,?V2
        ADD       A,#0x0
        MOV       R2,A
        MOV       A,?V3
        ADDC      A,?V5
        MOV       R3,A
        LCALL     `??HalFlashWrite::?relay`; Banked call to: HalFlashWrite
        MOV       A,#0x2
        LCALL     ?DEALLOC_XSTACK8
          CFI CFA_XSP16 add(XSP16, 20)
// 1010     dstOff += OSAL_NV_WORD_SIZE * len;
        MOV       ?V2,R6
        MOV       ?V3,R7
        MOV       A,#0x2
        MOV       R0,#?V2
        LCALL     ?S_SHL
        MOV       R0,?V2
        MOV       R1,?V3
        MOV       A,?V0
        ADD       A,R0
        MOV       ?V0,A
        MOV       A,?V1
        ADDC      A,R1
        MOV       ?V1,A
// 1011     buf += OSAL_NV_WORD_SIZE * len;
        MOV       A,#0x14
        LCALL     ?XSTACK_DISP0_8
        MOVX      A,@DPTR
        ADD       A,R0
        MOV       R0,A
        INC       DPTR
        MOVX      A,@DPTR
        ADDC      A,R1
        MOV       R1,A
        MOV       A,#0x14
        LCALL     ?XSTACK_DISP0_8
        LCALL     ?Subroutine10 & 0xFFFF
// 1012   }
// 1013 
// 1014   if ( rem )
??CrossCallReturnLabel_8:
        MOV       A,?V6
        JZ        ??writeBuf_2
// 1015   {
// 1016     uint8 idx = 0;
        MOV       R6,#0x0
// 1017     HalFlashRead(dstPg, dstOff, tmp, OSAL_NV_WORD_SIZE);
        ; Setup parameters for call to function HalFlashRead
        MOV       ?V2,#0x4
        MOV       ?V3,R6
        MOV       R0,#?V2
        LCALL     ?PUSH_XSTACK_I_TWO
          CFI CFA_XSP16 add(XSP16, 22)
        MOV       A,#0x2
        LCALL     ?XSTACK_DISP102_8
        MOV       R2,?V0
        MOV       R3,?V1
        MOV       R1,?V7
        LCALL     ??Subroutine61_0 & 0xFFFF
??CrossCallReturnLabel_131:
        LCALL     ?DEALLOC_XSTACK8
          CFI CFA_XSP16 add(XSP16, 20)
        SJMP      ??writeBuf_3
// 1018     while ( rem-- )
// 1019     {
// 1020       tmp[idx++] = *buf++;
??writeBuf_4:
        MOV       A,#0x14
        LCALL     ?XSTACK_DISP0_8
        LCALL     ??Subroutine64_0 & 0xFFFF
// 1021     }
??CrossCallReturnLabel_136:
        PUSH      A
          CFI CFA_SP SP+-1
        MOV       A,R6
        MOV       R0,A
        LCALL     ?Subroutine32 & 0xFFFF
??CrossCallReturnLabel_62:
        POP       A
          CFI CFA_SP SP+0
        MOVX      @DPTR,A
        MOV       A,#0x14
        LCALL     ?XSTACK_DISP0_8
        LCALL     ?Subroutine21 & 0xFFFF
??CrossCallReturnLabel_35:
        LCALL     ?XSTACK_DISP0_8
        LCALL     ?Subroutine10 & 0xFFFF
??CrossCallReturnLabel_9:
        INC       R6
??writeBuf_3:
        MOV       R7,?V6
        MOV       A,#-0x1
        ADD       A,R7
        MOV       ?V6,A
        INC       A
        JNZ       ??writeBuf_4
// 1022     writeWord( dstPg, dstOff, tmp );
        ; Setup parameters for call to function writeWord
        MOV       R4,?XSP + 0
        MOV       R5,?XSP + 1
        MOV       R2,?V0
        MOV       R3,?V1
        MOV       R1,?V7
        LCALL     `??writeWord::?relay`; Banked call to: writeWord
// 1023   }
// 1024 }
??writeBuf_2:
        MOV       A,#0x4
        LJMP      ??Subroutine62_0 & 0xFFFF
          CFI EndBlock cfiBlock100

        RSEG BANKED_CODE:HUGECODE:NOROOT(0)
?Subroutine32:
          CFI Block cfiCond101 Using cfiCommon0
          CFI Function writeBuf
          CFI Conditional ??CrossCallReturnLabel_61
          CFI R6 load(1, XDATA, add(CFA_XSP16, literal(-16)))
          CFI VB load(1, XDATA, add(CFA_XSP16, literal(-15)))
          CFI V0 load(1, XDATA, add(CFA_XSP16, literal(-14)))
          CFI V1 load(1, XDATA, add(CFA_XSP16, literal(-13)))
          CFI V2 load(1, XDATA, add(CFA_XSP16, literal(-12)))
          CFI V3 load(1, XDATA, add(CFA_XSP16, literal(-11)))
          CFI V4 load(1, XDATA, add(CFA_XSP16, literal(-10)))
          CFI V5 load(1, XDATA, add(CFA_XSP16, literal(-9)))
          CFI V6 load(1, XDATA, add(CFA_XSP16, literal(-8)))
          CFI V7 load(1, XDATA, add(CFA_XSP16, literal(-7)))
          CFI R7 load(1, XDATA, add(CFA_XSP16, literal(-6)))
          CFI ?RET_LOW load(1, XDATA, add(CFA_XSP16, literal(-5)))
          CFI ?RET_HIGH load(1, XDATA, add(CFA_XSP16, literal(-4)))
          CFI ?BRET_EXT load(1, XDATA, add(CFA_XSP16, literal(-3)))
          CFI DPL0 load(1, XDATA, add(CFA_XSP16, literal(-2)))
          CFI DPH0 load(1, XDATA, add(CFA_XSP16, literal(-1)))
          CFI CFA_XSP16 add(XSP16, 20)
          CFI Block cfiCond102 Using cfiCommon0
          CFI (cfiCond102) Function writeBuf
          CFI (cfiCond102) Conditional ??CrossCallReturnLabel_62
          CFI (cfiCond102) R6 load(1, XDATA, add(CFA_XSP16, literal(-16)))
          CFI (cfiCond102) VB load(1, XDATA, add(CFA_XSP16, literal(-15)))
          CFI (cfiCond102) V0 load(1, XDATA, add(CFA_XSP16, literal(-14)))
          CFI (cfiCond102) V1 load(1, XDATA, add(CFA_XSP16, literal(-13)))
          CFI (cfiCond102) V2 load(1, XDATA, add(CFA_XSP16, literal(-12)))
          CFI (cfiCond102) V3 load(1, XDATA, add(CFA_XSP16, literal(-11)))
          CFI (cfiCond102) V4 load(1, XDATA, add(CFA_XSP16, literal(-10)))
          CFI (cfiCond102) V5 load(1, XDATA, add(CFA_XSP16, literal(-9)))
          CFI (cfiCond102) V6 load(1, XDATA, add(CFA_XSP16, literal(-8)))
          CFI (cfiCond102) V7 load(1, XDATA, add(CFA_XSP16, literal(-7)))
          CFI (cfiCond102) R7 load(1, XDATA, add(CFA_XSP16, literal(-6)))
          CFI (cfiCond102) ?RET_LOW load(1, XDATA, add(CFA_XSP16, literal(-5)))
          CFI (cfiCond102) ?RET_HIGH load(1, XDATA, add(CFA_XSP16, literal(-4)))
          CFI (cfiCond102) ?BRET_EXT load(1, XDATA, add(CFA_XSP16, literal(-3)))
          CFI (cfiCond102) DPL0 load(1, XDATA, add(CFA_XSP16, literal(-2)))
          CFI (cfiCond102) DPH0 load(1, XDATA, add(CFA_XSP16, literal(-1)))
          CFI (cfiCond102) CFA_XSP16 add(XSP16, 20)
          CFI Block cfiPicker103 Using cfiCommon1
          CFI (cfiPicker103) NoFunction
          CFI (cfiPicker103) Picker
        MOV       DPL,?XSP + 0
        MOV       DPH,?XSP + 1
        MOV       A,DPL
        ADD       A,R0
        MOV       DPL,A
        CLR       A
        ADDC      A,DPH
        MOV       DPH,A
        RET
          CFI EndBlock cfiCond101
          CFI EndBlock cfiCond102
          CFI EndBlock cfiPicker103

        RSEG BANKED_CODE:HUGECODE:NOROOT(0)
?Subroutine21:
          CFI Block cfiCond104 Using cfiCommon0
          CFI Function writeBuf
          CFI Conditional ??CrossCallReturnLabel_34
          CFI R6 load(1, XDATA, add(CFA_XSP16, literal(-16)))
          CFI VB load(1, XDATA, add(CFA_XSP16, literal(-15)))
          CFI V0 load(1, XDATA, add(CFA_XSP16, literal(-14)))
          CFI V1 load(1, XDATA, add(CFA_XSP16, literal(-13)))
          CFI V2 load(1, XDATA, add(CFA_XSP16, literal(-12)))
          CFI V3 load(1, XDATA, add(CFA_XSP16, literal(-11)))
          CFI V4 load(1, XDATA, add(CFA_XSP16, literal(-10)))
          CFI V5 load(1, XDATA, add(CFA_XSP16, literal(-9)))
          CFI V6 load(1, XDATA, add(CFA_XSP16, literal(-8)))
          CFI V7 load(1, XDATA, add(CFA_XSP16, literal(-7)))
          CFI R7 load(1, XDATA, add(CFA_XSP16, literal(-6)))
          CFI ?RET_LOW load(1, XDATA, add(CFA_XSP16, literal(-5)))
          CFI ?RET_HIGH load(1, XDATA, add(CFA_XSP16, literal(-4)))
          CFI ?BRET_EXT load(1, XDATA, add(CFA_XSP16, literal(-3)))
          CFI DPL0 load(1, XDATA, add(CFA_XSP16, literal(-2)))
          CFI DPH0 load(1, XDATA, add(CFA_XSP16, literal(-1)))
          CFI CFA_SP SP+-2
          CFI CFA_XSP16 add(XSP16, 20)
          CFI Block cfiCond105 Using cfiCommon0
          CFI (cfiCond105) Function writeBuf
          CFI (cfiCond105) Conditional ??CrossCallReturnLabel_35
          CFI (cfiCond105) R6 load(1, XDATA, add(CFA_XSP16, literal(-16)))
          CFI (cfiCond105) VB load(1, XDATA, add(CFA_XSP16, literal(-15)))
          CFI (cfiCond105) V0 load(1, XDATA, add(CFA_XSP16, literal(-14)))
          CFI (cfiCond105) V1 load(1, XDATA, add(CFA_XSP16, literal(-13)))
          CFI (cfiCond105) V2 load(1, XDATA, add(CFA_XSP16, literal(-12)))
          CFI (cfiCond105) V3 load(1, XDATA, add(CFA_XSP16, literal(-11)))
          CFI (cfiCond105) V4 load(1, XDATA, add(CFA_XSP16, literal(-10)))
          CFI (cfiCond105) V5 load(1, XDATA, add(CFA_XSP16, literal(-9)))
          CFI (cfiCond105) V6 load(1, XDATA, add(CFA_XSP16, literal(-8)))
          CFI (cfiCond105) V7 load(1, XDATA, add(CFA_XSP16, literal(-7)))
          CFI (cfiCond105) R7 load(1, XDATA, add(CFA_XSP16, literal(-6)))
          CFI (cfiCond105) ?RET_LOW load(1, XDATA, add(CFA_XSP16, literal(-5)))
          CFI (cfiCond105) ?RET_HIGH load(1, XDATA, add(CFA_XSP16, literal(-4)))
          CFI (cfiCond105) ?BRET_EXT load(1, XDATA, add(CFA_XSP16, literal(-3)))
          CFI (cfiCond105) DPL0 load(1, XDATA, add(CFA_XSP16, literal(-2)))
          CFI (cfiCond105) DPH0 load(1, XDATA, add(CFA_XSP16, literal(-1)))
          CFI (cfiCond105) CFA_SP SP+-2
          CFI (cfiCond105) CFA_XSP16 add(XSP16, 20)
          CFI Block cfiPicker106 Using cfiCommon1
          CFI (cfiPicker106) NoFunction
          CFI (cfiPicker106) Picker
        MOVX      A,@DPTR
        ADD       A,#0x1
        MOV       R0,A
        INC       DPTR
        MOVX      A,@DPTR
        ADDC      A,#0x0
        MOV       R1,A
        MOV       A,#0x14
        RET
          CFI EndBlock cfiCond104
          CFI EndBlock cfiCond105
          CFI EndBlock cfiPicker106
// 1025 
// 1026 /*********************************************************************
// 1027  * @fn      xferBuf
// 1028  *
// 1029  * @brief   Xfers an NV buffer from one location to another, enforcing OSAL_NV_WORD_SIZE writes.
// 1030  *
// 1031  * @return  none
// 1032  */

        RSEG BANKED_CODE:HUGECODE:NOROOT(0)
// 1033 static void xferBuf( uint8 srcPg, uint16 srcOff, uint8 dstPg, uint16 dstOff, uint16 len )
xferBuf:
          CFI Block cfiBlock107 Using cfiCommon0
          CFI Function xferBuf
        CODE
// 1034 {
        FUNCALL xferBuf, HalFlashRead
        LOCFRAME ISTACK, 0, STACK
        LOCFRAME PSTACK, 0, STACK
        LOCFRAME XSTACK, 23, STACK
        LOCFRAME IOVERLAY, 0, STATIC
        LOCFRAME DOVERLAY, 0, STATIC
        ARGFRAME ISTACK, 0, STACK
        ARGFRAME PSTACK, 0, STACK
        ARGFRAME XSTACK, 23, STACK
        ARGFRAME IOVERLAY, 0, STATIC
        ARGFRAME DOVERLAY, 0, STATIC
        FUNCALL xferBuf, HalFlashRead
        LOCFRAME ISTACK, 0, STACK
        LOCFRAME PSTACK, 0, STACK
        LOCFRAME XSTACK, 23, STACK
        LOCFRAME IOVERLAY, 0, STATIC
        LOCFRAME DOVERLAY, 0, STATIC
        ARGFRAME ISTACK, 0, STACK
        ARGFRAME PSTACK, 0, STACK
        ARGFRAME XSTACK, 23, STACK
        ARGFRAME IOVERLAY, 0, STATIC
        ARGFRAME DOVERLAY, 0, STATIC
        FUNCALL xferBuf, writeWord
        LOCFRAME ISTACK, 0, STACK
        LOCFRAME PSTACK, 0, STACK
        LOCFRAME XSTACK, 21, STACK
        LOCFRAME IOVERLAY, 0, STATIC
        LOCFRAME DOVERLAY, 0, STATIC
        ARGFRAME ISTACK, 0, STACK
        ARGFRAME PSTACK, 0, STACK
        ARGFRAME XSTACK, 21, STACK
        ARGFRAME IOVERLAY, 0, STATIC
        ARGFRAME DOVERLAY, 0, STATIC
        FUNCALL xferBuf, HalFlashRead
        LOCFRAME ISTACK, 0, STACK
        LOCFRAME PSTACK, 0, STACK
        LOCFRAME XSTACK, 23, STACK
        LOCFRAME IOVERLAY, 0, STATIC
        LOCFRAME DOVERLAY, 0, STATIC
        ARGFRAME ISTACK, 0, STACK
        ARGFRAME PSTACK, 0, STACK
        ARGFRAME XSTACK, 23, STACK
        ARGFRAME IOVERLAY, 0, STATIC
        ARGFRAME DOVERLAY, 0, STATIC
        FUNCALL xferBuf, writeWord
        LOCFRAME ISTACK, 0, STACK
        LOCFRAME PSTACK, 0, STACK
        LOCFRAME XSTACK, 21, STACK
        LOCFRAME IOVERLAY, 0, STATIC
        LOCFRAME DOVERLAY, 0, STATIC
        ARGFRAME ISTACK, 0, STACK
        ARGFRAME PSTACK, 0, STACK
        ARGFRAME XSTACK, 21, STACK
        ARGFRAME IOVERLAY, 0, STATIC
        ARGFRAME DOVERLAY, 0, STATIC
        FUNCALL xferBuf, HalFlashRead
        LOCFRAME ISTACK, 0, STACK
        LOCFRAME PSTACK, 0, STACK
        LOCFRAME XSTACK, 23, STACK
        LOCFRAME IOVERLAY, 0, STATIC
        LOCFRAME DOVERLAY, 0, STATIC
        ARGFRAME ISTACK, 0, STACK
        ARGFRAME PSTACK, 0, STACK
        ARGFRAME XSTACK, 23, STACK
        ARGFRAME IOVERLAY, 0, STATIC
        ARGFRAME DOVERLAY, 0, STATIC
        FUNCALL xferBuf, HalFlashRead
        LOCFRAME ISTACK, 0, STACK
        LOCFRAME PSTACK, 0, STACK
        LOCFRAME XSTACK, 23, STACK
        LOCFRAME IOVERLAY, 0, STATIC
        LOCFRAME DOVERLAY, 0, STATIC
        ARGFRAME ISTACK, 0, STACK
        ARGFRAME PSTACK, 0, STACK
        ARGFRAME XSTACK, 23, STACK
        ARGFRAME IOVERLAY, 0, STATIC
        ARGFRAME DOVERLAY, 0, STATIC
        FUNCALL xferBuf, writeWord
        LOCFRAME ISTACK, 0, STACK
        LOCFRAME PSTACK, 0, STACK
        LOCFRAME XSTACK, 21, STACK
        LOCFRAME IOVERLAY, 0, STATIC
        LOCFRAME DOVERLAY, 0, STATIC
        ARGFRAME ISTACK, 0, STACK
        ARGFRAME PSTACK, 0, STACK
        ARGFRAME XSTACK, 21, STACK
        ARGFRAME IOVERLAY, 0, STATIC
        ARGFRAME DOVERLAY, 0, STATIC
        REQUIRE ?V0
        REQUIRE ?V1
        REQUIRE ?V2
        REQUIRE ?V3
        REQUIRE ?V4
        REQUIRE ?V5
        REQUIRE ?V6
        REQUIRE ?V7
        MOV       A,#-0x10
        LCALL     ?BANKED_ENTER_XDATA
          CFI DPH0 load(1, XDATA, add(CFA_XSP16, literal(-1)))
          CFI DPL0 load(1, XDATA, add(CFA_XSP16, literal(-2)))
          CFI ?BRET_EXT load(1, XDATA, add(CFA_XSP16, literal(-3)))
          CFI ?RET_HIGH load(1, XDATA, add(CFA_XSP16, literal(-4)))
          CFI ?RET_LOW load(1, XDATA, add(CFA_XSP16, literal(-5)))
          CFI R7 load(1, XDATA, add(CFA_XSP16, literal(-6)))
          CFI V7 load(1, XDATA, add(CFA_XSP16, literal(-7)))
          CFI V6 load(1, XDATA, add(CFA_XSP16, literal(-8)))
          CFI V5 load(1, XDATA, add(CFA_XSP16, literal(-9)))
          CFI V4 load(1, XDATA, add(CFA_XSP16, literal(-10)))
          CFI V3 load(1, XDATA, add(CFA_XSP16, literal(-11)))
          CFI V2 load(1, XDATA, add(CFA_XSP16, literal(-12)))
          CFI V1 load(1, XDATA, add(CFA_XSP16, literal(-13)))
          CFI V0 load(1, XDATA, add(CFA_XSP16, literal(-14)))
          CFI VB load(1, XDATA, add(CFA_XSP16, literal(-15)))
          CFI R6 load(1, XDATA, add(CFA_XSP16, literal(-16)))
          CFI CFA_SP SP+0
          CFI CFA_XSP16 add(XSP16, 16)
        ; Saved register size: 16
        ; Auto size: 5
        MOV       A,#-0x5
        LCALL     ?ALLOC_XSTACK8
          CFI CFA_XSP16 add(XSP16, 21)
        MOV       A,R1
        MOV       DPL,?XSP + 0
        MOV       DPH,?XSP + 1
        MOVX      @DPTR,A
        MOV       ?V6,R2
        MOV       ?V7,R3
        MOV       ?V3,R4
        MOV       A,#0x15
        LCALL     ?XSTACK_DISP0_8
        LCALL     ?Subroutine19 & 0xFFFF
// 1035   uint8 rem = dstOff % OSAL_NV_WORD_SIZE;
??CrossCallReturnLabel_29:
        MOV       A,?V0
        ANL       A,#0x3
        MOV       ?V2,A
        MOV       A,#0x17
        LCALL     ?XSTACK_DISP0_8
        MOVX      A,@DPTR
        MOV       R6,A
        INC       DPTR
        MOVX      A,@DPTR
        MOV       R7,A
// 1036   uint8 tmp[OSAL_NV_WORD_SIZE];
// 1037 
// 1038   if ( rem )
        MOV       A,?V2
        JZ        ??CrossCallReturnLabel_110
// 1039   {
// 1040     dstOff -= rem;
        MOV       R0,A
        CLR       C
        MOV       A,?V0
        SUBB      A,R0
        MOV       ?V0,A
        MOV       A,?V1
        SUBB      A,#0x0
        MOV       ?V1,A
// 1041     HalFlashRead(dstPg, dstOff, tmp, OSAL_NV_WORD_SIZE);
        ; Setup parameters for call to function HalFlashRead
        MOV       ?V4,#0x4
        MOV       ?V5,#0x0
        MOV       R0,#?V4
        LCALL     ?PUSH_XSTACK_I_TWO
          CFI CFA_XSP16 add(XSP16, 23)
        MOV       A,#0x3
        LCALL     ?XSTACK_DISP102_8
        MOV       R2,?V0
        MOV       R3,?V1
        MOV       R1,?V3
        LCALL     ??Subroutine61_0 & 0xFFFF
??CrossCallReturnLabel_132:
        LCALL     ?DEALLOC_XSTACK8
          CFI CFA_XSP16 add(XSP16, 21)
??xferBuf_0:
        MOV       A,R6
        ORL       A,R7
        JZ        ??xferBuf_1
// 1042 
// 1043     while ( (rem < OSAL_NV_WORD_SIZE) && len )
// 1044     {
// 1045       HalFlashRead(srcPg, srcOff, tmp+rem, 1);
        ; Setup parameters for call to function HalFlashRead
        MOV       ?V4,#0x1
        MOV       R0,#?V4
        LCALL     ?PUSH_XSTACK_I_TWO
          CFI CFA_XSP16 add(XSP16, 23)
        MOV       R0,?V2
        MOV       A,#0x3
        LCALL     ?XSTACK_DISP0_8
        LCALL     ?Subroutine31 & 0xFFFF
??CrossCallReturnLabel_59:
        LCALL     ?XSTACK_DISP0_8
        LCALL     ?Subroutine11 & 0xFFFF
??CrossCallReturnLabel_116:
        LCALL     ?DEALLOC_XSTACK8
          CFI CFA_XSP16 add(XSP16, 21)
// 1046       srcOff++;
        INC       ?V6
        MOV       A,?V6
        JNZ       ??xferBuf_2
        INC       ?V7
// 1047       rem++;
??xferBuf_2:
        INC       ?V2
// 1048       len--;
        MOV       A,R6
        ADD       A,#-0x1
        DEC       R6
        MOV       A,R7
        ADDC      A,#-0x1
        MOV       R7,A
// 1049     }
        MOV       A,?V2
        CLR       C
        SUBB      A,#0x4
        JC        ??xferBuf_0
// 1050 
// 1051     writeWord( dstPg, dstOff, tmp );
??xferBuf_1:
        ; Setup parameters for call to function writeWord
        MOV       A,#0x1
        LCALL     ?XSTACK_DISP102_8
        LCALL     ?Subroutine33 & 0xFFFF
// 1052     dstOff += OSAL_NV_WORD_SIZE;
// 1053   }
// 1054 
// 1055   rem = len % OSAL_NV_WORD_SIZE;
??CrossCallReturnLabel_110:
        MOV       A,R6
        ANL       A,#0x3
        MOV       ?V2,A
// 1056   len /= OSAL_NV_WORD_SIZE;
        MOV       ?V4,R6
        MOV       ?V5,R7
        MOV       A,#0x2
        MOV       R0,#?V4
        LCALL     ?US_SHR
        MOV       R6,?V4
        MOV       R7,?V5
        SJMP      ??CrossCallReturnLabel_111
// 1057 
// 1058   while ( len-- )
// 1059   {
// 1060     HalFlashRead(srcPg, srcOff, tmp, OSAL_NV_WORD_SIZE);
??xferBuf_3:
        ; Setup parameters for call to function HalFlashRead
        MOV       ?V4,#0x4
        MOV       ?V5,#0x0
        MOV       R0,#?V4
        LCALL     ?PUSH_XSTACK_I_TWO
          CFI CFA_XSP16 add(XSP16, 23)
        MOV       A,#0x3
        LCALL     ?XSTACK_DISP102_8
        MOV       R2,?V6
        MOV       R3,?V7
        MOV       A,#0x2
        LCALL     ?XSTACK_DISP0_8
        LCALL     ?Subroutine11 & 0xFFFF
??CrossCallReturnLabel_117:
        LCALL     ?DEALLOC_XSTACK8
          CFI CFA_XSP16 add(XSP16, 21)
// 1061     srcOff += OSAL_NV_WORD_SIZE;
        MOV       A,?V6
        ADD       A,#0x4
        MOV       ?V6,A
        CLR       A
        ADDC      A,?V7
        MOV       ?V7,A
// 1062     writeWord( dstPg, dstOff, tmp );
        ; Setup parameters for call to function writeWord
        MOV       A,#0x1
        LCALL     ?XSTACK_DISP102_8
        LCALL     ?Subroutine33 & 0xFFFF
// 1063     dstOff += OSAL_NV_WORD_SIZE;
// 1064   }
??CrossCallReturnLabel_111:
        LCALL     ?Subroutine43 & 0xFFFF
??CrossCallReturnLabel_79:
        JNZ       ??xferBuf_3
// 1065 
// 1066   if ( rem )
        MOV       A,?V2
        JZ        ??xferBuf_4
// 1067   {
// 1068     uint8 idx = 0;
        MOV       R6,#0x0
// 1069     HalFlashRead(dstPg, dstOff, tmp, OSAL_NV_WORD_SIZE);
        ; Setup parameters for call to function HalFlashRead
        MOV       ?V4,#0x4
        MOV       ?V5,R6
        MOV       R0,#?V4
        LCALL     ?PUSH_XSTACK_I_TWO
          CFI CFA_XSP16 add(XSP16, 23)
        MOV       A,#0x3
        LCALL     ?XSTACK_DISP102_8
        MOV       R2,?V0
        MOV       R3,?V1
        MOV       R1,?V3
        LCALL     ??Subroutine61_0 & 0xFFFF
??CrossCallReturnLabel_133:
        LCALL     ?DEALLOC_XSTACK8
          CFI CFA_XSP16 add(XSP16, 21)
        SJMP      ??xferBuf_5
// 1070     while ( rem-- )
// 1071     {
// 1072       HalFlashRead(srcPg, srcOff, tmp+idx, 1);
??xferBuf_6:
        ; Setup parameters for call to function HalFlashRead
        MOV       ?V4,#0x1
        MOV       R0,#?V4
        LCALL     ?PUSH_XSTACK_I_TWO
          CFI CFA_XSP16 add(XSP16, 23)
        MOV       A,R6
        MOV       R0,A
        MOV       A,#0x3
        LCALL     ?XSTACK_DISP0_8
        LCALL     ?Subroutine31 & 0xFFFF
??CrossCallReturnLabel_60:
        LCALL     ?XSTACK_DISP0_8
        LCALL     ?Subroutine11 & 0xFFFF
??CrossCallReturnLabel_118:
        LCALL     ?DEALLOC_XSTACK8
          CFI CFA_XSP16 add(XSP16, 21)
// 1073       srcOff++;
        INC       ?V6
        MOV       A,?V6
        JNZ       ??xferBuf_7
        INC       ?V7
// 1074       idx++;
??xferBuf_7:
        INC       R6
// 1075     }
??xferBuf_5:
        MOV       R7,?V2
        MOV       A,#-0x1
        ADD       A,R7
        MOV       ?V2,A
        INC       A
        JNZ       ??xferBuf_6
// 1076     writeWord( dstPg, dstOff, tmp );
        ; Setup parameters for call to function writeWord
        MOV       A,#0x1
        LCALL     ?XSTACK_DISP102_8
        MOV       R2,?V0
        MOV       R3,?V1
        MOV       R1,?V3
        LCALL     `??writeWord::?relay`; Banked call to: writeWord
// 1077   }
// 1078 }
??xferBuf_4:
        MOV       A,#0x5
        SJMP      ??Subroutine62_0
          CFI EndBlock cfiBlock107

        RSEG BANKED_CODE:HUGECODE:NOROOT(0)
?Subroutine43:
          CFI Block cfiCond108 Using cfiCommon0
          CFI Function calcChkF
          CFI Conditional ??CrossCallReturnLabel_78
          CFI R6 load(1, XDATA, add(CFA_XSP16, literal(-15)))
          CFI VB load(1, XDATA, add(CFA_XSP16, literal(-14)))
          CFI V0 load(1, XDATA, add(CFA_XSP16, literal(-13)))
          CFI V1 load(1, XDATA, add(CFA_XSP16, literal(-12)))
          CFI V2 load(1, XDATA, add(CFA_XSP16, literal(-11)))
          CFI V3 load(1, XDATA, add(CFA_XSP16, literal(-10)))
          CFI V4 load(1, XDATA, add(CFA_XSP16, literal(-9)))
          CFI V5 load(1, XDATA, add(CFA_XSP16, literal(-8)))
          CFI V6 load(1, XDATA, add(CFA_XSP16, literal(-7)))
          CFI R7 load(1, XDATA, add(CFA_XSP16, literal(-6)))
          CFI ?RET_LOW load(1, XDATA, add(CFA_XSP16, literal(-5)))
          CFI ?RET_HIGH load(1, XDATA, add(CFA_XSP16, literal(-4)))
          CFI ?BRET_EXT load(1, XDATA, add(CFA_XSP16, literal(-3)))
          CFI DPL0 load(1, XDATA, add(CFA_XSP16, literal(-2)))
          CFI DPH0 load(1, XDATA, add(CFA_XSP16, literal(-1)))
          CFI CFA_SP SP+-2
          CFI CFA_XSP16 add(XSP16, 19)
          CFI Block cfiCond109 Using cfiCommon0
          CFI (cfiCond109) Function xferBuf
          CFI (cfiCond109) Conditional ??CrossCallReturnLabel_79
          CFI (cfiCond109) R6 load(1, XDATA, add(CFA_XSP16, literal(-16)))
          CFI (cfiCond109) VB load(1, XDATA, add(CFA_XSP16, literal(-15)))
          CFI (cfiCond109) V0 load(1, XDATA, add(CFA_XSP16, literal(-14)))
          CFI (cfiCond109) V1 load(1, XDATA, add(CFA_XSP16, literal(-13)))
          CFI (cfiCond109) V2 load(1, XDATA, add(CFA_XSP16, literal(-12)))
          CFI (cfiCond109) V3 load(1, XDATA, add(CFA_XSP16, literal(-11)))
          CFI (cfiCond109) V4 load(1, XDATA, add(CFA_XSP16, literal(-10)))
          CFI (cfiCond109) V5 load(1, XDATA, add(CFA_XSP16, literal(-9)))
          CFI (cfiCond109) V6 load(1, XDATA, add(CFA_XSP16, literal(-8)))
          CFI (cfiCond109) V7 load(1, XDATA, add(CFA_XSP16, literal(-7)))
          CFI (cfiCond109) R7 load(1, XDATA, add(CFA_XSP16, literal(-6)))
          CFI (cfiCond109) ?RET_LOW load(1, XDATA, add(CFA_XSP16, literal(-5)))
          CFI (cfiCond109) ?RET_HIGH load(1, XDATA, add(CFA_XSP16, literal(-4)))
          CFI (cfiCond109) ?BRET_EXT load(1, XDATA, add(CFA_XSP16, literal(-3)))
          CFI (cfiCond109) DPL0 load(1, XDATA, add(CFA_XSP16, literal(-2)))
          CFI (cfiCond109) DPH0 load(1, XDATA, add(CFA_XSP16, literal(-1)))
          CFI (cfiCond109) CFA_SP SP+-2
          CFI (cfiCond109) CFA_XSP16 add(XSP16, 21)
          CFI Block cfiCond110 Using cfiCommon0
          CFI (cfiCond110) Function osal_nv_write
          CFI (cfiCond110) Conditional ??CrossCallReturnLabel_80
          CFI (cfiCond110) R6 load(1, XDATA, add(CFA_XSP16, literal(-16)))
          CFI (cfiCond110) VB load(1, XDATA, add(CFA_XSP16, literal(-15)))
          CFI (cfiCond110) V0 load(1, XDATA, add(CFA_XSP16, literal(-14)))
          CFI (cfiCond110) V1 load(1, XDATA, add(CFA_XSP16, literal(-13)))
          CFI (cfiCond110) V2 load(1, XDATA, add(CFA_XSP16, literal(-12)))
          CFI (cfiCond110) V3 load(1, XDATA, add(CFA_XSP16, literal(-11)))
          CFI (cfiCond110) V4 load(1, XDATA, add(CFA_XSP16, literal(-10)))
          CFI (cfiCond110) V5 load(1, XDATA, add(CFA_XSP16, literal(-9)))
          CFI (cfiCond110) V6 load(1, XDATA, add(CFA_XSP16, literal(-8)))
          CFI (cfiCond110) V7 load(1, XDATA, add(CFA_XSP16, literal(-7)))
          CFI (cfiCond110) R7 load(1, XDATA, add(CFA_XSP16, literal(-6)))
          CFI (cfiCond110) ?RET_LOW load(1, XDATA, add(CFA_XSP16, literal(-5)))
          CFI (cfiCond110) ?RET_HIGH load(1, XDATA, add(CFA_XSP16, literal(-4)))
          CFI (cfiCond110) ?BRET_EXT load(1, XDATA, add(CFA_XSP16, literal(-3)))
          CFI (cfiCond110) DPL0 load(1, XDATA, add(CFA_XSP16, literal(-2)))
          CFI (cfiCond110) DPH0 load(1, XDATA, add(CFA_XSP16, literal(-1)))
          CFI (cfiCond110) CFA_SP SP+-2
          CFI (cfiCond110) CFA_XSP16 add(XSP16, 35)
          CFI Block cfiPicker111 Using cfiCommon1
          CFI (cfiPicker111) NoFunction
          CFI (cfiPicker111) Picker
        MOV       A,R6
        MOV       R0,A
        MOV       A,R7
        MOV       R1,A
        MOV       A,R0
        ADD       A,#-0x1
        DEC       R6
        MOV       A,R1
        ADDC      A,#-0x1
        MOV       R7,A
        MOV       A,R0
        ORL       A,R1
        RET
          CFI EndBlock cfiCond108
          CFI EndBlock cfiCond109
          CFI EndBlock cfiCond110
          CFI EndBlock cfiPicker111

        RSEG BANKED_CODE:HUGECODE:NOROOT(0)
?Subroutine33:
          CFI Block cfiCond112 Using cfiCommon0
          CFI Function xferBuf
          CFI Conditional ??CrossCallReturnLabel_110
          CFI R6 load(1, XDATA, add(CFA_XSP16, literal(-16)))
          CFI VB load(1, XDATA, add(CFA_XSP16, literal(-15)))
          CFI V0 load(1, XDATA, add(CFA_XSP16, literal(-14)))
          CFI V1 load(1, XDATA, add(CFA_XSP16, literal(-13)))
          CFI V2 load(1, XDATA, add(CFA_XSP16, literal(-12)))
          CFI V3 load(1, XDATA, add(CFA_XSP16, literal(-11)))
          CFI V4 load(1, XDATA, add(CFA_XSP16, literal(-10)))
          CFI V5 load(1, XDATA, add(CFA_XSP16, literal(-9)))
          CFI V6 load(1, XDATA, add(CFA_XSP16, literal(-8)))
          CFI V7 load(1, XDATA, add(CFA_XSP16, literal(-7)))
          CFI R7 load(1, XDATA, add(CFA_XSP16, literal(-6)))
          CFI ?RET_LOW load(1, XDATA, add(CFA_XSP16, literal(-5)))
          CFI ?RET_HIGH load(1, XDATA, add(CFA_XSP16, literal(-4)))
          CFI ?BRET_EXT load(1, XDATA, add(CFA_XSP16, literal(-3)))
          CFI DPL0 load(1, XDATA, add(CFA_XSP16, literal(-2)))
          CFI DPH0 load(1, XDATA, add(CFA_XSP16, literal(-1)))
          CFI CFA_SP SP+-2
          CFI CFA_XSP16 add(XSP16, 21)
          CFI Block cfiCond113 Using cfiCommon0
          CFI (cfiCond113) Function xferBuf
          CFI (cfiCond113) Conditional ??CrossCallReturnLabel_111
          CFI (cfiCond113) R6 load(1, XDATA, add(CFA_XSP16, literal(-16)))
          CFI (cfiCond113) VB load(1, XDATA, add(CFA_XSP16, literal(-15)))
          CFI (cfiCond113) V0 load(1, XDATA, add(CFA_XSP16, literal(-14)))
          CFI (cfiCond113) V1 load(1, XDATA, add(CFA_XSP16, literal(-13)))
          CFI (cfiCond113) V2 load(1, XDATA, add(CFA_XSP16, literal(-12)))
          CFI (cfiCond113) V3 load(1, XDATA, add(CFA_XSP16, literal(-11)))
          CFI (cfiCond113) V4 load(1, XDATA, add(CFA_XSP16, literal(-10)))
          CFI (cfiCond113) V5 load(1, XDATA, add(CFA_XSP16, literal(-9)))
          CFI (cfiCond113) V6 load(1, XDATA, add(CFA_XSP16, literal(-8)))
          CFI (cfiCond113) V7 load(1, XDATA, add(CFA_XSP16, literal(-7)))
          CFI (cfiCond113) R7 load(1, XDATA, add(CFA_XSP16, literal(-6)))
          CFI (cfiCond113) ?RET_LOW load(1, XDATA, add(CFA_XSP16, literal(-5)))
          CFI (cfiCond113) ?RET_HIGH load(1, XDATA, add(CFA_XSP16, literal(-4)))
          CFI (cfiCond113) ?BRET_EXT load(1, XDATA, add(CFA_XSP16, literal(-3)))
          CFI (cfiCond113) DPL0 load(1, XDATA, add(CFA_XSP16, literal(-2)))
          CFI (cfiCond113) DPH0 load(1, XDATA, add(CFA_XSP16, literal(-1)))
          CFI (cfiCond113) CFA_SP SP+-2
          CFI (cfiCond113) CFA_XSP16 add(XSP16, 21)
          CFI Block cfiPicker114 Using cfiCommon1
          CFI (cfiPicker114) NoFunction
          CFI (cfiPicker114) Picker
        MOV       R2,?V0
        MOV       R3,?V1
        MOV       R1,?V3
          CFI EndBlock cfiCond112
          CFI EndBlock cfiCond113
          CFI EndBlock cfiPicker114
        REQUIRE ??Subroutine59_0
        ; // Fall through to label ??Subroutine59_0

        RSEG BANKED_CODE:HUGECODE:NOROOT(0)
??Subroutine59_0:
          CFI Block cfiCond115 Using cfiCommon0
          CFI Function writeBuf
          CFI Conditional ??CrossCallReturnLabel_112
          CFI R6 load(1, XDATA, add(CFA_XSP16, literal(-16)))
          CFI VB load(1, XDATA, add(CFA_XSP16, literal(-15)))
          CFI V0 load(1, XDATA, add(CFA_XSP16, literal(-14)))
          CFI V1 load(1, XDATA, add(CFA_XSP16, literal(-13)))
          CFI V2 load(1, XDATA, add(CFA_XSP16, literal(-12)))
          CFI V3 load(1, XDATA, add(CFA_XSP16, literal(-11)))
          CFI V4 load(1, XDATA, add(CFA_XSP16, literal(-10)))
          CFI V5 load(1, XDATA, add(CFA_XSP16, literal(-9)))
          CFI V6 load(1, XDATA, add(CFA_XSP16, literal(-8)))
          CFI V7 load(1, XDATA, add(CFA_XSP16, literal(-7)))
          CFI R7 load(1, XDATA, add(CFA_XSP16, literal(-6)))
          CFI ?RET_LOW load(1, XDATA, add(CFA_XSP16, literal(-5)))
          CFI ?RET_HIGH load(1, XDATA, add(CFA_XSP16, literal(-4)))
          CFI ?BRET_EXT load(1, XDATA, add(CFA_XSP16, literal(-3)))
          CFI DPL0 load(1, XDATA, add(CFA_XSP16, literal(-2)))
          CFI DPH0 load(1, XDATA, add(CFA_XSP16, literal(-1)))
          CFI CFA_SP SP+-2
          CFI CFA_XSP16 add(XSP16, 20)
          CFI Block cfiCond116 Using cfiCommon0
          CFI (cfiCond116) Function xferBuf
          CFI (cfiCond116) Conditional ??CrossCallReturnLabel_110
          CFI (cfiCond116) R6 load(1, XDATA, add(CFA_XSP16, literal(-16)))
          CFI (cfiCond116) VB load(1, XDATA, add(CFA_XSP16, literal(-15)))
          CFI (cfiCond116) V0 load(1, XDATA, add(CFA_XSP16, literal(-14)))
          CFI (cfiCond116) V1 load(1, XDATA, add(CFA_XSP16, literal(-13)))
          CFI (cfiCond116) V2 load(1, XDATA, add(CFA_XSP16, literal(-12)))
          CFI (cfiCond116) V3 load(1, XDATA, add(CFA_XSP16, literal(-11)))
          CFI (cfiCond116) V4 load(1, XDATA, add(CFA_XSP16, literal(-10)))
          CFI (cfiCond116) V5 load(1, XDATA, add(CFA_XSP16, literal(-9)))
          CFI (cfiCond116) V6 load(1, XDATA, add(CFA_XSP16, literal(-8)))
          CFI (cfiCond116) V7 load(1, XDATA, add(CFA_XSP16, literal(-7)))
          CFI (cfiCond116) R7 load(1, XDATA, add(CFA_XSP16, literal(-6)))
          CFI (cfiCond116) ?RET_LOW load(1, XDATA, add(CFA_XSP16, literal(-5)))
          CFI (cfiCond116) ?RET_HIGH load(1, XDATA, add(CFA_XSP16, literal(-4)))
          CFI (cfiCond116) ?BRET_EXT load(1, XDATA, add(CFA_XSP16, literal(-3)))
          CFI (cfiCond116) DPL0 load(1, XDATA, add(CFA_XSP16, literal(-2)))
          CFI (cfiCond116) DPH0 load(1, XDATA, add(CFA_XSP16, literal(-1)))
          CFI (cfiCond116) CFA_SP SP+-2
          CFI (cfiCond116) CFA_XSP16 add(XSP16, 21)
          CFI Block cfiCond117 Using cfiCommon0
          CFI (cfiCond117) Function xferBuf
          CFI (cfiCond117) Conditional ??CrossCallReturnLabel_111
          CFI (cfiCond117) R6 load(1, XDATA, add(CFA_XSP16, literal(-16)))
          CFI (cfiCond117) VB load(1, XDATA, add(CFA_XSP16, literal(-15)))
          CFI (cfiCond117) V0 load(1, XDATA, add(CFA_XSP16, literal(-14)))
          CFI (cfiCond117) V1 load(1, XDATA, add(CFA_XSP16, literal(-13)))
          CFI (cfiCond117) V2 load(1, XDATA, add(CFA_XSP16, literal(-12)))
          CFI (cfiCond117) V3 load(1, XDATA, add(CFA_XSP16, literal(-11)))
          CFI (cfiCond117) V4 load(1, XDATA, add(CFA_XSP16, literal(-10)))
          CFI (cfiCond117) V5 load(1, XDATA, add(CFA_XSP16, literal(-9)))
          CFI (cfiCond117) V6 load(1, XDATA, add(CFA_XSP16, literal(-8)))
          CFI (cfiCond117) V7 load(1, XDATA, add(CFA_XSP16, literal(-7)))
          CFI (cfiCond117) R7 load(1, XDATA, add(CFA_XSP16, literal(-6)))
          CFI (cfiCond117) ?RET_LOW load(1, XDATA, add(CFA_XSP16, literal(-5)))
          CFI (cfiCond117) ?RET_HIGH load(1, XDATA, add(CFA_XSP16, literal(-4)))
          CFI (cfiCond117) ?BRET_EXT load(1, XDATA, add(CFA_XSP16, literal(-3)))
          CFI (cfiCond117) DPL0 load(1, XDATA, add(CFA_XSP16, literal(-2)))
          CFI (cfiCond117) DPH0 load(1, XDATA, add(CFA_XSP16, literal(-1)))
          CFI (cfiCond117) CFA_SP SP+-2
          CFI (cfiCond117) CFA_XSP16 add(XSP16, 21)
          CFI Block cfiPicker118 Using cfiCommon1
          CFI (cfiPicker118) NoFunction
          CFI (cfiPicker118) Picker
        LCALL     `??writeWord::?relay`; Banked call to: writeWord
        LCALL     ?Subroutine49 & 0xFFFF
??CrossCallReturnLabel_114:
        RET
          CFI EndBlock cfiCond115
          CFI EndBlock cfiCond116
          CFI EndBlock cfiCond117
          CFI EndBlock cfiPicker118

        RSEG BANKED_CODE:HUGECODE:NOROOT(0)
?Subroutine49:
          CFI Block cfiCond119 Using cfiCommon0
          CFI Function calcChkF
          CFI Conditional ??CrossCallReturnLabel_113
          CFI R6 load(1, XDATA, add(CFA_XSP16, literal(-15)))
          CFI VB load(1, XDATA, add(CFA_XSP16, literal(-14)))
          CFI V0 load(1, XDATA, add(CFA_XSP16, literal(-13)))
          CFI V1 load(1, XDATA, add(CFA_XSP16, literal(-12)))
          CFI V2 load(1, XDATA, add(CFA_XSP16, literal(-11)))
          CFI V3 load(1, XDATA, add(CFA_XSP16, literal(-10)))
          CFI V4 load(1, XDATA, add(CFA_XSP16, literal(-9)))
          CFI V5 load(1, XDATA, add(CFA_XSP16, literal(-8)))
          CFI V6 load(1, XDATA, add(CFA_XSP16, literal(-7)))
          CFI R7 load(1, XDATA, add(CFA_XSP16, literal(-6)))
          CFI ?RET_LOW load(1, XDATA, add(CFA_XSP16, literal(-5)))
          CFI ?RET_HIGH load(1, XDATA, add(CFA_XSP16, literal(-4)))
          CFI ?BRET_EXT load(1, XDATA, add(CFA_XSP16, literal(-3)))
          CFI DPL0 load(1, XDATA, add(CFA_XSP16, literal(-2)))
          CFI DPH0 load(1, XDATA, add(CFA_XSP16, literal(-1)))
          CFI CFA_SP SP+-2
          CFI CFA_XSP16 add(XSP16, 19)
          CFI Block cfiCond120 Using cfiCommon0
          CFI (cfiCond120) Function xferBuf
          CFI (cfiCond120) Conditional ??CrossCallReturnLabel_114, ??CrossCallReturnLabel_110
          CFI (cfiCond120) R6 load(1, XDATA, add(CFA_XSP16, literal(-16)))
          CFI (cfiCond120) VB load(1, XDATA, add(CFA_XSP16, literal(-15)))
          CFI (cfiCond120) V0 load(1, XDATA, add(CFA_XSP16, literal(-14)))
          CFI (cfiCond120) V1 load(1, XDATA, add(CFA_XSP16, literal(-13)))
          CFI (cfiCond120) V2 load(1, XDATA, add(CFA_XSP16, literal(-12)))
          CFI (cfiCond120) V3 load(1, XDATA, add(CFA_XSP16, literal(-11)))
          CFI (cfiCond120) V4 load(1, XDATA, add(CFA_XSP16, literal(-10)))
          CFI (cfiCond120) V5 load(1, XDATA, add(CFA_XSP16, literal(-9)))
          CFI (cfiCond120) V6 load(1, XDATA, add(CFA_XSP16, literal(-8)))
          CFI (cfiCond120) V7 load(1, XDATA, add(CFA_XSP16, literal(-7)))
          CFI (cfiCond120) R7 load(1, XDATA, add(CFA_XSP16, literal(-6)))
          CFI (cfiCond120) ?RET_LOW load(1, XDATA, add(CFA_XSP16, literal(-5)))
          CFI (cfiCond120) ?RET_HIGH load(1, XDATA, add(CFA_XSP16, literal(-4)))
          CFI (cfiCond120) ?BRET_EXT load(1, XDATA, add(CFA_XSP16, literal(-3)))
          CFI (cfiCond120) DPL0 load(1, XDATA, add(CFA_XSP16, literal(-2)))
          CFI (cfiCond120) DPH0 load(1, XDATA, add(CFA_XSP16, literal(-1)))
          CFI (cfiCond120) CFA_SP SP+-4
          CFI (cfiCond120) CFA_XSP16 add(XSP16, 21)
          CFI Block cfiCond121 Using cfiCommon0
          CFI (cfiCond121) Function xferBuf
          CFI (cfiCond121) Conditional ??CrossCallReturnLabel_114, ??CrossCallReturnLabel_111
          CFI (cfiCond121) R6 load(1, XDATA, add(CFA_XSP16, literal(-16)))
          CFI (cfiCond121) VB load(1, XDATA, add(CFA_XSP16, literal(-15)))
          CFI (cfiCond121) V0 load(1, XDATA, add(CFA_XSP16, literal(-14)))
          CFI (cfiCond121) V1 load(1, XDATA, add(CFA_XSP16, literal(-13)))
          CFI (cfiCond121) V2 load(1, XDATA, add(CFA_XSP16, literal(-12)))
          CFI (cfiCond121) V3 load(1, XDATA, add(CFA_XSP16, literal(-11)))
          CFI (cfiCond121) V4 load(1, XDATA, add(CFA_XSP16, literal(-10)))
          CFI (cfiCond121) V5 load(1, XDATA, add(CFA_XSP16, literal(-9)))
          CFI (cfiCond121) V6 load(1, XDATA, add(CFA_XSP16, literal(-8)))
          CFI (cfiCond121) V7 load(1, XDATA, add(CFA_XSP16, literal(-7)))
          CFI (cfiCond121) R7 load(1, XDATA, add(CFA_XSP16, literal(-6)))
          CFI (cfiCond121) ?RET_LOW load(1, XDATA, add(CFA_XSP16, literal(-5)))
          CFI (cfiCond121) ?RET_HIGH load(1, XDATA, add(CFA_XSP16, literal(-4)))
          CFI (cfiCond121) ?BRET_EXT load(1, XDATA, add(CFA_XSP16, literal(-3)))
          CFI (cfiCond121) DPL0 load(1, XDATA, add(CFA_XSP16, literal(-2)))
          CFI (cfiCond121) DPH0 load(1, XDATA, add(CFA_XSP16, literal(-1)))
          CFI (cfiCond121) CFA_SP SP+-4
          CFI (cfiCond121) CFA_XSP16 add(XSP16, 21)
          CFI Block cfiCond122 Using cfiCommon0
          CFI (cfiCond122) Function writeBuf
          CFI (cfiCond122) Conditional ??CrossCallReturnLabel_114, ??CrossCallReturnLabel_112
          CFI (cfiCond122) R6 load(1, XDATA, add(CFA_XSP16, literal(-16)))
          CFI (cfiCond122) VB load(1, XDATA, add(CFA_XSP16, literal(-15)))
          CFI (cfiCond122) V0 load(1, XDATA, add(CFA_XSP16, literal(-14)))
          CFI (cfiCond122) V1 load(1, XDATA, add(CFA_XSP16, literal(-13)))
          CFI (cfiCond122) V2 load(1, XDATA, add(CFA_XSP16, literal(-12)))
          CFI (cfiCond122) V3 load(1, XDATA, add(CFA_XSP16, literal(-11)))
          CFI (cfiCond122) V4 load(1, XDATA, add(CFA_XSP16, literal(-10)))
          CFI (cfiCond122) V5 load(1, XDATA, add(CFA_XSP16, literal(-9)))
          CFI (cfiCond122) V6 load(1, XDATA, add(CFA_XSP16, literal(-8)))
          CFI (cfiCond122) V7 load(1, XDATA, add(CFA_XSP16, literal(-7)))
          CFI (cfiCond122) R7 load(1, XDATA, add(CFA_XSP16, literal(-6)))
          CFI (cfiCond122) ?RET_LOW load(1, XDATA, add(CFA_XSP16, literal(-5)))
          CFI (cfiCond122) ?RET_HIGH load(1, XDATA, add(CFA_XSP16, literal(-4)))
          CFI (cfiCond122) ?BRET_EXT load(1, XDATA, add(CFA_XSP16, literal(-3)))
          CFI (cfiCond122) DPL0 load(1, XDATA, add(CFA_XSP16, literal(-2)))
          CFI (cfiCond122) DPH0 load(1, XDATA, add(CFA_XSP16, literal(-1)))
          CFI (cfiCond122) CFA_SP SP+-4
          CFI (cfiCond122) CFA_XSP16 add(XSP16, 20)
          CFI Block cfiPicker123 Using cfiCommon1
          CFI (cfiPicker123) NoFunction
          CFI (cfiPicker123) Picker
        MOV       A,?V0
        ADD       A,#0x4
        MOV       ?V0,A
        CLR       A
        ADDC      A,?V1
        MOV       ?V1,A
        RET
          CFI EndBlock cfiCond119
          CFI EndBlock cfiCond120
          CFI EndBlock cfiCond121
          CFI EndBlock cfiCond122
          CFI EndBlock cfiPicker123

        RSEG BANKED_CODE:HUGECODE:NOROOT(0)
?Subroutine31:
          CFI Block cfiCond124 Using cfiCommon0
          CFI Function xferBuf
          CFI Conditional ??CrossCallReturnLabel_59
          CFI R6 load(1, XDATA, add(CFA_XSP16, literal(-16)))
          CFI VB load(1, XDATA, add(CFA_XSP16, literal(-15)))
          CFI V0 load(1, XDATA, add(CFA_XSP16, literal(-14)))
          CFI V1 load(1, XDATA, add(CFA_XSP16, literal(-13)))
          CFI V2 load(1, XDATA, add(CFA_XSP16, literal(-12)))
          CFI V3 load(1, XDATA, add(CFA_XSP16, literal(-11)))
          CFI V4 load(1, XDATA, add(CFA_XSP16, literal(-10)))
          CFI V5 load(1, XDATA, add(CFA_XSP16, literal(-9)))
          CFI V6 load(1, XDATA, add(CFA_XSP16, literal(-8)))
          CFI V7 load(1, XDATA, add(CFA_XSP16, literal(-7)))
          CFI R7 load(1, XDATA, add(CFA_XSP16, literal(-6)))
          CFI ?RET_LOW load(1, XDATA, add(CFA_XSP16, literal(-5)))
          CFI ?RET_HIGH load(1, XDATA, add(CFA_XSP16, literal(-4)))
          CFI ?BRET_EXT load(1, XDATA, add(CFA_XSP16, literal(-3)))
          CFI DPL0 load(1, XDATA, add(CFA_XSP16, literal(-2)))
          CFI DPH0 load(1, XDATA, add(CFA_XSP16, literal(-1)))
          CFI CFA_SP SP+-2
          CFI CFA_XSP16 add(XSP16, 23)
          CFI Block cfiCond125 Using cfiCommon0
          CFI (cfiCond125) Function xferBuf
          CFI (cfiCond125) Conditional ??CrossCallReturnLabel_60
          CFI (cfiCond125) R6 load(1, XDATA, add(CFA_XSP16, literal(-16)))
          CFI (cfiCond125) VB load(1, XDATA, add(CFA_XSP16, literal(-15)))
          CFI (cfiCond125) V0 load(1, XDATA, add(CFA_XSP16, literal(-14)))
          CFI (cfiCond125) V1 load(1, XDATA, add(CFA_XSP16, literal(-13)))
          CFI (cfiCond125) V2 load(1, XDATA, add(CFA_XSP16, literal(-12)))
          CFI (cfiCond125) V3 load(1, XDATA, add(CFA_XSP16, literal(-11)))
          CFI (cfiCond125) V4 load(1, XDATA, add(CFA_XSP16, literal(-10)))
          CFI (cfiCond125) V5 load(1, XDATA, add(CFA_XSP16, literal(-9)))
          CFI (cfiCond125) V6 load(1, XDATA, add(CFA_XSP16, literal(-8)))
          CFI (cfiCond125) V7 load(1, XDATA, add(CFA_XSP16, literal(-7)))
          CFI (cfiCond125) R7 load(1, XDATA, add(CFA_XSP16, literal(-6)))
          CFI (cfiCond125) ?RET_LOW load(1, XDATA, add(CFA_XSP16, literal(-5)))
          CFI (cfiCond125) ?RET_HIGH load(1, XDATA, add(CFA_XSP16, literal(-4)))
          CFI (cfiCond125) ?BRET_EXT load(1, XDATA, add(CFA_XSP16, literal(-3)))
          CFI (cfiCond125) DPL0 load(1, XDATA, add(CFA_XSP16, literal(-2)))
          CFI (cfiCond125) DPH0 load(1, XDATA, add(CFA_XSP16, literal(-1)))
          CFI (cfiCond125) CFA_SP SP+-2
          CFI (cfiCond125) CFA_XSP16 add(XSP16, 23)
          CFI Block cfiPicker126 Using cfiCommon1
          CFI (cfiPicker126) NoFunction
          CFI (cfiPicker126) Picker
        MOV       A,DPL
        ADD       A,R0
        MOV       R4,A
        CLR       A
        ADDC      A,DPH
        MOV       R5,A
        MOV       R2,?V6
        MOV       R3,?V7
        MOV       A,#0x2
        RET
          CFI EndBlock cfiCond124
          CFI EndBlock cfiCond125
          CFI EndBlock cfiPicker126

        RSEG BANKED_CODE:HUGECODE:NOROOT(0)
?Subroutine19:
          CFI Block cfiCond127 Using cfiCommon0
          CFI Function compactPage
          CFI Conditional ??CrossCallReturnLabel_28
          CFI R6 load(1, XDATA, add(CFA_XSP16, literal(-15)))
          CFI VB load(1, XDATA, add(CFA_XSP16, literal(-14)))
          CFI V0 load(1, XDATA, add(CFA_XSP16, literal(-13)))
          CFI V1 load(1, XDATA, add(CFA_XSP16, literal(-12)))
          CFI V2 load(1, XDATA, add(CFA_XSP16, literal(-11)))
          CFI V3 load(1, XDATA, add(CFA_XSP16, literal(-10)))
          CFI V4 load(1, XDATA, add(CFA_XSP16, literal(-9)))
          CFI V5 load(1, XDATA, add(CFA_XSP16, literal(-8)))
          CFI V6 load(1, XDATA, add(CFA_XSP16, literal(-7)))
          CFI R7 load(1, XDATA, add(CFA_XSP16, literal(-6)))
          CFI ?RET_LOW load(1, XDATA, add(CFA_XSP16, literal(-5)))
          CFI ?RET_HIGH load(1, XDATA, add(CFA_XSP16, literal(-4)))
          CFI ?BRET_EXT load(1, XDATA, add(CFA_XSP16, literal(-3)))
          CFI DPL0 load(1, XDATA, add(CFA_XSP16, literal(-2)))
          CFI DPH0 load(1, XDATA, add(CFA_XSP16, literal(-1)))
          CFI CFA_SP SP+-2
          CFI CFA_XSP16 add(XSP16, 26)
          CFI Block cfiCond128 Using cfiCommon0
          CFI (cfiCond128) Function xferBuf
          CFI (cfiCond128) Conditional ??CrossCallReturnLabel_29
          CFI (cfiCond128) R6 load(1, XDATA, add(CFA_XSP16, literal(-16)))
          CFI (cfiCond128) VB load(1, XDATA, add(CFA_XSP16, literal(-15)))
          CFI (cfiCond128) V0 load(1, XDATA, add(CFA_XSP16, literal(-14)))
          CFI (cfiCond128) V1 load(1, XDATA, add(CFA_XSP16, literal(-13)))
          CFI (cfiCond128) V2 load(1, XDATA, add(CFA_XSP16, literal(-12)))
          CFI (cfiCond128) V3 load(1, XDATA, add(CFA_XSP16, literal(-11)))
          CFI (cfiCond128) V4 load(1, XDATA, add(CFA_XSP16, literal(-10)))
          CFI (cfiCond128) V5 load(1, XDATA, add(CFA_XSP16, literal(-9)))
          CFI (cfiCond128) V6 load(1, XDATA, add(CFA_XSP16, literal(-8)))
          CFI (cfiCond128) V7 load(1, XDATA, add(CFA_XSP16, literal(-7)))
          CFI (cfiCond128) R7 load(1, XDATA, add(CFA_XSP16, literal(-6)))
          CFI (cfiCond128) ?RET_LOW load(1, XDATA, add(CFA_XSP16, literal(-5)))
          CFI (cfiCond128) ?RET_HIGH load(1, XDATA, add(CFA_XSP16, literal(-4)))
          CFI (cfiCond128) ?BRET_EXT load(1, XDATA, add(CFA_XSP16, literal(-3)))
          CFI (cfiCond128) DPL0 load(1, XDATA, add(CFA_XSP16, literal(-2)))
          CFI (cfiCond128) DPH0 load(1, XDATA, add(CFA_XSP16, literal(-1)))
          CFI (cfiCond128) CFA_SP SP+-2
          CFI (cfiCond128) CFA_XSP16 add(XSP16, 21)
          CFI Block cfiCond129 Using cfiCommon0
          CFI (cfiCond129) Function writeItem
          CFI (cfiCond129) Conditional ??CrossCallReturnLabel_30
          CFI (cfiCond129) R6 load(1, XDATA, add(CFA_XSP16, literal(-16)))
          CFI (cfiCond129) VB load(1, XDATA, add(CFA_XSP16, literal(-15)))
          CFI (cfiCond129) V0 load(1, XDATA, add(CFA_XSP16, literal(-14)))
          CFI (cfiCond129) V1 load(1, XDATA, add(CFA_XSP16, literal(-13)))
          CFI (cfiCond129) V2 load(1, XDATA, add(CFA_XSP16, literal(-12)))
          CFI (cfiCond129) V3 load(1, XDATA, add(CFA_XSP16, literal(-11)))
          CFI (cfiCond129) V4 load(1, XDATA, add(CFA_XSP16, literal(-10)))
          CFI (cfiCond129) V5 load(1, XDATA, add(CFA_XSP16, literal(-9)))
          CFI (cfiCond129) V6 load(1, XDATA, add(CFA_XSP16, literal(-8)))
          CFI (cfiCond129) V7 load(1, XDATA, add(CFA_XSP16, literal(-7)))
          CFI (cfiCond129) R7 load(1, XDATA, add(CFA_XSP16, literal(-6)))
          CFI (cfiCond129) ?RET_LOW load(1, XDATA, add(CFA_XSP16, literal(-5)))
          CFI (cfiCond129) ?RET_HIGH load(1, XDATA, add(CFA_XSP16, literal(-4)))
          CFI (cfiCond129) ?BRET_EXT load(1, XDATA, add(CFA_XSP16, literal(-3)))
          CFI (cfiCond129) DPL0 load(1, XDATA, add(CFA_XSP16, literal(-2)))
          CFI (cfiCond129) DPH0 load(1, XDATA, add(CFA_XSP16, literal(-1)))
          CFI (cfiCond129) CFA_SP SP+-2
          CFI (cfiCond129) CFA_XSP16 add(XSP16, 28)
          CFI Block cfiPicker130 Using cfiCommon1
          CFI (cfiPicker130) NoFunction
          CFI (cfiPicker130) Picker
        MOVX      A,@DPTR
        MOV       ?V0,A
        INC       DPTR
        MOVX      A,@DPTR
        MOV       ?V1,A
        RET
          CFI EndBlock cfiCond127
          CFI EndBlock cfiCond128
          CFI EndBlock cfiCond129
          CFI EndBlock cfiPicker130

        RSEG BANKED_CODE:HUGECODE:NOROOT(0)
?Subroutine11:
          CFI Block cfiCond131 Using cfiCommon0
          CFI Function compactPage
          CFI Conditional ??CrossCallReturnLabel_115
          CFI R6 load(1, XDATA, add(CFA_XSP16, literal(-15)))
          CFI VB load(1, XDATA, add(CFA_XSP16, literal(-14)))
          CFI V0 load(1, XDATA, add(CFA_XSP16, literal(-13)))
          CFI V1 load(1, XDATA, add(CFA_XSP16, literal(-12)))
          CFI V2 load(1, XDATA, add(CFA_XSP16, literal(-11)))
          CFI V3 load(1, XDATA, add(CFA_XSP16, literal(-10)))
          CFI V4 load(1, XDATA, add(CFA_XSP16, literal(-9)))
          CFI V5 load(1, XDATA, add(CFA_XSP16, literal(-8)))
          CFI V6 load(1, XDATA, add(CFA_XSP16, literal(-7)))
          CFI R7 load(1, XDATA, add(CFA_XSP16, literal(-6)))
          CFI ?RET_LOW load(1, XDATA, add(CFA_XSP16, literal(-5)))
          CFI ?RET_HIGH load(1, XDATA, add(CFA_XSP16, literal(-4)))
          CFI ?BRET_EXT load(1, XDATA, add(CFA_XSP16, literal(-3)))
          CFI DPL0 load(1, XDATA, add(CFA_XSP16, literal(-2)))
          CFI DPH0 load(1, XDATA, add(CFA_XSP16, literal(-1)))
          CFI CFA_SP SP+-2
          CFI CFA_XSP16 add(XSP16, 28)
          CFI Block cfiCond132 Using cfiCommon0
          CFI (cfiCond132) Function xferBuf
          CFI (cfiCond132) Conditional ??CrossCallReturnLabel_116
          CFI (cfiCond132) R6 load(1, XDATA, add(CFA_XSP16, literal(-16)))
          CFI (cfiCond132) VB load(1, XDATA, add(CFA_XSP16, literal(-15)))
          CFI (cfiCond132) V0 load(1, XDATA, add(CFA_XSP16, literal(-14)))
          CFI (cfiCond132) V1 load(1, XDATA, add(CFA_XSP16, literal(-13)))
          CFI (cfiCond132) V2 load(1, XDATA, add(CFA_XSP16, literal(-12)))
          CFI (cfiCond132) V3 load(1, XDATA, add(CFA_XSP16, literal(-11)))
          CFI (cfiCond132) V4 load(1, XDATA, add(CFA_XSP16, literal(-10)))
          CFI (cfiCond132) V5 load(1, XDATA, add(CFA_XSP16, literal(-9)))
          CFI (cfiCond132) V6 load(1, XDATA, add(CFA_XSP16, literal(-8)))
          CFI (cfiCond132) V7 load(1, XDATA, add(CFA_XSP16, literal(-7)))
          CFI (cfiCond132) R7 load(1, XDATA, add(CFA_XSP16, literal(-6)))
          CFI (cfiCond132) ?RET_LOW load(1, XDATA, add(CFA_XSP16, literal(-5)))
          CFI (cfiCond132) ?RET_HIGH load(1, XDATA, add(CFA_XSP16, literal(-4)))
          CFI (cfiCond132) ?BRET_EXT load(1, XDATA, add(CFA_XSP16, literal(-3)))
          CFI (cfiCond132) DPL0 load(1, XDATA, add(CFA_XSP16, literal(-2)))
          CFI (cfiCond132) DPH0 load(1, XDATA, add(CFA_XSP16, literal(-1)))
          CFI (cfiCond132) CFA_SP SP+-2
          CFI (cfiCond132) CFA_XSP16 add(XSP16, 23)
          CFI Block cfiCond133 Using cfiCommon0
          CFI (cfiCond133) Function xferBuf
          CFI (cfiCond133) Conditional ??CrossCallReturnLabel_117
          CFI (cfiCond133) R6 load(1, XDATA, add(CFA_XSP16, literal(-16)))
          CFI (cfiCond133) VB load(1, XDATA, add(CFA_XSP16, literal(-15)))
          CFI (cfiCond133) V0 load(1, XDATA, add(CFA_XSP16, literal(-14)))
          CFI (cfiCond133) V1 load(1, XDATA, add(CFA_XSP16, literal(-13)))
          CFI (cfiCond133) V2 load(1, XDATA, add(CFA_XSP16, literal(-12)))
          CFI (cfiCond133) V3 load(1, XDATA, add(CFA_XSP16, literal(-11)))
          CFI (cfiCond133) V4 load(1, XDATA, add(CFA_XSP16, literal(-10)))
          CFI (cfiCond133) V5 load(1, XDATA, add(CFA_XSP16, literal(-9)))
          CFI (cfiCond133) V6 load(1, XDATA, add(CFA_XSP16, literal(-8)))
          CFI (cfiCond133) V7 load(1, XDATA, add(CFA_XSP16, literal(-7)))
          CFI (cfiCond133) R7 load(1, XDATA, add(CFA_XSP16, literal(-6)))
          CFI (cfiCond133) ?RET_LOW load(1, XDATA, add(CFA_XSP16, literal(-5)))
          CFI (cfiCond133) ?RET_HIGH load(1, XDATA, add(CFA_XSP16, literal(-4)))
          CFI (cfiCond133) ?BRET_EXT load(1, XDATA, add(CFA_XSP16, literal(-3)))
          CFI (cfiCond133) DPL0 load(1, XDATA, add(CFA_XSP16, literal(-2)))
          CFI (cfiCond133) DPH0 load(1, XDATA, add(CFA_XSP16, literal(-1)))
          CFI (cfiCond133) CFA_SP SP+-2
          CFI (cfiCond133) CFA_XSP16 add(XSP16, 23)
          CFI Block cfiCond134 Using cfiCommon0
          CFI (cfiCond134) Function xferBuf
          CFI (cfiCond134) Conditional ??CrossCallReturnLabel_118
          CFI (cfiCond134) R6 load(1, XDATA, add(CFA_XSP16, literal(-16)))
          CFI (cfiCond134) VB load(1, XDATA, add(CFA_XSP16, literal(-15)))
          CFI (cfiCond134) V0 load(1, XDATA, add(CFA_XSP16, literal(-14)))
          CFI (cfiCond134) V1 load(1, XDATA, add(CFA_XSP16, literal(-13)))
          CFI (cfiCond134) V2 load(1, XDATA, add(CFA_XSP16, literal(-12)))
          CFI (cfiCond134) V3 load(1, XDATA, add(CFA_XSP16, literal(-11)))
          CFI (cfiCond134) V4 load(1, XDATA, add(CFA_XSP16, literal(-10)))
          CFI (cfiCond134) V5 load(1, XDATA, add(CFA_XSP16, literal(-9)))
          CFI (cfiCond134) V6 load(1, XDATA, add(CFA_XSP16, literal(-8)))
          CFI (cfiCond134) V7 load(1, XDATA, add(CFA_XSP16, literal(-7)))
          CFI (cfiCond134) R7 load(1, XDATA, add(CFA_XSP16, literal(-6)))
          CFI (cfiCond134) ?RET_LOW load(1, XDATA, add(CFA_XSP16, literal(-5)))
          CFI (cfiCond134) ?RET_HIGH load(1, XDATA, add(CFA_XSP16, literal(-4)))
          CFI (cfiCond134) ?BRET_EXT load(1, XDATA, add(CFA_XSP16, literal(-3)))
          CFI (cfiCond134) DPL0 load(1, XDATA, add(CFA_XSP16, literal(-2)))
          CFI (cfiCond134) DPH0 load(1, XDATA, add(CFA_XSP16, literal(-1)))
          CFI (cfiCond134) CFA_SP SP+-2
          CFI (cfiCond134) CFA_XSP16 add(XSP16, 23)
          CFI Block cfiCond135 Using cfiCommon0
          CFI (cfiCond135) Function osal_nv_item_len
          CFI (cfiCond135) Conditional ??CrossCallReturnLabel_119
          CFI (cfiCond135) R6 load(1, XDATA, add(CFA_XSP16, literal(-10)))
          CFI (cfiCond135) VB load(1, XDATA, add(CFA_XSP16, literal(-9)))
          CFI (cfiCond135) V0 load(1, XDATA, add(CFA_XSP16, literal(-8)))
          CFI (cfiCond135) V1 load(1, XDATA, add(CFA_XSP16, literal(-7)))
          CFI (cfiCond135) R7 load(1, XDATA, add(CFA_XSP16, literal(-6)))
          CFI (cfiCond135) ?RET_LOW load(1, XDATA, add(CFA_XSP16, literal(-5)))
          CFI (cfiCond135) ?RET_HIGH load(1, XDATA, add(CFA_XSP16, literal(-4)))
          CFI (cfiCond135) ?BRET_EXT load(1, XDATA, add(CFA_XSP16, literal(-3)))
          CFI (cfiCond135) DPL0 load(1, XDATA, add(CFA_XSP16, literal(-2)))
          CFI (cfiCond135) DPH0 load(1, XDATA, add(CFA_XSP16, literal(-1)))
          CFI (cfiCond135) CFA_SP SP+-2
          CFI (cfiCond135) CFA_XSP16 add(XSP16, 20)
          CFI Block cfiCond136 Using cfiCommon0
          CFI (cfiCond136) Function osal_nv_write
          CFI (cfiCond136) Conditional ??CrossCallReturnLabel_120
          CFI (cfiCond136) R6 load(1, XDATA, add(CFA_XSP16, literal(-16)))
          CFI (cfiCond136) VB load(1, XDATA, add(CFA_XSP16, literal(-15)))
          CFI (cfiCond136) V0 load(1, XDATA, add(CFA_XSP16, literal(-14)))
          CFI (cfiCond136) V1 load(1, XDATA, add(CFA_XSP16, literal(-13)))
          CFI (cfiCond136) V2 load(1, XDATA, add(CFA_XSP16, literal(-12)))
          CFI (cfiCond136) V3 load(1, XDATA, add(CFA_XSP16, literal(-11)))
          CFI (cfiCond136) V4 load(1, XDATA, add(CFA_XSP16, literal(-10)))
          CFI (cfiCond136) V5 load(1, XDATA, add(CFA_XSP16, literal(-9)))
          CFI (cfiCond136) V6 load(1, XDATA, add(CFA_XSP16, literal(-8)))
          CFI (cfiCond136) V7 load(1, XDATA, add(CFA_XSP16, literal(-7)))
          CFI (cfiCond136) R7 load(1, XDATA, add(CFA_XSP16, literal(-6)))
          CFI (cfiCond136) ?RET_LOW load(1, XDATA, add(CFA_XSP16, literal(-5)))
          CFI (cfiCond136) ?RET_HIGH load(1, XDATA, add(CFA_XSP16, literal(-4)))
          CFI (cfiCond136) ?BRET_EXT load(1, XDATA, add(CFA_XSP16, literal(-3)))
          CFI (cfiCond136) DPL0 load(1, XDATA, add(CFA_XSP16, literal(-2)))
          CFI (cfiCond136) DPH0 load(1, XDATA, add(CFA_XSP16, literal(-1)))
          CFI (cfiCond136) CFA_SP SP+-2
          CFI (cfiCond136) CFA_XSP16 add(XSP16, 37)
          CFI Block cfiCond137 Using cfiCommon0
          CFI (cfiCond137) Function osal_nv_write
          CFI (cfiCond137) Conditional ??CrossCallReturnLabel_121
          CFI (cfiCond137) R6 load(1, XDATA, add(CFA_XSP16, literal(-16)))
          CFI (cfiCond137) VB load(1, XDATA, add(CFA_XSP16, literal(-15)))
          CFI (cfiCond137) V0 load(1, XDATA, add(CFA_XSP16, literal(-14)))
          CFI (cfiCond137) V1 load(1, XDATA, add(CFA_XSP16, literal(-13)))
          CFI (cfiCond137) V2 load(1, XDATA, add(CFA_XSP16, literal(-12)))
          CFI (cfiCond137) V3 load(1, XDATA, add(CFA_XSP16, literal(-11)))
          CFI (cfiCond137) V4 load(1, XDATA, add(CFA_XSP16, literal(-10)))
          CFI (cfiCond137) V5 load(1, XDATA, add(CFA_XSP16, literal(-9)))
          CFI (cfiCond137) V6 load(1, XDATA, add(CFA_XSP16, literal(-8)))
          CFI (cfiCond137) V7 load(1, XDATA, add(CFA_XSP16, literal(-7)))
          CFI (cfiCond137) R7 load(1, XDATA, add(CFA_XSP16, literal(-6)))
          CFI (cfiCond137) ?RET_LOW load(1, XDATA, add(CFA_XSP16, literal(-5)))
          CFI (cfiCond137) ?RET_HIGH load(1, XDATA, add(CFA_XSP16, literal(-4)))
          CFI (cfiCond137) ?BRET_EXT load(1, XDATA, add(CFA_XSP16, literal(-3)))
          CFI (cfiCond137) DPL0 load(1, XDATA, add(CFA_XSP16, literal(-2)))
          CFI (cfiCond137) DPH0 load(1, XDATA, add(CFA_XSP16, literal(-1)))
          CFI (cfiCond137) CFA_SP SP+-2
          CFI (cfiCond137) CFA_XSP16 add(XSP16, 37)
          CFI Block cfiCond138 Using cfiCommon0
          CFI (cfiCond138) Function osal_nv_read
          CFI (cfiCond138) Conditional ??CrossCallReturnLabel_122
          CFI (cfiCond138) R6 load(1, XDATA, add(CFA_XSP16, literal(-16)))
          CFI (cfiCond138) VB load(1, XDATA, add(CFA_XSP16, literal(-15)))
          CFI (cfiCond138) V0 load(1, XDATA, add(CFA_XSP16, literal(-14)))
          CFI (cfiCond138) V1 load(1, XDATA, add(CFA_XSP16, literal(-13)))
          CFI (cfiCond138) V2 load(1, XDATA, add(CFA_XSP16, literal(-12)))
          CFI (cfiCond138) V3 load(1, XDATA, add(CFA_XSP16, literal(-11)))
          CFI (cfiCond138) V4 load(1, XDATA, add(CFA_XSP16, literal(-10)))
          CFI (cfiCond138) V5 load(1, XDATA, add(CFA_XSP16, literal(-9)))
          CFI (cfiCond138) V6 load(1, XDATA, add(CFA_XSP16, literal(-8)))
          CFI (cfiCond138) V7 load(1, XDATA, add(CFA_XSP16, literal(-7)))
          CFI (cfiCond138) R7 load(1, XDATA, add(CFA_XSP16, literal(-6)))
          CFI (cfiCond138) ?RET_LOW load(1, XDATA, add(CFA_XSP16, literal(-5)))
          CFI (cfiCond138) ?RET_HIGH load(1, XDATA, add(CFA_XSP16, literal(-4)))
          CFI (cfiCond138) ?BRET_EXT load(1, XDATA, add(CFA_XSP16, literal(-3)))
          CFI (cfiCond138) DPL0 load(1, XDATA, add(CFA_XSP16, literal(-2)))
          CFI (cfiCond138) DPH0 load(1, XDATA, add(CFA_XSP16, literal(-1)))
          CFI (cfiCond138) CFA_SP SP+-2
          CFI (cfiCond138) CFA_XSP16 add(XSP16, 18)
          CFI Block cfiPicker139 Using cfiCommon1
          CFI (cfiPicker139) NoFunction
          CFI (cfiPicker139) Picker
        MOVX      A,@DPTR
          CFI EndBlock cfiCond131
          CFI EndBlock cfiCond132
          CFI EndBlock cfiCond133
          CFI EndBlock cfiCond134
          CFI EndBlock cfiCond135
          CFI EndBlock cfiCond136
          CFI EndBlock cfiCond137
          CFI EndBlock cfiCond138
          CFI EndBlock cfiPicker139
        REQUIRE ??Subroutine60_0
        ; // Fall through to label ??Subroutine60_0

        RSEG BANKED_CODE:HUGECODE:NOROOT(0)
??Subroutine60_0:
          CFI Block cfiCond140 Using cfiCommon0
          CFI Function initNV
          CFI Conditional ??CrossCallReturnLabel_123
          CFI R6 load(1, XDATA, add(CFA_XSP16, literal(-12)))
          CFI VB load(1, XDATA, add(CFA_XSP16, literal(-11)))
          CFI V0 load(1, XDATA, add(CFA_XSP16, literal(-10)))
          CFI V1 load(1, XDATA, add(CFA_XSP16, literal(-9)))
          CFI V2 load(1, XDATA, add(CFA_XSP16, literal(-8)))
          CFI V3 load(1, XDATA, add(CFA_XSP16, literal(-7)))
          CFI R7 load(1, XDATA, add(CFA_XSP16, literal(-6)))
          CFI ?RET_LOW load(1, XDATA, add(CFA_XSP16, literal(-5)))
          CFI ?RET_HIGH load(1, XDATA, add(CFA_XSP16, literal(-4)))
          CFI ?BRET_EXT load(1, XDATA, add(CFA_XSP16, literal(-3)))
          CFI DPL0 load(1, XDATA, add(CFA_XSP16, literal(-2)))
          CFI DPH0 load(1, XDATA, add(CFA_XSP16, literal(-1)))
          CFI CFA_SP SP+-2
          CFI CFA_XSP16 add(XSP16, 22)
          CFI Block cfiCond141 Using cfiCommon0
          CFI (cfiCond141) Function initItem
          CFI (cfiCond141) Conditional ??CrossCallReturnLabel_124
          CFI (cfiCond141) R6 load(1, XDATA, add(CFA_XSP16, literal(-16)))
          CFI (cfiCond141) VB load(1, XDATA, add(CFA_XSP16, literal(-15)))
          CFI (cfiCond141) V0 load(1, XDATA, add(CFA_XSP16, literal(-14)))
          CFI (cfiCond141) V1 load(1, XDATA, add(CFA_XSP16, literal(-13)))
          CFI (cfiCond141) V2 load(1, XDATA, add(CFA_XSP16, literal(-12)))
          CFI (cfiCond141) V3 load(1, XDATA, add(CFA_XSP16, literal(-11)))
          CFI (cfiCond141) V4 load(1, XDATA, add(CFA_XSP16, literal(-10)))
          CFI (cfiCond141) V5 load(1, XDATA, add(CFA_XSP16, literal(-9)))
          CFI (cfiCond141) V6 load(1, XDATA, add(CFA_XSP16, literal(-8)))
          CFI (cfiCond141) V7 load(1, XDATA, add(CFA_XSP16, literal(-7)))
          CFI (cfiCond141) R7 load(1, XDATA, add(CFA_XSP16, literal(-6)))
          CFI (cfiCond141) ?RET_LOW load(1, XDATA, add(CFA_XSP16, literal(-5)))
          CFI (cfiCond141) ?RET_HIGH load(1, XDATA, add(CFA_XSP16, literal(-4)))
          CFI (cfiCond141) ?BRET_EXT load(1, XDATA, add(CFA_XSP16, literal(-3)))
          CFI (cfiCond141) DPL0 load(1, XDATA, add(CFA_XSP16, literal(-2)))
          CFI (cfiCond141) DPH0 load(1, XDATA, add(CFA_XSP16, literal(-1)))
          CFI (cfiCond141) CFA_SP SP+-2
          CFI (cfiCond141) CFA_XSP16 add(XSP16, 28)
          CFI Block cfiCond142 Using cfiCommon0
          CFI (cfiCond142) Function compactPage
          CFI (cfiCond142) Conditional ??CrossCallReturnLabel_115
          CFI (cfiCond142) R6 load(1, XDATA, add(CFA_XSP16, literal(-15)))
          CFI (cfiCond142) VB load(1, XDATA, add(CFA_XSP16, literal(-14)))
          CFI (cfiCond142) V0 load(1, XDATA, add(CFA_XSP16, literal(-13)))
          CFI (cfiCond142) V1 load(1, XDATA, add(CFA_XSP16, literal(-12)))
          CFI (cfiCond142) V2 load(1, XDATA, add(CFA_XSP16, literal(-11)))
          CFI (cfiCond142) V3 load(1, XDATA, add(CFA_XSP16, literal(-10)))
          CFI (cfiCond142) V4 load(1, XDATA, add(CFA_XSP16, literal(-9)))
          CFI (cfiCond142) V5 load(1, XDATA, add(CFA_XSP16, literal(-8)))
          CFI (cfiCond142) V6 load(1, XDATA, add(CFA_XSP16, literal(-7)))
          CFI (cfiCond142) R7 load(1, XDATA, add(CFA_XSP16, literal(-6)))
          CFI (cfiCond142) ?RET_LOW load(1, XDATA, add(CFA_XSP16, literal(-5)))
          CFI (cfiCond142) ?RET_HIGH load(1, XDATA, add(CFA_XSP16, literal(-4)))
          CFI (cfiCond142) ?BRET_EXT load(1, XDATA, add(CFA_XSP16, literal(-3)))
          CFI (cfiCond142) DPL0 load(1, XDATA, add(CFA_XSP16, literal(-2)))
          CFI (cfiCond142) DPH0 load(1, XDATA, add(CFA_XSP16, literal(-1)))
          CFI (cfiCond142) CFA_SP SP+-2
          CFI (cfiCond142) CFA_XSP16 add(XSP16, 28)
          CFI Block cfiCond143 Using cfiCommon0
          CFI (cfiCond143) Function xferBuf
          CFI (cfiCond143) Conditional ??CrossCallReturnLabel_116
          CFI (cfiCond143) R6 load(1, XDATA, add(CFA_XSP16, literal(-16)))
          CFI (cfiCond143) VB load(1, XDATA, add(CFA_XSP16, literal(-15)))
          CFI (cfiCond143) V0 load(1, XDATA, add(CFA_XSP16, literal(-14)))
          CFI (cfiCond143) V1 load(1, XDATA, add(CFA_XSP16, literal(-13)))
          CFI (cfiCond143) V2 load(1, XDATA, add(CFA_XSP16, literal(-12)))
          CFI (cfiCond143) V3 load(1, XDATA, add(CFA_XSP16, literal(-11)))
          CFI (cfiCond143) V4 load(1, XDATA, add(CFA_XSP16, literal(-10)))
          CFI (cfiCond143) V5 load(1, XDATA, add(CFA_XSP16, literal(-9)))
          CFI (cfiCond143) V6 load(1, XDATA, add(CFA_XSP16, literal(-8)))
          CFI (cfiCond143) V7 load(1, XDATA, add(CFA_XSP16, literal(-7)))
          CFI (cfiCond143) R7 load(1, XDATA, add(CFA_XSP16, literal(-6)))
          CFI (cfiCond143) ?RET_LOW load(1, XDATA, add(CFA_XSP16, literal(-5)))
          CFI (cfiCond143) ?RET_HIGH load(1, XDATA, add(CFA_XSP16, literal(-4)))
          CFI (cfiCond143) ?BRET_EXT load(1, XDATA, add(CFA_XSP16, literal(-3)))
          CFI (cfiCond143) DPL0 load(1, XDATA, add(CFA_XSP16, literal(-2)))
          CFI (cfiCond143) DPH0 load(1, XDATA, add(CFA_XSP16, literal(-1)))
          CFI (cfiCond143) CFA_SP SP+-2
          CFI (cfiCond143) CFA_XSP16 add(XSP16, 23)
          CFI Block cfiCond144 Using cfiCommon0
          CFI (cfiCond144) Function xferBuf
          CFI (cfiCond144) Conditional ??CrossCallReturnLabel_117
          CFI (cfiCond144) R6 load(1, XDATA, add(CFA_XSP16, literal(-16)))
          CFI (cfiCond144) VB load(1, XDATA, add(CFA_XSP16, literal(-15)))
          CFI (cfiCond144) V0 load(1, XDATA, add(CFA_XSP16, literal(-14)))
          CFI (cfiCond144) V1 load(1, XDATA, add(CFA_XSP16, literal(-13)))
          CFI (cfiCond144) V2 load(1, XDATA, add(CFA_XSP16, literal(-12)))
          CFI (cfiCond144) V3 load(1, XDATA, add(CFA_XSP16, literal(-11)))
          CFI (cfiCond144) V4 load(1, XDATA, add(CFA_XSP16, literal(-10)))
          CFI (cfiCond144) V5 load(1, XDATA, add(CFA_XSP16, literal(-9)))
          CFI (cfiCond144) V6 load(1, XDATA, add(CFA_XSP16, literal(-8)))
          CFI (cfiCond144) V7 load(1, XDATA, add(CFA_XSP16, literal(-7)))
          CFI (cfiCond144) R7 load(1, XDATA, add(CFA_XSP16, literal(-6)))
          CFI (cfiCond144) ?RET_LOW load(1, XDATA, add(CFA_XSP16, literal(-5)))
          CFI (cfiCond144) ?RET_HIGH load(1, XDATA, add(CFA_XSP16, literal(-4)))
          CFI (cfiCond144) ?BRET_EXT load(1, XDATA, add(CFA_XSP16, literal(-3)))
          CFI (cfiCond144) DPL0 load(1, XDATA, add(CFA_XSP16, literal(-2)))
          CFI (cfiCond144) DPH0 load(1, XDATA, add(CFA_XSP16, literal(-1)))
          CFI (cfiCond144) CFA_SP SP+-2
          CFI (cfiCond144) CFA_XSP16 add(XSP16, 23)
          CFI Block cfiCond145 Using cfiCommon0
          CFI (cfiCond145) Function xferBuf
          CFI (cfiCond145) Conditional ??CrossCallReturnLabel_118
          CFI (cfiCond145) R6 load(1, XDATA, add(CFA_XSP16, literal(-16)))
          CFI (cfiCond145) VB load(1, XDATA, add(CFA_XSP16, literal(-15)))
          CFI (cfiCond145) V0 load(1, XDATA, add(CFA_XSP16, literal(-14)))
          CFI (cfiCond145) V1 load(1, XDATA, add(CFA_XSP16, literal(-13)))
          CFI (cfiCond145) V2 load(1, XDATA, add(CFA_XSP16, literal(-12)))
          CFI (cfiCond145) V3 load(1, XDATA, add(CFA_XSP16, literal(-11)))
          CFI (cfiCond145) V4 load(1, XDATA, add(CFA_XSP16, literal(-10)))
          CFI (cfiCond145) V5 load(1, XDATA, add(CFA_XSP16, literal(-9)))
          CFI (cfiCond145) V6 load(1, XDATA, add(CFA_XSP16, literal(-8)))
          CFI (cfiCond145) V7 load(1, XDATA, add(CFA_XSP16, literal(-7)))
          CFI (cfiCond145) R7 load(1, XDATA, add(CFA_XSP16, literal(-6)))
          CFI (cfiCond145) ?RET_LOW load(1, XDATA, add(CFA_XSP16, literal(-5)))
          CFI (cfiCond145) ?RET_HIGH load(1, XDATA, add(CFA_XSP16, literal(-4)))
          CFI (cfiCond145) ?BRET_EXT load(1, XDATA, add(CFA_XSP16, literal(-3)))
          CFI (cfiCond145) DPL0 load(1, XDATA, add(CFA_XSP16, literal(-2)))
          CFI (cfiCond145) DPH0 load(1, XDATA, add(CFA_XSP16, literal(-1)))
          CFI (cfiCond145) CFA_SP SP+-2
          CFI (cfiCond145) CFA_XSP16 add(XSP16, 23)
          CFI Block cfiCond146 Using cfiCommon0
          CFI (cfiCond146) Function osal_nv_item_len
          CFI (cfiCond146) Conditional ??CrossCallReturnLabel_119
          CFI (cfiCond146) R6 load(1, XDATA, add(CFA_XSP16, literal(-10)))
          CFI (cfiCond146) VB load(1, XDATA, add(CFA_XSP16, literal(-9)))
          CFI (cfiCond146) V0 load(1, XDATA, add(CFA_XSP16, literal(-8)))
          CFI (cfiCond146) V1 load(1, XDATA, add(CFA_XSP16, literal(-7)))
          CFI (cfiCond146) R7 load(1, XDATA, add(CFA_XSP16, literal(-6)))
          CFI (cfiCond146) ?RET_LOW load(1, XDATA, add(CFA_XSP16, literal(-5)))
          CFI (cfiCond146) ?RET_HIGH load(1, XDATA, add(CFA_XSP16, literal(-4)))
          CFI (cfiCond146) ?BRET_EXT load(1, XDATA, add(CFA_XSP16, literal(-3)))
          CFI (cfiCond146) DPL0 load(1, XDATA, add(CFA_XSP16, literal(-2)))
          CFI (cfiCond146) DPH0 load(1, XDATA, add(CFA_XSP16, literal(-1)))
          CFI (cfiCond146) CFA_SP SP+-2
          CFI (cfiCond146) CFA_XSP16 add(XSP16, 20)
          CFI Block cfiCond147 Using cfiCommon0
          CFI (cfiCond147) Function osal_nv_write
          CFI (cfiCond147) Conditional ??CrossCallReturnLabel_120
          CFI (cfiCond147) R6 load(1, XDATA, add(CFA_XSP16, literal(-16)))
          CFI (cfiCond147) VB load(1, XDATA, add(CFA_XSP16, literal(-15)))
          CFI (cfiCond147) V0 load(1, XDATA, add(CFA_XSP16, literal(-14)))
          CFI (cfiCond147) V1 load(1, XDATA, add(CFA_XSP16, literal(-13)))
          CFI (cfiCond147) V2 load(1, XDATA, add(CFA_XSP16, literal(-12)))
          CFI (cfiCond147) V3 load(1, XDATA, add(CFA_XSP16, literal(-11)))
          CFI (cfiCond147) V4 load(1, XDATA, add(CFA_XSP16, literal(-10)))
          CFI (cfiCond147) V5 load(1, XDATA, add(CFA_XSP16, literal(-9)))
          CFI (cfiCond147) V6 load(1, XDATA, add(CFA_XSP16, literal(-8)))
          CFI (cfiCond147) V7 load(1, XDATA, add(CFA_XSP16, literal(-7)))
          CFI (cfiCond147) R7 load(1, XDATA, add(CFA_XSP16, literal(-6)))
          CFI (cfiCond147) ?RET_LOW load(1, XDATA, add(CFA_XSP16, literal(-5)))
          CFI (cfiCond147) ?RET_HIGH load(1, XDATA, add(CFA_XSP16, literal(-4)))
          CFI (cfiCond147) ?BRET_EXT load(1, XDATA, add(CFA_XSP16, literal(-3)))
          CFI (cfiCond147) DPL0 load(1, XDATA, add(CFA_XSP16, literal(-2)))
          CFI (cfiCond147) DPH0 load(1, XDATA, add(CFA_XSP16, literal(-1)))
          CFI (cfiCond147) CFA_SP SP+-2
          CFI (cfiCond147) CFA_XSP16 add(XSP16, 37)
          CFI Block cfiCond148 Using cfiCommon0
          CFI (cfiCond148) Function osal_nv_write
          CFI (cfiCond148) Conditional ??CrossCallReturnLabel_121
          CFI (cfiCond148) R6 load(1, XDATA, add(CFA_XSP16, literal(-16)))
          CFI (cfiCond148) VB load(1, XDATA, add(CFA_XSP16, literal(-15)))
          CFI (cfiCond148) V0 load(1, XDATA, add(CFA_XSP16, literal(-14)))
          CFI (cfiCond148) V1 load(1, XDATA, add(CFA_XSP16, literal(-13)))
          CFI (cfiCond148) V2 load(1, XDATA, add(CFA_XSP16, literal(-12)))
          CFI (cfiCond148) V3 load(1, XDATA, add(CFA_XSP16, literal(-11)))
          CFI (cfiCond148) V4 load(1, XDATA, add(CFA_XSP16, literal(-10)))
          CFI (cfiCond148) V5 load(1, XDATA, add(CFA_XSP16, literal(-9)))
          CFI (cfiCond148) V6 load(1, XDATA, add(CFA_XSP16, literal(-8)))
          CFI (cfiCond148) V7 load(1, XDATA, add(CFA_XSP16, literal(-7)))
          CFI (cfiCond148) R7 load(1, XDATA, add(CFA_XSP16, literal(-6)))
          CFI (cfiCond148) ?RET_LOW load(1, XDATA, add(CFA_XSP16, literal(-5)))
          CFI (cfiCond148) ?RET_HIGH load(1, XDATA, add(CFA_XSP16, literal(-4)))
          CFI (cfiCond148) ?BRET_EXT load(1, XDATA, add(CFA_XSP16, literal(-3)))
          CFI (cfiCond148) DPL0 load(1, XDATA, add(CFA_XSP16, literal(-2)))
          CFI (cfiCond148) DPH0 load(1, XDATA, add(CFA_XSP16, literal(-1)))
          CFI (cfiCond148) CFA_SP SP+-2
          CFI (cfiCond148) CFA_XSP16 add(XSP16, 37)
          CFI Block cfiCond149 Using cfiCommon0
          CFI (cfiCond149) Function osal_nv_read
          CFI (cfiCond149) Conditional ??CrossCallReturnLabel_122
          CFI (cfiCond149) R6 load(1, XDATA, add(CFA_XSP16, literal(-16)))
          CFI (cfiCond149) VB load(1, XDATA, add(CFA_XSP16, literal(-15)))
          CFI (cfiCond149) V0 load(1, XDATA, add(CFA_XSP16, literal(-14)))
          CFI (cfiCond149) V1 load(1, XDATA, add(CFA_XSP16, literal(-13)))
          CFI (cfiCond149) V2 load(1, XDATA, add(CFA_XSP16, literal(-12)))
          CFI (cfiCond149) V3 load(1, XDATA, add(CFA_XSP16, literal(-11)))
          CFI (cfiCond149) V4 load(1, XDATA, add(CFA_XSP16, literal(-10)))
          CFI (cfiCond149) V5 load(1, XDATA, add(CFA_XSP16, literal(-9)))
          CFI (cfiCond149) V6 load(1, XDATA, add(CFA_XSP16, literal(-8)))
          CFI (cfiCond149) V7 load(1, XDATA, add(CFA_XSP16, literal(-7)))
          CFI (cfiCond149) R7 load(1, XDATA, add(CFA_XSP16, literal(-6)))
          CFI (cfiCond149) ?RET_LOW load(1, XDATA, add(CFA_XSP16, literal(-5)))
          CFI (cfiCond149) ?RET_HIGH load(1, XDATA, add(CFA_XSP16, literal(-4)))
          CFI (cfiCond149) ?BRET_EXT load(1, XDATA, add(CFA_XSP16, literal(-3)))
          CFI (cfiCond149) DPL0 load(1, XDATA, add(CFA_XSP16, literal(-2)))
          CFI (cfiCond149) DPH0 load(1, XDATA, add(CFA_XSP16, literal(-1)))
          CFI (cfiCond149) CFA_SP SP+-2
          CFI (cfiCond149) CFA_XSP16 add(XSP16, 18)
          CFI Block cfiPicker150 Using cfiCommon1
          CFI (cfiPicker150) NoFunction
          CFI (cfiPicker150) Picker
        MOV       R1,A
          CFI EndBlock cfiCond140
          CFI EndBlock cfiCond141
          CFI EndBlock cfiCond142
          CFI EndBlock cfiCond143
          CFI EndBlock cfiCond144
          CFI EndBlock cfiCond145
          CFI EndBlock cfiCond146
          CFI EndBlock cfiCond147
          CFI EndBlock cfiCond148
          CFI EndBlock cfiCond149
          CFI EndBlock cfiPicker150
        REQUIRE ??Subroutine61_0
        ; // Fall through to label ??Subroutine61_0

        RSEG BANKED_CODE:HUGECODE:NOROOT(0)
??Subroutine61_0:
          CFI Block cfiCond151 Using cfiCommon0
          CFI Function initPage
          CFI Conditional ??CrossCallReturnLabel_125
          CFI R6 load(1, XDATA, add(CFA_XSP16, literal(-16)))
          CFI VB load(1, XDATA, add(CFA_XSP16, literal(-15)))
          CFI V0 load(1, XDATA, add(CFA_XSP16, literal(-14)))
          CFI V1 load(1, XDATA, add(CFA_XSP16, literal(-13)))
          CFI V2 load(1, XDATA, add(CFA_XSP16, literal(-12)))
          CFI V3 load(1, XDATA, add(CFA_XSP16, literal(-11)))
          CFI V4 load(1, XDATA, add(CFA_XSP16, literal(-10)))
          CFI V5 load(1, XDATA, add(CFA_XSP16, literal(-9)))
          CFI V6 load(1, XDATA, add(CFA_XSP16, literal(-8)))
          CFI V7 load(1, XDATA, add(CFA_XSP16, literal(-7)))
          CFI R7 load(1, XDATA, add(CFA_XSP16, literal(-6)))
          CFI ?RET_LOW load(1, XDATA, add(CFA_XSP16, literal(-5)))
          CFI ?RET_HIGH load(1, XDATA, add(CFA_XSP16, literal(-4)))
          CFI ?BRET_EXT load(1, XDATA, add(CFA_XSP16, literal(-3)))
          CFI DPL0 load(1, XDATA, add(CFA_XSP16, literal(-2)))
          CFI DPH0 load(1, XDATA, add(CFA_XSP16, literal(-1)))
          CFI CFA_SP SP+-2
          CFI CFA_XSP16 add(XSP16, 28)
          CFI Block cfiCond152 Using cfiCommon0
          CFI (cfiCond152) Function compactPage
          CFI (cfiCond152) Conditional ??CrossCallReturnLabel_126
          CFI (cfiCond152) R6 load(1, XDATA, add(CFA_XSP16, literal(-15)))
          CFI (cfiCond152) VB load(1, XDATA, add(CFA_XSP16, literal(-14)))
          CFI (cfiCond152) V0 load(1, XDATA, add(CFA_XSP16, literal(-13)))
          CFI (cfiCond152) V1 load(1, XDATA, add(CFA_XSP16, literal(-12)))
          CFI (cfiCond152) V2 load(1, XDATA, add(CFA_XSP16, literal(-11)))
          CFI (cfiCond152) V3 load(1, XDATA, add(CFA_XSP16, literal(-10)))
          CFI (cfiCond152) V4 load(1, XDATA, add(CFA_XSP16, literal(-9)))
          CFI (cfiCond152) V5 load(1, XDATA, add(CFA_XSP16, literal(-8)))
          CFI (cfiCond152) V6 load(1, XDATA, add(CFA_XSP16, literal(-7)))
          CFI (cfiCond152) R7 load(1, XDATA, add(CFA_XSP16, literal(-6)))
          CFI (cfiCond152) ?RET_LOW load(1, XDATA, add(CFA_XSP16, literal(-5)))
          CFI (cfiCond152) ?RET_HIGH load(1, XDATA, add(CFA_XSP16, literal(-4)))
          CFI (cfiCond152) ?BRET_EXT load(1, XDATA, add(CFA_XSP16, literal(-3)))
          CFI (cfiCond152) DPL0 load(1, XDATA, add(CFA_XSP16, literal(-2)))
          CFI (cfiCond152) DPH0 load(1, XDATA, add(CFA_XSP16, literal(-1)))
          CFI (cfiCond152) CFA_SP SP+-2
          CFI (cfiCond152) CFA_XSP16 add(XSP16, 28)
          CFI Block cfiCond153 Using cfiCommon0
          CFI (cfiCond153) Function setItem
          CFI (cfiCond153) Conditional ??CrossCallReturnLabel_127
          CFI (cfiCond153) R6 load(1, XDATA, add(CFA_XSP16, literal(-14)))
          CFI (cfiCond153) VB load(1, XDATA, add(CFA_XSP16, literal(-13)))
          CFI (cfiCond153) V0 load(1, XDATA, add(CFA_XSP16, literal(-12)))
          CFI (cfiCond153) V1 load(1, XDATA, add(CFA_XSP16, literal(-11)))
          CFI (cfiCond153) V2 load(1, XDATA, add(CFA_XSP16, literal(-10)))
          CFI (cfiCond153) V3 load(1, XDATA, add(CFA_XSP16, literal(-9)))
          CFI (cfiCond153) V4 load(1, XDATA, add(CFA_XSP16, literal(-8)))
          CFI (cfiCond153) V5 load(1, XDATA, add(CFA_XSP16, literal(-7)))
          CFI (cfiCond153) R7 load(1, XDATA, add(CFA_XSP16, literal(-6)))
          CFI (cfiCond153) ?RET_LOW load(1, XDATA, add(CFA_XSP16, literal(-5)))
          CFI (cfiCond153) ?RET_HIGH load(1, XDATA, add(CFA_XSP16, literal(-4)))
          CFI (cfiCond153) ?BRET_EXT load(1, XDATA, add(CFA_XSP16, literal(-3)))
          CFI (cfiCond153) DPL0 load(1, XDATA, add(CFA_XSP16, literal(-2)))
          CFI (cfiCond153) DPH0 load(1, XDATA, add(CFA_XSP16, literal(-1)))
          CFI (cfiCond153) CFA_SP SP+-2
          CFI (cfiCond153) CFA_XSP16 add(XSP16, 24)
          CFI Block cfiCond154 Using cfiCommon0
          CFI (cfiCond154) Function setChk
          CFI (cfiCond154) Conditional ??CrossCallReturnLabel_128
          CFI (cfiCond154) R6 load(1, XDATA, add(CFA_XSP16, literal(-12)))
          CFI (cfiCond154) VB load(1, XDATA, add(CFA_XSP16, literal(-11)))
          CFI (cfiCond154) V0 load(1, XDATA, add(CFA_XSP16, literal(-10)))
          CFI (cfiCond154) V1 load(1, XDATA, add(CFA_XSP16, literal(-9)))
          CFI (cfiCond154) V2 load(1, XDATA, add(CFA_XSP16, literal(-8)))
          CFI (cfiCond154) V3 load(1, XDATA, add(CFA_XSP16, literal(-7)))
          CFI (cfiCond154) R7 load(1, XDATA, add(CFA_XSP16, literal(-6)))
          CFI (cfiCond154) ?RET_LOW load(1, XDATA, add(CFA_XSP16, literal(-5)))
          CFI (cfiCond154) ?RET_HIGH load(1, XDATA, add(CFA_XSP16, literal(-4)))
          CFI (cfiCond154) ?BRET_EXT load(1, XDATA, add(CFA_XSP16, literal(-3)))
          CFI (cfiCond154) DPL0 load(1, XDATA, add(CFA_XSP16, literal(-2)))
          CFI (cfiCond154) DPH0 load(1, XDATA, add(CFA_XSP16, literal(-1)))
          CFI (cfiCond154) CFA_SP SP+-2
          CFI (cfiCond154) CFA_XSP16 add(XSP16, 16)
          CFI Block cfiCond155 Using cfiCommon0
          CFI (cfiCond155) Function calcChkF
          CFI (cfiCond155) Conditional ??CrossCallReturnLabel_129
          CFI (cfiCond155) R6 load(1, XDATA, add(CFA_XSP16, literal(-15)))
          CFI (cfiCond155) VB load(1, XDATA, add(CFA_XSP16, literal(-14)))
          CFI (cfiCond155) V0 load(1, XDATA, add(CFA_XSP16, literal(-13)))
          CFI (cfiCond155) V1 load(1, XDATA, add(CFA_XSP16, literal(-12)))
          CFI (cfiCond155) V2 load(1, XDATA, add(CFA_XSP16, literal(-11)))
          CFI (cfiCond155) V3 load(1, XDATA, add(CFA_XSP16, literal(-10)))
          CFI (cfiCond155) V4 load(1, XDATA, add(CFA_XSP16, literal(-9)))
          CFI (cfiCond155) V5 load(1, XDATA, add(CFA_XSP16, literal(-8)))
          CFI (cfiCond155) V6 load(1, XDATA, add(CFA_XSP16, literal(-7)))
          CFI (cfiCond155) R7 load(1, XDATA, add(CFA_XSP16, literal(-6)))
          CFI (cfiCond155) ?RET_LOW load(1, XDATA, add(CFA_XSP16, literal(-5)))
          CFI (cfiCond155) ?RET_HIGH load(1, XDATA, add(CFA_XSP16, literal(-4)))
          CFI (cfiCond155) ?BRET_EXT load(1, XDATA, add(CFA_XSP16, literal(-3)))
          CFI (cfiCond155) DPL0 load(1, XDATA, add(CFA_XSP16, literal(-2)))
          CFI (cfiCond155) DPH0 load(1, XDATA, add(CFA_XSP16, literal(-1)))
          CFI (cfiCond155) CFA_SP SP+-2
          CFI (cfiCond155) CFA_XSP16 add(XSP16, 21)
          CFI Block cfiCond156 Using cfiCommon0
          CFI (cfiCond156) Function writeBuf
          CFI (cfiCond156) Conditional ??CrossCallReturnLabel_130
          CFI (cfiCond156) R6 load(1, XDATA, add(CFA_XSP16, literal(-16)))
          CFI (cfiCond156) VB load(1, XDATA, add(CFA_XSP16, literal(-15)))
          CFI (cfiCond156) V0 load(1, XDATA, add(CFA_XSP16, literal(-14)))
          CFI (cfiCond156) V1 load(1, XDATA, add(CFA_XSP16, literal(-13)))
          CFI (cfiCond156) V2 load(1, XDATA, add(CFA_XSP16, literal(-12)))
          CFI (cfiCond156) V3 load(1, XDATA, add(CFA_XSP16, literal(-11)))
          CFI (cfiCond156) V4 load(1, XDATA, add(CFA_XSP16, literal(-10)))
          CFI (cfiCond156) V5 load(1, XDATA, add(CFA_XSP16, literal(-9)))
          CFI (cfiCond156) V6 load(1, XDATA, add(CFA_XSP16, literal(-8)))
          CFI (cfiCond156) V7 load(1, XDATA, add(CFA_XSP16, literal(-7)))
          CFI (cfiCond156) R7 load(1, XDATA, add(CFA_XSP16, literal(-6)))
          CFI (cfiCond156) ?RET_LOW load(1, XDATA, add(CFA_XSP16, literal(-5)))
          CFI (cfiCond156) ?RET_HIGH load(1, XDATA, add(CFA_XSP16, literal(-4)))
          CFI (cfiCond156) ?BRET_EXT load(1, XDATA, add(CFA_XSP16, literal(-3)))
          CFI (cfiCond156) DPL0 load(1, XDATA, add(CFA_XSP16, literal(-2)))
          CFI (cfiCond156) DPH0 load(1, XDATA, add(CFA_XSP16, literal(-1)))
          CFI (cfiCond156) CFA_SP SP+-2
          CFI (cfiCond156) CFA_XSP16 add(XSP16, 22)
          CFI Block cfiCond157 Using cfiCommon0
          CFI (cfiCond157) Function writeBuf
          CFI (cfiCond157) Conditional ??CrossCallReturnLabel_131
          CFI (cfiCond157) R6 load(1, XDATA, add(CFA_XSP16, literal(-16)))
          CFI (cfiCond157) VB load(1, XDATA, add(CFA_XSP16, literal(-15)))
          CFI (cfiCond157) V0 load(1, XDATA, add(CFA_XSP16, literal(-14)))
          CFI (cfiCond157) V1 load(1, XDATA, add(CFA_XSP16, literal(-13)))
          CFI (cfiCond157) V2 load(1, XDATA, add(CFA_XSP16, literal(-12)))
          CFI (cfiCond157) V3 load(1, XDATA, add(CFA_XSP16, literal(-11)))
          CFI (cfiCond157) V4 load(1, XDATA, add(CFA_XSP16, literal(-10)))
          CFI (cfiCond157) V5 load(1, XDATA, add(CFA_XSP16, literal(-9)))
          CFI (cfiCond157) V6 load(1, XDATA, add(CFA_XSP16, literal(-8)))
          CFI (cfiCond157) V7 load(1, XDATA, add(CFA_XSP16, literal(-7)))
          CFI (cfiCond157) R7 load(1, XDATA, add(CFA_XSP16, literal(-6)))
          CFI (cfiCond157) ?RET_LOW load(1, XDATA, add(CFA_XSP16, literal(-5)))
          CFI (cfiCond157) ?RET_HIGH load(1, XDATA, add(CFA_XSP16, literal(-4)))
          CFI (cfiCond157) ?BRET_EXT load(1, XDATA, add(CFA_XSP16, literal(-3)))
          CFI (cfiCond157) DPL0 load(1, XDATA, add(CFA_XSP16, literal(-2)))
          CFI (cfiCond157) DPH0 load(1, XDATA, add(CFA_XSP16, literal(-1)))
          CFI (cfiCond157) CFA_SP SP+-2
          CFI (cfiCond157) CFA_XSP16 add(XSP16, 22)
          CFI Block cfiCond158 Using cfiCommon0
          CFI (cfiCond158) Function xferBuf
          CFI (cfiCond158) Conditional ??CrossCallReturnLabel_132
          CFI (cfiCond158) R6 load(1, XDATA, add(CFA_XSP16, literal(-16)))
          CFI (cfiCond158) VB load(1, XDATA, add(CFA_XSP16, literal(-15)))
          CFI (cfiCond158) V0 load(1, XDATA, add(CFA_XSP16, literal(-14)))
          CFI (cfiCond158) V1 load(1, XDATA, add(CFA_XSP16, literal(-13)))
          CFI (cfiCond158) V2 load(1, XDATA, add(CFA_XSP16, literal(-12)))
          CFI (cfiCond158) V3 load(1, XDATA, add(CFA_XSP16, literal(-11)))
          CFI (cfiCond158) V4 load(1, XDATA, add(CFA_XSP16, literal(-10)))
          CFI (cfiCond158) V5 load(1, XDATA, add(CFA_XSP16, literal(-9)))
          CFI (cfiCond158) V6 load(1, XDATA, add(CFA_XSP16, literal(-8)))
          CFI (cfiCond158) V7 load(1, XDATA, add(CFA_XSP16, literal(-7)))
          CFI (cfiCond158) R7 load(1, XDATA, add(CFA_XSP16, literal(-6)))
          CFI (cfiCond158) ?RET_LOW load(1, XDATA, add(CFA_XSP16, literal(-5)))
          CFI (cfiCond158) ?RET_HIGH load(1, XDATA, add(CFA_XSP16, literal(-4)))
          CFI (cfiCond158) ?BRET_EXT load(1, XDATA, add(CFA_XSP16, literal(-3)))
          CFI (cfiCond158) DPL0 load(1, XDATA, add(CFA_XSP16, literal(-2)))
          CFI (cfiCond158) DPH0 load(1, XDATA, add(CFA_XSP16, literal(-1)))
          CFI (cfiCond158) CFA_SP SP+-2
          CFI (cfiCond158) CFA_XSP16 add(XSP16, 23)
          CFI Block cfiCond159 Using cfiCommon0
          CFI (cfiCond159) Function xferBuf
          CFI (cfiCond159) Conditional ??CrossCallReturnLabel_133
          CFI (cfiCond159) R6 load(1, XDATA, add(CFA_XSP16, literal(-16)))
          CFI (cfiCond159) VB load(1, XDATA, add(CFA_XSP16, literal(-15)))
          CFI (cfiCond159) V0 load(1, XDATA, add(CFA_XSP16, literal(-14)))
          CFI (cfiCond159) V1 load(1, XDATA, add(CFA_XSP16, literal(-13)))
          CFI (cfiCond159) V2 load(1, XDATA, add(CFA_XSP16, literal(-12)))
          CFI (cfiCond159) V3 load(1, XDATA, add(CFA_XSP16, literal(-11)))
          CFI (cfiCond159) V4 load(1, XDATA, add(CFA_XSP16, literal(-10)))
          CFI (cfiCond159) V5 load(1, XDATA, add(CFA_XSP16, literal(-9)))
          CFI (cfiCond159) V6 load(1, XDATA, add(CFA_XSP16, literal(-8)))
          CFI (cfiCond159) V7 load(1, XDATA, add(CFA_XSP16, literal(-7)))
          CFI (cfiCond159) R7 load(1, XDATA, add(CFA_XSP16, literal(-6)))
          CFI (cfiCond159) ?RET_LOW load(1, XDATA, add(CFA_XSP16, literal(-5)))
          CFI (cfiCond159) ?RET_HIGH load(1, XDATA, add(CFA_XSP16, literal(-4)))
          CFI (cfiCond159) ?BRET_EXT load(1, XDATA, add(CFA_XSP16, literal(-3)))
          CFI (cfiCond159) DPL0 load(1, XDATA, add(CFA_XSP16, literal(-2)))
          CFI (cfiCond159) DPH0 load(1, XDATA, add(CFA_XSP16, literal(-1)))
          CFI (cfiCond159) CFA_SP SP+-2
          CFI (cfiCond159) CFA_XSP16 add(XSP16, 23)
          CFI Block cfiCond160 Using cfiCommon0
          CFI (cfiCond160) Function writeItem
          CFI (cfiCond160) Conditional ??CrossCallReturnLabel_134
          CFI (cfiCond160) R6 load(1, XDATA, add(CFA_XSP16, literal(-16)))
          CFI (cfiCond160) VB load(1, XDATA, add(CFA_XSP16, literal(-15)))
          CFI (cfiCond160) V0 load(1, XDATA, add(CFA_XSP16, literal(-14)))
          CFI (cfiCond160) V1 load(1, XDATA, add(CFA_XSP16, literal(-13)))
          CFI (cfiCond160) V2 load(1, XDATA, add(CFA_XSP16, literal(-12)))
          CFI (cfiCond160) V3 load(1, XDATA, add(CFA_XSP16, literal(-11)))
          CFI (cfiCond160) V4 load(1, XDATA, add(CFA_XSP16, literal(-10)))
          CFI (cfiCond160) V5 load(1, XDATA, add(CFA_XSP16, literal(-9)))
          CFI (cfiCond160) V6 load(1, XDATA, add(CFA_XSP16, literal(-8)))
          CFI (cfiCond160) V7 load(1, XDATA, add(CFA_XSP16, literal(-7)))
          CFI (cfiCond160) R7 load(1, XDATA, add(CFA_XSP16, literal(-6)))
          CFI (cfiCond160) ?RET_LOW load(1, XDATA, add(CFA_XSP16, literal(-5)))
          CFI (cfiCond160) ?RET_HIGH load(1, XDATA, add(CFA_XSP16, literal(-4)))
          CFI (cfiCond160) ?BRET_EXT load(1, XDATA, add(CFA_XSP16, literal(-3)))
          CFI (cfiCond160) DPL0 load(1, XDATA, add(CFA_XSP16, literal(-2)))
          CFI (cfiCond160) DPH0 load(1, XDATA, add(CFA_XSP16, literal(-1)))
          CFI (cfiCond160) CFA_SP SP+-2
          CFI (cfiCond160) CFA_XSP16 add(XSP16, 30)
          CFI Block cfiCond161 Using cfiCommon0
          CFI (cfiCond161) Function initNV
          CFI (cfiCond161) Conditional ??CrossCallReturnLabel_123
          CFI (cfiCond161) R6 load(1, XDATA, add(CFA_XSP16, literal(-12)))
          CFI (cfiCond161) VB load(1, XDATA, add(CFA_XSP16, literal(-11)))
          CFI (cfiCond161) V0 load(1, XDATA, add(CFA_XSP16, literal(-10)))
          CFI (cfiCond161) V1 load(1, XDATA, add(CFA_XSP16, literal(-9)))
          CFI (cfiCond161) V2 load(1, XDATA, add(CFA_XSP16, literal(-8)))
          CFI (cfiCond161) V3 load(1, XDATA, add(CFA_XSP16, literal(-7)))
          CFI (cfiCond161) R7 load(1, XDATA, add(CFA_XSP16, literal(-6)))
          CFI (cfiCond161) ?RET_LOW load(1, XDATA, add(CFA_XSP16, literal(-5)))
          CFI (cfiCond161) ?RET_HIGH load(1, XDATA, add(CFA_XSP16, literal(-4)))
          CFI (cfiCond161) ?BRET_EXT load(1, XDATA, add(CFA_XSP16, literal(-3)))
          CFI (cfiCond161) DPL0 load(1, XDATA, add(CFA_XSP16, literal(-2)))
          CFI (cfiCond161) DPH0 load(1, XDATA, add(CFA_XSP16, literal(-1)))
          CFI (cfiCond161) CFA_SP SP+-2
          CFI (cfiCond161) CFA_XSP16 add(XSP16, 22)
          CFI Block cfiCond162 Using cfiCommon0
          CFI (cfiCond162) Function initItem
          CFI (cfiCond162) Conditional ??CrossCallReturnLabel_124
          CFI (cfiCond162) R6 load(1, XDATA, add(CFA_XSP16, literal(-16)))
          CFI (cfiCond162) VB load(1, XDATA, add(CFA_XSP16, literal(-15)))
          CFI (cfiCond162) V0 load(1, XDATA, add(CFA_XSP16, literal(-14)))
          CFI (cfiCond162) V1 load(1, XDATA, add(CFA_XSP16, literal(-13)))
          CFI (cfiCond162) V2 load(1, XDATA, add(CFA_XSP16, literal(-12)))
          CFI (cfiCond162) V3 load(1, XDATA, add(CFA_XSP16, literal(-11)))
          CFI (cfiCond162) V4 load(1, XDATA, add(CFA_XSP16, literal(-10)))
          CFI (cfiCond162) V5 load(1, XDATA, add(CFA_XSP16, literal(-9)))
          CFI (cfiCond162) V6 load(1, XDATA, add(CFA_XSP16, literal(-8)))
          CFI (cfiCond162) V7 load(1, XDATA, add(CFA_XSP16, literal(-7)))
          CFI (cfiCond162) R7 load(1, XDATA, add(CFA_XSP16, literal(-6)))
          CFI (cfiCond162) ?RET_LOW load(1, XDATA, add(CFA_XSP16, literal(-5)))
          CFI (cfiCond162) ?RET_HIGH load(1, XDATA, add(CFA_XSP16, literal(-4)))
          CFI (cfiCond162) ?BRET_EXT load(1, XDATA, add(CFA_XSP16, literal(-3)))
          CFI (cfiCond162) DPL0 load(1, XDATA, add(CFA_XSP16, literal(-2)))
          CFI (cfiCond162) DPH0 load(1, XDATA, add(CFA_XSP16, literal(-1)))
          CFI (cfiCond162) CFA_SP SP+-2
          CFI (cfiCond162) CFA_XSP16 add(XSP16, 28)
          CFI Block cfiCond163 Using cfiCommon0
          CFI (cfiCond163) Function compactPage
          CFI (cfiCond163) Conditional ??CrossCallReturnLabel_115
          CFI (cfiCond163) R6 load(1, XDATA, add(CFA_XSP16, literal(-15)))
          CFI (cfiCond163) VB load(1, XDATA, add(CFA_XSP16, literal(-14)))
          CFI (cfiCond163) V0 load(1, XDATA, add(CFA_XSP16, literal(-13)))
          CFI (cfiCond163) V1 load(1, XDATA, add(CFA_XSP16, literal(-12)))
          CFI (cfiCond163) V2 load(1, XDATA, add(CFA_XSP16, literal(-11)))
          CFI (cfiCond163) V3 load(1, XDATA, add(CFA_XSP16, literal(-10)))
          CFI (cfiCond163) V4 load(1, XDATA, add(CFA_XSP16, literal(-9)))
          CFI (cfiCond163) V5 load(1, XDATA, add(CFA_XSP16, literal(-8)))
          CFI (cfiCond163) V6 load(1, XDATA, add(CFA_XSP16, literal(-7)))
          CFI (cfiCond163) R7 load(1, XDATA, add(CFA_XSP16, literal(-6)))
          CFI (cfiCond163) ?RET_LOW load(1, XDATA, add(CFA_XSP16, literal(-5)))
          CFI (cfiCond163) ?RET_HIGH load(1, XDATA, add(CFA_XSP16, literal(-4)))
          CFI (cfiCond163) ?BRET_EXT load(1, XDATA, add(CFA_XSP16, literal(-3)))
          CFI (cfiCond163) DPL0 load(1, XDATA, add(CFA_XSP16, literal(-2)))
          CFI (cfiCond163) DPH0 load(1, XDATA, add(CFA_XSP16, literal(-1)))
          CFI (cfiCond163) CFA_SP SP+-2
          CFI (cfiCond163) CFA_XSP16 add(XSP16, 28)
          CFI Block cfiCond164 Using cfiCommon0
          CFI (cfiCond164) Function xferBuf
          CFI (cfiCond164) Conditional ??CrossCallReturnLabel_116
          CFI (cfiCond164) R6 load(1, XDATA, add(CFA_XSP16, literal(-16)))
          CFI (cfiCond164) VB load(1, XDATA, add(CFA_XSP16, literal(-15)))
          CFI (cfiCond164) V0 load(1, XDATA, add(CFA_XSP16, literal(-14)))
          CFI (cfiCond164) V1 load(1, XDATA, add(CFA_XSP16, literal(-13)))
          CFI (cfiCond164) V2 load(1, XDATA, add(CFA_XSP16, literal(-12)))
          CFI (cfiCond164) V3 load(1, XDATA, add(CFA_XSP16, literal(-11)))
          CFI (cfiCond164) V4 load(1, XDATA, add(CFA_XSP16, literal(-10)))
          CFI (cfiCond164) V5 load(1, XDATA, add(CFA_XSP16, literal(-9)))
          CFI (cfiCond164) V6 load(1, XDATA, add(CFA_XSP16, literal(-8)))
          CFI (cfiCond164) V7 load(1, XDATA, add(CFA_XSP16, literal(-7)))
          CFI (cfiCond164) R7 load(1, XDATA, add(CFA_XSP16, literal(-6)))
          CFI (cfiCond164) ?RET_LOW load(1, XDATA, add(CFA_XSP16, literal(-5)))
          CFI (cfiCond164) ?RET_HIGH load(1, XDATA, add(CFA_XSP16, literal(-4)))
          CFI (cfiCond164) ?BRET_EXT load(1, XDATA, add(CFA_XSP16, literal(-3)))
          CFI (cfiCond164) DPL0 load(1, XDATA, add(CFA_XSP16, literal(-2)))
          CFI (cfiCond164) DPH0 load(1, XDATA, add(CFA_XSP16, literal(-1)))
          CFI (cfiCond164) CFA_SP SP+-2
          CFI (cfiCond164) CFA_XSP16 add(XSP16, 23)
          CFI Block cfiCond165 Using cfiCommon0
          CFI (cfiCond165) Function xferBuf
          CFI (cfiCond165) Conditional ??CrossCallReturnLabel_117
          CFI (cfiCond165) R6 load(1, XDATA, add(CFA_XSP16, literal(-16)))
          CFI (cfiCond165) VB load(1, XDATA, add(CFA_XSP16, literal(-15)))
          CFI (cfiCond165) V0 load(1, XDATA, add(CFA_XSP16, literal(-14)))
          CFI (cfiCond165) V1 load(1, XDATA, add(CFA_XSP16, literal(-13)))
          CFI (cfiCond165) V2 load(1, XDATA, add(CFA_XSP16, literal(-12)))
          CFI (cfiCond165) V3 load(1, XDATA, add(CFA_XSP16, literal(-11)))
          CFI (cfiCond165) V4 load(1, XDATA, add(CFA_XSP16, literal(-10)))
          CFI (cfiCond165) V5 load(1, XDATA, add(CFA_XSP16, literal(-9)))
          CFI (cfiCond165) V6 load(1, XDATA, add(CFA_XSP16, literal(-8)))
          CFI (cfiCond165) V7 load(1, XDATA, add(CFA_XSP16, literal(-7)))
          CFI (cfiCond165) R7 load(1, XDATA, add(CFA_XSP16, literal(-6)))
          CFI (cfiCond165) ?RET_LOW load(1, XDATA, add(CFA_XSP16, literal(-5)))
          CFI (cfiCond165) ?RET_HIGH load(1, XDATA, add(CFA_XSP16, literal(-4)))
          CFI (cfiCond165) ?BRET_EXT load(1, XDATA, add(CFA_XSP16, literal(-3)))
          CFI (cfiCond165) DPL0 load(1, XDATA, add(CFA_XSP16, literal(-2)))
          CFI (cfiCond165) DPH0 load(1, XDATA, add(CFA_XSP16, literal(-1)))
          CFI (cfiCond165) CFA_SP SP+-2
          CFI (cfiCond165) CFA_XSP16 add(XSP16, 23)
          CFI Block cfiCond166 Using cfiCommon0
          CFI (cfiCond166) Function xferBuf
          CFI (cfiCond166) Conditional ??CrossCallReturnLabel_118
          CFI (cfiCond166) R6 load(1, XDATA, add(CFA_XSP16, literal(-16)))
          CFI (cfiCond166) VB load(1, XDATA, add(CFA_XSP16, literal(-15)))
          CFI (cfiCond166) V0 load(1, XDATA, add(CFA_XSP16, literal(-14)))
          CFI (cfiCond166) V1 load(1, XDATA, add(CFA_XSP16, literal(-13)))
          CFI (cfiCond166) V2 load(1, XDATA, add(CFA_XSP16, literal(-12)))
          CFI (cfiCond166) V3 load(1, XDATA, add(CFA_XSP16, literal(-11)))
          CFI (cfiCond166) V4 load(1, XDATA, add(CFA_XSP16, literal(-10)))
          CFI (cfiCond166) V5 load(1, XDATA, add(CFA_XSP16, literal(-9)))
          CFI (cfiCond166) V6 load(1, XDATA, add(CFA_XSP16, literal(-8)))
          CFI (cfiCond166) V7 load(1, XDATA, add(CFA_XSP16, literal(-7)))
          CFI (cfiCond166) R7 load(1, XDATA, add(CFA_XSP16, literal(-6)))
          CFI (cfiCond166) ?RET_LOW load(1, XDATA, add(CFA_XSP16, literal(-5)))
          CFI (cfiCond166) ?RET_HIGH load(1, XDATA, add(CFA_XSP16, literal(-4)))
          CFI (cfiCond166) ?BRET_EXT load(1, XDATA, add(CFA_XSP16, literal(-3)))
          CFI (cfiCond166) DPL0 load(1, XDATA, add(CFA_XSP16, literal(-2)))
          CFI (cfiCond166) DPH0 load(1, XDATA, add(CFA_XSP16, literal(-1)))
          CFI (cfiCond166) CFA_SP SP+-2
          CFI (cfiCond166) CFA_XSP16 add(XSP16, 23)
          CFI Block cfiCond167 Using cfiCommon0
          CFI (cfiCond167) Function osal_nv_item_len
          CFI (cfiCond167) Conditional ??CrossCallReturnLabel_119
          CFI (cfiCond167) R6 load(1, XDATA, add(CFA_XSP16, literal(-10)))
          CFI (cfiCond167) VB load(1, XDATA, add(CFA_XSP16, literal(-9)))
          CFI (cfiCond167) V0 load(1, XDATA, add(CFA_XSP16, literal(-8)))
          CFI (cfiCond167) V1 load(1, XDATA, add(CFA_XSP16, literal(-7)))
          CFI (cfiCond167) R7 load(1, XDATA, add(CFA_XSP16, literal(-6)))
          CFI (cfiCond167) ?RET_LOW load(1, XDATA, add(CFA_XSP16, literal(-5)))
          CFI (cfiCond167) ?RET_HIGH load(1, XDATA, add(CFA_XSP16, literal(-4)))
          CFI (cfiCond167) ?BRET_EXT load(1, XDATA, add(CFA_XSP16, literal(-3)))
          CFI (cfiCond167) DPL0 load(1, XDATA, add(CFA_XSP16, literal(-2)))
          CFI (cfiCond167) DPH0 load(1, XDATA, add(CFA_XSP16, literal(-1)))
          CFI (cfiCond167) CFA_SP SP+-2
          CFI (cfiCond167) CFA_XSP16 add(XSP16, 20)
          CFI Block cfiCond168 Using cfiCommon0
          CFI (cfiCond168) Function osal_nv_write
          CFI (cfiCond168) Conditional ??CrossCallReturnLabel_120
          CFI (cfiCond168) R6 load(1, XDATA, add(CFA_XSP16, literal(-16)))
          CFI (cfiCond168) VB load(1, XDATA, add(CFA_XSP16, literal(-15)))
          CFI (cfiCond168) V0 load(1, XDATA, add(CFA_XSP16, literal(-14)))
          CFI (cfiCond168) V1 load(1, XDATA, add(CFA_XSP16, literal(-13)))
          CFI (cfiCond168) V2 load(1, XDATA, add(CFA_XSP16, literal(-12)))
          CFI (cfiCond168) V3 load(1, XDATA, add(CFA_XSP16, literal(-11)))
          CFI (cfiCond168) V4 load(1, XDATA, add(CFA_XSP16, literal(-10)))
          CFI (cfiCond168) V5 load(1, XDATA, add(CFA_XSP16, literal(-9)))
          CFI (cfiCond168) V6 load(1, XDATA, add(CFA_XSP16, literal(-8)))
          CFI (cfiCond168) V7 load(1, XDATA, add(CFA_XSP16, literal(-7)))
          CFI (cfiCond168) R7 load(1, XDATA, add(CFA_XSP16, literal(-6)))
          CFI (cfiCond168) ?RET_LOW load(1, XDATA, add(CFA_XSP16, literal(-5)))
          CFI (cfiCond168) ?RET_HIGH load(1, XDATA, add(CFA_XSP16, literal(-4)))
          CFI (cfiCond168) ?BRET_EXT load(1, XDATA, add(CFA_XSP16, literal(-3)))
          CFI (cfiCond168) DPL0 load(1, XDATA, add(CFA_XSP16, literal(-2)))
          CFI (cfiCond168) DPH0 load(1, XDATA, add(CFA_XSP16, literal(-1)))
          CFI (cfiCond168) CFA_SP SP+-2
          CFI (cfiCond168) CFA_XSP16 add(XSP16, 37)
          CFI Block cfiCond169 Using cfiCommon0
          CFI (cfiCond169) Function osal_nv_write
          CFI (cfiCond169) Conditional ??CrossCallReturnLabel_121
          CFI (cfiCond169) R6 load(1, XDATA, add(CFA_XSP16, literal(-16)))
          CFI (cfiCond169) VB load(1, XDATA, add(CFA_XSP16, literal(-15)))
          CFI (cfiCond169) V0 load(1, XDATA, add(CFA_XSP16, literal(-14)))
          CFI (cfiCond169) V1 load(1, XDATA, add(CFA_XSP16, literal(-13)))
          CFI (cfiCond169) V2 load(1, XDATA, add(CFA_XSP16, literal(-12)))
          CFI (cfiCond169) V3 load(1, XDATA, add(CFA_XSP16, literal(-11)))
          CFI (cfiCond169) V4 load(1, XDATA, add(CFA_XSP16, literal(-10)))
          CFI (cfiCond169) V5 load(1, XDATA, add(CFA_XSP16, literal(-9)))
          CFI (cfiCond169) V6 load(1, XDATA, add(CFA_XSP16, literal(-8)))
          CFI (cfiCond169) V7 load(1, XDATA, add(CFA_XSP16, literal(-7)))
          CFI (cfiCond169) R7 load(1, XDATA, add(CFA_XSP16, literal(-6)))
          CFI (cfiCond169) ?RET_LOW load(1, XDATA, add(CFA_XSP16, literal(-5)))
          CFI (cfiCond169) ?RET_HIGH load(1, XDATA, add(CFA_XSP16, literal(-4)))
          CFI (cfiCond169) ?BRET_EXT load(1, XDATA, add(CFA_XSP16, literal(-3)))
          CFI (cfiCond169) DPL0 load(1, XDATA, add(CFA_XSP16, literal(-2)))
          CFI (cfiCond169) DPH0 load(1, XDATA, add(CFA_XSP16, literal(-1)))
          CFI (cfiCond169) CFA_SP SP+-2
          CFI (cfiCond169) CFA_XSP16 add(XSP16, 37)
          CFI Block cfiCond170 Using cfiCommon0
          CFI (cfiCond170) Function osal_nv_read
          CFI (cfiCond170) Conditional ??CrossCallReturnLabel_122
          CFI (cfiCond170) R6 load(1, XDATA, add(CFA_XSP16, literal(-16)))
          CFI (cfiCond170) VB load(1, XDATA, add(CFA_XSP16, literal(-15)))
          CFI (cfiCond170) V0 load(1, XDATA, add(CFA_XSP16, literal(-14)))
          CFI (cfiCond170) V1 load(1, XDATA, add(CFA_XSP16, literal(-13)))
          CFI (cfiCond170) V2 load(1, XDATA, add(CFA_XSP16, literal(-12)))
          CFI (cfiCond170) V3 load(1, XDATA, add(CFA_XSP16, literal(-11)))
          CFI (cfiCond170) V4 load(1, XDATA, add(CFA_XSP16, literal(-10)))
          CFI (cfiCond170) V5 load(1, XDATA, add(CFA_XSP16, literal(-9)))
          CFI (cfiCond170) V6 load(1, XDATA, add(CFA_XSP16, literal(-8)))
          CFI (cfiCond170) V7 load(1, XDATA, add(CFA_XSP16, literal(-7)))
          CFI (cfiCond170) R7 load(1, XDATA, add(CFA_XSP16, literal(-6)))
          CFI (cfiCond170) ?RET_LOW load(1, XDATA, add(CFA_XSP16, literal(-5)))
          CFI (cfiCond170) ?RET_HIGH load(1, XDATA, add(CFA_XSP16, literal(-4)))
          CFI (cfiCond170) ?BRET_EXT load(1, XDATA, add(CFA_XSP16, literal(-3)))
          CFI (cfiCond170) DPL0 load(1, XDATA, add(CFA_XSP16, literal(-2)))
          CFI (cfiCond170) DPH0 load(1, XDATA, add(CFA_XSP16, literal(-1)))
          CFI (cfiCond170) CFA_SP SP+-2
          CFI (cfiCond170) CFA_XSP16 add(XSP16, 18)
          CFI Block cfiPicker171 Using cfiCommon1
          CFI (cfiPicker171) NoFunction
          CFI (cfiPicker171) Picker
        LCALL     `??HalFlashRead::?relay`; Banked call to: HalFlashRead
        MOV       A,#0x2
        RET
          CFI EndBlock cfiCond151
          CFI EndBlock cfiCond152
          CFI EndBlock cfiCond153
          CFI EndBlock cfiCond154
          CFI EndBlock cfiCond155
          CFI EndBlock cfiCond156
          CFI EndBlock cfiCond157
          CFI EndBlock cfiCond158
          CFI EndBlock cfiCond159
          CFI EndBlock cfiCond160
          CFI EndBlock cfiCond161
          CFI EndBlock cfiCond162
          CFI EndBlock cfiCond163
          CFI EndBlock cfiCond164
          CFI EndBlock cfiCond165
          CFI EndBlock cfiCond166
          CFI EndBlock cfiCond167
          CFI EndBlock cfiCond168
          CFI EndBlock cfiCond169
          CFI EndBlock cfiCond170
          CFI EndBlock cfiPicker171

        RSEG BANKED_CODE:HUGECODE:NOROOT(0)
?Subroutine2:
          CFI Block cfiBlock172 Using cfiCommon0
          CFI NoFunction
          CFI CFA_SP SP+0
          CFI CFA_XSP16 add(XSP16, 26)
          CFI VB load(1, XDATA, add(CFA_XSP16, literal(-15)))
          CFI DPL0 load(1, XDATA, add(CFA_XSP16, literal(-2)))
          CFI DPH0 load(1, XDATA, add(CFA_XSP16, literal(-1)))
          CFI R6 load(1, XDATA, add(CFA_XSP16, literal(-16)))
          CFI R7 load(1, XDATA, add(CFA_XSP16, literal(-6)))
          CFI V0 load(1, XDATA, add(CFA_XSP16, literal(-14)))
          CFI V1 load(1, XDATA, add(CFA_XSP16, literal(-13)))
          CFI V2 load(1, XDATA, add(CFA_XSP16, literal(-12)))
          CFI V3 load(1, XDATA, add(CFA_XSP16, literal(-11)))
          CFI V4 load(1, XDATA, add(CFA_XSP16, literal(-10)))
          CFI V5 load(1, XDATA, add(CFA_XSP16, literal(-9)))
          CFI V6 load(1, XDATA, add(CFA_XSP16, literal(-8)))
          CFI V7 load(1, XDATA, add(CFA_XSP16, literal(-7)))
          CFI ?BRET_EXT load(1, XDATA, add(CFA_XSP16, literal(-3)))
          CFI ?RET_HIGH load(1, XDATA, add(CFA_XSP16, literal(-4)))
          CFI ?RET_LOW load(1, XDATA, add(CFA_XSP16, literal(-5)))
        MOV       A,#0xa
          CFI EndBlock cfiBlock172
        REQUIRE ??Subroutine62_0
        ; // Fall through to label ??Subroutine62_0

        RSEG BANKED_CODE:HUGECODE:NOROOT(0)
??Subroutine62_0:
          CFI Block cfiBlock173 Using cfiCommon0
          CFI NoFunction
          CFI CFA_SP SP+0
          CFI CFA_XSP16 add(XSP16, 20)
          CFI VB load(1, XDATA, add(CFA_XSP16, literal(-15)))
          CFI DPL0 load(1, XDATA, add(CFA_XSP16, literal(-2)))
          CFI DPH0 load(1, XDATA, add(CFA_XSP16, literal(-1)))
          CFI R6 load(1, XDATA, add(CFA_XSP16, literal(-16)))
          CFI R7 load(1, XDATA, add(CFA_XSP16, literal(-6)))
          CFI V0 load(1, XDATA, add(CFA_XSP16, literal(-14)))
          CFI V1 load(1, XDATA, add(CFA_XSP16, literal(-13)))
          CFI V2 load(1, XDATA, add(CFA_XSP16, literal(-12)))
          CFI V3 load(1, XDATA, add(CFA_XSP16, literal(-11)))
          CFI V4 load(1, XDATA, add(CFA_XSP16, literal(-10)))
          CFI V5 load(1, XDATA, add(CFA_XSP16, literal(-9)))
          CFI V6 load(1, XDATA, add(CFA_XSP16, literal(-8)))
          CFI V7 load(1, XDATA, add(CFA_XSP16, literal(-7)))
          CFI ?BRET_EXT load(1, XDATA, add(CFA_XSP16, literal(-3)))
          CFI ?RET_HIGH load(1, XDATA, add(CFA_XSP16, literal(-4)))
          CFI ?RET_LOW load(1, XDATA, add(CFA_XSP16, literal(-5)))
          CFI Invalid
        LCALL     ?DEALLOC_XSTACK8
          CFI EndBlock cfiBlock173
        REQUIRE ??Subroutine63_0
        ; // Fall through to label ??Subroutine63_0

        RSEG BANKED_CODE:HUGECODE:NOROOT(0)
??Subroutine63_0:
          CFI Block cfiBlock174 Using cfiCommon0
          CFI NoFunction
          CFI CFA_SP SP+0
          CFI CFA_XSP16 add(XSP16, 16)
          CFI VB load(1, XDATA, add(CFA_XSP16, literal(-15)))
          CFI DPL0 load(1, XDATA, add(CFA_XSP16, literal(-2)))
          CFI DPH0 load(1, XDATA, add(CFA_XSP16, literal(-1)))
          CFI R6 load(1, XDATA, add(CFA_XSP16, literal(-16)))
          CFI R7 load(1, XDATA, add(CFA_XSP16, literal(-6)))
          CFI V0 load(1, XDATA, add(CFA_XSP16, literal(-14)))
          CFI V1 load(1, XDATA, add(CFA_XSP16, literal(-13)))
          CFI V2 load(1, XDATA, add(CFA_XSP16, literal(-12)))
          CFI V3 load(1, XDATA, add(CFA_XSP16, literal(-11)))
          CFI V4 load(1, XDATA, add(CFA_XSP16, literal(-10)))
          CFI V5 load(1, XDATA, add(CFA_XSP16, literal(-9)))
          CFI V6 load(1, XDATA, add(CFA_XSP16, literal(-8)))
          CFI V7 load(1, XDATA, add(CFA_XSP16, literal(-7)))
          CFI ?BRET_EXT load(1, XDATA, add(CFA_XSP16, literal(-3)))
          CFI ?RET_HIGH load(1, XDATA, add(CFA_XSP16, literal(-4)))
          CFI ?RET_LOW load(1, XDATA, add(CFA_XSP16, literal(-5)))
        MOV       R7,#0x8
        LJMP      ?BANKED_LEAVE_XDATA
          CFI EndBlock cfiBlock174
// 1079 
// 1080 /*********************************************************************
// 1081  * @fn      writeItem
// 1082  *
// 1083  * @brief   Writes an item header/data combo to the specified NV page.
// 1084  *
// 1085  * @param   pg - Valid NV Flash page.
// 1086  * @param   id - Valid NV item Id.
// 1087  * @param   len  - Byte count of the data to write.
// 1088  * @param   buf  - The data to write. If NULL, no data/checksum write.
// 1089  * @param   flag - TRUE if the checksum should be written, FALSE otherwise.
// 1090  *
// 1091  * @return  TRUE if header/data to write matches header/data read back, else FALSE.
// 1092  */

        RSEG BANKED_CODE:HUGECODE:NOROOT(0)
// 1093 static uint8 writeItem( uint8 pg, uint16 id, uint16 len, void *buf, uint8 flag )
writeItem:
          CFI Block cfiBlock175 Using cfiCommon0
          CFI Function writeItem
        CODE
// 1094 {
        FUNCALL writeItem, writeWord
        LOCFRAME ISTACK, 0, STACK
        LOCFRAME PSTACK, 0, STACK
        LOCFRAME XSTACK, 28, STACK
        LOCFRAME IOVERLAY, 0, STATIC
        LOCFRAME DOVERLAY, 0, STATIC
        ARGFRAME ISTACK, 0, STACK
        ARGFRAME PSTACK, 0, STACK
        ARGFRAME XSTACK, 28, STACK
        ARGFRAME IOVERLAY, 0, STATIC
        ARGFRAME DOVERLAY, 0, STATIC
        FUNCALL writeItem, HalFlashRead
        LOCFRAME ISTACK, 0, STACK
        LOCFRAME PSTACK, 0, STACK
        LOCFRAME XSTACK, 30, STACK
        LOCFRAME IOVERLAY, 0, STATIC
        LOCFRAME DOVERLAY, 0, STATIC
        ARGFRAME ISTACK, 0, STACK
        ARGFRAME PSTACK, 0, STACK
        ARGFRAME XSTACK, 30, STACK
        ARGFRAME IOVERLAY, 0, STATIC
        ARGFRAME DOVERLAY, 0, STATIC
        FUNCALL writeItem, writeBuf
        LOCFRAME ISTACK, 0, STACK
        LOCFRAME PSTACK, 0, STACK
        LOCFRAME XSTACK, 30, STACK
        LOCFRAME IOVERLAY, 0, STATIC
        LOCFRAME DOVERLAY, 0, STATIC
        ARGFRAME ISTACK, 0, STACK
        ARGFRAME PSTACK, 0, STACK
        ARGFRAME XSTACK, 30, STACK
        ARGFRAME IOVERLAY, 0, STATIC
        ARGFRAME DOVERLAY, 0, STATIC
        FUNCALL writeItem, calcChkF
        LOCFRAME ISTACK, 0, STACK
        LOCFRAME PSTACK, 0, STACK
        LOCFRAME XSTACK, 28, STACK
        LOCFRAME IOVERLAY, 0, STATIC
        LOCFRAME DOVERLAY, 0, STATIC
        ARGFRAME ISTACK, 0, STACK
        ARGFRAME PSTACK, 0, STACK
        ARGFRAME XSTACK, 28, STACK
        ARGFRAME IOVERLAY, 0, STATIC
        ARGFRAME DOVERLAY, 0, STATIC
        FUNCALL writeItem, setChk
        LOCFRAME ISTACK, 0, STACK
        LOCFRAME PSTACK, 0, STACK
        LOCFRAME XSTACK, 28, STACK
        LOCFRAME IOVERLAY, 0, STATIC
        LOCFRAME DOVERLAY, 0, STATIC
        ARGFRAME ISTACK, 0, STACK
        ARGFRAME PSTACK, 0, STACK
        ARGFRAME XSTACK, 28, STACK
        ARGFRAME IOVERLAY, 0, STATIC
        ARGFRAME DOVERLAY, 0, STATIC
        FUNCALL writeItem, hotItemUpdate
        LOCFRAME ISTACK, 0, STACK
        LOCFRAME PSTACK, 0, STACK
        LOCFRAME XSTACK, 28, STACK
        LOCFRAME IOVERLAY, 0, STATIC
        LOCFRAME DOVERLAY, 0, STATIC
        ARGFRAME ISTACK, 0, STACK
        ARGFRAME PSTACK, 0, STACK
        ARGFRAME XSTACK, 28, STACK
        ARGFRAME IOVERLAY, 0, STATIC
        ARGFRAME DOVERLAY, 0, STATIC
        REQUIRE ?V0
        REQUIRE ?V1
        REQUIRE ?V2
        REQUIRE ?V3
        REQUIRE ?V4
        REQUIRE ?V5
        REQUIRE ?V6
        REQUIRE ?V7
        MOV       A,#-0x10
        LCALL     ?BANKED_ENTER_XDATA
          CFI DPH0 load(1, XDATA, add(CFA_XSP16, literal(-1)))
          CFI DPL0 load(1, XDATA, add(CFA_XSP16, literal(-2)))
          CFI ?BRET_EXT load(1, XDATA, add(CFA_XSP16, literal(-3)))
          CFI ?RET_HIGH load(1, XDATA, add(CFA_XSP16, literal(-4)))
          CFI ?RET_LOW load(1, XDATA, add(CFA_XSP16, literal(-5)))
          CFI R7 load(1, XDATA, add(CFA_XSP16, literal(-6)))
          CFI V7 load(1, XDATA, add(CFA_XSP16, literal(-7)))
          CFI V6 load(1, XDATA, add(CFA_XSP16, literal(-8)))
          CFI V5 load(1, XDATA, add(CFA_XSP16, literal(-9)))
          CFI V4 load(1, XDATA, add(CFA_XSP16, literal(-10)))
          CFI V3 load(1, XDATA, add(CFA_XSP16, literal(-11)))
          CFI V2 load(1, XDATA, add(CFA_XSP16, literal(-12)))
          CFI V1 load(1, XDATA, add(CFA_XSP16, literal(-13)))
          CFI V0 load(1, XDATA, add(CFA_XSP16, literal(-14)))
          CFI VB load(1, XDATA, add(CFA_XSP16, literal(-15)))
          CFI R6 load(1, XDATA, add(CFA_XSP16, literal(-16)))
          CFI CFA_SP SP+0
          CFI CFA_XSP16 add(XSP16, 16)
        ; Saved register size: 16
        ; Auto size: 12
        MOV       A,#-0xc
        LCALL     ?ALLOC_XSTACK8
          CFI CFA_XSP16 add(XSP16, 28)
        MOV       A,#0xa
        LCALL     ?XSTACK_DISP0_8
        LCALL     ?Subroutine9 & 0xFFFF
??CrossCallReturnLabel_6:
        MOV       A,R4
        MOV       R6,A
        MOV       A,R5
        MOV       R7,A
// 1095   uint16 offset = pgOff[pg-OSAL_NV_PAGE_BEG];
        MOV       A,R1
        ADD       A,R1
        MOV       ?V0,A
        CLR       A
        RLC       A
        MOV       ?V1,A
        MOV       A,#(pgOff + 14) & 0xff
        ADD       A,?V0
        MOV       R0,A
        MOV       A,#((pgOff - 242) >> 8) & 0xff
        ADDC      A,?V1
        MOV       R1,A
        MOV       DPL,?XSP + 0
        MOV       DPH,?XSP + 1
        LCALL     ?Subroutine10 & 0xFFFF
??CrossCallReturnLabel_10:
        LCALL     ?Subroutine16 & 0xFFFF
??CrossCallReturnLabel_137:
        MOV       ?V2,A
        INC       DPTR
        MOVX      A,@DPTR
        MOV       ?V3,A
// 1096   uint8 rtrn = FALSE;
        MOV       ?V7,#0x0
// 1097   osalNvHdr_t hdr;
// 1098 
// 1099   hdr.id = id;
        MOV       A,#0xa
        LCALL     ?XSTACK_DISP0_8
        LCALL     ?Subroutine23 & 0xFFFF
??CrossCallReturnLabel_40:
        MOV       A,#0x2
        LCALL     ?XSTACK_DISP0_8
        LCALL     ?Subroutine10 & 0xFFFF
// 1100   hdr.len = len;
??CrossCallReturnLabel_11:
        MOV       A,#0x4
        LCALL     ?XSTACK_DISP0_8
        MOV       A,R4
        MOVX      @DPTR,A
        INC       DPTR
        MOV       A,R5
        MOVX      @DPTR,A
// 1101 
// 1102   writeWord( pg, offset, (uint8 *)&hdr );
        ; Setup parameters for call to function writeWord
        MOV       A,#0x2
        LCALL     ?XSTACK_DISP102_8
        MOV       R2,?V2
        MOV       R3,?V3
        MOV       R1,?V6
        LCALL     `??writeWord::?relay`; Banked call to: writeWord
// 1103   HalFlashRead(pg, offset, (uint8 *)(&hdr), OSAL_NV_HDR_SIZE);
        ; Setup parameters for call to function HalFlashRead
        MOV       ?V4,#0x8
        MOV       ?V5,#0x0
        MOV       R0,#?V4
        LCALL     ?PUSH_XSTACK_I_TWO
          CFI CFA_XSP16 add(XSP16, 30)
        MOV       A,#0x4
        LCALL     ?XSTACK_DISP102_8
        MOV       R2,?V2
        MOV       R3,?V3
        MOV       R1,?V6
        LCALL     ??Subroutine61_0 & 0xFFFF
??CrossCallReturnLabel_134:
        LCALL     ?DEALLOC_XSTACK8
          CFI CFA_XSP16 add(XSP16, 28)
// 1104 
// 1105   if ( (hdr.id == id) && (hdr.len == len) )
        MOV       A,#0x4
        LCALL     ?XSTACK_DISP0_8
        LCALL     ?Subroutine23 & 0xFFFF
??CrossCallReturnLabel_41:
        MOV       A,#0x2
        LCALL     ?XSTACK_DISP0_8
        LCALL     ??Subroutine67_0 & 0xFFFF
??CrossCallReturnLabel_151:
        MOV       A,#0xa
        LCALL     ?XSTACK_DISP0_8
        MOVX      A,@DPTR
        XRL       A,R2
        JNZ       ??writeItem_0
        INC       DPTR
        MOVX      A,@DPTR
        XRL       A,R3
??writeItem_0:
        JZ        $+5
        LJMP      ??writeItem_1 & 0xFFFF
        MOV       A,R6
        XRL       A,R0
        JNZ       ??writeItem_2
        MOV       A,R7
        XRL       A,R1
??writeItem_2:
        JZ        $+5
        LJMP      ??writeItem_1 & 0xFFFF
// 1106   {
// 1107     if ( flag )
        MOV       A,#0x1e
        LCALL     ?XSTACK_DISP0_8
        MOVX      A,@DPTR
        JNZ       $+5
        LJMP      ??writeItem_3 & 0xFFFF
        MOV       A,#0x1c
        LCALL     ?XSTACK_DISP0_8
        LCALL     ?Subroutine19 & 0xFFFF
// 1108     {
// 1109       hdr.chk = calcChkB( len, buf );
??CrossCallReturnLabel_30:
        MOV       DPL,?V0
        MOV       DPH,A
        MOV       A,R6
        MOV       R0,A
        MOV       A,R7
        MOV       R1,A
        MOV       A,R6
        ANL       A,#0x3
        MOV       ?V4,A
        MOV       A,DPL
        ORL       A,DPH
        JNZ       ??writeItem_4
        MOV       A,R6
        MOV       B,#-0x1
        MUL       AB
        MOV       R0,A
        MOV       R2,B
        MOV       B,#-0x1
        MOV       A,R7
        MUL       AB
        ADD       A,R2
        MOV       R1,A
        MOV       A,R0
        MOV       R2,A
        MOV       A,R1
        MOV       R3,A
        SJMP      ??writeItem_5
??writeItem_4:
        MOV       R2,#0x0
        MOV       R3,#0x0
        SJMP      ??writeItem_6
??writeItem_7:
        MOVX      A,@DPTR
        MOV       R4,A
        MOV       A,R2
        ADD       A,R4
        MOV       R2,A
        CLR       A
        ADDC      A,R3
        MOV       R3,A
        INC       DPTR
??writeItem_6:
        MOV       A,R0
        MOV       R4,A
        MOV       A,R1
        MOV       R5,A
        MOV       A,R4
        ADD       A,#-0x1
        DEC       R0
        MOV       A,R5
        ADDC      A,#-0x1
        MOV       R1,A
        MOV       A,R4
        ORL       A,R5
        JNZ       ??writeItem_7
??writeItem_5:
        MOV       A,?V4
        JZ        ??writeItem_8
        MOV       R0,A
        MOV       A,#0x4
        CLR       C
        SUBB      A,R0
        MOV       R0,A
        SUBB      A,0xE0 /* A   */
        MOV       R1,A
        MOV       A,R0
        MOV       B,#-0x1
        MUL       AB
        MOV       R0,A
        MOV       R4,B
        MOV       B,#-0x1
        MOV       A,R1
        MUL       AB
        ADD       A,R4
        MOV       R1,A
        MOV       A,R2
        ADD       A,R0
        MOV       R2,A
        MOV       A,R3
        ADDC      A,R1
        MOV       R3,A
??writeItem_8:
        MOV       A,#0x6
        LCALL     ?XSTACK_DISP0_8
        MOV       A,R2
        MOVX      @DPTR,A
        INC       DPTR
        MOV       A,R3
        MOVX      @DPTR,A
// 1110 
// 1111       offset += OSAL_NV_HDR_SIZE;
        LCALL     ?Subroutine39 & 0xFFFF
// 1112       if ( buf != NULL )
??CrossCallReturnLabel_73:
        MOV       A,?V0
        ORL       A,?V1
        JZ        ??writeItem_9
// 1113       {
// 1114         writeBuf( pg, offset, len, buf );
        ; Setup parameters for call to function writeBuf
        MOV       R0,#?V0
        LCALL     ?PUSH_XSTACK_I_TWO
          CFI CFA_XSP16 add(XSP16, 30)
        MOV       A,R6
        MOV       R4,A
        MOV       A,R7
        MOV       R5,A
        MOV       R2,?V2
        MOV       R3,?V3
        MOV       R1,?V6
        LCALL     `??writeBuf::?relay`; Banked call to: writeBuf
        MOV       A,#0x2
        LCALL     ?DEALLOC_XSTACK8
          CFI CFA_XSP16 add(XSP16, 28)
// 1115       }
// 1116 
// 1117       if ( hdr.chk == calcChkF( pg, offset, len ) )
??writeItem_9:
        ; Setup parameters for call to function calcChkF
        MOV       A,R6
        MOV       R4,A
        MOV       A,R7
        MOV       R5,A
        MOV       R2,?V2
        MOV       R3,?V3
        MOV       R1,?V6
        LCALL     `??calcChkF::?relay`; Banked call to: calcChkF
        MOV       A,#0x6
        LCALL     ?XSTACK_DISP0_8
        LCALL     ?Subroutine20 & 0xFFFF
??CrossCallReturnLabel_32:
        JNZ       ??writeItem_10
        MOV       A,R3
        XRL       A,R5
??writeItem_10:
        JNZ       ??writeItem_11
// 1118       {
// 1119         if ( hdr.chk == setChk( pg, offset, hdr.chk ) )
        ; Setup parameters for call to function setChk
        MOV       R2,?V2
        MOV       R3,?V3
        LCALL     ?Subroutine41 & 0xFFFF
??CrossCallReturnLabel_76:
        MOV       A,#0x6
        LCALL     ?XSTACK_DISP0_8
        MOVX      A,@DPTR
        XRL       A,R0
        JNZ       ??writeItem_12
        INC       DPTR
        MOVX      A,@DPTR
        XRL       A,R1
??writeItem_12:
        JNZ       ??writeItem_11
// 1120         {
// 1121           hotItemUpdate(pg, offset, hdr.id);
        ; Setup parameters for call to function hotItemUpdate
        MOV       A,#0x2
        LCALL     ?XSTACK_DISP0_8
        LCALL     ?Subroutine27 & 0xFFFF
??CrossCallReturnLabel_52:
        MOV       R2,?V2
        MOV       R3,?V3
        MOV       R1,?V6
        LCALL     `??hotItemUpdate::?relay`; Banked call to: hotItemUpdate
// 1122           rtrn = TRUE;
// 1123         }
// 1124       }
// 1125     }
// 1126     else
// 1127     {
// 1128       rtrn = TRUE;
??writeItem_3:
        MOV       ?V7,#0x1
// 1129     }
// 1130 
// 1131     len = OSAL_NV_ITEM_SIZE( hdr.len );
??writeItem_11:
        MOV       A,#0x4
        LCALL     ?XSTACK_DISP0_8
        LCALL     ?Subroutine23 & 0xFFFF
// 1132   }
??CrossCallReturnLabel_42:
        CLR       C
        MOV       A,R0
        SUBB      A,#-0xc
        MOV       A,R1
        SUBB      A,#-0x1
        JC        ??writeItem_13
        MOV       R6,#-0x4
        MOV       R7,#-0x1
        SJMP      ??CrossCallReturnLabel_109
??writeItem_13:
        MOV       A,R0
        ADD       A,#0x3
        JNC       ??writeItem_14
        INC       R1
??writeItem_14:
        LCALL     ?Subroutine34 & 0xFFFF
??CrossCallReturnLabel_64:
        SJMP      ??CrossCallReturnLabel_109
// 1133   else
// 1134   {
// 1135     len = OSAL_NV_ITEM_SIZE( hdr.len );
??writeItem_1:
        CLR       C
        MOV       A,R0
        SUBB      A,#-0xc
        MOV       A,R1
        SUBB      A,#-0x1
        JC        ??writeItem_15
        MOV       R6,#-0x4
        MOV       R7,#-0x1
        SJMP      ??CrossCallReturnLabel_65
??writeItem_15:
        MOV       A,R0
        ADD       A,#0x3
        JNC       ??writeItem_16
        INC       R1
??writeItem_16:
        LCALL     ?Subroutine34 & 0xFFFF
// 1136 
// 1137     if (len > (OSAL_NV_PAGE_SIZE - pgOff[pg - OSAL_NV_PAGE_BEG]))
??CrossCallReturnLabel_65:
        LCALL     ?Subroutine16 & 0xFFFF
??CrossCallReturnLabel_138:
        MOV       R0,A
        INC       DPTR
        MOVX      A,@DPTR
        MOV       R1,A
        CLR       A
        CLR       C
        SUBB      A,R0
        MOV       R0,A
        MOV       A,#0x8
        SUBB      A,R1
        MOV       R1,A
        CLR       C
        MOV       A,R0
        SUBB      A,R6
        MOV       A,R1
        SUBB      A,R7
        JNC       ??writeItem_17
// 1138     {
// 1139       len = (OSAL_NV_PAGE_SIZE - pgOff[pg - OSAL_NV_PAGE_BEG]);
        MOV       A,R0
        MOV       R6,A
        MOV       A,R1
        MOV       R7,A
// 1140     }
// 1141 
// 1142     pgLost[pg - OSAL_NV_PAGE_BEG] += len;
??writeItem_17:
        MOV       A,#(pgLost + 14) & 0xff
        ADD       A,?V0
        MOV       DPL,A
        MOV       A,#((pgLost - 242) >> 8) & 0xff
        ADDC      A,?V1
        LCALL     ?Subroutine37 & 0xFFFF
// 1143   }
// 1144   pgOff[pg - OSAL_NV_PAGE_BEG] += len;
??CrossCallReturnLabel_109:
        LCALL     ?Subroutine16 & 0xFFFF
??CrossCallReturnLabel_139:
        LCALL     ??Subroutine58_0 & 0xFFFF
// 1145 
// 1146   return rtrn;
??CrossCallReturnLabel_107:
        MOV       R1,?V7
        MOV       A,#0xc
        LJMP      ??Subroutine62_0 & 0xFFFF
// 1147 }
          CFI EndBlock cfiBlock175

        RSEG BANKED_CODE:HUGECODE:NOROOT(0)
?Subroutine39:
          CFI Block cfiCond176 Using cfiCommon0
          CFI Function compactPage
          CFI Conditional ??CrossCallReturnLabel_72
          CFI R6 load(1, XDATA, add(CFA_XSP16, literal(-15)))
          CFI VB load(1, XDATA, add(CFA_XSP16, literal(-14)))
          CFI V0 load(1, XDATA, add(CFA_XSP16, literal(-13)))
          CFI V1 load(1, XDATA, add(CFA_XSP16, literal(-12)))
          CFI V2 load(1, XDATA, add(CFA_XSP16, literal(-11)))
          CFI V3 load(1, XDATA, add(CFA_XSP16, literal(-10)))
          CFI V4 load(1, XDATA, add(CFA_XSP16, literal(-9)))
          CFI V5 load(1, XDATA, add(CFA_XSP16, literal(-8)))
          CFI V6 load(1, XDATA, add(CFA_XSP16, literal(-7)))
          CFI R7 load(1, XDATA, add(CFA_XSP16, literal(-6)))
          CFI ?RET_LOW load(1, XDATA, add(CFA_XSP16, literal(-5)))
          CFI ?RET_HIGH load(1, XDATA, add(CFA_XSP16, literal(-4)))
          CFI ?BRET_EXT load(1, XDATA, add(CFA_XSP16, literal(-3)))
          CFI DPL0 load(1, XDATA, add(CFA_XSP16, literal(-2)))
          CFI DPH0 load(1, XDATA, add(CFA_XSP16, literal(-1)))
          CFI CFA_SP SP+-2
          CFI CFA_XSP16 add(XSP16, 26)
          CFI Block cfiCond177 Using cfiCommon0
          CFI (cfiCond177) Function writeItem
          CFI (cfiCond177) Conditional ??CrossCallReturnLabel_73
          CFI (cfiCond177) R6 load(1, XDATA, add(CFA_XSP16, literal(-16)))
          CFI (cfiCond177) VB load(1, XDATA, add(CFA_XSP16, literal(-15)))
          CFI (cfiCond177) V0 load(1, XDATA, add(CFA_XSP16, literal(-14)))
          CFI (cfiCond177) V1 load(1, XDATA, add(CFA_XSP16, literal(-13)))
          CFI (cfiCond177) V2 load(1, XDATA, add(CFA_XSP16, literal(-12)))
          CFI (cfiCond177) V3 load(1, XDATA, add(CFA_XSP16, literal(-11)))
          CFI (cfiCond177) V4 load(1, XDATA, add(CFA_XSP16, literal(-10)))
          CFI (cfiCond177) V5 load(1, XDATA, add(CFA_XSP16, literal(-9)))
          CFI (cfiCond177) V6 load(1, XDATA, add(CFA_XSP16, literal(-8)))
          CFI (cfiCond177) V7 load(1, XDATA, add(CFA_XSP16, literal(-7)))
          CFI (cfiCond177) R7 load(1, XDATA, add(CFA_XSP16, literal(-6)))
          CFI (cfiCond177) ?RET_LOW load(1, XDATA, add(CFA_XSP16, literal(-5)))
          CFI (cfiCond177) ?RET_HIGH load(1, XDATA, add(CFA_XSP16, literal(-4)))
          CFI (cfiCond177) ?BRET_EXT load(1, XDATA, add(CFA_XSP16, literal(-3)))
          CFI (cfiCond177) DPL0 load(1, XDATA, add(CFA_XSP16, literal(-2)))
          CFI (cfiCond177) DPH0 load(1, XDATA, add(CFA_XSP16, literal(-1)))
          CFI (cfiCond177) CFA_SP SP+-2
          CFI (cfiCond177) CFA_XSP16 add(XSP16, 28)
          CFI Block cfiPicker178 Using cfiCommon1
          CFI (cfiPicker178) NoFunction
          CFI (cfiPicker178) Picker
        MOV       A,?V2
        ADD       A,#0x8
        MOV       ?V2,A
        CLR       A
        ADDC      A,?V3
        MOV       ?V3,A
        RET
          CFI EndBlock cfiCond176
          CFI EndBlock cfiCond177
          CFI EndBlock cfiPicker178

        RSEG BANKED_CODE:HUGECODE:NOROOT(0)
?Subroutine34:
          CFI Block cfiCond179 Using cfiCommon0
          CFI Function setItem
          CFI Conditional ??CrossCallReturnLabel_63
          CFI R6 load(1, XDATA, add(CFA_XSP16, literal(-14)))
          CFI VB load(1, XDATA, add(CFA_XSP16, literal(-13)))
          CFI V0 load(1, XDATA, add(CFA_XSP16, literal(-12)))
          CFI V1 load(1, XDATA, add(CFA_XSP16, literal(-11)))
          CFI V2 load(1, XDATA, add(CFA_XSP16, literal(-10)))
          CFI V3 load(1, XDATA, add(CFA_XSP16, literal(-9)))
          CFI V4 load(1, XDATA, add(CFA_XSP16, literal(-8)))
          CFI V5 load(1, XDATA, add(CFA_XSP16, literal(-7)))
          CFI R7 load(1, XDATA, add(CFA_XSP16, literal(-6)))
          CFI ?RET_LOW load(1, XDATA, add(CFA_XSP16, literal(-5)))
          CFI ?RET_HIGH load(1, XDATA, add(CFA_XSP16, literal(-4)))
          CFI ?BRET_EXT load(1, XDATA, add(CFA_XSP16, literal(-3)))
          CFI DPL0 load(1, XDATA, add(CFA_XSP16, literal(-2)))
          CFI DPH0 load(1, XDATA, add(CFA_XSP16, literal(-1)))
          CFI CFA_SP SP+-2
          CFI CFA_XSP16 add(XSP16, 22)
          CFI Block cfiCond180 Using cfiCommon0
          CFI (cfiCond180) Function writeItem
          CFI (cfiCond180) Conditional ??CrossCallReturnLabel_64
          CFI (cfiCond180) R6 load(1, XDATA, add(CFA_XSP16, literal(-16)))
          CFI (cfiCond180) VB load(1, XDATA, add(CFA_XSP16, literal(-15)))
          CFI (cfiCond180) V0 load(1, XDATA, add(CFA_XSP16, literal(-14)))
          CFI (cfiCond180) V1 load(1, XDATA, add(CFA_XSP16, literal(-13)))
          CFI (cfiCond180) V2 load(1, XDATA, add(CFA_XSP16, literal(-12)))
          CFI (cfiCond180) V3 load(1, XDATA, add(CFA_XSP16, literal(-11)))
          CFI (cfiCond180) V4 load(1, XDATA, add(CFA_XSP16, literal(-10)))
          CFI (cfiCond180) V5 load(1, XDATA, add(CFA_XSP16, literal(-9)))
          CFI (cfiCond180) V6 load(1, XDATA, add(CFA_XSP16, literal(-8)))
          CFI (cfiCond180) V7 load(1, XDATA, add(CFA_XSP16, literal(-7)))
          CFI (cfiCond180) R7 load(1, XDATA, add(CFA_XSP16, literal(-6)))
          CFI (cfiCond180) ?RET_LOW load(1, XDATA, add(CFA_XSP16, literal(-5)))
          CFI (cfiCond180) ?RET_HIGH load(1, XDATA, add(CFA_XSP16, literal(-4)))
          CFI (cfiCond180) ?BRET_EXT load(1, XDATA, add(CFA_XSP16, literal(-3)))
          CFI (cfiCond180) DPL0 load(1, XDATA, add(CFA_XSP16, literal(-2)))
          CFI (cfiCond180) DPH0 load(1, XDATA, add(CFA_XSP16, literal(-1)))
          CFI (cfiCond180) CFA_SP SP+-2
          CFI (cfiCond180) CFA_XSP16 add(XSP16, 28)
          CFI Block cfiCond181 Using cfiCommon0
          CFI (cfiCond181) Function writeItem
          CFI (cfiCond181) Conditional ??CrossCallReturnLabel_65
          CFI (cfiCond181) R6 load(1, XDATA, add(CFA_XSP16, literal(-16)))
          CFI (cfiCond181) VB load(1, XDATA, add(CFA_XSP16, literal(-15)))
          CFI (cfiCond181) V0 load(1, XDATA, add(CFA_XSP16, literal(-14)))
          CFI (cfiCond181) V1 load(1, XDATA, add(CFA_XSP16, literal(-13)))
          CFI (cfiCond181) V2 load(1, XDATA, add(CFA_XSP16, literal(-12)))
          CFI (cfiCond181) V3 load(1, XDATA, add(CFA_XSP16, literal(-11)))
          CFI (cfiCond181) V4 load(1, XDATA, add(CFA_XSP16, literal(-10)))
          CFI (cfiCond181) V5 load(1, XDATA, add(CFA_XSP16, literal(-9)))
          CFI (cfiCond181) V6 load(1, XDATA, add(CFA_XSP16, literal(-8)))
          CFI (cfiCond181) V7 load(1, XDATA, add(CFA_XSP16, literal(-7)))
          CFI (cfiCond181) R7 load(1, XDATA, add(CFA_XSP16, literal(-6)))
          CFI (cfiCond181) ?RET_LOW load(1, XDATA, add(CFA_XSP16, literal(-5)))
          CFI (cfiCond181) ?RET_HIGH load(1, XDATA, add(CFA_XSP16, literal(-4)))
          CFI (cfiCond181) ?BRET_EXT load(1, XDATA, add(CFA_XSP16, literal(-3)))
          CFI (cfiCond181) DPL0 load(1, XDATA, add(CFA_XSP16, literal(-2)))
          CFI (cfiCond181) DPH0 load(1, XDATA, add(CFA_XSP16, literal(-1)))
          CFI (cfiCond181) CFA_SP SP+-2
          CFI (cfiCond181) CFA_XSP16 add(XSP16, 28)
          CFI Block cfiPicker182 Using cfiCommon1
          CFI (cfiPicker182) NoFunction
          CFI (cfiPicker182) Picker
        ANL       A,#0xfc
        ADD       A,#0x8
        MOV       R6,A
        CLR       A
        ADDC      A,R1
        MOV       R7,A
        RET
          CFI EndBlock cfiCond179
          CFI EndBlock cfiCond180
          CFI EndBlock cfiCond181
          CFI EndBlock cfiPicker182

        RSEG BANKED_CODE:HUGECODE:NOROOT(0)
?Subroutine27:
          CFI Block cfiCond183 Using cfiCommon0
          CFI Function compactPage
          CFI Conditional ??CrossCallReturnLabel_50
          CFI R6 load(1, XDATA, add(CFA_XSP16, literal(-15)))
          CFI VB load(1, XDATA, add(CFA_XSP16, literal(-14)))
          CFI V0 load(1, XDATA, add(CFA_XSP16, literal(-13)))
          CFI V1 load(1, XDATA, add(CFA_XSP16, literal(-12)))
          CFI V2 load(1, XDATA, add(CFA_XSP16, literal(-11)))
          CFI V3 load(1, XDATA, add(CFA_XSP16, literal(-10)))
          CFI V4 load(1, XDATA, add(CFA_XSP16, literal(-9)))
          CFI V5 load(1, XDATA, add(CFA_XSP16, literal(-8)))
          CFI V6 load(1, XDATA, add(CFA_XSP16, literal(-7)))
          CFI R7 load(1, XDATA, add(CFA_XSP16, literal(-6)))
          CFI ?RET_LOW load(1, XDATA, add(CFA_XSP16, literal(-5)))
          CFI ?RET_HIGH load(1, XDATA, add(CFA_XSP16, literal(-4)))
          CFI ?BRET_EXT load(1, XDATA, add(CFA_XSP16, literal(-3)))
          CFI DPL0 load(1, XDATA, add(CFA_XSP16, literal(-2)))
          CFI DPH0 load(1, XDATA, add(CFA_XSP16, literal(-1)))
          CFI CFA_SP SP+-2
          CFI CFA_XSP16 add(XSP16, 29)
          CFI Block cfiCond184 Using cfiCommon0
          CFI (cfiCond184) Function writeBuf
          CFI (cfiCond184) Conditional ??CrossCallReturnLabel_51
          CFI (cfiCond184) R6 load(1, XDATA, add(CFA_XSP16, literal(-16)))
          CFI (cfiCond184) VB load(1, XDATA, add(CFA_XSP16, literal(-15)))
          CFI (cfiCond184) V0 load(1, XDATA, add(CFA_XSP16, literal(-14)))
          CFI (cfiCond184) V1 load(1, XDATA, add(CFA_XSP16, literal(-13)))
          CFI (cfiCond184) V2 load(1, XDATA, add(CFA_XSP16, literal(-12)))
          CFI (cfiCond184) V3 load(1, XDATA, add(CFA_XSP16, literal(-11)))
          CFI (cfiCond184) V4 load(1, XDATA, add(CFA_XSP16, literal(-10)))
          CFI (cfiCond184) V5 load(1, XDATA, add(CFA_XSP16, literal(-9)))
          CFI (cfiCond184) V6 load(1, XDATA, add(CFA_XSP16, literal(-8)))
          CFI (cfiCond184) V7 load(1, XDATA, add(CFA_XSP16, literal(-7)))
          CFI (cfiCond184) R7 load(1, XDATA, add(CFA_XSP16, literal(-6)))
          CFI (cfiCond184) ?RET_LOW load(1, XDATA, add(CFA_XSP16, literal(-5)))
          CFI (cfiCond184) ?RET_HIGH load(1, XDATA, add(CFA_XSP16, literal(-4)))
          CFI (cfiCond184) ?BRET_EXT load(1, XDATA, add(CFA_XSP16, literal(-3)))
          CFI (cfiCond184) DPL0 load(1, XDATA, add(CFA_XSP16, literal(-2)))
          CFI (cfiCond184) DPH0 load(1, XDATA, add(CFA_XSP16, literal(-1)))
          CFI (cfiCond184) CFA_SP SP+-2
          CFI (cfiCond184) CFA_XSP16 add(XSP16, 22)
          CFI Block cfiCond185 Using cfiCommon0
          CFI (cfiCond185) Function writeItem
          CFI (cfiCond185) Conditional ??CrossCallReturnLabel_52
          CFI (cfiCond185) R6 load(1, XDATA, add(CFA_XSP16, literal(-16)))
          CFI (cfiCond185) VB load(1, XDATA, add(CFA_XSP16, literal(-15)))
          CFI (cfiCond185) V0 load(1, XDATA, add(CFA_XSP16, literal(-14)))
          CFI (cfiCond185) V1 load(1, XDATA, add(CFA_XSP16, literal(-13)))
          CFI (cfiCond185) V2 load(1, XDATA, add(CFA_XSP16, literal(-12)))
          CFI (cfiCond185) V3 load(1, XDATA, add(CFA_XSP16, literal(-11)))
          CFI (cfiCond185) V4 load(1, XDATA, add(CFA_XSP16, literal(-10)))
          CFI (cfiCond185) V5 load(1, XDATA, add(CFA_XSP16, literal(-9)))
          CFI (cfiCond185) V6 load(1, XDATA, add(CFA_XSP16, literal(-8)))
          CFI (cfiCond185) V7 load(1, XDATA, add(CFA_XSP16, literal(-7)))
          CFI (cfiCond185) R7 load(1, XDATA, add(CFA_XSP16, literal(-6)))
          CFI (cfiCond185) ?RET_LOW load(1, XDATA, add(CFA_XSP16, literal(-5)))
          CFI (cfiCond185) ?RET_HIGH load(1, XDATA, add(CFA_XSP16, literal(-4)))
          CFI (cfiCond185) ?BRET_EXT load(1, XDATA, add(CFA_XSP16, literal(-3)))
          CFI (cfiCond185) DPL0 load(1, XDATA, add(CFA_XSP16, literal(-2)))
          CFI (cfiCond185) DPH0 load(1, XDATA, add(CFA_XSP16, literal(-1)))
          CFI (cfiCond185) CFA_SP SP+-2
          CFI (cfiCond185) CFA_XSP16 add(XSP16, 28)
          CFI Block cfiCond186 Using cfiCommon0
          CFI (cfiCond186) Function osal_nv_write
          CFI (cfiCond186) Conditional ??CrossCallReturnLabel_53
          CFI (cfiCond186) R6 load(1, XDATA, add(CFA_XSP16, literal(-16)))
          CFI (cfiCond186) VB load(1, XDATA, add(CFA_XSP16, literal(-15)))
          CFI (cfiCond186) V0 load(1, XDATA, add(CFA_XSP16, literal(-14)))
          CFI (cfiCond186) V1 load(1, XDATA, add(CFA_XSP16, literal(-13)))
          CFI (cfiCond186) V2 load(1, XDATA, add(CFA_XSP16, literal(-12)))
          CFI (cfiCond186) V3 load(1, XDATA, add(CFA_XSP16, literal(-11)))
          CFI (cfiCond186) V4 load(1, XDATA, add(CFA_XSP16, literal(-10)))
          CFI (cfiCond186) V5 load(1, XDATA, add(CFA_XSP16, literal(-9)))
          CFI (cfiCond186) V6 load(1, XDATA, add(CFA_XSP16, literal(-8)))
          CFI (cfiCond186) V7 load(1, XDATA, add(CFA_XSP16, literal(-7)))
          CFI (cfiCond186) R7 load(1, XDATA, add(CFA_XSP16, literal(-6)))
          CFI (cfiCond186) ?RET_LOW load(1, XDATA, add(CFA_XSP16, literal(-5)))
          CFI (cfiCond186) ?RET_HIGH load(1, XDATA, add(CFA_XSP16, literal(-4)))
          CFI (cfiCond186) ?BRET_EXT load(1, XDATA, add(CFA_XSP16, literal(-3)))
          CFI (cfiCond186) DPL0 load(1, XDATA, add(CFA_XSP16, literal(-2)))
          CFI (cfiCond186) DPH0 load(1, XDATA, add(CFA_XSP16, literal(-1)))
          CFI (cfiCond186) CFA_SP SP+-2
          CFI (cfiCond186) CFA_XSP16 add(XSP16, 37)
          CFI Block cfiPicker187 Using cfiCommon1
          CFI (cfiPicker187) NoFunction
          CFI (cfiPicker187) Picker
        LCALL     ?Subroutine46 & 0xFFFF
??CrossCallReturnLabel_89:
        RET
          CFI EndBlock cfiCond183
          CFI EndBlock cfiCond184
          CFI EndBlock cfiCond185
          CFI EndBlock cfiCond186
          CFI EndBlock cfiPicker187

        RSEG BANKED_CODE:HUGECODE:NOROOT(0)
?Subroutine46:
          CFI Block cfiCond188 Using cfiCommon0
          CFI Function initPage
          CFI Conditional ??CrossCallReturnLabel_87, ??CrossCallReturnLabel_26
          CFI R6 load(1, XDATA, add(CFA_XSP16, literal(-16)))
          CFI VB load(1, XDATA, add(CFA_XSP16, literal(-15)))
          CFI V0 load(1, XDATA, add(CFA_XSP16, literal(-14)))
          CFI V1 load(1, XDATA, add(CFA_XSP16, literal(-13)))
          CFI V2 load(1, XDATA, add(CFA_XSP16, literal(-12)))
          CFI V3 load(1, XDATA, add(CFA_XSP16, literal(-11)))
          CFI V4 load(1, XDATA, add(CFA_XSP16, literal(-10)))
          CFI V5 load(1, XDATA, add(CFA_XSP16, literal(-9)))
          CFI V6 load(1, XDATA, add(CFA_XSP16, literal(-8)))
          CFI V7 load(1, XDATA, add(CFA_XSP16, literal(-7)))
          CFI R7 load(1, XDATA, add(CFA_XSP16, literal(-6)))
          CFI ?RET_LOW load(1, XDATA, add(CFA_XSP16, literal(-5)))
          CFI ?RET_HIGH load(1, XDATA, add(CFA_XSP16, literal(-4)))
          CFI ?BRET_EXT load(1, XDATA, add(CFA_XSP16, literal(-3)))
          CFI DPL0 load(1, XDATA, add(CFA_XSP16, literal(-2)))
          CFI DPH0 load(1, XDATA, add(CFA_XSP16, literal(-1)))
          CFI CFA_SP SP+-4
          CFI CFA_XSP16 add(XSP16, 26)
          CFI Block cfiCond189 Using cfiCommon0
          CFI (cfiCond189) Function compactPage
          CFI (cfiCond189) Conditional ??CrossCallReturnLabel_87, ??CrossCallReturnLabel_27
          CFI (cfiCond189) R6 load(1, XDATA, add(CFA_XSP16, literal(-15)))
          CFI (cfiCond189) VB load(1, XDATA, add(CFA_XSP16, literal(-14)))
          CFI (cfiCond189) V0 load(1, XDATA, add(CFA_XSP16, literal(-13)))
          CFI (cfiCond189) V1 load(1, XDATA, add(CFA_XSP16, literal(-12)))
          CFI (cfiCond189) V2 load(1, XDATA, add(CFA_XSP16, literal(-11)))
          CFI (cfiCond189) V3 load(1, XDATA, add(CFA_XSP16, literal(-10)))
          CFI (cfiCond189) V4 load(1, XDATA, add(CFA_XSP16, literal(-9)))
          CFI (cfiCond189) V5 load(1, XDATA, add(CFA_XSP16, literal(-8)))
          CFI (cfiCond189) V6 load(1, XDATA, add(CFA_XSP16, literal(-7)))
          CFI (cfiCond189) R7 load(1, XDATA, add(CFA_XSP16, literal(-6)))
          CFI (cfiCond189) ?RET_LOW load(1, XDATA, add(CFA_XSP16, literal(-5)))
          CFI (cfiCond189) ?RET_HIGH load(1, XDATA, add(CFA_XSP16, literal(-4)))
          CFI (cfiCond189) ?BRET_EXT load(1, XDATA, add(CFA_XSP16, literal(-3)))
          CFI (cfiCond189) DPL0 load(1, XDATA, add(CFA_XSP16, literal(-2)))
          CFI (cfiCond189) DPH0 load(1, XDATA, add(CFA_XSP16, literal(-1)))
          CFI (cfiCond189) CFA_SP SP+-4
          CFI (cfiCond189) CFA_XSP16 add(XSP16, 26)
          CFI Block cfiCond190 Using cfiCommon0
          CFI (cfiCond190) Function compactPage
          CFI (cfiCond190) Conditional ??CrossCallReturnLabel_86, ??CrossCallReturnLabel_24
          CFI (cfiCond190) R6 load(1, XDATA, add(CFA_XSP16, literal(-15)))
          CFI (cfiCond190) VB load(1, XDATA, add(CFA_XSP16, literal(-14)))
          CFI (cfiCond190) V0 load(1, XDATA, add(CFA_XSP16, literal(-13)))
          CFI (cfiCond190) V1 load(1, XDATA, add(CFA_XSP16, literal(-12)))
          CFI (cfiCond190) V2 load(1, XDATA, add(CFA_XSP16, literal(-11)))
          CFI (cfiCond190) V3 load(1, XDATA, add(CFA_XSP16, literal(-10)))
          CFI (cfiCond190) V4 load(1, XDATA, add(CFA_XSP16, literal(-9)))
          CFI (cfiCond190) V5 load(1, XDATA, add(CFA_XSP16, literal(-8)))
          CFI (cfiCond190) V6 load(1, XDATA, add(CFA_XSP16, literal(-7)))
          CFI (cfiCond190) R7 load(1, XDATA, add(CFA_XSP16, literal(-6)))
          CFI (cfiCond190) ?RET_LOW load(1, XDATA, add(CFA_XSP16, literal(-5)))
          CFI (cfiCond190) ?RET_HIGH load(1, XDATA, add(CFA_XSP16, literal(-4)))
          CFI (cfiCond190) ?BRET_EXT load(1, XDATA, add(CFA_XSP16, literal(-3)))
          CFI (cfiCond190) DPL0 load(1, XDATA, add(CFA_XSP16, literal(-2)))
          CFI (cfiCond190) DPH0 load(1, XDATA, add(CFA_XSP16, literal(-1)))
          CFI (cfiCond190) CFA_SP SP+-4
          CFI (cfiCond190) CFA_XSP16 add(XSP16, 26)
          CFI Block cfiCond191 Using cfiCommon0
          CFI (cfiCond191) Function compactPage
          CFI (cfiCond191) Conditional ??CrossCallReturnLabel_86, ??CrossCallReturnLabel_25
          CFI (cfiCond191) R6 load(1, XDATA, add(CFA_XSP16, literal(-15)))
          CFI (cfiCond191) VB load(1, XDATA, add(CFA_XSP16, literal(-14)))
          CFI (cfiCond191) V0 load(1, XDATA, add(CFA_XSP16, literal(-13)))
          CFI (cfiCond191) V1 load(1, XDATA, add(CFA_XSP16, literal(-12)))
          CFI (cfiCond191) V2 load(1, XDATA, add(CFA_XSP16, literal(-11)))
          CFI (cfiCond191) V3 load(1, XDATA, add(CFA_XSP16, literal(-10)))
          CFI (cfiCond191) V4 load(1, XDATA, add(CFA_XSP16, literal(-9)))
          CFI (cfiCond191) V5 load(1, XDATA, add(CFA_XSP16, literal(-8)))
          CFI (cfiCond191) V6 load(1, XDATA, add(CFA_XSP16, literal(-7)))
          CFI (cfiCond191) R7 load(1, XDATA, add(CFA_XSP16, literal(-6)))
          CFI (cfiCond191) ?RET_LOW load(1, XDATA, add(CFA_XSP16, literal(-5)))
          CFI (cfiCond191) ?RET_HIGH load(1, XDATA, add(CFA_XSP16, literal(-4)))
          CFI (cfiCond191) ?BRET_EXT load(1, XDATA, add(CFA_XSP16, literal(-3)))
          CFI (cfiCond191) DPL0 load(1, XDATA, add(CFA_XSP16, literal(-2)))
          CFI (cfiCond191) DPH0 load(1, XDATA, add(CFA_XSP16, literal(-1)))
          CFI (cfiCond191) CFA_SP SP+-4
          CFI (cfiCond191) CFA_XSP16 add(XSP16, 26)
          CFI Block cfiCond192 Using cfiCommon0
          CFI (cfiCond192) Function compactPage
          CFI (cfiCond192) Conditional ??CrossCallReturnLabel_89, ??CrossCallReturnLabel_50
          CFI (cfiCond192) R6 load(1, XDATA, add(CFA_XSP16, literal(-15)))
          CFI (cfiCond192) VB load(1, XDATA, add(CFA_XSP16, literal(-14)))
          CFI (cfiCond192) V0 load(1, XDATA, add(CFA_XSP16, literal(-13)))
          CFI (cfiCond192) V1 load(1, XDATA, add(CFA_XSP16, literal(-12)))
          CFI (cfiCond192) V2 load(1, XDATA, add(CFA_XSP16, literal(-11)))
          CFI (cfiCond192) V3 load(1, XDATA, add(CFA_XSP16, literal(-10)))
          CFI (cfiCond192) V4 load(1, XDATA, add(CFA_XSP16, literal(-9)))
          CFI (cfiCond192) V5 load(1, XDATA, add(CFA_XSP16, literal(-8)))
          CFI (cfiCond192) V6 load(1, XDATA, add(CFA_XSP16, literal(-7)))
          CFI (cfiCond192) R7 load(1, XDATA, add(CFA_XSP16, literal(-6)))
          CFI (cfiCond192) ?RET_LOW load(1, XDATA, add(CFA_XSP16, literal(-5)))
          CFI (cfiCond192) ?RET_HIGH load(1, XDATA, add(CFA_XSP16, literal(-4)))
          CFI (cfiCond192) ?BRET_EXT load(1, XDATA, add(CFA_XSP16, literal(-3)))
          CFI (cfiCond192) DPL0 load(1, XDATA, add(CFA_XSP16, literal(-2)))
          CFI (cfiCond192) DPH0 load(1, XDATA, add(CFA_XSP16, literal(-1)))
          CFI (cfiCond192) CFA_SP SP+-4
          CFI (cfiCond192) CFA_XSP16 add(XSP16, 29)
          CFI Block cfiCond193 Using cfiCommon0
          CFI (cfiCond193) Function writeBuf
          CFI (cfiCond193) Conditional ??CrossCallReturnLabel_89, ??CrossCallReturnLabel_51
          CFI (cfiCond193) R6 load(1, XDATA, add(CFA_XSP16, literal(-16)))
          CFI (cfiCond193) VB load(1, XDATA, add(CFA_XSP16, literal(-15)))
          CFI (cfiCond193) V0 load(1, XDATA, add(CFA_XSP16, literal(-14)))
          CFI (cfiCond193) V1 load(1, XDATA, add(CFA_XSP16, literal(-13)))
          CFI (cfiCond193) V2 load(1, XDATA, add(CFA_XSP16, literal(-12)))
          CFI (cfiCond193) V3 load(1, XDATA, add(CFA_XSP16, literal(-11)))
          CFI (cfiCond193) V4 load(1, XDATA, add(CFA_XSP16, literal(-10)))
          CFI (cfiCond193) V5 load(1, XDATA, add(CFA_XSP16, literal(-9)))
          CFI (cfiCond193) V6 load(1, XDATA, add(CFA_XSP16, literal(-8)))
          CFI (cfiCond193) V7 load(1, XDATA, add(CFA_XSP16, literal(-7)))
          CFI (cfiCond193) R7 load(1, XDATA, add(CFA_XSP16, literal(-6)))
          CFI (cfiCond193) ?RET_LOW load(1, XDATA, add(CFA_XSP16, literal(-5)))
          CFI (cfiCond193) ?RET_HIGH load(1, XDATA, add(CFA_XSP16, literal(-4)))
          CFI (cfiCond193) ?BRET_EXT load(1, XDATA, add(CFA_XSP16, literal(-3)))
          CFI (cfiCond193) DPL0 load(1, XDATA, add(CFA_XSP16, literal(-2)))
          CFI (cfiCond193) DPH0 load(1, XDATA, add(CFA_XSP16, literal(-1)))
          CFI (cfiCond193) CFA_SP SP+-4
          CFI (cfiCond193) CFA_XSP16 add(XSP16, 22)
          CFI Block cfiCond194 Using cfiCommon0
          CFI (cfiCond194) Function writeItem
          CFI (cfiCond194) Conditional ??CrossCallReturnLabel_89, ??CrossCallReturnLabel_52
          CFI (cfiCond194) R6 load(1, XDATA, add(CFA_XSP16, literal(-16)))
          CFI (cfiCond194) VB load(1, XDATA, add(CFA_XSP16, literal(-15)))
          CFI (cfiCond194) V0 load(1, XDATA, add(CFA_XSP16, literal(-14)))
          CFI (cfiCond194) V1 load(1, XDATA, add(CFA_XSP16, literal(-13)))
          CFI (cfiCond194) V2 load(1, XDATA, add(CFA_XSP16, literal(-12)))
          CFI (cfiCond194) V3 load(1, XDATA, add(CFA_XSP16, literal(-11)))
          CFI (cfiCond194) V4 load(1, XDATA, add(CFA_XSP16, literal(-10)))
          CFI (cfiCond194) V5 load(1, XDATA, add(CFA_XSP16, literal(-9)))
          CFI (cfiCond194) V6 load(1, XDATA, add(CFA_XSP16, literal(-8)))
          CFI (cfiCond194) V7 load(1, XDATA, add(CFA_XSP16, literal(-7)))
          CFI (cfiCond194) R7 load(1, XDATA, add(CFA_XSP16, literal(-6)))
          CFI (cfiCond194) ?RET_LOW load(1, XDATA, add(CFA_XSP16, literal(-5)))
          CFI (cfiCond194) ?RET_HIGH load(1, XDATA, add(CFA_XSP16, literal(-4)))
          CFI (cfiCond194) ?BRET_EXT load(1, XDATA, add(CFA_XSP16, literal(-3)))
          CFI (cfiCond194) DPL0 load(1, XDATA, add(CFA_XSP16, literal(-2)))
          CFI (cfiCond194) DPH0 load(1, XDATA, add(CFA_XSP16, literal(-1)))
          CFI (cfiCond194) CFA_SP SP+-4
          CFI (cfiCond194) CFA_XSP16 add(XSP16, 28)
          CFI Block cfiCond195 Using cfiCommon0
          CFI (cfiCond195) Function osal_nv_write
          CFI (cfiCond195) Conditional ??CrossCallReturnLabel_89, ??CrossCallReturnLabel_53
          CFI (cfiCond195) R6 load(1, XDATA, add(CFA_XSP16, literal(-16)))
          CFI (cfiCond195) VB load(1, XDATA, add(CFA_XSP16, literal(-15)))
          CFI (cfiCond195) V0 load(1, XDATA, add(CFA_XSP16, literal(-14)))
          CFI (cfiCond195) V1 load(1, XDATA, add(CFA_XSP16, literal(-13)))
          CFI (cfiCond195) V2 load(1, XDATA, add(CFA_XSP16, literal(-12)))
          CFI (cfiCond195) V3 load(1, XDATA, add(CFA_XSP16, literal(-11)))
          CFI (cfiCond195) V4 load(1, XDATA, add(CFA_XSP16, literal(-10)))
          CFI (cfiCond195) V5 load(1, XDATA, add(CFA_XSP16, literal(-9)))
          CFI (cfiCond195) V6 load(1, XDATA, add(CFA_XSP16, literal(-8)))
          CFI (cfiCond195) V7 load(1, XDATA, add(CFA_XSP16, literal(-7)))
          CFI (cfiCond195) R7 load(1, XDATA, add(CFA_XSP16, literal(-6)))
          CFI (cfiCond195) ?RET_LOW load(1, XDATA, add(CFA_XSP16, literal(-5)))
          CFI (cfiCond195) ?RET_HIGH load(1, XDATA, add(CFA_XSP16, literal(-4)))
          CFI (cfiCond195) ?BRET_EXT load(1, XDATA, add(CFA_XSP16, literal(-3)))
          CFI (cfiCond195) DPL0 load(1, XDATA, add(CFA_XSP16, literal(-2)))
          CFI (cfiCond195) DPH0 load(1, XDATA, add(CFA_XSP16, literal(-1)))
          CFI (cfiCond195) CFA_SP SP+-4
          CFI (cfiCond195) CFA_XSP16 add(XSP16, 37)
          CFI Block cfiCond196 Using cfiCommon0
          CFI (cfiCond196) Function compactPage
          CFI (cfiCond196) Conditional ??CrossCallReturnLabel_88, ??CrossCallReturnLabel_31
          CFI (cfiCond196) R6 load(1, XDATA, add(CFA_XSP16, literal(-15)))
          CFI (cfiCond196) VB load(1, XDATA, add(CFA_XSP16, literal(-14)))
          CFI (cfiCond196) V0 load(1, XDATA, add(CFA_XSP16, literal(-13)))
          CFI (cfiCond196) V1 load(1, XDATA, add(CFA_XSP16, literal(-12)))
          CFI (cfiCond196) V2 load(1, XDATA, add(CFA_XSP16, literal(-11)))
          CFI (cfiCond196) V3 load(1, XDATA, add(CFA_XSP16, literal(-10)))
          CFI (cfiCond196) V4 load(1, XDATA, add(CFA_XSP16, literal(-9)))
          CFI (cfiCond196) V5 load(1, XDATA, add(CFA_XSP16, literal(-8)))
          CFI (cfiCond196) V6 load(1, XDATA, add(CFA_XSP16, literal(-7)))
          CFI (cfiCond196) R7 load(1, XDATA, add(CFA_XSP16, literal(-6)))
          CFI (cfiCond196) ?RET_LOW load(1, XDATA, add(CFA_XSP16, literal(-5)))
          CFI (cfiCond196) ?RET_HIGH load(1, XDATA, add(CFA_XSP16, literal(-4)))
          CFI (cfiCond196) ?BRET_EXT load(1, XDATA, add(CFA_XSP16, literal(-3)))
          CFI (cfiCond196) DPL0 load(1, XDATA, add(CFA_XSP16, literal(-2)))
          CFI (cfiCond196) DPH0 load(1, XDATA, add(CFA_XSP16, literal(-1)))
          CFI (cfiCond196) CFA_SP SP+-4
          CFI (cfiCond196) CFA_XSP16 add(XSP16, 26)
          CFI Block cfiCond197 Using cfiCommon0
          CFI (cfiCond197) Function writeItem
          CFI (cfiCond197) Conditional ??CrossCallReturnLabel_88, ??CrossCallReturnLabel_32
          CFI (cfiCond197) R6 load(1, XDATA, add(CFA_XSP16, literal(-16)))
          CFI (cfiCond197) VB load(1, XDATA, add(CFA_XSP16, literal(-15)))
          CFI (cfiCond197) V0 load(1, XDATA, add(CFA_XSP16, literal(-14)))
          CFI (cfiCond197) V1 load(1, XDATA, add(CFA_XSP16, literal(-13)))
          CFI (cfiCond197) V2 load(1, XDATA, add(CFA_XSP16, literal(-12)))
          CFI (cfiCond197) V3 load(1, XDATA, add(CFA_XSP16, literal(-11)))
          CFI (cfiCond197) V4 load(1, XDATA, add(CFA_XSP16, literal(-10)))
          CFI (cfiCond197) V5 load(1, XDATA, add(CFA_XSP16, literal(-9)))
          CFI (cfiCond197) V6 load(1, XDATA, add(CFA_XSP16, literal(-8)))
          CFI (cfiCond197) V7 load(1, XDATA, add(CFA_XSP16, literal(-7)))
          CFI (cfiCond197) R7 load(1, XDATA, add(CFA_XSP16, literal(-6)))
          CFI (cfiCond197) ?RET_LOW load(1, XDATA, add(CFA_XSP16, literal(-5)))
          CFI (cfiCond197) ?RET_HIGH load(1, XDATA, add(CFA_XSP16, literal(-4)))
          CFI (cfiCond197) ?BRET_EXT load(1, XDATA, add(CFA_XSP16, literal(-3)))
          CFI (cfiCond197) DPL0 load(1, XDATA, add(CFA_XSP16, literal(-2)))
          CFI (cfiCond197) DPH0 load(1, XDATA, add(CFA_XSP16, literal(-1)))
          CFI (cfiCond197) CFA_SP SP+-4
          CFI (cfiCond197) CFA_XSP16 add(XSP16, 28)
          CFI Block cfiCond198 Using cfiCommon0
          CFI (cfiCond198) Function osal_nv_write
          CFI (cfiCond198) Conditional ??CrossCallReturnLabel_88, ??CrossCallReturnLabel_33
          CFI (cfiCond198) R6 load(1, XDATA, add(CFA_XSP16, literal(-16)))
          CFI (cfiCond198) VB load(1, XDATA, add(CFA_XSP16, literal(-15)))
          CFI (cfiCond198) V0 load(1, XDATA, add(CFA_XSP16, literal(-14)))
          CFI (cfiCond198) V1 load(1, XDATA, add(CFA_XSP16, literal(-13)))
          CFI (cfiCond198) V2 load(1, XDATA, add(CFA_XSP16, literal(-12)))
          CFI (cfiCond198) V3 load(1, XDATA, add(CFA_XSP16, literal(-11)))
          CFI (cfiCond198) V4 load(1, XDATA, add(CFA_XSP16, literal(-10)))
          CFI (cfiCond198) V5 load(1, XDATA, add(CFA_XSP16, literal(-9)))
          CFI (cfiCond198) V6 load(1, XDATA, add(CFA_XSP16, literal(-8)))
          CFI (cfiCond198) V7 load(1, XDATA, add(CFA_XSP16, literal(-7)))
          CFI (cfiCond198) R7 load(1, XDATA, add(CFA_XSP16, literal(-6)))
          CFI (cfiCond198) ?RET_LOW load(1, XDATA, add(CFA_XSP16, literal(-5)))
          CFI (cfiCond198) ?RET_HIGH load(1, XDATA, add(CFA_XSP16, literal(-4)))
          CFI (cfiCond198) ?BRET_EXT load(1, XDATA, add(CFA_XSP16, literal(-3)))
          CFI (cfiCond198) DPL0 load(1, XDATA, add(CFA_XSP16, literal(-2)))
          CFI (cfiCond198) DPH0 load(1, XDATA, add(CFA_XSP16, literal(-1)))
          CFI (cfiCond198) CFA_SP SP+-4
          CFI (cfiCond198) CFA_XSP16 add(XSP16, 35)
          CFI Block cfiCond199 Using cfiCommon0
          CFI (cfiCond199) Function osal_nv_write
          CFI (cfiCond199) Conditional ??CrossCallReturnLabel_85, ??CrossCallReturnLabel_19
          CFI (cfiCond199) R6 load(1, XDATA, add(CFA_XSP16, literal(-16)))
          CFI (cfiCond199) VB load(1, XDATA, add(CFA_XSP16, literal(-15)))
          CFI (cfiCond199) V0 load(1, XDATA, add(CFA_XSP16, literal(-14)))
          CFI (cfiCond199) V1 load(1, XDATA, add(CFA_XSP16, literal(-13)))
          CFI (cfiCond199) V2 load(1, XDATA, add(CFA_XSP16, literal(-12)))
          CFI (cfiCond199) V3 load(1, XDATA, add(CFA_XSP16, literal(-11)))
          CFI (cfiCond199) V4 load(1, XDATA, add(CFA_XSP16, literal(-10)))
          CFI (cfiCond199) V5 load(1, XDATA, add(CFA_XSP16, literal(-9)))
          CFI (cfiCond199) V6 load(1, XDATA, add(CFA_XSP16, literal(-8)))
          CFI (cfiCond199) V7 load(1, XDATA, add(CFA_XSP16, literal(-7)))
          CFI (cfiCond199) R7 load(1, XDATA, add(CFA_XSP16, literal(-6)))
          CFI (cfiCond199) ?RET_LOW load(1, XDATA, add(CFA_XSP16, literal(-5)))
          CFI (cfiCond199) ?RET_HIGH load(1, XDATA, add(CFA_XSP16, literal(-4)))
          CFI (cfiCond199) ?BRET_EXT load(1, XDATA, add(CFA_XSP16, literal(-3)))
          CFI (cfiCond199) DPL0 load(1, XDATA, add(CFA_XSP16, literal(-2)))
          CFI (cfiCond199) DPH0 load(1, XDATA, add(CFA_XSP16, literal(-1)))
          CFI (cfiCond199) CFA_SP SP+-4
          CFI (cfiCond199) CFA_XSP16 add(XSP16, 37)
          CFI Block cfiCond200 Using cfiCommon0
          CFI (cfiCond200) Function osal_nv_write
          CFI (cfiCond200) Conditional ??CrossCallReturnLabel_85, ??CrossCallReturnLabel_20
          CFI (cfiCond200) R6 load(1, XDATA, add(CFA_XSP16, literal(-16)))
          CFI (cfiCond200) VB load(1, XDATA, add(CFA_XSP16, literal(-15)))
          CFI (cfiCond200) V0 load(1, XDATA, add(CFA_XSP16, literal(-14)))
          CFI (cfiCond200) V1 load(1, XDATA, add(CFA_XSP16, literal(-13)))
          CFI (cfiCond200) V2 load(1, XDATA, add(CFA_XSP16, literal(-12)))
          CFI (cfiCond200) V3 load(1, XDATA, add(CFA_XSP16, literal(-11)))
          CFI (cfiCond200) V4 load(1, XDATA, add(CFA_XSP16, literal(-10)))
          CFI (cfiCond200) V5 load(1, XDATA, add(CFA_XSP16, literal(-9)))
          CFI (cfiCond200) V6 load(1, XDATA, add(CFA_XSP16, literal(-8)))
          CFI (cfiCond200) V7 load(1, XDATA, add(CFA_XSP16, literal(-7)))
          CFI (cfiCond200) R7 load(1, XDATA, add(CFA_XSP16, literal(-6)))
          CFI (cfiCond200) ?RET_LOW load(1, XDATA, add(CFA_XSP16, literal(-5)))
          CFI (cfiCond200) ?RET_HIGH load(1, XDATA, add(CFA_XSP16, literal(-4)))
          CFI (cfiCond200) ?BRET_EXT load(1, XDATA, add(CFA_XSP16, literal(-3)))
          CFI (cfiCond200) DPL0 load(1, XDATA, add(CFA_XSP16, literal(-2)))
          CFI (cfiCond200) DPH0 load(1, XDATA, add(CFA_XSP16, literal(-1)))
          CFI (cfiCond200) CFA_SP SP+-4
          CFI (cfiCond200) CFA_XSP16 add(XSP16, 35)
          CFI Block cfiCond201 Using cfiCommon0
          CFI (cfiCond201) Function osal_nv_write
          CFI (cfiCond201) Conditional ??CrossCallReturnLabel_85, ??CrossCallReturnLabel_21
          CFI (cfiCond201) R6 load(1, XDATA, add(CFA_XSP16, literal(-16)))
          CFI (cfiCond201) VB load(1, XDATA, add(CFA_XSP16, literal(-15)))
          CFI (cfiCond201) V0 load(1, XDATA, add(CFA_XSP16, literal(-14)))
          CFI (cfiCond201) V1 load(1, XDATA, add(CFA_XSP16, literal(-13)))
          CFI (cfiCond201) V2 load(1, XDATA, add(CFA_XSP16, literal(-12)))
          CFI (cfiCond201) V3 load(1, XDATA, add(CFA_XSP16, literal(-11)))
          CFI (cfiCond201) V4 load(1, XDATA, add(CFA_XSP16, literal(-10)))
          CFI (cfiCond201) V5 load(1, XDATA, add(CFA_XSP16, literal(-9)))
          CFI (cfiCond201) V6 load(1, XDATA, add(CFA_XSP16, literal(-8)))
          CFI (cfiCond201) V7 load(1, XDATA, add(CFA_XSP16, literal(-7)))
          CFI (cfiCond201) R7 load(1, XDATA, add(CFA_XSP16, literal(-6)))
          CFI (cfiCond201) ?RET_LOW load(1, XDATA, add(CFA_XSP16, literal(-5)))
          CFI (cfiCond201) ?RET_HIGH load(1, XDATA, add(CFA_XSP16, literal(-4)))
          CFI (cfiCond201) ?BRET_EXT load(1, XDATA, add(CFA_XSP16, literal(-3)))
          CFI (cfiCond201) DPL0 load(1, XDATA, add(CFA_XSP16, literal(-2)))
          CFI (cfiCond201) DPH0 load(1, XDATA, add(CFA_XSP16, literal(-1)))
          CFI (cfiCond201) CFA_SP SP+-4
          CFI (cfiCond201) CFA_XSP16 add(XSP16, 35)
          CFI Block cfiPicker202 Using cfiCommon1
          CFI (cfiPicker202) NoFunction
          CFI (cfiPicker202) Picker
        MOVX      A,@DPTR
        MOV       R4,A
        INC       DPTR
        MOVX      A,@DPTR
        MOV       R5,A
        RET
          CFI EndBlock cfiCond188
          CFI EndBlock cfiCond189
          CFI EndBlock cfiCond190
          CFI EndBlock cfiCond191
          CFI EndBlock cfiCond192
          CFI EndBlock cfiCond193
          CFI EndBlock cfiCond194
          CFI EndBlock cfiCond195
          CFI EndBlock cfiCond196
          CFI EndBlock cfiCond197
          CFI EndBlock cfiCond198
          CFI EndBlock cfiCond199
          CFI EndBlock cfiCond200
          CFI EndBlock cfiCond201
          CFI EndBlock cfiPicker202

        RSEG BANKED_CODE:HUGECODE:NOROOT(0)
?Subroutine23:
          CFI Block cfiCond203 Using cfiCommon0
          CFI Function initPage
          CFI Conditional ??CrossCallReturnLabel_38
          CFI R6 load(1, XDATA, add(CFA_XSP16, literal(-16)))
          CFI VB load(1, XDATA, add(CFA_XSP16, literal(-15)))
          CFI V0 load(1, XDATA, add(CFA_XSP16, literal(-14)))
          CFI V1 load(1, XDATA, add(CFA_XSP16, literal(-13)))
          CFI V2 load(1, XDATA, add(CFA_XSP16, literal(-12)))
          CFI V3 load(1, XDATA, add(CFA_XSP16, literal(-11)))
          CFI V4 load(1, XDATA, add(CFA_XSP16, literal(-10)))
          CFI V5 load(1, XDATA, add(CFA_XSP16, literal(-9)))
          CFI V6 load(1, XDATA, add(CFA_XSP16, literal(-8)))
          CFI V7 load(1, XDATA, add(CFA_XSP16, literal(-7)))
          CFI R7 load(1, XDATA, add(CFA_XSP16, literal(-6)))
          CFI ?RET_LOW load(1, XDATA, add(CFA_XSP16, literal(-5)))
          CFI ?RET_HIGH load(1, XDATA, add(CFA_XSP16, literal(-4)))
          CFI ?BRET_EXT load(1, XDATA, add(CFA_XSP16, literal(-3)))
          CFI DPL0 load(1, XDATA, add(CFA_XSP16, literal(-2)))
          CFI DPH0 load(1, XDATA, add(CFA_XSP16, literal(-1)))
          CFI CFA_SP SP+-2
          CFI CFA_XSP16 add(XSP16, 26)
          CFI Block cfiCond204 Using cfiCommon0
          CFI (cfiCond204) Function initItem
          CFI (cfiCond204) Conditional ??CrossCallReturnLabel_39
          CFI (cfiCond204) R6 load(1, XDATA, add(CFA_XSP16, literal(-16)))
          CFI (cfiCond204) VB load(1, XDATA, add(CFA_XSP16, literal(-15)))
          CFI (cfiCond204) V0 load(1, XDATA, add(CFA_XSP16, literal(-14)))
          CFI (cfiCond204) V1 load(1, XDATA, add(CFA_XSP16, literal(-13)))
          CFI (cfiCond204) V2 load(1, XDATA, add(CFA_XSP16, literal(-12)))
          CFI (cfiCond204) V3 load(1, XDATA, add(CFA_XSP16, literal(-11)))
          CFI (cfiCond204) V4 load(1, XDATA, add(CFA_XSP16, literal(-10)))
          CFI (cfiCond204) V5 load(1, XDATA, add(CFA_XSP16, literal(-9)))
          CFI (cfiCond204) V6 load(1, XDATA, add(CFA_XSP16, literal(-8)))
          CFI (cfiCond204) V7 load(1, XDATA, add(CFA_XSP16, literal(-7)))
          CFI (cfiCond204) R7 load(1, XDATA, add(CFA_XSP16, literal(-6)))
          CFI (cfiCond204) ?RET_LOW load(1, XDATA, add(CFA_XSP16, literal(-5)))
          CFI (cfiCond204) ?RET_HIGH load(1, XDATA, add(CFA_XSP16, literal(-4)))
          CFI (cfiCond204) ?BRET_EXT load(1, XDATA, add(CFA_XSP16, literal(-3)))
          CFI (cfiCond204) DPL0 load(1, XDATA, add(CFA_XSP16, literal(-2)))
          CFI (cfiCond204) DPH0 load(1, XDATA, add(CFA_XSP16, literal(-1)))
          CFI (cfiCond204) CFA_SP SP+-2
          CFI (cfiCond204) CFA_XSP16 add(XSP16, 26)
          CFI Block cfiCond205 Using cfiCommon0
          CFI (cfiCond205) Function writeItem
          CFI (cfiCond205) Conditional ??CrossCallReturnLabel_40
          CFI (cfiCond205) R6 load(1, XDATA, add(CFA_XSP16, literal(-16)))
          CFI (cfiCond205) VB load(1, XDATA, add(CFA_XSP16, literal(-15)))
          CFI (cfiCond205) V0 load(1, XDATA, add(CFA_XSP16, literal(-14)))
          CFI (cfiCond205) V1 load(1, XDATA, add(CFA_XSP16, literal(-13)))
          CFI (cfiCond205) V2 load(1, XDATA, add(CFA_XSP16, literal(-12)))
          CFI (cfiCond205) V3 load(1, XDATA, add(CFA_XSP16, literal(-11)))
          CFI (cfiCond205) V4 load(1, XDATA, add(CFA_XSP16, literal(-10)))
          CFI (cfiCond205) V5 load(1, XDATA, add(CFA_XSP16, literal(-9)))
          CFI (cfiCond205) V6 load(1, XDATA, add(CFA_XSP16, literal(-8)))
          CFI (cfiCond205) V7 load(1, XDATA, add(CFA_XSP16, literal(-7)))
          CFI (cfiCond205) R7 load(1, XDATA, add(CFA_XSP16, literal(-6)))
          CFI (cfiCond205) ?RET_LOW load(1, XDATA, add(CFA_XSP16, literal(-5)))
          CFI (cfiCond205) ?RET_HIGH load(1, XDATA, add(CFA_XSP16, literal(-4)))
          CFI (cfiCond205) ?BRET_EXT load(1, XDATA, add(CFA_XSP16, literal(-3)))
          CFI (cfiCond205) DPL0 load(1, XDATA, add(CFA_XSP16, literal(-2)))
          CFI (cfiCond205) DPH0 load(1, XDATA, add(CFA_XSP16, literal(-1)))
          CFI (cfiCond205) CFA_SP SP+-2
          CFI (cfiCond205) CFA_XSP16 add(XSP16, 28)
          CFI Block cfiCond206 Using cfiCommon0
          CFI (cfiCond206) Function writeItem
          CFI (cfiCond206) Conditional ??CrossCallReturnLabel_41
          CFI (cfiCond206) R6 load(1, XDATA, add(CFA_XSP16, literal(-16)))
          CFI (cfiCond206) VB load(1, XDATA, add(CFA_XSP16, literal(-15)))
          CFI (cfiCond206) V0 load(1, XDATA, add(CFA_XSP16, literal(-14)))
          CFI (cfiCond206) V1 load(1, XDATA, add(CFA_XSP16, literal(-13)))
          CFI (cfiCond206) V2 load(1, XDATA, add(CFA_XSP16, literal(-12)))
          CFI (cfiCond206) V3 load(1, XDATA, add(CFA_XSP16, literal(-11)))
          CFI (cfiCond206) V4 load(1, XDATA, add(CFA_XSP16, literal(-10)))
          CFI (cfiCond206) V5 load(1, XDATA, add(CFA_XSP16, literal(-9)))
          CFI (cfiCond206) V6 load(1, XDATA, add(CFA_XSP16, literal(-8)))
          CFI (cfiCond206) V7 load(1, XDATA, add(CFA_XSP16, literal(-7)))
          CFI (cfiCond206) R7 load(1, XDATA, add(CFA_XSP16, literal(-6)))
          CFI (cfiCond206) ?RET_LOW load(1, XDATA, add(CFA_XSP16, literal(-5)))
          CFI (cfiCond206) ?RET_HIGH load(1, XDATA, add(CFA_XSP16, literal(-4)))
          CFI (cfiCond206) ?BRET_EXT load(1, XDATA, add(CFA_XSP16, literal(-3)))
          CFI (cfiCond206) DPL0 load(1, XDATA, add(CFA_XSP16, literal(-2)))
          CFI (cfiCond206) DPH0 load(1, XDATA, add(CFA_XSP16, literal(-1)))
          CFI (cfiCond206) CFA_SP SP+-2
          CFI (cfiCond206) CFA_XSP16 add(XSP16, 28)
          CFI Block cfiCond207 Using cfiCommon0
          CFI (cfiCond207) Function writeItem
          CFI (cfiCond207) Conditional ??CrossCallReturnLabel_42
          CFI (cfiCond207) R6 load(1, XDATA, add(CFA_XSP16, literal(-16)))
          CFI (cfiCond207) VB load(1, XDATA, add(CFA_XSP16, literal(-15)))
          CFI (cfiCond207) V0 load(1, XDATA, add(CFA_XSP16, literal(-14)))
          CFI (cfiCond207) V1 load(1, XDATA, add(CFA_XSP16, literal(-13)))
          CFI (cfiCond207) V2 load(1, XDATA, add(CFA_XSP16, literal(-12)))
          CFI (cfiCond207) V3 load(1, XDATA, add(CFA_XSP16, literal(-11)))
          CFI (cfiCond207) V4 load(1, XDATA, add(CFA_XSP16, literal(-10)))
          CFI (cfiCond207) V5 load(1, XDATA, add(CFA_XSP16, literal(-9)))
          CFI (cfiCond207) V6 load(1, XDATA, add(CFA_XSP16, literal(-8)))
          CFI (cfiCond207) V7 load(1, XDATA, add(CFA_XSP16, literal(-7)))
          CFI (cfiCond207) R7 load(1, XDATA, add(CFA_XSP16, literal(-6)))
          CFI (cfiCond207) ?RET_LOW load(1, XDATA, add(CFA_XSP16, literal(-5)))
          CFI (cfiCond207) ?RET_HIGH load(1, XDATA, add(CFA_XSP16, literal(-4)))
          CFI (cfiCond207) ?BRET_EXT load(1, XDATA, add(CFA_XSP16, literal(-3)))
          CFI (cfiCond207) DPL0 load(1, XDATA, add(CFA_XSP16, literal(-2)))
          CFI (cfiCond207) DPH0 load(1, XDATA, add(CFA_XSP16, literal(-1)))
          CFI (cfiCond207) CFA_SP SP+-2
          CFI (cfiCond207) CFA_XSP16 add(XSP16, 28)
          CFI Block cfiCond208 Using cfiCommon0
          CFI (cfiCond208) Function osal_nv_write
          CFI (cfiCond208) Conditional ??CrossCallReturnLabel_43
          CFI (cfiCond208) R6 load(1, XDATA, add(CFA_XSP16, literal(-16)))
          CFI (cfiCond208) VB load(1, XDATA, add(CFA_XSP16, literal(-15)))
          CFI (cfiCond208) V0 load(1, XDATA, add(CFA_XSP16, literal(-14)))
          CFI (cfiCond208) V1 load(1, XDATA, add(CFA_XSP16, literal(-13)))
          CFI (cfiCond208) V2 load(1, XDATA, add(CFA_XSP16, literal(-12)))
          CFI (cfiCond208) V3 load(1, XDATA, add(CFA_XSP16, literal(-11)))
          CFI (cfiCond208) V4 load(1, XDATA, add(CFA_XSP16, literal(-10)))
          CFI (cfiCond208) V5 load(1, XDATA, add(CFA_XSP16, literal(-9)))
          CFI (cfiCond208) V6 load(1, XDATA, add(CFA_XSP16, literal(-8)))
          CFI (cfiCond208) V7 load(1, XDATA, add(CFA_XSP16, literal(-7)))
          CFI (cfiCond208) R7 load(1, XDATA, add(CFA_XSP16, literal(-6)))
          CFI (cfiCond208) ?RET_LOW load(1, XDATA, add(CFA_XSP16, literal(-5)))
          CFI (cfiCond208) ?RET_HIGH load(1, XDATA, add(CFA_XSP16, literal(-4)))
          CFI (cfiCond208) ?BRET_EXT load(1, XDATA, add(CFA_XSP16, literal(-3)))
          CFI (cfiCond208) DPL0 load(1, XDATA, add(CFA_XSP16, literal(-2)))
          CFI (cfiCond208) DPH0 load(1, XDATA, add(CFA_XSP16, literal(-1)))
          CFI (cfiCond208) CFA_SP SP+-4
          CFI (cfiCond208) CFA_XSP16 add(XSP16, 35)
          CFI Block cfiCond209 Using cfiCommon0
          CFI (cfiCond209) Function osal_nv_write
          CFI (cfiCond209) Conditional ??CrossCallReturnLabel_44
          CFI (cfiCond209) R6 load(1, XDATA, add(CFA_XSP16, literal(-16)))
          CFI (cfiCond209) VB load(1, XDATA, add(CFA_XSP16, literal(-15)))
          CFI (cfiCond209) V0 load(1, XDATA, add(CFA_XSP16, literal(-14)))
          CFI (cfiCond209) V1 load(1, XDATA, add(CFA_XSP16, literal(-13)))
          CFI (cfiCond209) V2 load(1, XDATA, add(CFA_XSP16, literal(-12)))
          CFI (cfiCond209) V3 load(1, XDATA, add(CFA_XSP16, literal(-11)))
          CFI (cfiCond209) V4 load(1, XDATA, add(CFA_XSP16, literal(-10)))
          CFI (cfiCond209) V5 load(1, XDATA, add(CFA_XSP16, literal(-9)))
          CFI (cfiCond209) V6 load(1, XDATA, add(CFA_XSP16, literal(-8)))
          CFI (cfiCond209) V7 load(1, XDATA, add(CFA_XSP16, literal(-7)))
          CFI (cfiCond209) R7 load(1, XDATA, add(CFA_XSP16, literal(-6)))
          CFI (cfiCond209) ?RET_LOW load(1, XDATA, add(CFA_XSP16, literal(-5)))
          CFI (cfiCond209) ?RET_HIGH load(1, XDATA, add(CFA_XSP16, literal(-4)))
          CFI (cfiCond209) ?BRET_EXT load(1, XDATA, add(CFA_XSP16, literal(-3)))
          CFI (cfiCond209) DPL0 load(1, XDATA, add(CFA_XSP16, literal(-2)))
          CFI (cfiCond209) DPH0 load(1, XDATA, add(CFA_XSP16, literal(-1)))
          CFI (cfiCond209) CFA_SP SP+-2
          CFI (cfiCond209) CFA_XSP16 add(XSP16, 35)
          CFI Block cfiCond210 Using cfiCommon0
          CFI (cfiCond210) Function osal_nv_write
          CFI (cfiCond210) Conditional ??CrossCallReturnLabel_45
          CFI (cfiCond210) R6 load(1, XDATA, add(CFA_XSP16, literal(-16)))
          CFI (cfiCond210) VB load(1, XDATA, add(CFA_XSP16, literal(-15)))
          CFI (cfiCond210) V0 load(1, XDATA, add(CFA_XSP16, literal(-14)))
          CFI (cfiCond210) V1 load(1, XDATA, add(CFA_XSP16, literal(-13)))
          CFI (cfiCond210) V2 load(1, XDATA, add(CFA_XSP16, literal(-12)))
          CFI (cfiCond210) V3 load(1, XDATA, add(CFA_XSP16, literal(-11)))
          CFI (cfiCond210) V4 load(1, XDATA, add(CFA_XSP16, literal(-10)))
          CFI (cfiCond210) V5 load(1, XDATA, add(CFA_XSP16, literal(-9)))
          CFI (cfiCond210) V6 load(1, XDATA, add(CFA_XSP16, literal(-8)))
          CFI (cfiCond210) V7 load(1, XDATA, add(CFA_XSP16, literal(-7)))
          CFI (cfiCond210) R7 load(1, XDATA, add(CFA_XSP16, literal(-6)))
          CFI (cfiCond210) ?RET_LOW load(1, XDATA, add(CFA_XSP16, literal(-5)))
          CFI (cfiCond210) ?RET_HIGH load(1, XDATA, add(CFA_XSP16, literal(-4)))
          CFI (cfiCond210) ?BRET_EXT load(1, XDATA, add(CFA_XSP16, literal(-3)))
          CFI (cfiCond210) DPL0 load(1, XDATA, add(CFA_XSP16, literal(-2)))
          CFI (cfiCond210) DPH0 load(1, XDATA, add(CFA_XSP16, literal(-1)))
          CFI (cfiCond210) CFA_SP SP+-2
          CFI (cfiCond210) CFA_XSP16 add(XSP16, 35)
          CFI Block cfiCond211 Using cfiCommon0
          CFI (cfiCond211) Function osal_nv_write
          CFI (cfiCond211) Conditional ??CrossCallReturnLabel_46
          CFI (cfiCond211) R6 load(1, XDATA, add(CFA_XSP16, literal(-16)))
          CFI (cfiCond211) VB load(1, XDATA, add(CFA_XSP16, literal(-15)))
          CFI (cfiCond211) V0 load(1, XDATA, add(CFA_XSP16, literal(-14)))
          CFI (cfiCond211) V1 load(1, XDATA, add(CFA_XSP16, literal(-13)))
          CFI (cfiCond211) V2 load(1, XDATA, add(CFA_XSP16, literal(-12)))
          CFI (cfiCond211) V3 load(1, XDATA, add(CFA_XSP16, literal(-11)))
          CFI (cfiCond211) V4 load(1, XDATA, add(CFA_XSP16, literal(-10)))
          CFI (cfiCond211) V5 load(1, XDATA, add(CFA_XSP16, literal(-9)))
          CFI (cfiCond211) V6 load(1, XDATA, add(CFA_XSP16, literal(-8)))
          CFI (cfiCond211) V7 load(1, XDATA, add(CFA_XSP16, literal(-7)))
          CFI (cfiCond211) R7 load(1, XDATA, add(CFA_XSP16, literal(-6)))
          CFI (cfiCond211) ?RET_LOW load(1, XDATA, add(CFA_XSP16, literal(-5)))
          CFI (cfiCond211) ?RET_HIGH load(1, XDATA, add(CFA_XSP16, literal(-4)))
          CFI (cfiCond211) ?BRET_EXT load(1, XDATA, add(CFA_XSP16, literal(-3)))
          CFI (cfiCond211) DPL0 load(1, XDATA, add(CFA_XSP16, literal(-2)))
          CFI (cfiCond211) DPH0 load(1, XDATA, add(CFA_XSP16, literal(-1)))
          CFI (cfiCond211) CFA_SP SP+-4
          CFI (cfiCond211) CFA_XSP16 add(XSP16, 35)
          CFI Block cfiCond212 Using cfiCommon0
          CFI (cfiCond212) Function osal_nv_write
          CFI (cfiCond212) Conditional ??CrossCallReturnLabel_47
          CFI (cfiCond212) R6 load(1, XDATA, add(CFA_XSP16, literal(-16)))
          CFI (cfiCond212) VB load(1, XDATA, add(CFA_XSP16, literal(-15)))
          CFI (cfiCond212) V0 load(1, XDATA, add(CFA_XSP16, literal(-14)))
          CFI (cfiCond212) V1 load(1, XDATA, add(CFA_XSP16, literal(-13)))
          CFI (cfiCond212) V2 load(1, XDATA, add(CFA_XSP16, literal(-12)))
          CFI (cfiCond212) V3 load(1, XDATA, add(CFA_XSP16, literal(-11)))
          CFI (cfiCond212) V4 load(1, XDATA, add(CFA_XSP16, literal(-10)))
          CFI (cfiCond212) V5 load(1, XDATA, add(CFA_XSP16, literal(-9)))
          CFI (cfiCond212) V6 load(1, XDATA, add(CFA_XSP16, literal(-8)))
          CFI (cfiCond212) V7 load(1, XDATA, add(CFA_XSP16, literal(-7)))
          CFI (cfiCond212) R7 load(1, XDATA, add(CFA_XSP16, literal(-6)))
          CFI (cfiCond212) ?RET_LOW load(1, XDATA, add(CFA_XSP16, literal(-5)))
          CFI (cfiCond212) ?RET_HIGH load(1, XDATA, add(CFA_XSP16, literal(-4)))
          CFI (cfiCond212) ?BRET_EXT load(1, XDATA, add(CFA_XSP16, literal(-3)))
          CFI (cfiCond212) DPL0 load(1, XDATA, add(CFA_XSP16, literal(-2)))
          CFI (cfiCond212) DPH0 load(1, XDATA, add(CFA_XSP16, literal(-1)))
          CFI (cfiCond212) CFA_SP SP+-2
          CFI (cfiCond212) CFA_XSP16 add(XSP16, 35)
          CFI Block cfiPicker213 Using cfiCommon1
          CFI (cfiPicker213) NoFunction
          CFI (cfiPicker213) Picker
        MOVX      A,@DPTR
        MOV       R0,A
        INC       DPTR
        MOVX      A,@DPTR
        MOV       R1,A
        RET
          CFI EndBlock cfiCond203
          CFI EndBlock cfiCond204
          CFI EndBlock cfiCond205
          CFI EndBlock cfiCond206
          CFI EndBlock cfiCond207
          CFI EndBlock cfiCond208
          CFI EndBlock cfiCond209
          CFI EndBlock cfiCond210
          CFI EndBlock cfiCond211
          CFI EndBlock cfiCond212
          CFI EndBlock cfiPicker213

        RSEG BANKED_CODE:HUGECODE:NOROOT(0)
?Subroutine20:
          CFI Block cfiCond214 Using cfiCommon0
          CFI Function compactPage
          CFI Conditional ??CrossCallReturnLabel_31
          CFI R6 load(1, XDATA, add(CFA_XSP16, literal(-15)))
          CFI VB load(1, XDATA, add(CFA_XSP16, literal(-14)))
          CFI V0 load(1, XDATA, add(CFA_XSP16, literal(-13)))
          CFI V1 load(1, XDATA, add(CFA_XSP16, literal(-12)))
          CFI V2 load(1, XDATA, add(CFA_XSP16, literal(-11)))
          CFI V3 load(1, XDATA, add(CFA_XSP16, literal(-10)))
          CFI V4 load(1, XDATA, add(CFA_XSP16, literal(-9)))
          CFI V5 load(1, XDATA, add(CFA_XSP16, literal(-8)))
          CFI V6 load(1, XDATA, add(CFA_XSP16, literal(-7)))
          CFI R7 load(1, XDATA, add(CFA_XSP16, literal(-6)))
          CFI ?RET_LOW load(1, XDATA, add(CFA_XSP16, literal(-5)))
          CFI ?RET_HIGH load(1, XDATA, add(CFA_XSP16, literal(-4)))
          CFI ?BRET_EXT load(1, XDATA, add(CFA_XSP16, literal(-3)))
          CFI DPL0 load(1, XDATA, add(CFA_XSP16, literal(-2)))
          CFI DPH0 load(1, XDATA, add(CFA_XSP16, literal(-1)))
          CFI CFA_SP SP+-2
          CFI CFA_XSP16 add(XSP16, 26)
          CFI Block cfiCond215 Using cfiCommon0
          CFI (cfiCond215) Function writeItem
          CFI (cfiCond215) Conditional ??CrossCallReturnLabel_32
          CFI (cfiCond215) R6 load(1, XDATA, add(CFA_XSP16, literal(-16)))
          CFI (cfiCond215) VB load(1, XDATA, add(CFA_XSP16, literal(-15)))
          CFI (cfiCond215) V0 load(1, XDATA, add(CFA_XSP16, literal(-14)))
          CFI (cfiCond215) V1 load(1, XDATA, add(CFA_XSP16, literal(-13)))
          CFI (cfiCond215) V2 load(1, XDATA, add(CFA_XSP16, literal(-12)))
          CFI (cfiCond215) V3 load(1, XDATA, add(CFA_XSP16, literal(-11)))
          CFI (cfiCond215) V4 load(1, XDATA, add(CFA_XSP16, literal(-10)))
          CFI (cfiCond215) V5 load(1, XDATA, add(CFA_XSP16, literal(-9)))
          CFI (cfiCond215) V6 load(1, XDATA, add(CFA_XSP16, literal(-8)))
          CFI (cfiCond215) V7 load(1, XDATA, add(CFA_XSP16, literal(-7)))
          CFI (cfiCond215) R7 load(1, XDATA, add(CFA_XSP16, literal(-6)))
          CFI (cfiCond215) ?RET_LOW load(1, XDATA, add(CFA_XSP16, literal(-5)))
          CFI (cfiCond215) ?RET_HIGH load(1, XDATA, add(CFA_XSP16, literal(-4)))
          CFI (cfiCond215) ?BRET_EXT load(1, XDATA, add(CFA_XSP16, literal(-3)))
          CFI (cfiCond215) DPL0 load(1, XDATA, add(CFA_XSP16, literal(-2)))
          CFI (cfiCond215) DPH0 load(1, XDATA, add(CFA_XSP16, literal(-1)))
          CFI (cfiCond215) CFA_SP SP+-2
          CFI (cfiCond215) CFA_XSP16 add(XSP16, 28)
          CFI Block cfiCond216 Using cfiCommon0
          CFI (cfiCond216) Function osal_nv_write
          CFI (cfiCond216) Conditional ??CrossCallReturnLabel_33
          CFI (cfiCond216) R6 load(1, XDATA, add(CFA_XSP16, literal(-16)))
          CFI (cfiCond216) VB load(1, XDATA, add(CFA_XSP16, literal(-15)))
          CFI (cfiCond216) V0 load(1, XDATA, add(CFA_XSP16, literal(-14)))
          CFI (cfiCond216) V1 load(1, XDATA, add(CFA_XSP16, literal(-13)))
          CFI (cfiCond216) V2 load(1, XDATA, add(CFA_XSP16, literal(-12)))
          CFI (cfiCond216) V3 load(1, XDATA, add(CFA_XSP16, literal(-11)))
          CFI (cfiCond216) V4 load(1, XDATA, add(CFA_XSP16, literal(-10)))
          CFI (cfiCond216) V5 load(1, XDATA, add(CFA_XSP16, literal(-9)))
          CFI (cfiCond216) V6 load(1, XDATA, add(CFA_XSP16, literal(-8)))
          CFI (cfiCond216) V7 load(1, XDATA, add(CFA_XSP16, literal(-7)))
          CFI (cfiCond216) R7 load(1, XDATA, add(CFA_XSP16, literal(-6)))
          CFI (cfiCond216) ?RET_LOW load(1, XDATA, add(CFA_XSP16, literal(-5)))
          CFI (cfiCond216) ?RET_HIGH load(1, XDATA, add(CFA_XSP16, literal(-4)))
          CFI (cfiCond216) ?BRET_EXT load(1, XDATA, add(CFA_XSP16, literal(-3)))
          CFI (cfiCond216) DPL0 load(1, XDATA, add(CFA_XSP16, literal(-2)))
          CFI (cfiCond216) DPH0 load(1, XDATA, add(CFA_XSP16, literal(-1)))
          CFI (cfiCond216) CFA_SP SP+-2
          CFI (cfiCond216) CFA_XSP16 add(XSP16, 35)
          CFI Block cfiPicker217 Using cfiCommon1
          CFI (cfiPicker217) NoFunction
          CFI (cfiPicker217) Picker
        LCALL     ?Subroutine46 & 0xFFFF
??CrossCallReturnLabel_88:
        MOV       A,R2
        XRL       A,R4
        RET
          CFI EndBlock cfiCond214
          CFI EndBlock cfiCond215
          CFI EndBlock cfiCond216
          CFI EndBlock cfiPicker217

        RSEG BANKED_CODE:HUGECODE:NOROOT(0)
?Subroutine16:
          CFI Block cfiCond218 Using cfiCommon0
          CFI Function writeItem
          CFI Conditional ??CrossCallReturnLabel_137
          CFI R6 load(1, XDATA, add(CFA_XSP16, literal(-16)))
          CFI VB load(1, XDATA, add(CFA_XSP16, literal(-15)))
          CFI V0 load(1, XDATA, add(CFA_XSP16, literal(-14)))
          CFI V1 load(1, XDATA, add(CFA_XSP16, literal(-13)))
          CFI V2 load(1, XDATA, add(CFA_XSP16, literal(-12)))
          CFI V3 load(1, XDATA, add(CFA_XSP16, literal(-11)))
          CFI V4 load(1, XDATA, add(CFA_XSP16, literal(-10)))
          CFI V5 load(1, XDATA, add(CFA_XSP16, literal(-9)))
          CFI V6 load(1, XDATA, add(CFA_XSP16, literal(-8)))
          CFI V7 load(1, XDATA, add(CFA_XSP16, literal(-7)))
          CFI R7 load(1, XDATA, add(CFA_XSP16, literal(-6)))
          CFI ?RET_LOW load(1, XDATA, add(CFA_XSP16, literal(-5)))
          CFI ?RET_HIGH load(1, XDATA, add(CFA_XSP16, literal(-4)))
          CFI ?BRET_EXT load(1, XDATA, add(CFA_XSP16, literal(-3)))
          CFI DPL0 load(1, XDATA, add(CFA_XSP16, literal(-2)))
          CFI DPH0 load(1, XDATA, add(CFA_XSP16, literal(-1)))
          CFI CFA_SP SP+-2
          CFI CFA_XSP16 add(XSP16, 28)
          CFI Block cfiCond219 Using cfiCommon0
          CFI (cfiCond219) Function writeItem
          CFI (cfiCond219) Conditional ??CrossCallReturnLabel_138
          CFI (cfiCond219) R6 load(1, XDATA, add(CFA_XSP16, literal(-16)))
          CFI (cfiCond219) VB load(1, XDATA, add(CFA_XSP16, literal(-15)))
          CFI (cfiCond219) V0 load(1, XDATA, add(CFA_XSP16, literal(-14)))
          CFI (cfiCond219) V1 load(1, XDATA, add(CFA_XSP16, literal(-13)))
          CFI (cfiCond219) V2 load(1, XDATA, add(CFA_XSP16, literal(-12)))
          CFI (cfiCond219) V3 load(1, XDATA, add(CFA_XSP16, literal(-11)))
          CFI (cfiCond219) V4 load(1, XDATA, add(CFA_XSP16, literal(-10)))
          CFI (cfiCond219) V5 load(1, XDATA, add(CFA_XSP16, literal(-9)))
          CFI (cfiCond219) V6 load(1, XDATA, add(CFA_XSP16, literal(-8)))
          CFI (cfiCond219) V7 load(1, XDATA, add(CFA_XSP16, literal(-7)))
          CFI (cfiCond219) R7 load(1, XDATA, add(CFA_XSP16, literal(-6)))
          CFI (cfiCond219) ?RET_LOW load(1, XDATA, add(CFA_XSP16, literal(-5)))
          CFI (cfiCond219) ?RET_HIGH load(1, XDATA, add(CFA_XSP16, literal(-4)))
          CFI (cfiCond219) ?BRET_EXT load(1, XDATA, add(CFA_XSP16, literal(-3)))
          CFI (cfiCond219) DPL0 load(1, XDATA, add(CFA_XSP16, literal(-2)))
          CFI (cfiCond219) DPH0 load(1, XDATA, add(CFA_XSP16, literal(-1)))
          CFI (cfiCond219) CFA_SP SP+-2
          CFI (cfiCond219) CFA_XSP16 add(XSP16, 28)
          CFI Block cfiCond220 Using cfiCommon0
          CFI (cfiCond220) Function writeItem
          CFI (cfiCond220) Conditional ??CrossCallReturnLabel_139
          CFI (cfiCond220) R6 load(1, XDATA, add(CFA_XSP16, literal(-16)))
          CFI (cfiCond220) VB load(1, XDATA, add(CFA_XSP16, literal(-15)))
          CFI (cfiCond220) V0 load(1, XDATA, add(CFA_XSP16, literal(-14)))
          CFI (cfiCond220) V1 load(1, XDATA, add(CFA_XSP16, literal(-13)))
          CFI (cfiCond220) V2 load(1, XDATA, add(CFA_XSP16, literal(-12)))
          CFI (cfiCond220) V3 load(1, XDATA, add(CFA_XSP16, literal(-11)))
          CFI (cfiCond220) V4 load(1, XDATA, add(CFA_XSP16, literal(-10)))
          CFI (cfiCond220) V5 load(1, XDATA, add(CFA_XSP16, literal(-9)))
          CFI (cfiCond220) V6 load(1, XDATA, add(CFA_XSP16, literal(-8)))
          CFI (cfiCond220) V7 load(1, XDATA, add(CFA_XSP16, literal(-7)))
          CFI (cfiCond220) R7 load(1, XDATA, add(CFA_XSP16, literal(-6)))
          CFI (cfiCond220) ?RET_LOW load(1, XDATA, add(CFA_XSP16, literal(-5)))
          CFI (cfiCond220) ?RET_HIGH load(1, XDATA, add(CFA_XSP16, literal(-4)))
          CFI (cfiCond220) ?BRET_EXT load(1, XDATA, add(CFA_XSP16, literal(-3)))
          CFI (cfiCond220) DPL0 load(1, XDATA, add(CFA_XSP16, literal(-2)))
          CFI (cfiCond220) DPH0 load(1, XDATA, add(CFA_XSP16, literal(-1)))
          CFI (cfiCond220) CFA_SP SP+-2
          CFI (cfiCond220) CFA_XSP16 add(XSP16, 28)
          CFI Block cfiPicker221 Using cfiCommon1
          CFI (cfiPicker221) NoFunction
          CFI (cfiPicker221) Picker
        MOV       DPL,?XSP + 0
        MOV       DPH,?XSP + 1
          CFI EndBlock cfiCond218
          CFI EndBlock cfiCond219
          CFI EndBlock cfiCond220
          CFI EndBlock cfiPicker221
        REQUIRE ??Subroutine64_0
        ; // Fall through to label ??Subroutine64_0

        RSEG BANKED_CODE:HUGECODE:NOROOT(0)
??Subroutine64_0:
          CFI Block cfiCond222 Using cfiCommon0
          CFI Function writeBuf
          CFI Conditional ??CrossCallReturnLabel_135
          CFI R6 load(1, XDATA, add(CFA_XSP16, literal(-16)))
          CFI VB load(1, XDATA, add(CFA_XSP16, literal(-15)))
          CFI V0 load(1, XDATA, add(CFA_XSP16, literal(-14)))
          CFI V1 load(1, XDATA, add(CFA_XSP16, literal(-13)))
          CFI V2 load(1, XDATA, add(CFA_XSP16, literal(-12)))
          CFI V3 load(1, XDATA, add(CFA_XSP16, literal(-11)))
          CFI V4 load(1, XDATA, add(CFA_XSP16, literal(-10)))
          CFI V5 load(1, XDATA, add(CFA_XSP16, literal(-9)))
          CFI V6 load(1, XDATA, add(CFA_XSP16, literal(-8)))
          CFI V7 load(1, XDATA, add(CFA_XSP16, literal(-7)))
          CFI R7 load(1, XDATA, add(CFA_XSP16, literal(-6)))
          CFI ?RET_LOW load(1, XDATA, add(CFA_XSP16, literal(-5)))
          CFI ?RET_HIGH load(1, XDATA, add(CFA_XSP16, literal(-4)))
          CFI ?BRET_EXT load(1, XDATA, add(CFA_XSP16, literal(-3)))
          CFI DPL0 load(1, XDATA, add(CFA_XSP16, literal(-2)))
          CFI DPH0 load(1, XDATA, add(CFA_XSP16, literal(-1)))
          CFI CFA_SP SP+-2
          CFI CFA_XSP16 add(XSP16, 20)
          CFI Block cfiCond223 Using cfiCommon0
          CFI (cfiCond223) Function writeBuf
          CFI (cfiCond223) Conditional ??CrossCallReturnLabel_136
          CFI (cfiCond223) R6 load(1, XDATA, add(CFA_XSP16, literal(-16)))
          CFI (cfiCond223) VB load(1, XDATA, add(CFA_XSP16, literal(-15)))
          CFI (cfiCond223) V0 load(1, XDATA, add(CFA_XSP16, literal(-14)))
          CFI (cfiCond223) V1 load(1, XDATA, add(CFA_XSP16, literal(-13)))
          CFI (cfiCond223) V2 load(1, XDATA, add(CFA_XSP16, literal(-12)))
          CFI (cfiCond223) V3 load(1, XDATA, add(CFA_XSP16, literal(-11)))
          CFI (cfiCond223) V4 load(1, XDATA, add(CFA_XSP16, literal(-10)))
          CFI (cfiCond223) V5 load(1, XDATA, add(CFA_XSP16, literal(-9)))
          CFI (cfiCond223) V6 load(1, XDATA, add(CFA_XSP16, literal(-8)))
          CFI (cfiCond223) V7 load(1, XDATA, add(CFA_XSP16, literal(-7)))
          CFI (cfiCond223) R7 load(1, XDATA, add(CFA_XSP16, literal(-6)))
          CFI (cfiCond223) ?RET_LOW load(1, XDATA, add(CFA_XSP16, literal(-5)))
          CFI (cfiCond223) ?RET_HIGH load(1, XDATA, add(CFA_XSP16, literal(-4)))
          CFI (cfiCond223) ?BRET_EXT load(1, XDATA, add(CFA_XSP16, literal(-3)))
          CFI (cfiCond223) DPL0 load(1, XDATA, add(CFA_XSP16, literal(-2)))
          CFI (cfiCond223) DPH0 load(1, XDATA, add(CFA_XSP16, literal(-1)))
          CFI (cfiCond223) CFA_SP SP+-2
          CFI (cfiCond223) CFA_XSP16 add(XSP16, 20)
          CFI Block cfiCond224 Using cfiCommon0
          CFI (cfiCond224) Function writeItem
          CFI (cfiCond224) Conditional ??CrossCallReturnLabel_137
          CFI (cfiCond224) R6 load(1, XDATA, add(CFA_XSP16, literal(-16)))
          CFI (cfiCond224) VB load(1, XDATA, add(CFA_XSP16, literal(-15)))
          CFI (cfiCond224) V0 load(1, XDATA, add(CFA_XSP16, literal(-14)))
          CFI (cfiCond224) V1 load(1, XDATA, add(CFA_XSP16, literal(-13)))
          CFI (cfiCond224) V2 load(1, XDATA, add(CFA_XSP16, literal(-12)))
          CFI (cfiCond224) V3 load(1, XDATA, add(CFA_XSP16, literal(-11)))
          CFI (cfiCond224) V4 load(1, XDATA, add(CFA_XSP16, literal(-10)))
          CFI (cfiCond224) V5 load(1, XDATA, add(CFA_XSP16, literal(-9)))
          CFI (cfiCond224) V6 load(1, XDATA, add(CFA_XSP16, literal(-8)))
          CFI (cfiCond224) V7 load(1, XDATA, add(CFA_XSP16, literal(-7)))
          CFI (cfiCond224) R7 load(1, XDATA, add(CFA_XSP16, literal(-6)))
          CFI (cfiCond224) ?RET_LOW load(1, XDATA, add(CFA_XSP16, literal(-5)))
          CFI (cfiCond224) ?RET_HIGH load(1, XDATA, add(CFA_XSP16, literal(-4)))
          CFI (cfiCond224) ?BRET_EXT load(1, XDATA, add(CFA_XSP16, literal(-3)))
          CFI (cfiCond224) DPL0 load(1, XDATA, add(CFA_XSP16, literal(-2)))
          CFI (cfiCond224) DPH0 load(1, XDATA, add(CFA_XSP16, literal(-1)))
          CFI (cfiCond224) CFA_SP SP+-2
          CFI (cfiCond224) CFA_XSP16 add(XSP16, 28)
          CFI Block cfiCond225 Using cfiCommon0
          CFI (cfiCond225) Function writeItem
          CFI (cfiCond225) Conditional ??CrossCallReturnLabel_138
          CFI (cfiCond225) R6 load(1, XDATA, add(CFA_XSP16, literal(-16)))
          CFI (cfiCond225) VB load(1, XDATA, add(CFA_XSP16, literal(-15)))
          CFI (cfiCond225) V0 load(1, XDATA, add(CFA_XSP16, literal(-14)))
          CFI (cfiCond225) V1 load(1, XDATA, add(CFA_XSP16, literal(-13)))
          CFI (cfiCond225) V2 load(1, XDATA, add(CFA_XSP16, literal(-12)))
          CFI (cfiCond225) V3 load(1, XDATA, add(CFA_XSP16, literal(-11)))
          CFI (cfiCond225) V4 load(1, XDATA, add(CFA_XSP16, literal(-10)))
          CFI (cfiCond225) V5 load(1, XDATA, add(CFA_XSP16, literal(-9)))
          CFI (cfiCond225) V6 load(1, XDATA, add(CFA_XSP16, literal(-8)))
          CFI (cfiCond225) V7 load(1, XDATA, add(CFA_XSP16, literal(-7)))
          CFI (cfiCond225) R7 load(1, XDATA, add(CFA_XSP16, literal(-6)))
          CFI (cfiCond225) ?RET_LOW load(1, XDATA, add(CFA_XSP16, literal(-5)))
          CFI (cfiCond225) ?RET_HIGH load(1, XDATA, add(CFA_XSP16, literal(-4)))
          CFI (cfiCond225) ?BRET_EXT load(1, XDATA, add(CFA_XSP16, literal(-3)))
          CFI (cfiCond225) DPL0 load(1, XDATA, add(CFA_XSP16, literal(-2)))
          CFI (cfiCond225) DPH0 load(1, XDATA, add(CFA_XSP16, literal(-1)))
          CFI (cfiCond225) CFA_SP SP+-2
          CFI (cfiCond225) CFA_XSP16 add(XSP16, 28)
          CFI Block cfiCond226 Using cfiCommon0
          CFI (cfiCond226) Function writeItem
          CFI (cfiCond226) Conditional ??CrossCallReturnLabel_139
          CFI (cfiCond226) R6 load(1, XDATA, add(CFA_XSP16, literal(-16)))
          CFI (cfiCond226) VB load(1, XDATA, add(CFA_XSP16, literal(-15)))
          CFI (cfiCond226) V0 load(1, XDATA, add(CFA_XSP16, literal(-14)))
          CFI (cfiCond226) V1 load(1, XDATA, add(CFA_XSP16, literal(-13)))
          CFI (cfiCond226) V2 load(1, XDATA, add(CFA_XSP16, literal(-12)))
          CFI (cfiCond226) V3 load(1, XDATA, add(CFA_XSP16, literal(-11)))
          CFI (cfiCond226) V4 load(1, XDATA, add(CFA_XSP16, literal(-10)))
          CFI (cfiCond226) V5 load(1, XDATA, add(CFA_XSP16, literal(-9)))
          CFI (cfiCond226) V6 load(1, XDATA, add(CFA_XSP16, literal(-8)))
          CFI (cfiCond226) V7 load(1, XDATA, add(CFA_XSP16, literal(-7)))
          CFI (cfiCond226) R7 load(1, XDATA, add(CFA_XSP16, literal(-6)))
          CFI (cfiCond226) ?RET_LOW load(1, XDATA, add(CFA_XSP16, literal(-5)))
          CFI (cfiCond226) ?RET_HIGH load(1, XDATA, add(CFA_XSP16, literal(-4)))
          CFI (cfiCond226) ?BRET_EXT load(1, XDATA, add(CFA_XSP16, literal(-3)))
          CFI (cfiCond226) DPL0 load(1, XDATA, add(CFA_XSP16, literal(-2)))
          CFI (cfiCond226) DPH0 load(1, XDATA, add(CFA_XSP16, literal(-1)))
          CFI (cfiCond226) CFA_SP SP+-2
          CFI (cfiCond226) CFA_XSP16 add(XSP16, 28)
          CFI Block cfiPicker227 Using cfiCommon1
          CFI (cfiPicker227) NoFunction
          CFI (cfiPicker227) Picker
        LCALL     ?Subroutine47 & 0xFFFF
??CrossCallReturnLabel_141:
        RET
          CFI EndBlock cfiCond222
          CFI EndBlock cfiCond223
          CFI EndBlock cfiCond224
          CFI EndBlock cfiCond225
          CFI EndBlock cfiCond226
          CFI EndBlock cfiPicker227

        RSEG BANKED_CODE:HUGECODE:NOROOT(0)
?Subroutine47:
          CFI Block cfiCond228 Using cfiCommon0
          CFI Function writeItem
          CFI Conditional ??CrossCallReturnLabel_141, ??CrossCallReturnLabel_137
          CFI R6 load(1, XDATA, add(CFA_XSP16, literal(-16)))
          CFI VB load(1, XDATA, add(CFA_XSP16, literal(-15)))
          CFI V0 load(1, XDATA, add(CFA_XSP16, literal(-14)))
          CFI V1 load(1, XDATA, add(CFA_XSP16, literal(-13)))
          CFI V2 load(1, XDATA, add(CFA_XSP16, literal(-12)))
          CFI V3 load(1, XDATA, add(CFA_XSP16, literal(-11)))
          CFI V4 load(1, XDATA, add(CFA_XSP16, literal(-10)))
          CFI V5 load(1, XDATA, add(CFA_XSP16, literal(-9)))
          CFI V6 load(1, XDATA, add(CFA_XSP16, literal(-8)))
          CFI V7 load(1, XDATA, add(CFA_XSP16, literal(-7)))
          CFI R7 load(1, XDATA, add(CFA_XSP16, literal(-6)))
          CFI ?RET_LOW load(1, XDATA, add(CFA_XSP16, literal(-5)))
          CFI ?RET_HIGH load(1, XDATA, add(CFA_XSP16, literal(-4)))
          CFI ?BRET_EXT load(1, XDATA, add(CFA_XSP16, literal(-3)))
          CFI DPL0 load(1, XDATA, add(CFA_XSP16, literal(-2)))
          CFI DPH0 load(1, XDATA, add(CFA_XSP16, literal(-1)))
          CFI CFA_SP SP+-4
          CFI CFA_XSP16 add(XSP16, 28)
          CFI Block cfiCond229 Using cfiCommon0
          CFI (cfiCond229) Function writeItem
          CFI (cfiCond229) Conditional ??CrossCallReturnLabel_141, ??CrossCallReturnLabel_138
          CFI (cfiCond229) R6 load(1, XDATA, add(CFA_XSP16, literal(-16)))
          CFI (cfiCond229) VB load(1, XDATA, add(CFA_XSP16, literal(-15)))
          CFI (cfiCond229) V0 load(1, XDATA, add(CFA_XSP16, literal(-14)))
          CFI (cfiCond229) V1 load(1, XDATA, add(CFA_XSP16, literal(-13)))
          CFI (cfiCond229) V2 load(1, XDATA, add(CFA_XSP16, literal(-12)))
          CFI (cfiCond229) V3 load(1, XDATA, add(CFA_XSP16, literal(-11)))
          CFI (cfiCond229) V4 load(1, XDATA, add(CFA_XSP16, literal(-10)))
          CFI (cfiCond229) V5 load(1, XDATA, add(CFA_XSP16, literal(-9)))
          CFI (cfiCond229) V6 load(1, XDATA, add(CFA_XSP16, literal(-8)))
          CFI (cfiCond229) V7 load(1, XDATA, add(CFA_XSP16, literal(-7)))
          CFI (cfiCond229) R7 load(1, XDATA, add(CFA_XSP16, literal(-6)))
          CFI (cfiCond229) ?RET_LOW load(1, XDATA, add(CFA_XSP16, literal(-5)))
          CFI (cfiCond229) ?RET_HIGH load(1, XDATA, add(CFA_XSP16, literal(-4)))
          CFI (cfiCond229) ?BRET_EXT load(1, XDATA, add(CFA_XSP16, literal(-3)))
          CFI (cfiCond229) DPL0 load(1, XDATA, add(CFA_XSP16, literal(-2)))
          CFI (cfiCond229) DPH0 load(1, XDATA, add(CFA_XSP16, literal(-1)))
          CFI (cfiCond229) CFA_SP SP+-4
          CFI (cfiCond229) CFA_XSP16 add(XSP16, 28)
          CFI Block cfiCond230 Using cfiCommon0
          CFI (cfiCond230) Function writeItem
          CFI (cfiCond230) Conditional ??CrossCallReturnLabel_141, ??CrossCallReturnLabel_139
          CFI (cfiCond230) R6 load(1, XDATA, add(CFA_XSP16, literal(-16)))
          CFI (cfiCond230) VB load(1, XDATA, add(CFA_XSP16, literal(-15)))
          CFI (cfiCond230) V0 load(1, XDATA, add(CFA_XSP16, literal(-14)))
          CFI (cfiCond230) V1 load(1, XDATA, add(CFA_XSP16, literal(-13)))
          CFI (cfiCond230) V2 load(1, XDATA, add(CFA_XSP16, literal(-12)))
          CFI (cfiCond230) V3 load(1, XDATA, add(CFA_XSP16, literal(-11)))
          CFI (cfiCond230) V4 load(1, XDATA, add(CFA_XSP16, literal(-10)))
          CFI (cfiCond230) V5 load(1, XDATA, add(CFA_XSP16, literal(-9)))
          CFI (cfiCond230) V6 load(1, XDATA, add(CFA_XSP16, literal(-8)))
          CFI (cfiCond230) V7 load(1, XDATA, add(CFA_XSP16, literal(-7)))
          CFI (cfiCond230) R7 load(1, XDATA, add(CFA_XSP16, literal(-6)))
          CFI (cfiCond230) ?RET_LOW load(1, XDATA, add(CFA_XSP16, literal(-5)))
          CFI (cfiCond230) ?RET_HIGH load(1, XDATA, add(CFA_XSP16, literal(-4)))
          CFI (cfiCond230) ?BRET_EXT load(1, XDATA, add(CFA_XSP16, literal(-3)))
          CFI (cfiCond230) DPL0 load(1, XDATA, add(CFA_XSP16, literal(-2)))
          CFI (cfiCond230) DPH0 load(1, XDATA, add(CFA_XSP16, literal(-1)))
          CFI (cfiCond230) CFA_SP SP+-4
          CFI (cfiCond230) CFA_XSP16 add(XSP16, 28)
          CFI Block cfiCond231 Using cfiCommon0
          CFI (cfiCond231) Function writeBuf
          CFI (cfiCond231) Conditional ??CrossCallReturnLabel_141, ??CrossCallReturnLabel_135
          CFI (cfiCond231) R6 load(1, XDATA, add(CFA_XSP16, literal(-16)))
          CFI (cfiCond231) VB load(1, XDATA, add(CFA_XSP16, literal(-15)))
          CFI (cfiCond231) V0 load(1, XDATA, add(CFA_XSP16, literal(-14)))
          CFI (cfiCond231) V1 load(1, XDATA, add(CFA_XSP16, literal(-13)))
          CFI (cfiCond231) V2 load(1, XDATA, add(CFA_XSP16, literal(-12)))
          CFI (cfiCond231) V3 load(1, XDATA, add(CFA_XSP16, literal(-11)))
          CFI (cfiCond231) V4 load(1, XDATA, add(CFA_XSP16, literal(-10)))
          CFI (cfiCond231) V5 load(1, XDATA, add(CFA_XSP16, literal(-9)))
          CFI (cfiCond231) V6 load(1, XDATA, add(CFA_XSP16, literal(-8)))
          CFI (cfiCond231) V7 load(1, XDATA, add(CFA_XSP16, literal(-7)))
          CFI (cfiCond231) R7 load(1, XDATA, add(CFA_XSP16, literal(-6)))
          CFI (cfiCond231) ?RET_LOW load(1, XDATA, add(CFA_XSP16, literal(-5)))
          CFI (cfiCond231) ?RET_HIGH load(1, XDATA, add(CFA_XSP16, literal(-4)))
          CFI (cfiCond231) ?BRET_EXT load(1, XDATA, add(CFA_XSP16, literal(-3)))
          CFI (cfiCond231) DPL0 load(1, XDATA, add(CFA_XSP16, literal(-2)))
          CFI (cfiCond231) DPH0 load(1, XDATA, add(CFA_XSP16, literal(-1)))
          CFI (cfiCond231) CFA_SP SP+-4
          CFI (cfiCond231) CFA_XSP16 add(XSP16, 20)
          CFI Block cfiCond232 Using cfiCommon0
          CFI (cfiCond232) Function writeBuf
          CFI (cfiCond232) Conditional ??CrossCallReturnLabel_141, ??CrossCallReturnLabel_136
          CFI (cfiCond232) R6 load(1, XDATA, add(CFA_XSP16, literal(-16)))
          CFI (cfiCond232) VB load(1, XDATA, add(CFA_XSP16, literal(-15)))
          CFI (cfiCond232) V0 load(1, XDATA, add(CFA_XSP16, literal(-14)))
          CFI (cfiCond232) V1 load(1, XDATA, add(CFA_XSP16, literal(-13)))
          CFI (cfiCond232) V2 load(1, XDATA, add(CFA_XSP16, literal(-12)))
          CFI (cfiCond232) V3 load(1, XDATA, add(CFA_XSP16, literal(-11)))
          CFI (cfiCond232) V4 load(1, XDATA, add(CFA_XSP16, literal(-10)))
          CFI (cfiCond232) V5 load(1, XDATA, add(CFA_XSP16, literal(-9)))
          CFI (cfiCond232) V6 load(1, XDATA, add(CFA_XSP16, literal(-8)))
          CFI (cfiCond232) V7 load(1, XDATA, add(CFA_XSP16, literal(-7)))
          CFI (cfiCond232) R7 load(1, XDATA, add(CFA_XSP16, literal(-6)))
          CFI (cfiCond232) ?RET_LOW load(1, XDATA, add(CFA_XSP16, literal(-5)))
          CFI (cfiCond232) ?RET_HIGH load(1, XDATA, add(CFA_XSP16, literal(-4)))
          CFI (cfiCond232) ?BRET_EXT load(1, XDATA, add(CFA_XSP16, literal(-3)))
          CFI (cfiCond232) DPL0 load(1, XDATA, add(CFA_XSP16, literal(-2)))
          CFI (cfiCond232) DPH0 load(1, XDATA, add(CFA_XSP16, literal(-1)))
          CFI (cfiCond232) CFA_SP SP+-4
          CFI (cfiCond232) CFA_XSP16 add(XSP16, 20)
          CFI Block cfiCond233 Using cfiCommon0
          CFI (cfiCond233) Function osal_nv_write
          CFI (cfiCond233) Conditional ??CrossCallReturnLabel_140, ??CrossCallReturnLabel_22
          CFI (cfiCond233) R6 load(1, XDATA, add(CFA_XSP16, literal(-16)))
          CFI (cfiCond233) VB load(1, XDATA, add(CFA_XSP16, literal(-15)))
          CFI (cfiCond233) V0 load(1, XDATA, add(CFA_XSP16, literal(-14)))
          CFI (cfiCond233) V1 load(1, XDATA, add(CFA_XSP16, literal(-13)))
          CFI (cfiCond233) V2 load(1, XDATA, add(CFA_XSP16, literal(-12)))
          CFI (cfiCond233) V3 load(1, XDATA, add(CFA_XSP16, literal(-11)))
          CFI (cfiCond233) V4 load(1, XDATA, add(CFA_XSP16, literal(-10)))
          CFI (cfiCond233) V5 load(1, XDATA, add(CFA_XSP16, literal(-9)))
          CFI (cfiCond233) V6 load(1, XDATA, add(CFA_XSP16, literal(-8)))
          CFI (cfiCond233) V7 load(1, XDATA, add(CFA_XSP16, literal(-7)))
          CFI (cfiCond233) R7 load(1, XDATA, add(CFA_XSP16, literal(-6)))
          CFI (cfiCond233) ?RET_LOW load(1, XDATA, add(CFA_XSP16, literal(-5)))
          CFI (cfiCond233) ?RET_HIGH load(1, XDATA, add(CFA_XSP16, literal(-4)))
          CFI (cfiCond233) ?BRET_EXT load(1, XDATA, add(CFA_XSP16, literal(-3)))
          CFI (cfiCond233) DPL0 load(1, XDATA, add(CFA_XSP16, literal(-2)))
          CFI (cfiCond233) DPH0 load(1, XDATA, add(CFA_XSP16, literal(-1)))
          CFI (cfiCond233) CFA_SP SP+-4
          CFI (cfiCond233) CFA_XSP16 add(XSP16, 35)
          CFI Block cfiCond234 Using cfiCommon0
          CFI (cfiCond234) Function osal_nv_write
          CFI (cfiCond234) Conditional ??CrossCallReturnLabel_140, ??CrossCallReturnLabel_23
          CFI (cfiCond234) R6 load(1, XDATA, add(CFA_XSP16, literal(-16)))
          CFI (cfiCond234) VB load(1, XDATA, add(CFA_XSP16, literal(-15)))
          CFI (cfiCond234) V0 load(1, XDATA, add(CFA_XSP16, literal(-14)))
          CFI (cfiCond234) V1 load(1, XDATA, add(CFA_XSP16, literal(-13)))
          CFI (cfiCond234) V2 load(1, XDATA, add(CFA_XSP16, literal(-12)))
          CFI (cfiCond234) V3 load(1, XDATA, add(CFA_XSP16, literal(-11)))
          CFI (cfiCond234) V4 load(1, XDATA, add(CFA_XSP16, literal(-10)))
          CFI (cfiCond234) V5 load(1, XDATA, add(CFA_XSP16, literal(-9)))
          CFI (cfiCond234) V6 load(1, XDATA, add(CFA_XSP16, literal(-8)))
          CFI (cfiCond234) V7 load(1, XDATA, add(CFA_XSP16, literal(-7)))
          CFI (cfiCond234) R7 load(1, XDATA, add(CFA_XSP16, literal(-6)))
          CFI (cfiCond234) ?RET_LOW load(1, XDATA, add(CFA_XSP16, literal(-5)))
          CFI (cfiCond234) ?RET_HIGH load(1, XDATA, add(CFA_XSP16, literal(-4)))
          CFI (cfiCond234) ?BRET_EXT load(1, XDATA, add(CFA_XSP16, literal(-3)))
          CFI (cfiCond234) DPL0 load(1, XDATA, add(CFA_XSP16, literal(-2)))
          CFI (cfiCond234) DPH0 load(1, XDATA, add(CFA_XSP16, literal(-1)))
          CFI (cfiCond234) CFA_SP SP+-4
          CFI (cfiCond234) CFA_XSP16 add(XSP16, 35)
          CFI Block cfiPicker235 Using cfiCommon1
          CFI (cfiPicker235) NoFunction
          CFI (cfiPicker235) Picker
        LCALL     ?Subroutine50 & 0xFFFF
??CrossCallReturnLabel_143:
        MOVX      A,@DPTR
        RET
          CFI EndBlock cfiCond228
          CFI EndBlock cfiCond229
          CFI EndBlock cfiCond230
          CFI EndBlock cfiCond231
          CFI EndBlock cfiCond232
          CFI EndBlock cfiCond233
          CFI EndBlock cfiCond234
          CFI EndBlock cfiPicker235

        RSEG BANKED_CODE:HUGECODE:NOROOT(0)
?Subroutine50:
          CFI Block cfiCond236 Using cfiCommon0
          CFI Function initItem
          CFI Conditional ??CrossCallReturnLabel_142
          CFI R6 load(1, XDATA, add(CFA_XSP16, literal(-16)))
          CFI VB load(1, XDATA, add(CFA_XSP16, literal(-15)))
          CFI V0 load(1, XDATA, add(CFA_XSP16, literal(-14)))
          CFI V1 load(1, XDATA, add(CFA_XSP16, literal(-13)))
          CFI V2 load(1, XDATA, add(CFA_XSP16, literal(-12)))
          CFI V3 load(1, XDATA, add(CFA_XSP16, literal(-11)))
          CFI V4 load(1, XDATA, add(CFA_XSP16, literal(-10)))
          CFI V5 load(1, XDATA, add(CFA_XSP16, literal(-9)))
          CFI V6 load(1, XDATA, add(CFA_XSP16, literal(-8)))
          CFI V7 load(1, XDATA, add(CFA_XSP16, literal(-7)))
          CFI R7 load(1, XDATA, add(CFA_XSP16, literal(-6)))
          CFI ?RET_LOW load(1, XDATA, add(CFA_XSP16, literal(-5)))
          CFI ?RET_HIGH load(1, XDATA, add(CFA_XSP16, literal(-4)))
          CFI ?BRET_EXT load(1, XDATA, add(CFA_XSP16, literal(-3)))
          CFI DPL0 load(1, XDATA, add(CFA_XSP16, literal(-2)))
          CFI DPH0 load(1, XDATA, add(CFA_XSP16, literal(-1)))
          CFI CFA_SP SP+-2
          CFI CFA_XSP16 add(XSP16, 26)
          CFI Block cfiCond237 Using cfiCommon0
          CFI (cfiCond237) Function writeItem
          CFI (cfiCond237) Conditional ??CrossCallReturnLabel_143, ??CrossCallReturnLabel_141, ??CrossCallReturnLabel_137
          CFI (cfiCond237) R6 load(1, XDATA, add(CFA_XSP16, literal(-16)))
          CFI (cfiCond237) VB load(1, XDATA, add(CFA_XSP16, literal(-15)))
          CFI (cfiCond237) V0 load(1, XDATA, add(CFA_XSP16, literal(-14)))
          CFI (cfiCond237) V1 load(1, XDATA, add(CFA_XSP16, literal(-13)))
          CFI (cfiCond237) V2 load(1, XDATA, add(CFA_XSP16, literal(-12)))
          CFI (cfiCond237) V3 load(1, XDATA, add(CFA_XSP16, literal(-11)))
          CFI (cfiCond237) V4 load(1, XDATA, add(CFA_XSP16, literal(-10)))
          CFI (cfiCond237) V5 load(1, XDATA, add(CFA_XSP16, literal(-9)))
          CFI (cfiCond237) V6 load(1, XDATA, add(CFA_XSP16, literal(-8)))
          CFI (cfiCond237) V7 load(1, XDATA, add(CFA_XSP16, literal(-7)))
          CFI (cfiCond237) R7 load(1, XDATA, add(CFA_XSP16, literal(-6)))
          CFI (cfiCond237) ?RET_LOW load(1, XDATA, add(CFA_XSP16, literal(-5)))
          CFI (cfiCond237) ?RET_HIGH load(1, XDATA, add(CFA_XSP16, literal(-4)))
          CFI (cfiCond237) ?BRET_EXT load(1, XDATA, add(CFA_XSP16, literal(-3)))
          CFI (cfiCond237) DPL0 load(1, XDATA, add(CFA_XSP16, literal(-2)))
          CFI (cfiCond237) DPH0 load(1, XDATA, add(CFA_XSP16, literal(-1)))
          CFI (cfiCond237) CFA_SP SP+-6
          CFI (cfiCond237) CFA_XSP16 add(XSP16, 28)
          CFI Block cfiCond238 Using cfiCommon0
          CFI (cfiCond238) Function writeItem
          CFI (cfiCond238) Conditional ??CrossCallReturnLabel_143, ??CrossCallReturnLabel_141, ??CrossCallReturnLabel_138
          CFI (cfiCond238) R6 load(1, XDATA, add(CFA_XSP16, literal(-16)))
          CFI (cfiCond238) VB load(1, XDATA, add(CFA_XSP16, literal(-15)))
          CFI (cfiCond238) V0 load(1, XDATA, add(CFA_XSP16, literal(-14)))
          CFI (cfiCond238) V1 load(1, XDATA, add(CFA_XSP16, literal(-13)))
          CFI (cfiCond238) V2 load(1, XDATA, add(CFA_XSP16, literal(-12)))
          CFI (cfiCond238) V3 load(1, XDATA, add(CFA_XSP16, literal(-11)))
          CFI (cfiCond238) V4 load(1, XDATA, add(CFA_XSP16, literal(-10)))
          CFI (cfiCond238) V5 load(1, XDATA, add(CFA_XSP16, literal(-9)))
          CFI (cfiCond238) V6 load(1, XDATA, add(CFA_XSP16, literal(-8)))
          CFI (cfiCond238) V7 load(1, XDATA, add(CFA_XSP16, literal(-7)))
          CFI (cfiCond238) R7 load(1, XDATA, add(CFA_XSP16, literal(-6)))
          CFI (cfiCond238) ?RET_LOW load(1, XDATA, add(CFA_XSP16, literal(-5)))
          CFI (cfiCond238) ?RET_HIGH load(1, XDATA, add(CFA_XSP16, literal(-4)))
          CFI (cfiCond238) ?BRET_EXT load(1, XDATA, add(CFA_XSP16, literal(-3)))
          CFI (cfiCond238) DPL0 load(1, XDATA, add(CFA_XSP16, literal(-2)))
          CFI (cfiCond238) DPH0 load(1, XDATA, add(CFA_XSP16, literal(-1)))
          CFI (cfiCond238) CFA_SP SP+-6
          CFI (cfiCond238) CFA_XSP16 add(XSP16, 28)
          CFI Block cfiCond239 Using cfiCommon0
          CFI (cfiCond239) Function writeItem
          CFI (cfiCond239) Conditional ??CrossCallReturnLabel_143, ??CrossCallReturnLabel_141, ??CrossCallReturnLabel_139
          CFI (cfiCond239) R6 load(1, XDATA, add(CFA_XSP16, literal(-16)))
          CFI (cfiCond239) VB load(1, XDATA, add(CFA_XSP16, literal(-15)))
          CFI (cfiCond239) V0 load(1, XDATA, add(CFA_XSP16, literal(-14)))
          CFI (cfiCond239) V1 load(1, XDATA, add(CFA_XSP16, literal(-13)))
          CFI (cfiCond239) V2 load(1, XDATA, add(CFA_XSP16, literal(-12)))
          CFI (cfiCond239) V3 load(1, XDATA, add(CFA_XSP16, literal(-11)))
          CFI (cfiCond239) V4 load(1, XDATA, add(CFA_XSP16, literal(-10)))
          CFI (cfiCond239) V5 load(1, XDATA, add(CFA_XSP16, literal(-9)))
          CFI (cfiCond239) V6 load(1, XDATA, add(CFA_XSP16, literal(-8)))
          CFI (cfiCond239) V7 load(1, XDATA, add(CFA_XSP16, literal(-7)))
          CFI (cfiCond239) R7 load(1, XDATA, add(CFA_XSP16, literal(-6)))
          CFI (cfiCond239) ?RET_LOW load(1, XDATA, add(CFA_XSP16, literal(-5)))
          CFI (cfiCond239) ?RET_HIGH load(1, XDATA, add(CFA_XSP16, literal(-4)))
          CFI (cfiCond239) ?BRET_EXT load(1, XDATA, add(CFA_XSP16, literal(-3)))
          CFI (cfiCond239) DPL0 load(1, XDATA, add(CFA_XSP16, literal(-2)))
          CFI (cfiCond239) DPH0 load(1, XDATA, add(CFA_XSP16, literal(-1)))
          CFI (cfiCond239) CFA_SP SP+-6
          CFI (cfiCond239) CFA_XSP16 add(XSP16, 28)
          CFI Block cfiCond240 Using cfiCommon0
          CFI (cfiCond240) Function writeBuf
          CFI (cfiCond240) Conditional ??CrossCallReturnLabel_143, ??CrossCallReturnLabel_141, ??CrossCallReturnLabel_135
          CFI (cfiCond240) R6 load(1, XDATA, add(CFA_XSP16, literal(-16)))
          CFI (cfiCond240) VB load(1, XDATA, add(CFA_XSP16, literal(-15)))
          CFI (cfiCond240) V0 load(1, XDATA, add(CFA_XSP16, literal(-14)))
          CFI (cfiCond240) V1 load(1, XDATA, add(CFA_XSP16, literal(-13)))
          CFI (cfiCond240) V2 load(1, XDATA, add(CFA_XSP16, literal(-12)))
          CFI (cfiCond240) V3 load(1, XDATA, add(CFA_XSP16, literal(-11)))
          CFI (cfiCond240) V4 load(1, XDATA, add(CFA_XSP16, literal(-10)))
          CFI (cfiCond240) V5 load(1, XDATA, add(CFA_XSP16, literal(-9)))
          CFI (cfiCond240) V6 load(1, XDATA, add(CFA_XSP16, literal(-8)))
          CFI (cfiCond240) V7 load(1, XDATA, add(CFA_XSP16, literal(-7)))
          CFI (cfiCond240) R7 load(1, XDATA, add(CFA_XSP16, literal(-6)))
          CFI (cfiCond240) ?RET_LOW load(1, XDATA, add(CFA_XSP16, literal(-5)))
          CFI (cfiCond240) ?RET_HIGH load(1, XDATA, add(CFA_XSP16, literal(-4)))
          CFI (cfiCond240) ?BRET_EXT load(1, XDATA, add(CFA_XSP16, literal(-3)))
          CFI (cfiCond240) DPL0 load(1, XDATA, add(CFA_XSP16, literal(-2)))
          CFI (cfiCond240) DPH0 load(1, XDATA, add(CFA_XSP16, literal(-1)))
          CFI (cfiCond240) CFA_SP SP+-6
          CFI (cfiCond240) CFA_XSP16 add(XSP16, 20)
          CFI Block cfiCond241 Using cfiCommon0
          CFI (cfiCond241) Function writeBuf
          CFI (cfiCond241) Conditional ??CrossCallReturnLabel_143, ??CrossCallReturnLabel_141, ??CrossCallReturnLabel_136
          CFI (cfiCond241) R6 load(1, XDATA, add(CFA_XSP16, literal(-16)))
          CFI (cfiCond241) VB load(1, XDATA, add(CFA_XSP16, literal(-15)))
          CFI (cfiCond241) V0 load(1, XDATA, add(CFA_XSP16, literal(-14)))
          CFI (cfiCond241) V1 load(1, XDATA, add(CFA_XSP16, literal(-13)))
          CFI (cfiCond241) V2 load(1, XDATA, add(CFA_XSP16, literal(-12)))
          CFI (cfiCond241) V3 load(1, XDATA, add(CFA_XSP16, literal(-11)))
          CFI (cfiCond241) V4 load(1, XDATA, add(CFA_XSP16, literal(-10)))
          CFI (cfiCond241) V5 load(1, XDATA, add(CFA_XSP16, literal(-9)))
          CFI (cfiCond241) V6 load(1, XDATA, add(CFA_XSP16, literal(-8)))
          CFI (cfiCond241) V7 load(1, XDATA, add(CFA_XSP16, literal(-7)))
          CFI (cfiCond241) R7 load(1, XDATA, add(CFA_XSP16, literal(-6)))
          CFI (cfiCond241) ?RET_LOW load(1, XDATA, add(CFA_XSP16, literal(-5)))
          CFI (cfiCond241) ?RET_HIGH load(1, XDATA, add(CFA_XSP16, literal(-4)))
          CFI (cfiCond241) ?BRET_EXT load(1, XDATA, add(CFA_XSP16, literal(-3)))
          CFI (cfiCond241) DPL0 load(1, XDATA, add(CFA_XSP16, literal(-2)))
          CFI (cfiCond241) DPH0 load(1, XDATA, add(CFA_XSP16, literal(-1)))
          CFI (cfiCond241) CFA_SP SP+-6
          CFI (cfiCond241) CFA_XSP16 add(XSP16, 20)
          CFI Block cfiCond242 Using cfiCommon0
          CFI (cfiCond242) Function osal_nv_write
          CFI (cfiCond242) Conditional ??CrossCallReturnLabel_143, ??CrossCallReturnLabel_140, ??CrossCallReturnLabel_22
          CFI (cfiCond242) R6 load(1, XDATA, add(CFA_XSP16, literal(-16)))
          CFI (cfiCond242) VB load(1, XDATA, add(CFA_XSP16, literal(-15)))
          CFI (cfiCond242) V0 load(1, XDATA, add(CFA_XSP16, literal(-14)))
          CFI (cfiCond242) V1 load(1, XDATA, add(CFA_XSP16, literal(-13)))
          CFI (cfiCond242) V2 load(1, XDATA, add(CFA_XSP16, literal(-12)))
          CFI (cfiCond242) V3 load(1, XDATA, add(CFA_XSP16, literal(-11)))
          CFI (cfiCond242) V4 load(1, XDATA, add(CFA_XSP16, literal(-10)))
          CFI (cfiCond242) V5 load(1, XDATA, add(CFA_XSP16, literal(-9)))
          CFI (cfiCond242) V6 load(1, XDATA, add(CFA_XSP16, literal(-8)))
          CFI (cfiCond242) V7 load(1, XDATA, add(CFA_XSP16, literal(-7)))
          CFI (cfiCond242) R7 load(1, XDATA, add(CFA_XSP16, literal(-6)))
          CFI (cfiCond242) ?RET_LOW load(1, XDATA, add(CFA_XSP16, literal(-5)))
          CFI (cfiCond242) ?RET_HIGH load(1, XDATA, add(CFA_XSP16, literal(-4)))
          CFI (cfiCond242) ?BRET_EXT load(1, XDATA, add(CFA_XSP16, literal(-3)))
          CFI (cfiCond242) DPL0 load(1, XDATA, add(CFA_XSP16, literal(-2)))
          CFI (cfiCond242) DPH0 load(1, XDATA, add(CFA_XSP16, literal(-1)))
          CFI (cfiCond242) CFA_SP SP+-6
          CFI (cfiCond242) CFA_XSP16 add(XSP16, 35)
          CFI Block cfiCond243 Using cfiCommon0
          CFI (cfiCond243) Function osal_nv_write
          CFI (cfiCond243) Conditional ??CrossCallReturnLabel_143, ??CrossCallReturnLabel_140, ??CrossCallReturnLabel_23
          CFI (cfiCond243) R6 load(1, XDATA, add(CFA_XSP16, literal(-16)))
          CFI (cfiCond243) VB load(1, XDATA, add(CFA_XSP16, literal(-15)))
          CFI (cfiCond243) V0 load(1, XDATA, add(CFA_XSP16, literal(-14)))
          CFI (cfiCond243) V1 load(1, XDATA, add(CFA_XSP16, literal(-13)))
          CFI (cfiCond243) V2 load(1, XDATA, add(CFA_XSP16, literal(-12)))
          CFI (cfiCond243) V3 load(1, XDATA, add(CFA_XSP16, literal(-11)))
          CFI (cfiCond243) V4 load(1, XDATA, add(CFA_XSP16, literal(-10)))
          CFI (cfiCond243) V5 load(1, XDATA, add(CFA_XSP16, literal(-9)))
          CFI (cfiCond243) V6 load(1, XDATA, add(CFA_XSP16, literal(-8)))
          CFI (cfiCond243) V7 load(1, XDATA, add(CFA_XSP16, literal(-7)))
          CFI (cfiCond243) R7 load(1, XDATA, add(CFA_XSP16, literal(-6)))
          CFI (cfiCond243) ?RET_LOW load(1, XDATA, add(CFA_XSP16, literal(-5)))
          CFI (cfiCond243) ?RET_HIGH load(1, XDATA, add(CFA_XSP16, literal(-4)))
          CFI (cfiCond243) ?BRET_EXT load(1, XDATA, add(CFA_XSP16, literal(-3)))
          CFI (cfiCond243) DPL0 load(1, XDATA, add(CFA_XSP16, literal(-2)))
          CFI (cfiCond243) DPH0 load(1, XDATA, add(CFA_XSP16, literal(-1)))
          CFI (cfiCond243) CFA_SP SP+-6
          CFI (cfiCond243) CFA_XSP16 add(XSP16, 35)
          CFI Block cfiPicker244 Using cfiCommon1
          CFI (cfiPicker244) NoFunction
          CFI (cfiPicker244) Picker
        MOVX      A,@DPTR
        MOV       R0,A
        INC       DPTR
        MOVX      A,@DPTR
        MOV       DPH,A
        MOV       DPL,R0
        RET
          CFI EndBlock cfiCond236
          CFI EndBlock cfiCond237
          CFI EndBlock cfiCond238
          CFI EndBlock cfiCond239
          CFI EndBlock cfiCond240
          CFI EndBlock cfiCond241
          CFI EndBlock cfiCond242
          CFI EndBlock cfiCond243
          CFI EndBlock cfiPicker244

        RSEG BANKED_CODE:HUGECODE:NOROOT(0)
?Subroutine10:
          CFI Block cfiCond245 Using cfiCommon0
          CFI Function writeBuf
          CFI Conditional ??CrossCallReturnLabel_7
          CFI R6 load(1, XDATA, add(CFA_XSP16, literal(-16)))
          CFI VB load(1, XDATA, add(CFA_XSP16, literal(-15)))
          CFI V0 load(1, XDATA, add(CFA_XSP16, literal(-14)))
          CFI V1 load(1, XDATA, add(CFA_XSP16, literal(-13)))
          CFI V2 load(1, XDATA, add(CFA_XSP16, literal(-12)))
          CFI V3 load(1, XDATA, add(CFA_XSP16, literal(-11)))
          CFI V4 load(1, XDATA, add(CFA_XSP16, literal(-10)))
          CFI V5 load(1, XDATA, add(CFA_XSP16, literal(-9)))
          CFI V6 load(1, XDATA, add(CFA_XSP16, literal(-8)))
          CFI V7 load(1, XDATA, add(CFA_XSP16, literal(-7)))
          CFI R7 load(1, XDATA, add(CFA_XSP16, literal(-6)))
          CFI ?RET_LOW load(1, XDATA, add(CFA_XSP16, literal(-5)))
          CFI ?RET_HIGH load(1, XDATA, add(CFA_XSP16, literal(-4)))
          CFI ?BRET_EXT load(1, XDATA, add(CFA_XSP16, literal(-3)))
          CFI DPL0 load(1, XDATA, add(CFA_XSP16, literal(-2)))
          CFI DPH0 load(1, XDATA, add(CFA_XSP16, literal(-1)))
          CFI CFA_SP SP+-2
          CFI CFA_XSP16 add(XSP16, 20)
          CFI Block cfiCond246 Using cfiCommon0
          CFI (cfiCond246) Function writeBuf
          CFI (cfiCond246) Conditional ??CrossCallReturnLabel_8
          CFI (cfiCond246) R6 load(1, XDATA, add(CFA_XSP16, literal(-16)))
          CFI (cfiCond246) VB load(1, XDATA, add(CFA_XSP16, literal(-15)))
          CFI (cfiCond246) V0 load(1, XDATA, add(CFA_XSP16, literal(-14)))
          CFI (cfiCond246) V1 load(1, XDATA, add(CFA_XSP16, literal(-13)))
          CFI (cfiCond246) V2 load(1, XDATA, add(CFA_XSP16, literal(-12)))
          CFI (cfiCond246) V3 load(1, XDATA, add(CFA_XSP16, literal(-11)))
          CFI (cfiCond246) V4 load(1, XDATA, add(CFA_XSP16, literal(-10)))
          CFI (cfiCond246) V5 load(1, XDATA, add(CFA_XSP16, literal(-9)))
          CFI (cfiCond246) V6 load(1, XDATA, add(CFA_XSP16, literal(-8)))
          CFI (cfiCond246) V7 load(1, XDATA, add(CFA_XSP16, literal(-7)))
          CFI (cfiCond246) R7 load(1, XDATA, add(CFA_XSP16, literal(-6)))
          CFI (cfiCond246) ?RET_LOW load(1, XDATA, add(CFA_XSP16, literal(-5)))
          CFI (cfiCond246) ?RET_HIGH load(1, XDATA, add(CFA_XSP16, literal(-4)))
          CFI (cfiCond246) ?BRET_EXT load(1, XDATA, add(CFA_XSP16, literal(-3)))
          CFI (cfiCond246) DPL0 load(1, XDATA, add(CFA_XSP16, literal(-2)))
          CFI (cfiCond246) DPH0 load(1, XDATA, add(CFA_XSP16, literal(-1)))
          CFI (cfiCond246) CFA_SP SP+-2
          CFI (cfiCond246) CFA_XSP16 add(XSP16, 20)
          CFI Block cfiCond247 Using cfiCommon0
          CFI (cfiCond247) Function writeBuf
          CFI (cfiCond247) Conditional ??CrossCallReturnLabel_9
          CFI (cfiCond247) R6 load(1, XDATA, add(CFA_XSP16, literal(-16)))
          CFI (cfiCond247) VB load(1, XDATA, add(CFA_XSP16, literal(-15)))
          CFI (cfiCond247) V0 load(1, XDATA, add(CFA_XSP16, literal(-14)))
          CFI (cfiCond247) V1 load(1, XDATA, add(CFA_XSP16, literal(-13)))
          CFI (cfiCond247) V2 load(1, XDATA, add(CFA_XSP16, literal(-12)))
          CFI (cfiCond247) V3 load(1, XDATA, add(CFA_XSP16, literal(-11)))
          CFI (cfiCond247) V4 load(1, XDATA, add(CFA_XSP16, literal(-10)))
          CFI (cfiCond247) V5 load(1, XDATA, add(CFA_XSP16, literal(-9)))
          CFI (cfiCond247) V6 load(1, XDATA, add(CFA_XSP16, literal(-8)))
          CFI (cfiCond247) V7 load(1, XDATA, add(CFA_XSP16, literal(-7)))
          CFI (cfiCond247) R7 load(1, XDATA, add(CFA_XSP16, literal(-6)))
          CFI (cfiCond247) ?RET_LOW load(1, XDATA, add(CFA_XSP16, literal(-5)))
          CFI (cfiCond247) ?RET_HIGH load(1, XDATA, add(CFA_XSP16, literal(-4)))
          CFI (cfiCond247) ?BRET_EXT load(1, XDATA, add(CFA_XSP16, literal(-3)))
          CFI (cfiCond247) DPL0 load(1, XDATA, add(CFA_XSP16, literal(-2)))
          CFI (cfiCond247) DPH0 load(1, XDATA, add(CFA_XSP16, literal(-1)))
          CFI (cfiCond247) CFA_SP SP+-2
          CFI (cfiCond247) CFA_XSP16 add(XSP16, 20)
          CFI Block cfiCond248 Using cfiCommon0
          CFI (cfiCond248) Function writeItem
          CFI (cfiCond248) Conditional ??CrossCallReturnLabel_10
          CFI (cfiCond248) R6 load(1, XDATA, add(CFA_XSP16, literal(-16)))
          CFI (cfiCond248) VB load(1, XDATA, add(CFA_XSP16, literal(-15)))
          CFI (cfiCond248) V0 load(1, XDATA, add(CFA_XSP16, literal(-14)))
          CFI (cfiCond248) V1 load(1, XDATA, add(CFA_XSP16, literal(-13)))
          CFI (cfiCond248) V2 load(1, XDATA, add(CFA_XSP16, literal(-12)))
          CFI (cfiCond248) V3 load(1, XDATA, add(CFA_XSP16, literal(-11)))
          CFI (cfiCond248) V4 load(1, XDATA, add(CFA_XSP16, literal(-10)))
          CFI (cfiCond248) V5 load(1, XDATA, add(CFA_XSP16, literal(-9)))
          CFI (cfiCond248) V6 load(1, XDATA, add(CFA_XSP16, literal(-8)))
          CFI (cfiCond248) V7 load(1, XDATA, add(CFA_XSP16, literal(-7)))
          CFI (cfiCond248) R7 load(1, XDATA, add(CFA_XSP16, literal(-6)))
          CFI (cfiCond248) ?RET_LOW load(1, XDATA, add(CFA_XSP16, literal(-5)))
          CFI (cfiCond248) ?RET_HIGH load(1, XDATA, add(CFA_XSP16, literal(-4)))
          CFI (cfiCond248) ?BRET_EXT load(1, XDATA, add(CFA_XSP16, literal(-3)))
          CFI (cfiCond248) DPL0 load(1, XDATA, add(CFA_XSP16, literal(-2)))
          CFI (cfiCond248) DPH0 load(1, XDATA, add(CFA_XSP16, literal(-1)))
          CFI (cfiCond248) CFA_SP SP+-2
          CFI (cfiCond248) CFA_XSP16 add(XSP16, 28)
          CFI Block cfiCond249 Using cfiCommon0
          CFI (cfiCond249) Function writeItem
          CFI (cfiCond249) Conditional ??CrossCallReturnLabel_11
          CFI (cfiCond249) R6 load(1, XDATA, add(CFA_XSP16, literal(-16)))
          CFI (cfiCond249) VB load(1, XDATA, add(CFA_XSP16, literal(-15)))
          CFI (cfiCond249) V0 load(1, XDATA, add(CFA_XSP16, literal(-14)))
          CFI (cfiCond249) V1 load(1, XDATA, add(CFA_XSP16, literal(-13)))
          CFI (cfiCond249) V2 load(1, XDATA, add(CFA_XSP16, literal(-12)))
          CFI (cfiCond249) V3 load(1, XDATA, add(CFA_XSP16, literal(-11)))
          CFI (cfiCond249) V4 load(1, XDATA, add(CFA_XSP16, literal(-10)))
          CFI (cfiCond249) V5 load(1, XDATA, add(CFA_XSP16, literal(-9)))
          CFI (cfiCond249) V6 load(1, XDATA, add(CFA_XSP16, literal(-8)))
          CFI (cfiCond249) V7 load(1, XDATA, add(CFA_XSP16, literal(-7)))
          CFI (cfiCond249) R7 load(1, XDATA, add(CFA_XSP16, literal(-6)))
          CFI (cfiCond249) ?RET_LOW load(1, XDATA, add(CFA_XSP16, literal(-5)))
          CFI (cfiCond249) ?RET_HIGH load(1, XDATA, add(CFA_XSP16, literal(-4)))
          CFI (cfiCond249) ?BRET_EXT load(1, XDATA, add(CFA_XSP16, literal(-3)))
          CFI (cfiCond249) DPL0 load(1, XDATA, add(CFA_XSP16, literal(-2)))
          CFI (cfiCond249) DPH0 load(1, XDATA, add(CFA_XSP16, literal(-1)))
          CFI (cfiCond249) CFA_SP SP+-2
          CFI (cfiCond249) CFA_XSP16 add(XSP16, 28)
          CFI Block cfiCond250 Using cfiCommon0
          CFI (cfiCond250) Function osal_nv_write
          CFI (cfiCond250) Conditional ??CrossCallReturnLabel_12
          CFI (cfiCond250) R6 load(1, XDATA, add(CFA_XSP16, literal(-16)))
          CFI (cfiCond250) VB load(1, XDATA, add(CFA_XSP16, literal(-15)))
          CFI (cfiCond250) V0 load(1, XDATA, add(CFA_XSP16, literal(-14)))
          CFI (cfiCond250) V1 load(1, XDATA, add(CFA_XSP16, literal(-13)))
          CFI (cfiCond250) V2 load(1, XDATA, add(CFA_XSP16, literal(-12)))
          CFI (cfiCond250) V3 load(1, XDATA, add(CFA_XSP16, literal(-11)))
          CFI (cfiCond250) V4 load(1, XDATA, add(CFA_XSP16, literal(-10)))
          CFI (cfiCond250) V5 load(1, XDATA, add(CFA_XSP16, literal(-9)))
          CFI (cfiCond250) V6 load(1, XDATA, add(CFA_XSP16, literal(-8)))
          CFI (cfiCond250) V7 load(1, XDATA, add(CFA_XSP16, literal(-7)))
          CFI (cfiCond250) R7 load(1, XDATA, add(CFA_XSP16, literal(-6)))
          CFI (cfiCond250) ?RET_LOW load(1, XDATA, add(CFA_XSP16, literal(-5)))
          CFI (cfiCond250) ?RET_HIGH load(1, XDATA, add(CFA_XSP16, literal(-4)))
          CFI (cfiCond250) ?BRET_EXT load(1, XDATA, add(CFA_XSP16, literal(-3)))
          CFI (cfiCond250) DPL0 load(1, XDATA, add(CFA_XSP16, literal(-2)))
          CFI (cfiCond250) DPH0 load(1, XDATA, add(CFA_XSP16, literal(-1)))
          CFI (cfiCond250) CFA_SP SP+-2
          CFI (cfiCond250) CFA_XSP16 add(XSP16, 35)
          CFI Block cfiPicker251 Using cfiCommon1
          CFI (cfiPicker251) NoFunction
          CFI (cfiPicker251) Picker
        MOV       A,R0
        MOVX      @DPTR,A
        INC       DPTR
        MOV       A,R1
        MOVX      @DPTR,A
        RET
          CFI EndBlock cfiCond245
          CFI EndBlock cfiCond246
          CFI EndBlock cfiCond247
          CFI EndBlock cfiCond248
          CFI EndBlock cfiCond249
          CFI EndBlock cfiCond250
          CFI EndBlock cfiPicker251
// 1148 
// 1149 /*********************************************************************
// 1150  * @fn      hotItem
// 1151  *
// 1152  * @brief   Look for the parameter 'id' in the hot items array.
// 1153  *
// 1154  * @param   id - A valid NV item Id.
// 1155  *
// 1156  * @return  A valid index into the hot items if the item is hot; OSAL_NV_MAX_HOT if not.
// 1157  */

        RSEG BANKED_CODE:HUGECODE:NOROOT(0)
// 1158 static uint8 hotItem(uint16 id)
hotItem:
          CFI Block cfiBlock252 Using cfiCommon0
          CFI Function hotItem
        CODE
// 1159 {
        PUSH      DPL
          CFI DPL0 Frame(CFA_SP, 4)
          CFI CFA_SP SP+-4
        PUSH      DPH
          CFI DPH0 Frame(CFA_SP, 5)
          CFI CFA_SP SP+-5
        ; Saved register size: 2
        ; Auto size: 0
// 1160   uint8 hotIdx;
// 1161 
// 1162   for (hotIdx = 0; hotIdx < OSAL_NV_MAX_HOT; hotIdx++)
        MOV       R1,#0x0
// 1163   {
// 1164     if (hotIds[hotIdx] == id)
??hotItem_0:
        MOV       A,R1
        ADD       A,0xE0 /* A   */
        MOV       R4,A
        CLR       A
        RLC       A
        MOV       R5,A
        MOV       A,#hotIds & 0xff
        ADD       A,R4
        MOV       DPL,A
        MOV       A,#(hotIds >> 8) & 0xff
        ADDC      A,R5
        MOV       DPH,A
        MOVX      A,@DPTR
        XRL       A,R2
        JNZ       ??hotItem_1
        INC       DPTR
        MOVX      A,@DPTR
        XRL       A,R3
??hotItem_1:
        JZ        ??hotItem_2
// 1165     {
// 1166       break;
// 1167     }
// 1168   }
        INC       R1
        MOV       A,R1
        CLR       C
        SUBB      A,#0x3
        JC        ??hotItem_0
// 1169 
// 1170   return hotIdx;
??hotItem_2:
          CFI EndBlock cfiBlock252
        REQUIRE ?Subroutine5
        ; // Fall through to label ?Subroutine5
// 1171 }

        RSEG BANKED_CODE:HUGECODE:NOROOT(0)
?Subroutine5:
          CFI Block cfiBlock253 Using cfiCommon0
          CFI NoFunction
          CFI CFA_SP SP+-5
          CFI DPL0 Frame(CFA_SP, 4)
          CFI DPH0 Frame(CFA_SP, 5)
        POP       DPH
          CFI CFA_SP SP+-4
          CFI DPH0 SameValue
        POP       DPL
          CFI CFA_SP SP+-3
          CFI DPL0 SameValue
        LJMP      ?BRET
          CFI EndBlock cfiBlock253
// 1172 
// 1173 /*********************************************************************
// 1174  * @fn      hotItemUpdate
// 1175  *
// 1176  * @brief   If the parameter 'id' is a hot item, update the corresponding hot item data.
// 1177  *
// 1178  * @param   pg - The new NV page corresponding to the hot item.
// 1179  * @param   off - The new NV page offset corresponding to the hot item.
// 1180  * @param   id - A valid NV item Id.
// 1181  *
// 1182  * @return  none
// 1183  */

        RSEG BANKED_CODE:HUGECODE:NOROOT(0)
// 1184 static void hotItemUpdate(uint8 pg, uint16 off, uint16 id)
hotItemUpdate:
          CFI Block cfiBlock254 Using cfiCommon0
          CFI Function hotItemUpdate
        CODE
// 1185 {
        FUNCALL hotItemUpdate, hotItem
        LOCFRAME ISTACK, 0, STACK
        LOCFRAME PSTACK, 0, STACK
        LOCFRAME XSTACK, 9, STACK
        LOCFRAME IOVERLAY, 0, STATIC
        LOCFRAME DOVERLAY, 0, STATIC
        ARGFRAME ISTACK, 0, STACK
        ARGFRAME PSTACK, 0, STACK
        ARGFRAME XSTACK, 9, STACK
        ARGFRAME IOVERLAY, 0, STATIC
        ARGFRAME DOVERLAY, 0, STATIC
        REQUIRE ?V0
        MOV       A,#-0x9
        LCALL     ?BANKED_ENTER_XDATA
          CFI DPH0 load(1, XDATA, add(CFA_XSP16, literal(-1)))
          CFI DPL0 load(1, XDATA, add(CFA_XSP16, literal(-2)))
          CFI ?BRET_EXT load(1, XDATA, add(CFA_XSP16, literal(-3)))
          CFI ?RET_HIGH load(1, XDATA, add(CFA_XSP16, literal(-4)))
          CFI ?RET_LOW load(1, XDATA, add(CFA_XSP16, literal(-5)))
          CFI R7 load(1, XDATA, add(CFA_XSP16, literal(-6)))
          CFI V0 load(1, XDATA, add(CFA_XSP16, literal(-7)))
          CFI VB load(1, XDATA, add(CFA_XSP16, literal(-8)))
          CFI R6 load(1, XDATA, add(CFA_XSP16, literal(-9)))
          CFI CFA_SP SP+0
          CFI CFA_XSP16 add(XSP16, 9)
        ; Saved register size: 9
        ; Auto size: 0
        MOV       ?V0,R1
        MOV       A,R2
        MOV       R6,A
        MOV       A,R3
        MOV       R7,A
        MOV       A,R4
        MOV       R2,A
        MOV       A,R5
        MOV       R3,A
// 1186   uint8 hotIdx = hotItem(id);
        ; Setup parameters for call to function hotItem
        LCALL     ?Subroutine45 & 0xFFFF
// 1187 
// 1188   if (hotIdx < OSAL_NV_MAX_HOT)
??CrossCallReturnLabel_83:
        JNC       ??hotItemUpdate_0
// 1189   {
// 1190     {
// 1191       hotPg[hotIdx] = pg;
        LCALL     ?Subroutine44 & 0xFFFF
// 1192       hotOff[hotIdx] = off;
// 1193     }
// 1194   }
??CrossCallReturnLabel_81:
        MOV       A,?V0
        LCALL     ?Subroutine6 & 0xFFFF
??CrossCallReturnLabel_0:
        MOV       A,R6
        MOVX      @DPTR,A
        INC       DPTR
        MOV       A,R7
        MOVX      @DPTR,A
// 1195 }
??hotItemUpdate_0:
        LJMP      ??Subroutine54_0 & 0xFFFF
          CFI EndBlock cfiBlock254
// 1196 
// 1197 /*********************************************************************
// 1198  * @fn      osal_nv_init
// 1199  *
// 1200  * @brief   Initialize NV service.
// 1201  *
// 1202  * @param   p - Not used.
// 1203  *
// 1204  * @return  none
// 1205  */

        RSEG BANKED_CODE:HUGECODE:NOROOT(0)
// 1206 void osal_nv_init( void *p )
osal_nv_init:
          CFI Block cfiBlock255 Using cfiCommon0
          CFI Function osal_nv_init
        CODE
// 1207 {
        FUNCALL osal_nv_init, initNV
        LOCFRAME ISTACK, 2, STACK
        LOCFRAME PSTACK, 0, STACK
        LOCFRAME XSTACK, 0, STACK
        LOCFRAME IOVERLAY, 0, STATIC
        LOCFRAME DOVERLAY, 0, STATIC
        ARGFRAME ISTACK, 2, STACK
        ARGFRAME PSTACK, 0, STACK
        ARGFRAME XSTACK, 0, STACK
        ARGFRAME IOVERLAY, 0, STATIC
        ARGFRAME DOVERLAY, 0, STATIC
        PUSH      DPL
          CFI DPL0 Frame(CFA_SP, 4)
          CFI CFA_SP SP+-4
        PUSH      DPH
          CFI DPH0 Frame(CFA_SP, 5)
          CFI CFA_SP SP+-5
        ; Saved register size: 2
        ; Auto size: 0
// 1208   (void)p;  // Suppress Lint warning.
// 1209   (void)initNV();  // Always returns TRUE after pages have been erased.
        ; Setup parameters for call to function initNV
        LCALL     `??initNV::?relay`; Banked call to: initNV
// 1210 }
        SJMP      ?Subroutine5
          CFI EndBlock cfiBlock255
// 1211 
// 1212 /*********************************************************************
// 1213  * @fn      osal_nv_item_init
// 1214  *
// 1215  * @brief   If the NV item does not already exist, it is created and
// 1216  *          initialized with the data passed to the function, if any.
// 1217  *          This function must be called before calling osal_nv_read() or
// 1218  *          osal_nv_write().
// 1219  *
// 1220  * @param   id  - Valid NV item Id.
// 1221  * @param   len - Item length.
// 1222  * @param  *buf - Pointer to item initalization data. Set to NULL if none.
// 1223  *
// 1224  * @return  NV_ITEM_UNINIT - Id did not exist and was created successfully.
// 1225  *          SUCCESS        - Id already existed, no action taken.
// 1226  *          NV_OPER_FAILED - Failure to find or create Id.
// 1227  */

        RSEG BANKED_CODE:HUGECODE:NOROOT(0)
// 1228 uint8 osal_nv_item_init( uint16 id, uint16 len, void *buf )
osal_nv_item_init:
          CFI Block cfiBlock256 Using cfiCommon0
          CFI Function osal_nv_item_init
        CODE
// 1229 {
        FUNCALL osal_nv_item_init, HalAdcCheckVdd
        LOCFRAME ISTACK, 0, STACK
        LOCFRAME PSTACK, 0, STACK
        LOCFRAME XSTACK, 12, STACK
        LOCFRAME IOVERLAY, 0, STATIC
        LOCFRAME DOVERLAY, 0, STATIC
        ARGFRAME ISTACK, 0, STACK
        ARGFRAME PSTACK, 0, STACK
        ARGFRAME XSTACK, 12, STACK
        ARGFRAME IOVERLAY, 0, STATIC
        ARGFRAME DOVERLAY, 0, STATIC
        FUNCALL osal_nv_item_init, findItem
        LOCFRAME ISTACK, 0, STACK
        LOCFRAME PSTACK, 0, STACK
        LOCFRAME XSTACK, 12, STACK
        LOCFRAME IOVERLAY, 0, STATIC
        LOCFRAME DOVERLAY, 0, STATIC
        ARGFRAME ISTACK, 0, STACK
        ARGFRAME PSTACK, 0, STACK
        ARGFRAME XSTACK, 12, STACK
        ARGFRAME IOVERLAY, 0, STATIC
        ARGFRAME DOVERLAY, 0, STATIC
        FUNCALL osal_nv_item_init, hotItemUpdate
        LOCFRAME ISTACK, 0, STACK
        LOCFRAME PSTACK, 0, STACK
        LOCFRAME XSTACK, 12, STACK
        LOCFRAME IOVERLAY, 0, STATIC
        LOCFRAME DOVERLAY, 0, STATIC
        ARGFRAME ISTACK, 0, STACK
        ARGFRAME PSTACK, 0, STACK
        ARGFRAME XSTACK, 12, STACK
        ARGFRAME IOVERLAY, 0, STATIC
        ARGFRAME DOVERLAY, 0, STATIC
        FUNCALL osal_nv_item_init, initItem
        LOCFRAME ISTACK, 0, STACK
        LOCFRAME PSTACK, 0, STACK
        LOCFRAME XSTACK, 14, STACK
        LOCFRAME IOVERLAY, 0, STATIC
        LOCFRAME DOVERLAY, 0, STATIC
        ARGFRAME ISTACK, 0, STACK
        ARGFRAME PSTACK, 0, STACK
        ARGFRAME XSTACK, 14, STACK
        ARGFRAME IOVERLAY, 0, STATIC
        ARGFRAME DOVERLAY, 0, STATIC
        REQUIRE ?V0
        REQUIRE ?V1
        REQUIRE ?V2
        REQUIRE ?V3
        MOV       A,#-0xc
        LCALL     ?BANKED_ENTER_XDATA
          CFI DPH0 load(1, XDATA, add(CFA_XSP16, literal(-1)))
          CFI DPL0 load(1, XDATA, add(CFA_XSP16, literal(-2)))
          CFI ?BRET_EXT load(1, XDATA, add(CFA_XSP16, literal(-3)))
          CFI ?RET_HIGH load(1, XDATA, add(CFA_XSP16, literal(-4)))
          CFI ?RET_LOW load(1, XDATA, add(CFA_XSP16, literal(-5)))
          CFI R7 load(1, XDATA, add(CFA_XSP16, literal(-6)))
          CFI V3 load(1, XDATA, add(CFA_XSP16, literal(-7)))
          CFI V2 load(1, XDATA, add(CFA_XSP16, literal(-8)))
          CFI V1 load(1, XDATA, add(CFA_XSP16, literal(-9)))
          CFI V0 load(1, XDATA, add(CFA_XSP16, literal(-10)))
          CFI VB load(1, XDATA, add(CFA_XSP16, literal(-11)))
          CFI R6 load(1, XDATA, add(CFA_XSP16, literal(-12)))
          CFI CFA_SP SP+0
          CFI CFA_XSP16 add(XSP16, 12)
        ; Saved register size: 12
        ; Auto size: 0
        MOV       A,R2
        MOV       R6,A
        MOV       A,R3
        MOV       R7,A
        MOV       ?V0,R4
        MOV       ?V1,R5
// 1230   uint16 offset;
// 1231 
// 1232   if ( !OSAL_NV_CHECK_BUS_VOLTAGE )
        ; Setup parameters for call to function HalAdcCheckVdd
        MOV       R1,#0x4e
        LCALL     `??HalAdcCheckVdd::?relay`; Banked call to: HalAdcCheckVdd
        MOV       A,R1
        JZ        ??osal_nv_item_init_0
// 1233   {
// 1234     return NV_OPER_FAILED;
// 1235   }
// 1236   else if ((offset = findItem(id)) != OSAL_NV_ITEM_NULL)
        ; Setup parameters for call to function findItem
        LCALL     ?Subroutine42 & 0xFFFF
??CrossCallReturnLabel_144:
        JZ        ??osal_nv_item_init_1
// 1237   {
// 1238     // Re-populate the NV hot item data if the corresponding items are already established.
// 1239     hotItemUpdate(findPg, offset, id);
        ; Setup parameters for call to function hotItemUpdate
        MOV       A,R6
        MOV       R4,A
        MOV       A,R7
        MOV       R5,A
        MOV       DPTR,#findPg
        MOVX      A,@DPTR
        MOV       R1,A
        LCALL     `??hotItemUpdate::?relay`; Banked call to: hotItemUpdate
// 1240 
// 1241     return SUCCESS;
        MOV       R1,#0x0
        SJMP      ??osal_nv_item_init_2
// 1242   }
// 1243   else if ( initItem( TRUE, id, len, buf ) != OSAL_NV_PAGE_NULL )
??osal_nv_item_init_1:
        ; Setup parameters for call to function initItem
        MOV       A,#0xc
        LCALL     ?XSTACK_DISP0_8
        LCALL     ?PUSH_XSTACK8_X_TWO
          CFI CFA_XSP16 add(XSP16, 14)
        MOV       R4,?V0
        MOV       R5,?V1
        MOV       A,R6
        MOV       R2,A
        MOV       A,R7
        MOV       R3,A
        MOV       R1,#0x1
        LCALL     `??initItem::?relay`; Banked call to: initItem
        MOV       A,#0x2
        LCALL     ?DEALLOC_XSTACK8
          CFI CFA_XSP16 add(XSP16, 12)
        MOV       A,R1
        JZ        ??osal_nv_item_init_0
// 1244   {
// 1245     return NV_ITEM_UNINIT;
        MOV       R1,#0x9
        SJMP      ??osal_nv_item_init_2
// 1246   }
// 1247   else
// 1248   {
// 1249     return NV_OPER_FAILED;
??osal_nv_item_init_0:
        MOV       R1,#0xa
// 1250   }
??osal_nv_item_init_2:
        LJMP      ??Subroutine52_0 & 0xFFFF
// 1251 }
          CFI EndBlock cfiBlock256

        RSEG BANKED_CODE:HUGECODE:NOROOT(0)
?Subroutine42:
          CFI Block cfiCond257 Using cfiCommon0
          CFI Function osal_nv_item_init
          CFI Conditional ??CrossCallReturnLabel_144
          CFI R6 load(1, XDATA, add(CFA_XSP16, literal(-12)))
          CFI VB load(1, XDATA, add(CFA_XSP16, literal(-11)))
          CFI V0 load(1, XDATA, add(CFA_XSP16, literal(-10)))
          CFI V1 load(1, XDATA, add(CFA_XSP16, literal(-9)))
          CFI V2 load(1, XDATA, add(CFA_XSP16, literal(-8)))
          CFI V3 load(1, XDATA, add(CFA_XSP16, literal(-7)))
          CFI R7 load(1, XDATA, add(CFA_XSP16, literal(-6)))
          CFI ?RET_LOW load(1, XDATA, add(CFA_XSP16, literal(-5)))
          CFI ?RET_HIGH load(1, XDATA, add(CFA_XSP16, literal(-4)))
          CFI ?BRET_EXT load(1, XDATA, add(CFA_XSP16, literal(-3)))
          CFI DPL0 load(1, XDATA, add(CFA_XSP16, literal(-2)))
          CFI DPH0 load(1, XDATA, add(CFA_XSP16, literal(-1)))
          CFI CFA_SP SP+-2
          CFI CFA_XSP16 add(XSP16, 12)
          CFI Block cfiCond258 Using cfiCommon0
          CFI (cfiCond258) Function osal_nv_delete
          CFI (cfiCond258) Conditional ??CrossCallReturnLabel_145
          CFI (cfiCond258) R6 load(1, XDATA, add(CFA_XSP16, literal(-14)))
          CFI (cfiCond258) VB load(1, XDATA, add(CFA_XSP16, literal(-13)))
          CFI (cfiCond258) V0 load(1, XDATA, add(CFA_XSP16, literal(-12)))
          CFI (cfiCond258) V1 load(1, XDATA, add(CFA_XSP16, literal(-11)))
          CFI (cfiCond258) V2 load(1, XDATA, add(CFA_XSP16, literal(-10)))
          CFI (cfiCond258) V3 load(1, XDATA, add(CFA_XSP16, literal(-9)))
          CFI (cfiCond258) V4 load(1, XDATA, add(CFA_XSP16, literal(-8)))
          CFI (cfiCond258) V5 load(1, XDATA, add(CFA_XSP16, literal(-7)))
          CFI (cfiCond258) R7 load(1, XDATA, add(CFA_XSP16, literal(-6)))
          CFI (cfiCond258) ?RET_LOW load(1, XDATA, add(CFA_XSP16, literal(-5)))
          CFI (cfiCond258) ?RET_HIGH load(1, XDATA, add(CFA_XSP16, literal(-4)))
          CFI (cfiCond258) ?BRET_EXT load(1, XDATA, add(CFA_XSP16, literal(-3)))
          CFI (cfiCond258) DPL0 load(1, XDATA, add(CFA_XSP16, literal(-2)))
          CFI (cfiCond258) DPH0 load(1, XDATA, add(CFA_XSP16, literal(-1)))
          CFI (cfiCond258) CFA_SP SP+-2
          CFI (cfiCond258) CFA_XSP16 add(XSP16, 14)
          CFI Block cfiPicker259 Using cfiCommon1
          CFI (cfiPicker259) NoFunction
          CFI (cfiPicker259) Picker
        MOV       A,R6
        MOV       R2,A
        MOV       A,R7
          CFI EndBlock cfiCond257
          CFI EndBlock cfiCond258
          CFI EndBlock cfiPicker259
        REQUIRE ??Subroutine65_0
        ; // Fall through to label ??Subroutine65_0

        RSEG BANKED_CODE:HUGECODE:NOROOT(0)
??Subroutine65_0:
          CFI Block cfiCond260 Using cfiCommon0
          CFI Function initPage
          CFI Conditional ??CrossCallReturnLabel_146
          CFI R6 load(1, XDATA, add(CFA_XSP16, literal(-16)))
          CFI VB load(1, XDATA, add(CFA_XSP16, literal(-15)))
          CFI V0 load(1, XDATA, add(CFA_XSP16, literal(-14)))
          CFI V1 load(1, XDATA, add(CFA_XSP16, literal(-13)))
          CFI V2 load(1, XDATA, add(CFA_XSP16, literal(-12)))
          CFI V3 load(1, XDATA, add(CFA_XSP16, literal(-11)))
          CFI V4 load(1, XDATA, add(CFA_XSP16, literal(-10)))
          CFI V5 load(1, XDATA, add(CFA_XSP16, literal(-9)))
          CFI V6 load(1, XDATA, add(CFA_XSP16, literal(-8)))
          CFI V7 load(1, XDATA, add(CFA_XSP16, literal(-7)))
          CFI R7 load(1, XDATA, add(CFA_XSP16, literal(-6)))
          CFI ?RET_LOW load(1, XDATA, add(CFA_XSP16, literal(-5)))
          CFI ?RET_HIGH load(1, XDATA, add(CFA_XSP16, literal(-4)))
          CFI ?BRET_EXT load(1, XDATA, add(CFA_XSP16, literal(-3)))
          CFI DPL0 load(1, XDATA, add(CFA_XSP16, literal(-2)))
          CFI DPH0 load(1, XDATA, add(CFA_XSP16, literal(-1)))
          CFI CFA_SP SP+-2
          CFI CFA_XSP16 add(XSP16, 26)
          CFI Block cfiCond261 Using cfiCommon0
          CFI (cfiCond261) Function osal_nv_item_init
          CFI (cfiCond261) Conditional ??CrossCallReturnLabel_144
          CFI (cfiCond261) R6 load(1, XDATA, add(CFA_XSP16, literal(-12)))
          CFI (cfiCond261) VB load(1, XDATA, add(CFA_XSP16, literal(-11)))
          CFI (cfiCond261) V0 load(1, XDATA, add(CFA_XSP16, literal(-10)))
          CFI (cfiCond261) V1 load(1, XDATA, add(CFA_XSP16, literal(-9)))
          CFI (cfiCond261) V2 load(1, XDATA, add(CFA_XSP16, literal(-8)))
          CFI (cfiCond261) V3 load(1, XDATA, add(CFA_XSP16, literal(-7)))
          CFI (cfiCond261) R7 load(1, XDATA, add(CFA_XSP16, literal(-6)))
          CFI (cfiCond261) ?RET_LOW load(1, XDATA, add(CFA_XSP16, literal(-5)))
          CFI (cfiCond261) ?RET_HIGH load(1, XDATA, add(CFA_XSP16, literal(-4)))
          CFI (cfiCond261) ?BRET_EXT load(1, XDATA, add(CFA_XSP16, literal(-3)))
          CFI (cfiCond261) DPL0 load(1, XDATA, add(CFA_XSP16, literal(-2)))
          CFI (cfiCond261) DPH0 load(1, XDATA, add(CFA_XSP16, literal(-1)))
          CFI (cfiCond261) CFA_SP SP+-2
          CFI (cfiCond261) CFA_XSP16 add(XSP16, 12)
          CFI Block cfiCond262 Using cfiCommon0
          CFI (cfiCond262) Function osal_nv_delete
          CFI (cfiCond262) Conditional ??CrossCallReturnLabel_145
          CFI (cfiCond262) R6 load(1, XDATA, add(CFA_XSP16, literal(-14)))
          CFI (cfiCond262) VB load(1, XDATA, add(CFA_XSP16, literal(-13)))
          CFI (cfiCond262) V0 load(1, XDATA, add(CFA_XSP16, literal(-12)))
          CFI (cfiCond262) V1 load(1, XDATA, add(CFA_XSP16, literal(-11)))
          CFI (cfiCond262) V2 load(1, XDATA, add(CFA_XSP16, literal(-10)))
          CFI (cfiCond262) V3 load(1, XDATA, add(CFA_XSP16, literal(-9)))
          CFI (cfiCond262) V4 load(1, XDATA, add(CFA_XSP16, literal(-8)))
          CFI (cfiCond262) V5 load(1, XDATA, add(CFA_XSP16, literal(-7)))
          CFI (cfiCond262) R7 load(1, XDATA, add(CFA_XSP16, literal(-6)))
          CFI (cfiCond262) ?RET_LOW load(1, XDATA, add(CFA_XSP16, literal(-5)))
          CFI (cfiCond262) ?RET_HIGH load(1, XDATA, add(CFA_XSP16, literal(-4)))
          CFI (cfiCond262) ?BRET_EXT load(1, XDATA, add(CFA_XSP16, literal(-3)))
          CFI (cfiCond262) DPL0 load(1, XDATA, add(CFA_XSP16, literal(-2)))
          CFI (cfiCond262) DPH0 load(1, XDATA, add(CFA_XSP16, literal(-1)))
          CFI (cfiCond262) CFA_SP SP+-2
          CFI (cfiCond262) CFA_XSP16 add(XSP16, 14)
          CFI Block cfiPicker263 Using cfiCommon1
          CFI (cfiPicker263) NoFunction
          CFI (cfiPicker263) Picker
        MOV       R3,A
          CFI EndBlock cfiCond260
          CFI EndBlock cfiCond261
          CFI EndBlock cfiCond262
          CFI EndBlock cfiPicker263
        REQUIRE ??Subroutine66_0
        ; // Fall through to label ??Subroutine66_0

        RSEG BANKED_CODE:HUGECODE:NOROOT(0)
??Subroutine66_0:
          CFI Block cfiCond264 Using cfiCommon0
          CFI Function osal_nv_read
          CFI Conditional ??CrossCallReturnLabel_147
          CFI R6 load(1, XDATA, add(CFA_XSP16, literal(-16)))
          CFI VB load(1, XDATA, add(CFA_XSP16, literal(-15)))
          CFI V0 load(1, XDATA, add(CFA_XSP16, literal(-14)))
          CFI V1 load(1, XDATA, add(CFA_XSP16, literal(-13)))
          CFI V2 load(1, XDATA, add(CFA_XSP16, literal(-12)))
          CFI V3 load(1, XDATA, add(CFA_XSP16, literal(-11)))
          CFI V4 load(1, XDATA, add(CFA_XSP16, literal(-10)))
          CFI V5 load(1, XDATA, add(CFA_XSP16, literal(-9)))
          CFI V6 load(1, XDATA, add(CFA_XSP16, literal(-8)))
          CFI V7 load(1, XDATA, add(CFA_XSP16, literal(-7)))
          CFI R7 load(1, XDATA, add(CFA_XSP16, literal(-6)))
          CFI ?RET_LOW load(1, XDATA, add(CFA_XSP16, literal(-5)))
          CFI ?RET_HIGH load(1, XDATA, add(CFA_XSP16, literal(-4)))
          CFI ?BRET_EXT load(1, XDATA, add(CFA_XSP16, literal(-3)))
          CFI DPL0 load(1, XDATA, add(CFA_XSP16, literal(-2)))
          CFI DPH0 load(1, XDATA, add(CFA_XSP16, literal(-1)))
          CFI CFA_SP SP+-2
          CFI CFA_XSP16 add(XSP16, 16)
          CFI Block cfiCond265 Using cfiCommon0
          CFI (cfiCond265) Function initPage
          CFI (cfiCond265) Conditional ??CrossCallReturnLabel_146
          CFI (cfiCond265) R6 load(1, XDATA, add(CFA_XSP16, literal(-16)))
          CFI (cfiCond265) VB load(1, XDATA, add(CFA_XSP16, literal(-15)))
          CFI (cfiCond265) V0 load(1, XDATA, add(CFA_XSP16, literal(-14)))
          CFI (cfiCond265) V1 load(1, XDATA, add(CFA_XSP16, literal(-13)))
          CFI (cfiCond265) V2 load(1, XDATA, add(CFA_XSP16, literal(-12)))
          CFI (cfiCond265) V3 load(1, XDATA, add(CFA_XSP16, literal(-11)))
          CFI (cfiCond265) V4 load(1, XDATA, add(CFA_XSP16, literal(-10)))
          CFI (cfiCond265) V5 load(1, XDATA, add(CFA_XSP16, literal(-9)))
          CFI (cfiCond265) V6 load(1, XDATA, add(CFA_XSP16, literal(-8)))
          CFI (cfiCond265) V7 load(1, XDATA, add(CFA_XSP16, literal(-7)))
          CFI (cfiCond265) R7 load(1, XDATA, add(CFA_XSP16, literal(-6)))
          CFI (cfiCond265) ?RET_LOW load(1, XDATA, add(CFA_XSP16, literal(-5)))
          CFI (cfiCond265) ?RET_HIGH load(1, XDATA, add(CFA_XSP16, literal(-4)))
          CFI (cfiCond265) ?BRET_EXT load(1, XDATA, add(CFA_XSP16, literal(-3)))
          CFI (cfiCond265) DPL0 load(1, XDATA, add(CFA_XSP16, literal(-2)))
          CFI (cfiCond265) DPH0 load(1, XDATA, add(CFA_XSP16, literal(-1)))
          CFI (cfiCond265) CFA_SP SP+-2
          CFI (cfiCond265) CFA_XSP16 add(XSP16, 26)
          CFI Block cfiCond266 Using cfiCommon0
          CFI (cfiCond266) Function osal_nv_item_init
          CFI (cfiCond266) Conditional ??CrossCallReturnLabel_144
          CFI (cfiCond266) R6 load(1, XDATA, add(CFA_XSP16, literal(-12)))
          CFI (cfiCond266) VB load(1, XDATA, add(CFA_XSP16, literal(-11)))
          CFI (cfiCond266) V0 load(1, XDATA, add(CFA_XSP16, literal(-10)))
          CFI (cfiCond266) V1 load(1, XDATA, add(CFA_XSP16, literal(-9)))
          CFI (cfiCond266) V2 load(1, XDATA, add(CFA_XSP16, literal(-8)))
          CFI (cfiCond266) V3 load(1, XDATA, add(CFA_XSP16, literal(-7)))
          CFI (cfiCond266) R7 load(1, XDATA, add(CFA_XSP16, literal(-6)))
          CFI (cfiCond266) ?RET_LOW load(1, XDATA, add(CFA_XSP16, literal(-5)))
          CFI (cfiCond266) ?RET_HIGH load(1, XDATA, add(CFA_XSP16, literal(-4)))
          CFI (cfiCond266) ?BRET_EXT load(1, XDATA, add(CFA_XSP16, literal(-3)))
          CFI (cfiCond266) DPL0 load(1, XDATA, add(CFA_XSP16, literal(-2)))
          CFI (cfiCond266) DPH0 load(1, XDATA, add(CFA_XSP16, literal(-1)))
          CFI (cfiCond266) CFA_SP SP+-2
          CFI (cfiCond266) CFA_XSP16 add(XSP16, 12)
          CFI Block cfiCond267 Using cfiCommon0
          CFI (cfiCond267) Function osal_nv_delete
          CFI (cfiCond267) Conditional ??CrossCallReturnLabel_145
          CFI (cfiCond267) R6 load(1, XDATA, add(CFA_XSP16, literal(-14)))
          CFI (cfiCond267) VB load(1, XDATA, add(CFA_XSP16, literal(-13)))
          CFI (cfiCond267) V0 load(1, XDATA, add(CFA_XSP16, literal(-12)))
          CFI (cfiCond267) V1 load(1, XDATA, add(CFA_XSP16, literal(-11)))
          CFI (cfiCond267) V2 load(1, XDATA, add(CFA_XSP16, literal(-10)))
          CFI (cfiCond267) V3 load(1, XDATA, add(CFA_XSP16, literal(-9)))
          CFI (cfiCond267) V4 load(1, XDATA, add(CFA_XSP16, literal(-8)))
          CFI (cfiCond267) V5 load(1, XDATA, add(CFA_XSP16, literal(-7)))
          CFI (cfiCond267) R7 load(1, XDATA, add(CFA_XSP16, literal(-6)))
          CFI (cfiCond267) ?RET_LOW load(1, XDATA, add(CFA_XSP16, literal(-5)))
          CFI (cfiCond267) ?RET_HIGH load(1, XDATA, add(CFA_XSP16, literal(-4)))
          CFI (cfiCond267) ?BRET_EXT load(1, XDATA, add(CFA_XSP16, literal(-3)))
          CFI (cfiCond267) DPL0 load(1, XDATA, add(CFA_XSP16, literal(-2)))
          CFI (cfiCond267) DPH0 load(1, XDATA, add(CFA_XSP16, literal(-1)))
          CFI (cfiCond267) CFA_SP SP+-2
          CFI (cfiCond267) CFA_XSP16 add(XSP16, 14)
          CFI Block cfiPicker268 Using cfiCommon1
          CFI (cfiPicker268) NoFunction
          CFI (cfiPicker268) Picker
        LCALL     `??findItem::?relay`; Banked call to: findItem
        MOV       A,R2
        ORL       A,R3
        RET
          CFI EndBlock cfiCond264
          CFI EndBlock cfiCond265
          CFI EndBlock cfiCond266
          CFI EndBlock cfiCond267
          CFI EndBlock cfiPicker268
// 1252 
// 1253 /*********************************************************************
// 1254  * @fn      osal_nv_item_len
// 1255  *
// 1256  * @brief   Get the data length of the item stored in NV memory.
// 1257  *
// 1258  * @param   id  - Valid NV item Id.
// 1259  *
// 1260  * @return  Item length, if found; zero otherwise.
// 1261  */

        RSEG BANKED_CODE:HUGECODE:NOROOT(0)
// 1262 uint16 osal_nv_item_len( uint16 id )
osal_nv_item_len:
          CFI Block cfiBlock269 Using cfiCommon0
          CFI Function osal_nv_item_len
        CODE
// 1263 {
        FUNCALL osal_nv_item_len, hotItem
        LOCFRAME ISTACK, 0, STACK
        LOCFRAME PSTACK, 0, STACK
        LOCFRAME XSTACK, 18, STACK
        LOCFRAME IOVERLAY, 0, STATIC
        LOCFRAME DOVERLAY, 0, STATIC
        ARGFRAME ISTACK, 0, STACK
        ARGFRAME PSTACK, 0, STACK
        ARGFRAME XSTACK, 18, STACK
        ARGFRAME IOVERLAY, 0, STATIC
        ARGFRAME DOVERLAY, 0, STATIC
        FUNCALL osal_nv_item_len, HalFlashRead
        LOCFRAME ISTACK, 0, STACK
        LOCFRAME PSTACK, 0, STACK
        LOCFRAME XSTACK, 20, STACK
        LOCFRAME IOVERLAY, 0, STATIC
        LOCFRAME DOVERLAY, 0, STATIC
        ARGFRAME ISTACK, 0, STACK
        ARGFRAME PSTACK, 0, STACK
        ARGFRAME XSTACK, 20, STACK
        ARGFRAME IOVERLAY, 0, STATIC
        ARGFRAME DOVERLAY, 0, STATIC
        FUNCALL osal_nv_item_len, findItem
        LOCFRAME ISTACK, 0, STACK
        LOCFRAME PSTACK, 0, STACK
        LOCFRAME XSTACK, 18, STACK
        LOCFRAME IOVERLAY, 0, STATIC
        LOCFRAME DOVERLAY, 0, STATIC
        ARGFRAME ISTACK, 0, STACK
        ARGFRAME PSTACK, 0, STACK
        ARGFRAME XSTACK, 18, STACK
        ARGFRAME IOVERLAY, 0, STATIC
        ARGFRAME DOVERLAY, 0, STATIC
        REQUIRE ?V0
        REQUIRE ?V1
        MOV       A,#-0xa
        LCALL     ?BANKED_ENTER_XDATA
          CFI DPH0 load(1, XDATA, add(CFA_XSP16, literal(-1)))
          CFI DPL0 load(1, XDATA, add(CFA_XSP16, literal(-2)))
          CFI ?BRET_EXT load(1, XDATA, add(CFA_XSP16, literal(-3)))
          CFI ?RET_HIGH load(1, XDATA, add(CFA_XSP16, literal(-4)))
          CFI ?RET_LOW load(1, XDATA, add(CFA_XSP16, literal(-5)))
          CFI R7 load(1, XDATA, add(CFA_XSP16, literal(-6)))
          CFI V1 load(1, XDATA, add(CFA_XSP16, literal(-7)))
          CFI V0 load(1, XDATA, add(CFA_XSP16, literal(-8)))
          CFI VB load(1, XDATA, add(CFA_XSP16, literal(-9)))
          CFI R6 load(1, XDATA, add(CFA_XSP16, literal(-10)))
          CFI CFA_SP SP+0
          CFI CFA_XSP16 add(XSP16, 10)
        ; Saved register size: 10
        ; Auto size: 8
        MOV       A,#-0x8
        LCALL     ?ALLOC_XSTACK8
          CFI CFA_XSP16 add(XSP16, 18)
        MOV       A,R2
        MOV       R6,A
        MOV       A,R3
        MOV       R7,A
// 1264   osalNvHdr_t hdr;
// 1265   uint16 offset;
// 1266   uint8 hotIdx;
// 1267 
// 1268   if ((hotIdx = hotItem(id)) < OSAL_NV_MAX_HOT)
        ; Setup parameters for call to function hotItem
        LCALL     ?Subroutine45 & 0xFFFF
??CrossCallReturnLabel_84:
        JNC       ??osal_nv_item_len_0
// 1269   {
// 1270     findPg = hotPg[hotIdx];
        LCALL     ?Subroutine44 & 0xFFFF
// 1271     offset = hotOff[hotIdx];
// 1272   }
??CrossCallReturnLabel_82:
        MOVX      A,@DPTR
        MOV       DPTR,#findPg
        LCALL     ?Subroutine6 & 0xFFFF
??CrossCallReturnLabel_1:
        LCALL     ??Subroutine67_0 & 0xFFFF
// 1273   else if ((offset = findItem(id)) == OSAL_NV_ITEM_NULL)
// 1274   {
// 1275     return 0;
// 1276   }
// 1277 
// 1278   HalFlashRead(findPg, (offset - OSAL_NV_HDR_SIZE), (uint8 *)(&hdr), OSAL_NV_HDR_SIZE);
??CrossCallReturnLabel_152:
        ; Setup parameters for call to function HalFlashRead
        MOV       ?V0,#0x8
        MOV       ?V1,#0x0
        MOV       R0,#?V0
        LCALL     ?PUSH_XSTACK_I_TWO
          CFI CFA_XSP16 add(XSP16, 20)
        MOV       A,#0x2
        LCALL     ?XSTACK_DISP102_8
        MOV       A,R2
        ADD       A,#-0x8
        MOV       R2,A
        MOV       A,R3
        ADDC      A,#-0x1
        MOV       R3,A
        MOV       DPTR,#findPg
        LCALL     ?Subroutine11 & 0xFFFF
??CrossCallReturnLabel_119:
        LCALL     ?DEALLOC_XSTACK8
          CFI CFA_XSP16 add(XSP16, 18)
// 1279   return hdr.len;
        MOV       A,#0x2
        LCALL     ?XSTACK_DISP0_8
        LCALL     ??Subroutine67_0 & 0xFFFF
??CrossCallReturnLabel_153:
        MOV       A,#0x8
        LCALL     ?DEALLOC_XSTACK8
          CFI CFA_XSP16 add(XSP16, 10)
        MOV       R7,#0x2
        LJMP      ?BANKED_LEAVE_XDATA
          CFI CFA_XSP16 add(XSP16, 18)
??osal_nv_item_len_0:
        ; Setup parameters for call to function findItem
        MOV       A,R6
        MOV       R2,A
        MOV       A,R7
        MOV       R3,A
        LCALL     `??findItem::?relay`; Banked call to: findItem
        MOV       ?V1,R3
        MOV       R1,?V1
        MOV       A,R2
        ORL       A,R1
        JNZ       ??CrossCallReturnLabel_152
        MOV       R2,#0x0
        MOV       R3,#0x0
        SJMP      ??CrossCallReturnLabel_153
// 1280 }
          CFI EndBlock cfiBlock269

        RSEG BANKED_CODE:HUGECODE:NOROOT(0)
?Subroutine45:
          CFI Block cfiCond270 Using cfiCommon0
          CFI Function hotItemUpdate
          CFI Conditional ??CrossCallReturnLabel_83
          CFI R6 load(1, XDATA, add(CFA_XSP16, literal(-9)))
          CFI VB load(1, XDATA, add(CFA_XSP16, literal(-8)))
          CFI V0 load(1, XDATA, add(CFA_XSP16, literal(-7)))
          CFI R7 load(1, XDATA, add(CFA_XSP16, literal(-6)))
          CFI ?RET_LOW load(1, XDATA, add(CFA_XSP16, literal(-5)))
          CFI ?RET_HIGH load(1, XDATA, add(CFA_XSP16, literal(-4)))
          CFI ?BRET_EXT load(1, XDATA, add(CFA_XSP16, literal(-3)))
          CFI DPL0 load(1, XDATA, add(CFA_XSP16, literal(-2)))
          CFI DPH0 load(1, XDATA, add(CFA_XSP16, literal(-1)))
          CFI CFA_SP SP+-2
          CFI CFA_XSP16 add(XSP16, 9)
          CFI Block cfiCond271 Using cfiCommon0
          CFI (cfiCond271) Function osal_nv_item_len
          CFI (cfiCond271) Conditional ??CrossCallReturnLabel_84
          CFI (cfiCond271) R6 load(1, XDATA, add(CFA_XSP16, literal(-10)))
          CFI (cfiCond271) VB load(1, XDATA, add(CFA_XSP16, literal(-9)))
          CFI (cfiCond271) V0 load(1, XDATA, add(CFA_XSP16, literal(-8)))
          CFI (cfiCond271) V1 load(1, XDATA, add(CFA_XSP16, literal(-7)))
          CFI (cfiCond271) R7 load(1, XDATA, add(CFA_XSP16, literal(-6)))
          CFI (cfiCond271) ?RET_LOW load(1, XDATA, add(CFA_XSP16, literal(-5)))
          CFI (cfiCond271) ?RET_HIGH load(1, XDATA, add(CFA_XSP16, literal(-4)))
          CFI (cfiCond271) ?BRET_EXT load(1, XDATA, add(CFA_XSP16, literal(-3)))
          CFI (cfiCond271) DPL0 load(1, XDATA, add(CFA_XSP16, literal(-2)))
          CFI (cfiCond271) DPH0 load(1, XDATA, add(CFA_XSP16, literal(-1)))
          CFI (cfiCond271) CFA_SP SP+-2
          CFI (cfiCond271) CFA_XSP16 add(XSP16, 18)
          CFI Block cfiPicker272 Using cfiCommon1
          CFI (cfiPicker272) NoFunction
          CFI (cfiPicker272) Picker
        LCALL     `??hotItem::?relay`; Banked call to: hotItem
        MOV       A,R1
        MOV       R0,A
        CLR       C
        SUBB      A,#0x3
        RET
          CFI EndBlock cfiCond270
          CFI EndBlock cfiCond271
          CFI EndBlock cfiPicker272

        RSEG BANKED_CODE:HUGECODE:NOROOT(0)
?Subroutine44:
          CFI Block cfiCond273 Using cfiCommon0
          CFI Function hotItemUpdate
          CFI Conditional ??CrossCallReturnLabel_81
          CFI R6 load(1, XDATA, add(CFA_XSP16, literal(-9)))
          CFI VB load(1, XDATA, add(CFA_XSP16, literal(-8)))
          CFI V0 load(1, XDATA, add(CFA_XSP16, literal(-7)))
          CFI R7 load(1, XDATA, add(CFA_XSP16, literal(-6)))
          CFI ?RET_LOW load(1, XDATA, add(CFA_XSP16, literal(-5)))
          CFI ?RET_HIGH load(1, XDATA, add(CFA_XSP16, literal(-4)))
          CFI ?BRET_EXT load(1, XDATA, add(CFA_XSP16, literal(-3)))
          CFI DPL0 load(1, XDATA, add(CFA_XSP16, literal(-2)))
          CFI DPH0 load(1, XDATA, add(CFA_XSP16, literal(-1)))
          CFI CFA_SP SP+-2
          CFI CFA_XSP16 add(XSP16, 9)
          CFI Block cfiCond274 Using cfiCommon0
          CFI (cfiCond274) Function osal_nv_item_len
          CFI (cfiCond274) Conditional ??CrossCallReturnLabel_82
          CFI (cfiCond274) R6 load(1, XDATA, add(CFA_XSP16, literal(-10)))
          CFI (cfiCond274) VB load(1, XDATA, add(CFA_XSP16, literal(-9)))
          CFI (cfiCond274) V0 load(1, XDATA, add(CFA_XSP16, literal(-8)))
          CFI (cfiCond274) V1 load(1, XDATA, add(CFA_XSP16, literal(-7)))
          CFI (cfiCond274) R7 load(1, XDATA, add(CFA_XSP16, literal(-6)))
          CFI (cfiCond274) ?RET_LOW load(1, XDATA, add(CFA_XSP16, literal(-5)))
          CFI (cfiCond274) ?RET_HIGH load(1, XDATA, add(CFA_XSP16, literal(-4)))
          CFI (cfiCond274) ?BRET_EXT load(1, XDATA, add(CFA_XSP16, literal(-3)))
          CFI (cfiCond274) DPL0 load(1, XDATA, add(CFA_XSP16, literal(-2)))
          CFI (cfiCond274) DPH0 load(1, XDATA, add(CFA_XSP16, literal(-1)))
          CFI (cfiCond274) CFA_SP SP+-2
          CFI (cfiCond274) CFA_XSP16 add(XSP16, 18)
          CFI Block cfiPicker275 Using cfiCommon1
          CFI (cfiPicker275) NoFunction
          CFI (cfiPicker275) Picker
        MOV       A,#hotPg & 0xff
        ADD       A,R1
        MOV       DPL,A
        CLR       A
        ADDC      A,#(hotPg >> 8) & 0xff
        MOV       DPH,A
        RET
          CFI EndBlock cfiCond273
          CFI EndBlock cfiCond274
          CFI EndBlock cfiPicker275

        RSEG BANKED_CODE:HUGECODE:NOROOT(0)
?Subroutine12:
          CFI Block cfiCond276 Using cfiCommon0
          CFI Function initNV
          CFI Conditional ??CrossCallReturnLabel_160
          CFI R6 load(1, XDATA, add(CFA_XSP16, literal(-12)))
          CFI VB load(1, XDATA, add(CFA_XSP16, literal(-11)))
          CFI V0 load(1, XDATA, add(CFA_XSP16, literal(-10)))
          CFI V1 load(1, XDATA, add(CFA_XSP16, literal(-9)))
          CFI V2 load(1, XDATA, add(CFA_XSP16, literal(-8)))
          CFI V3 load(1, XDATA, add(CFA_XSP16, literal(-7)))
          CFI R7 load(1, XDATA, add(CFA_XSP16, literal(-6)))
          CFI ?RET_LOW load(1, XDATA, add(CFA_XSP16, literal(-5)))
          CFI ?RET_HIGH load(1, XDATA, add(CFA_XSP16, literal(-4)))
          CFI ?BRET_EXT load(1, XDATA, add(CFA_XSP16, literal(-3)))
          CFI DPL0 load(1, XDATA, add(CFA_XSP16, literal(-2)))
          CFI DPH0 load(1, XDATA, add(CFA_XSP16, literal(-1)))
          CFI CFA_SP SP+-2
          CFI CFA_XSP16 add(XSP16, 20)
          CFI Block cfiCond277 Using cfiCommon0
          CFI (cfiCond277) Function initItem
          CFI (cfiCond277) Conditional ??CrossCallReturnLabel_161
          CFI (cfiCond277) R6 load(1, XDATA, add(CFA_XSP16, literal(-16)))
          CFI (cfiCond277) VB load(1, XDATA, add(CFA_XSP16, literal(-15)))
          CFI (cfiCond277) V0 load(1, XDATA, add(CFA_XSP16, literal(-14)))
          CFI (cfiCond277) V1 load(1, XDATA, add(CFA_XSP16, literal(-13)))
          CFI (cfiCond277) V2 load(1, XDATA, add(CFA_XSP16, literal(-12)))
          CFI (cfiCond277) V3 load(1, XDATA, add(CFA_XSP16, literal(-11)))
          CFI (cfiCond277) V4 load(1, XDATA, add(CFA_XSP16, literal(-10)))
          CFI (cfiCond277) V5 load(1, XDATA, add(CFA_XSP16, literal(-9)))
          CFI (cfiCond277) V6 load(1, XDATA, add(CFA_XSP16, literal(-8)))
          CFI (cfiCond277) V7 load(1, XDATA, add(CFA_XSP16, literal(-7)))
          CFI (cfiCond277) R7 load(1, XDATA, add(CFA_XSP16, literal(-6)))
          CFI (cfiCond277) ?RET_LOW load(1, XDATA, add(CFA_XSP16, literal(-5)))
          CFI (cfiCond277) ?RET_HIGH load(1, XDATA, add(CFA_XSP16, literal(-4)))
          CFI (cfiCond277) ?BRET_EXT load(1, XDATA, add(CFA_XSP16, literal(-3)))
          CFI (cfiCond277) DPL0 load(1, XDATA, add(CFA_XSP16, literal(-2)))
          CFI (cfiCond277) DPH0 load(1, XDATA, add(CFA_XSP16, literal(-1)))
          CFI (cfiCond277) CFA_SP SP+-2
          CFI (cfiCond277) CFA_XSP16 add(XSP16, 26)
          CFI Block cfiPicker278 Using cfiCommon1
          CFI (cfiPicker278) NoFunction
          CFI (cfiPicker278) Picker
        ADDC      A,R1
        MOV       DPH,A
          CFI EndBlock cfiCond276
          CFI EndBlock cfiCond277
          CFI EndBlock cfiPicker278
        REQUIRE ??Subroutine67_0
        ; // Fall through to label ??Subroutine67_0

        RSEG BANKED_CODE:HUGECODE:NOROOT(0)
??Subroutine67_0:
          CFI Block cfiCond279 Using cfiCommon0
          CFI Function initPage
          CFI Conditional ??CrossCallReturnLabel_148
          CFI R6 load(1, XDATA, add(CFA_XSP16, literal(-16)))
          CFI VB load(1, XDATA, add(CFA_XSP16, literal(-15)))
          CFI V0 load(1, XDATA, add(CFA_XSP16, literal(-14)))
          CFI V1 load(1, XDATA, add(CFA_XSP16, literal(-13)))
          CFI V2 load(1, XDATA, add(CFA_XSP16, literal(-12)))
          CFI V3 load(1, XDATA, add(CFA_XSP16, literal(-11)))
          CFI V4 load(1, XDATA, add(CFA_XSP16, literal(-10)))
          CFI V5 load(1, XDATA, add(CFA_XSP16, literal(-9)))
          CFI V6 load(1, XDATA, add(CFA_XSP16, literal(-8)))
          CFI V7 load(1, XDATA, add(CFA_XSP16, literal(-7)))
          CFI R7 load(1, XDATA, add(CFA_XSP16, literal(-6)))
          CFI ?RET_LOW load(1, XDATA, add(CFA_XSP16, literal(-5)))
          CFI ?RET_HIGH load(1, XDATA, add(CFA_XSP16, literal(-4)))
          CFI ?BRET_EXT load(1, XDATA, add(CFA_XSP16, literal(-3)))
          CFI DPL0 load(1, XDATA, add(CFA_XSP16, literal(-2)))
          CFI DPH0 load(1, XDATA, add(CFA_XSP16, literal(-1)))
          CFI CFA_SP SP+-2
          CFI CFA_XSP16 add(XSP16, 26)
          CFI Block cfiCond280 Using cfiCommon0
          CFI (cfiCond280) Function compactPage
          CFI (cfiCond280) Conditional ??CrossCallReturnLabel_149
          CFI (cfiCond280) R6 load(1, XDATA, add(CFA_XSP16, literal(-15)))
          CFI (cfiCond280) VB load(1, XDATA, add(CFA_XSP16, literal(-14)))
          CFI (cfiCond280) V0 load(1, XDATA, add(CFA_XSP16, literal(-13)))
          CFI (cfiCond280) V1 load(1, XDATA, add(CFA_XSP16, literal(-12)))
          CFI (cfiCond280) V2 load(1, XDATA, add(CFA_XSP16, literal(-11)))
          CFI (cfiCond280) V3 load(1, XDATA, add(CFA_XSP16, literal(-10)))
          CFI (cfiCond280) V4 load(1, XDATA, add(CFA_XSP16, literal(-9)))
          CFI (cfiCond280) V5 load(1, XDATA, add(CFA_XSP16, literal(-8)))
          CFI (cfiCond280) V6 load(1, XDATA, add(CFA_XSP16, literal(-7)))
          CFI (cfiCond280) R7 load(1, XDATA, add(CFA_XSP16, literal(-6)))
          CFI (cfiCond280) ?RET_LOW load(1, XDATA, add(CFA_XSP16, literal(-5)))
          CFI (cfiCond280) ?RET_HIGH load(1, XDATA, add(CFA_XSP16, literal(-4)))
          CFI (cfiCond280) ?BRET_EXT load(1, XDATA, add(CFA_XSP16, literal(-3)))
          CFI (cfiCond280) DPL0 load(1, XDATA, add(CFA_XSP16, literal(-2)))
          CFI (cfiCond280) DPH0 load(1, XDATA, add(CFA_XSP16, literal(-1)))
          CFI (cfiCond280) CFA_SP SP+-2
          CFI (cfiCond280) CFA_XSP16 add(XSP16, 29)
          CFI Block cfiCond281 Using cfiCommon0
          CFI (cfiCond281) Function setChk
          CFI (cfiCond281) Conditional ??CrossCallReturnLabel_150
          CFI (cfiCond281) R6 load(1, XDATA, add(CFA_XSP16, literal(-12)))
          CFI (cfiCond281) VB load(1, XDATA, add(CFA_XSP16, literal(-11)))
          CFI (cfiCond281) V0 load(1, XDATA, add(CFA_XSP16, literal(-10)))
          CFI (cfiCond281) V1 load(1, XDATA, add(CFA_XSP16, literal(-9)))
          CFI (cfiCond281) V2 load(1, XDATA, add(CFA_XSP16, literal(-8)))
          CFI (cfiCond281) V3 load(1, XDATA, add(CFA_XSP16, literal(-7)))
          CFI (cfiCond281) R7 load(1, XDATA, add(CFA_XSP16, literal(-6)))
          CFI (cfiCond281) ?RET_LOW load(1, XDATA, add(CFA_XSP16, literal(-5)))
          CFI (cfiCond281) ?RET_HIGH load(1, XDATA, add(CFA_XSP16, literal(-4)))
          CFI (cfiCond281) ?BRET_EXT load(1, XDATA, add(CFA_XSP16, literal(-3)))
          CFI (cfiCond281) DPL0 load(1, XDATA, add(CFA_XSP16, literal(-2)))
          CFI (cfiCond281) DPH0 load(1, XDATA, add(CFA_XSP16, literal(-1)))
          CFI (cfiCond281) CFA_SP SP+-2
          CFI (cfiCond281) CFA_XSP16 add(XSP16, 14)
          CFI Block cfiCond282 Using cfiCommon0
          CFI (cfiCond282) Function writeItem
          CFI (cfiCond282) Conditional ??CrossCallReturnLabel_151
          CFI (cfiCond282) R6 load(1, XDATA, add(CFA_XSP16, literal(-16)))
          CFI (cfiCond282) VB load(1, XDATA, add(CFA_XSP16, literal(-15)))
          CFI (cfiCond282) V0 load(1, XDATA, add(CFA_XSP16, literal(-14)))
          CFI (cfiCond282) V1 load(1, XDATA, add(CFA_XSP16, literal(-13)))
          CFI (cfiCond282) V2 load(1, XDATA, add(CFA_XSP16, literal(-12)))
          CFI (cfiCond282) V3 load(1, XDATA, add(CFA_XSP16, literal(-11)))
          CFI (cfiCond282) V4 load(1, XDATA, add(CFA_XSP16, literal(-10)))
          CFI (cfiCond282) V5 load(1, XDATA, add(CFA_XSP16, literal(-9)))
          CFI (cfiCond282) V6 load(1, XDATA, add(CFA_XSP16, literal(-8)))
          CFI (cfiCond282) V7 load(1, XDATA, add(CFA_XSP16, literal(-7)))
          CFI (cfiCond282) R7 load(1, XDATA, add(CFA_XSP16, literal(-6)))
          CFI (cfiCond282) ?RET_LOW load(1, XDATA, add(CFA_XSP16, literal(-5)))
          CFI (cfiCond282) ?RET_HIGH load(1, XDATA, add(CFA_XSP16, literal(-4)))
          CFI (cfiCond282) ?BRET_EXT load(1, XDATA, add(CFA_XSP16, literal(-3)))
          CFI (cfiCond282) DPL0 load(1, XDATA, add(CFA_XSP16, literal(-2)))
          CFI (cfiCond282) DPH0 load(1, XDATA, add(CFA_XSP16, literal(-1)))
          CFI (cfiCond282) CFA_SP SP+-2
          CFI (cfiCond282) CFA_XSP16 add(XSP16, 28)
          CFI Block cfiCond283 Using cfiCommon0
          CFI (cfiCond283) Function osal_nv_item_len
          CFI (cfiCond283) Conditional ??CrossCallReturnLabel_152
          CFI (cfiCond283) R6 load(1, XDATA, add(CFA_XSP16, literal(-10)))
          CFI (cfiCond283) VB load(1, XDATA, add(CFA_XSP16, literal(-9)))
          CFI (cfiCond283) V0 load(1, XDATA, add(CFA_XSP16, literal(-8)))
          CFI (cfiCond283) V1 load(1, XDATA, add(CFA_XSP16, literal(-7)))
          CFI (cfiCond283) R7 load(1, XDATA, add(CFA_XSP16, literal(-6)))
          CFI (cfiCond283) ?RET_LOW load(1, XDATA, add(CFA_XSP16, literal(-5)))
          CFI (cfiCond283) ?RET_HIGH load(1, XDATA, add(CFA_XSP16, literal(-4)))
          CFI (cfiCond283) ?BRET_EXT load(1, XDATA, add(CFA_XSP16, literal(-3)))
          CFI (cfiCond283) DPL0 load(1, XDATA, add(CFA_XSP16, literal(-2)))
          CFI (cfiCond283) DPH0 load(1, XDATA, add(CFA_XSP16, literal(-1)))
          CFI (cfiCond283) CFA_SP SP+-2
          CFI (cfiCond283) CFA_XSP16 add(XSP16, 18)
          CFI Block cfiCond284 Using cfiCommon0
          CFI (cfiCond284) Function osal_nv_item_len
          CFI (cfiCond284) Conditional ??CrossCallReturnLabel_153
          CFI (cfiCond284) R6 load(1, XDATA, add(CFA_XSP16, literal(-10)))
          CFI (cfiCond284) VB load(1, XDATA, add(CFA_XSP16, literal(-9)))
          CFI (cfiCond284) V0 load(1, XDATA, add(CFA_XSP16, literal(-8)))
          CFI (cfiCond284) V1 load(1, XDATA, add(CFA_XSP16, literal(-7)))
          CFI (cfiCond284) R7 load(1, XDATA, add(CFA_XSP16, literal(-6)))
          CFI (cfiCond284) ?RET_LOW load(1, XDATA, add(CFA_XSP16, literal(-5)))
          CFI (cfiCond284) ?RET_HIGH load(1, XDATA, add(CFA_XSP16, literal(-4)))
          CFI (cfiCond284) ?BRET_EXT load(1, XDATA, add(CFA_XSP16, literal(-3)))
          CFI (cfiCond284) DPL0 load(1, XDATA, add(CFA_XSP16, literal(-2)))
          CFI (cfiCond284) DPH0 load(1, XDATA, add(CFA_XSP16, literal(-1)))
          CFI (cfiCond284) CFA_SP SP+-2
          CFI (cfiCond284) CFA_XSP16 add(XSP16, 18)
          CFI Block cfiCond285 Using cfiCommon0
          CFI (cfiCond285) Function osal_nv_write
          CFI (cfiCond285) Conditional ??CrossCallReturnLabel_154
          CFI (cfiCond285) R6 load(1, XDATA, add(CFA_XSP16, literal(-16)))
          CFI (cfiCond285) VB load(1, XDATA, add(CFA_XSP16, literal(-15)))
          CFI (cfiCond285) V0 load(1, XDATA, add(CFA_XSP16, literal(-14)))
          CFI (cfiCond285) V1 load(1, XDATA, add(CFA_XSP16, literal(-13)))
          CFI (cfiCond285) V2 load(1, XDATA, add(CFA_XSP16, literal(-12)))
          CFI (cfiCond285) V3 load(1, XDATA, add(CFA_XSP16, literal(-11)))
          CFI (cfiCond285) V4 load(1, XDATA, add(CFA_XSP16, literal(-10)))
          CFI (cfiCond285) V5 load(1, XDATA, add(CFA_XSP16, literal(-9)))
          CFI (cfiCond285) V6 load(1, XDATA, add(CFA_XSP16, literal(-8)))
          CFI (cfiCond285) V7 load(1, XDATA, add(CFA_XSP16, literal(-7)))
          CFI (cfiCond285) R7 load(1, XDATA, add(CFA_XSP16, literal(-6)))
          CFI (cfiCond285) ?RET_LOW load(1, XDATA, add(CFA_XSP16, literal(-5)))
          CFI (cfiCond285) ?RET_HIGH load(1, XDATA, add(CFA_XSP16, literal(-4)))
          CFI (cfiCond285) ?BRET_EXT load(1, XDATA, add(CFA_XSP16, literal(-3)))
          CFI (cfiCond285) DPL0 load(1, XDATA, add(CFA_XSP16, literal(-2)))
          CFI (cfiCond285) DPH0 load(1, XDATA, add(CFA_XSP16, literal(-1)))
          CFI (cfiCond285) CFA_SP SP+-2
          CFI (cfiCond285) CFA_XSP16 add(XSP16, 35)
          CFI Block cfiCond286 Using cfiCommon0
          CFI (cfiCond286) Function osal_nv_write
          CFI (cfiCond286) Conditional ??CrossCallReturnLabel_155
          CFI (cfiCond286) R6 load(1, XDATA, add(CFA_XSP16, literal(-16)))
          CFI (cfiCond286) VB load(1, XDATA, add(CFA_XSP16, literal(-15)))
          CFI (cfiCond286) V0 load(1, XDATA, add(CFA_XSP16, literal(-14)))
          CFI (cfiCond286) V1 load(1, XDATA, add(CFA_XSP16, literal(-13)))
          CFI (cfiCond286) V2 load(1, XDATA, add(CFA_XSP16, literal(-12)))
          CFI (cfiCond286) V3 load(1, XDATA, add(CFA_XSP16, literal(-11)))
          CFI (cfiCond286) V4 load(1, XDATA, add(CFA_XSP16, literal(-10)))
          CFI (cfiCond286) V5 load(1, XDATA, add(CFA_XSP16, literal(-9)))
          CFI (cfiCond286) V6 load(1, XDATA, add(CFA_XSP16, literal(-8)))
          CFI (cfiCond286) V7 load(1, XDATA, add(CFA_XSP16, literal(-7)))
          CFI (cfiCond286) R7 load(1, XDATA, add(CFA_XSP16, literal(-6)))
          CFI (cfiCond286) ?RET_LOW load(1, XDATA, add(CFA_XSP16, literal(-5)))
          CFI (cfiCond286) ?RET_HIGH load(1, XDATA, add(CFA_XSP16, literal(-4)))
          CFI (cfiCond286) ?BRET_EXT load(1, XDATA, add(CFA_XSP16, literal(-3)))
          CFI (cfiCond286) DPL0 load(1, XDATA, add(CFA_XSP16, literal(-2)))
          CFI (cfiCond286) DPH0 load(1, XDATA, add(CFA_XSP16, literal(-1)))
          CFI (cfiCond286) CFA_SP SP+-2
          CFI (cfiCond286) CFA_XSP16 add(XSP16, 37)
          CFI Block cfiCond287 Using cfiCommon0
          CFI (cfiCond287) Function osal_nv_write
          CFI (cfiCond287) Conditional ??CrossCallReturnLabel_156
          CFI (cfiCond287) R6 load(1, XDATA, add(CFA_XSP16, literal(-16)))
          CFI (cfiCond287) VB load(1, XDATA, add(CFA_XSP16, literal(-15)))
          CFI (cfiCond287) V0 load(1, XDATA, add(CFA_XSP16, literal(-14)))
          CFI (cfiCond287) V1 load(1, XDATA, add(CFA_XSP16, literal(-13)))
          CFI (cfiCond287) V2 load(1, XDATA, add(CFA_XSP16, literal(-12)))
          CFI (cfiCond287) V3 load(1, XDATA, add(CFA_XSP16, literal(-11)))
          CFI (cfiCond287) V4 load(1, XDATA, add(CFA_XSP16, literal(-10)))
          CFI (cfiCond287) V5 load(1, XDATA, add(CFA_XSP16, literal(-9)))
          CFI (cfiCond287) V6 load(1, XDATA, add(CFA_XSP16, literal(-8)))
          CFI (cfiCond287) V7 load(1, XDATA, add(CFA_XSP16, literal(-7)))
          CFI (cfiCond287) R7 load(1, XDATA, add(CFA_XSP16, literal(-6)))
          CFI (cfiCond287) ?RET_LOW load(1, XDATA, add(CFA_XSP16, literal(-5)))
          CFI (cfiCond287) ?RET_HIGH load(1, XDATA, add(CFA_XSP16, literal(-4)))
          CFI (cfiCond287) ?BRET_EXT load(1, XDATA, add(CFA_XSP16, literal(-3)))
          CFI (cfiCond287) DPL0 load(1, XDATA, add(CFA_XSP16, literal(-2)))
          CFI (cfiCond287) DPH0 load(1, XDATA, add(CFA_XSP16, literal(-1)))
          CFI (cfiCond287) CFA_SP SP+-2
          CFI (cfiCond287) CFA_XSP16 add(XSP16, 37)
          CFI Block cfiCond288 Using cfiCommon0
          CFI (cfiCond288) Function osal_nv_write
          CFI (cfiCond288) Conditional ??CrossCallReturnLabel_157
          CFI (cfiCond288) R6 load(1, XDATA, add(CFA_XSP16, literal(-16)))
          CFI (cfiCond288) VB load(1, XDATA, add(CFA_XSP16, literal(-15)))
          CFI (cfiCond288) V0 load(1, XDATA, add(CFA_XSP16, literal(-14)))
          CFI (cfiCond288) V1 load(1, XDATA, add(CFA_XSP16, literal(-13)))
          CFI (cfiCond288) V2 load(1, XDATA, add(CFA_XSP16, literal(-12)))
          CFI (cfiCond288) V3 load(1, XDATA, add(CFA_XSP16, literal(-11)))
          CFI (cfiCond288) V4 load(1, XDATA, add(CFA_XSP16, literal(-10)))
          CFI (cfiCond288) V5 load(1, XDATA, add(CFA_XSP16, literal(-9)))
          CFI (cfiCond288) V6 load(1, XDATA, add(CFA_XSP16, literal(-8)))
          CFI (cfiCond288) V7 load(1, XDATA, add(CFA_XSP16, literal(-7)))
          CFI (cfiCond288) R7 load(1, XDATA, add(CFA_XSP16, literal(-6)))
          CFI (cfiCond288) ?RET_LOW load(1, XDATA, add(CFA_XSP16, literal(-5)))
          CFI (cfiCond288) ?RET_HIGH load(1, XDATA, add(CFA_XSP16, literal(-4)))
          CFI (cfiCond288) ?BRET_EXT load(1, XDATA, add(CFA_XSP16, literal(-3)))
          CFI (cfiCond288) DPL0 load(1, XDATA, add(CFA_XSP16, literal(-2)))
          CFI (cfiCond288) DPH0 load(1, XDATA, add(CFA_XSP16, literal(-1)))
          CFI (cfiCond288) CFA_SP SP+-2
          CFI (cfiCond288) CFA_XSP16 add(XSP16, 35)
          CFI Block cfiCond289 Using cfiCommon0
          CFI (cfiCond289) Function osal_nv_write
          CFI (cfiCond289) Conditional ??CrossCallReturnLabel_158
          CFI (cfiCond289) R6 load(1, XDATA, add(CFA_XSP16, literal(-16)))
          CFI (cfiCond289) VB load(1, XDATA, add(CFA_XSP16, literal(-15)))
          CFI (cfiCond289) V0 load(1, XDATA, add(CFA_XSP16, literal(-14)))
          CFI (cfiCond289) V1 load(1, XDATA, add(CFA_XSP16, literal(-13)))
          CFI (cfiCond289) V2 load(1, XDATA, add(CFA_XSP16, literal(-12)))
          CFI (cfiCond289) V3 load(1, XDATA, add(CFA_XSP16, literal(-11)))
          CFI (cfiCond289) V4 load(1, XDATA, add(CFA_XSP16, literal(-10)))
          CFI (cfiCond289) V5 load(1, XDATA, add(CFA_XSP16, literal(-9)))
          CFI (cfiCond289) V6 load(1, XDATA, add(CFA_XSP16, literal(-8)))
          CFI (cfiCond289) V7 load(1, XDATA, add(CFA_XSP16, literal(-7)))
          CFI (cfiCond289) R7 load(1, XDATA, add(CFA_XSP16, literal(-6)))
          CFI (cfiCond289) ?RET_LOW load(1, XDATA, add(CFA_XSP16, literal(-5)))
          CFI (cfiCond289) ?RET_HIGH load(1, XDATA, add(CFA_XSP16, literal(-4)))
          CFI (cfiCond289) ?BRET_EXT load(1, XDATA, add(CFA_XSP16, literal(-3)))
          CFI (cfiCond289) DPL0 load(1, XDATA, add(CFA_XSP16, literal(-2)))
          CFI (cfiCond289) DPH0 load(1, XDATA, add(CFA_XSP16, literal(-1)))
          CFI (cfiCond289) CFA_SP SP+-2
          CFI (cfiCond289) CFA_XSP16 add(XSP16, 39)
          CFI Block cfiCond290 Using cfiCommon0
          CFI (cfiCond290) Function osal_nv_write
          CFI (cfiCond290) Conditional ??CrossCallReturnLabel_159
          CFI (cfiCond290) R6 load(1, XDATA, add(CFA_XSP16, literal(-16)))
          CFI (cfiCond290) VB load(1, XDATA, add(CFA_XSP16, literal(-15)))
          CFI (cfiCond290) V0 load(1, XDATA, add(CFA_XSP16, literal(-14)))
          CFI (cfiCond290) V1 load(1, XDATA, add(CFA_XSP16, literal(-13)))
          CFI (cfiCond290) V2 load(1, XDATA, add(CFA_XSP16, literal(-12)))
          CFI (cfiCond290) V3 load(1, XDATA, add(CFA_XSP16, literal(-11)))
          CFI (cfiCond290) V4 load(1, XDATA, add(CFA_XSP16, literal(-10)))
          CFI (cfiCond290) V5 load(1, XDATA, add(CFA_XSP16, literal(-9)))
          CFI (cfiCond290) V6 load(1, XDATA, add(CFA_XSP16, literal(-8)))
          CFI (cfiCond290) V7 load(1, XDATA, add(CFA_XSP16, literal(-7)))
          CFI (cfiCond290) R7 load(1, XDATA, add(CFA_XSP16, literal(-6)))
          CFI (cfiCond290) ?RET_LOW load(1, XDATA, add(CFA_XSP16, literal(-5)))
          CFI (cfiCond290) ?RET_HIGH load(1, XDATA, add(CFA_XSP16, literal(-4)))
          CFI (cfiCond290) ?BRET_EXT load(1, XDATA, add(CFA_XSP16, literal(-3)))
          CFI (cfiCond290) DPL0 load(1, XDATA, add(CFA_XSP16, literal(-2)))
          CFI (cfiCond290) DPH0 load(1, XDATA, add(CFA_XSP16, literal(-1)))
          CFI (cfiCond290) CFA_SP SP+-2
          CFI (cfiCond290) CFA_XSP16 add(XSP16, 35)
          CFI Block cfiCond291 Using cfiCommon0
          CFI (cfiCond291) Function initNV
          CFI (cfiCond291) Conditional ??CrossCallReturnLabel_160
          CFI (cfiCond291) R6 load(1, XDATA, add(CFA_XSP16, literal(-12)))
          CFI (cfiCond291) VB load(1, XDATA, add(CFA_XSP16, literal(-11)))
          CFI (cfiCond291) V0 load(1, XDATA, add(CFA_XSP16, literal(-10)))
          CFI (cfiCond291) V1 load(1, XDATA, add(CFA_XSP16, literal(-9)))
          CFI (cfiCond291) V2 load(1, XDATA, add(CFA_XSP16, literal(-8)))
          CFI (cfiCond291) V3 load(1, XDATA, add(CFA_XSP16, literal(-7)))
          CFI (cfiCond291) R7 load(1, XDATA, add(CFA_XSP16, literal(-6)))
          CFI (cfiCond291) ?RET_LOW load(1, XDATA, add(CFA_XSP16, literal(-5)))
          CFI (cfiCond291) ?RET_HIGH load(1, XDATA, add(CFA_XSP16, literal(-4)))
          CFI (cfiCond291) ?BRET_EXT load(1, XDATA, add(CFA_XSP16, literal(-3)))
          CFI (cfiCond291) DPL0 load(1, XDATA, add(CFA_XSP16, literal(-2)))
          CFI (cfiCond291) DPH0 load(1, XDATA, add(CFA_XSP16, literal(-1)))
          CFI (cfiCond291) CFA_SP SP+-2
          CFI (cfiCond291) CFA_XSP16 add(XSP16, 20)
          CFI Block cfiCond292 Using cfiCommon0
          CFI (cfiCond292) Function initItem
          CFI (cfiCond292) Conditional ??CrossCallReturnLabel_161
          CFI (cfiCond292) R6 load(1, XDATA, add(CFA_XSP16, literal(-16)))
          CFI (cfiCond292) VB load(1, XDATA, add(CFA_XSP16, literal(-15)))
          CFI (cfiCond292) V0 load(1, XDATA, add(CFA_XSP16, literal(-14)))
          CFI (cfiCond292) V1 load(1, XDATA, add(CFA_XSP16, literal(-13)))
          CFI (cfiCond292) V2 load(1, XDATA, add(CFA_XSP16, literal(-12)))
          CFI (cfiCond292) V3 load(1, XDATA, add(CFA_XSP16, literal(-11)))
          CFI (cfiCond292) V4 load(1, XDATA, add(CFA_XSP16, literal(-10)))
          CFI (cfiCond292) V5 load(1, XDATA, add(CFA_XSP16, literal(-9)))
          CFI (cfiCond292) V6 load(1, XDATA, add(CFA_XSP16, literal(-8)))
          CFI (cfiCond292) V7 load(1, XDATA, add(CFA_XSP16, literal(-7)))
          CFI (cfiCond292) R7 load(1, XDATA, add(CFA_XSP16, literal(-6)))
          CFI (cfiCond292) ?RET_LOW load(1, XDATA, add(CFA_XSP16, literal(-5)))
          CFI (cfiCond292) ?RET_HIGH load(1, XDATA, add(CFA_XSP16, literal(-4)))
          CFI (cfiCond292) ?BRET_EXT load(1, XDATA, add(CFA_XSP16, literal(-3)))
          CFI (cfiCond292) DPL0 load(1, XDATA, add(CFA_XSP16, literal(-2)))
          CFI (cfiCond292) DPH0 load(1, XDATA, add(CFA_XSP16, literal(-1)))
          CFI (cfiCond292) CFA_SP SP+-2
          CFI (cfiCond292) CFA_XSP16 add(XSP16, 26)
          CFI Block cfiPicker293 Using cfiCommon1
          CFI (cfiPicker293) NoFunction
          CFI (cfiPicker293) Picker
        MOVX      A,@DPTR
        MOV       R2,A
        INC       DPTR
        MOVX      A,@DPTR
        MOV       R3,A
        RET
          CFI EndBlock cfiCond279
          CFI EndBlock cfiCond280
          CFI EndBlock cfiCond281
          CFI EndBlock cfiCond282
          CFI EndBlock cfiCond283
          CFI EndBlock cfiCond284
          CFI EndBlock cfiCond285
          CFI EndBlock cfiCond286
          CFI EndBlock cfiCond287
          CFI EndBlock cfiCond288
          CFI EndBlock cfiCond289
          CFI EndBlock cfiCond290
          CFI EndBlock cfiCond291
          CFI EndBlock cfiCond292
          CFI EndBlock cfiPicker293

        RSEG BANKED_CODE:HUGECODE:NOROOT(0)
?Subroutine6:
          CFI Block cfiCond294 Using cfiCommon0
          CFI Function hotItemUpdate
          CFI Conditional ??CrossCallReturnLabel_0
          CFI R6 load(1, XDATA, add(CFA_XSP16, literal(-9)))
          CFI VB load(1, XDATA, add(CFA_XSP16, literal(-8)))
          CFI V0 load(1, XDATA, add(CFA_XSP16, literal(-7)))
          CFI R7 load(1, XDATA, add(CFA_XSP16, literal(-6)))
          CFI ?RET_LOW load(1, XDATA, add(CFA_XSP16, literal(-5)))
          CFI ?RET_HIGH load(1, XDATA, add(CFA_XSP16, literal(-4)))
          CFI ?BRET_EXT load(1, XDATA, add(CFA_XSP16, literal(-3)))
          CFI DPL0 load(1, XDATA, add(CFA_XSP16, literal(-2)))
          CFI DPH0 load(1, XDATA, add(CFA_XSP16, literal(-1)))
          CFI CFA_SP SP+-2
          CFI CFA_XSP16 add(XSP16, 9)
          CFI Block cfiCond295 Using cfiCommon0
          CFI (cfiCond295) Function osal_nv_item_len
          CFI (cfiCond295) Conditional ??CrossCallReturnLabel_1
          CFI (cfiCond295) R6 load(1, XDATA, add(CFA_XSP16, literal(-10)))
          CFI (cfiCond295) VB load(1, XDATA, add(CFA_XSP16, literal(-9)))
          CFI (cfiCond295) V0 load(1, XDATA, add(CFA_XSP16, literal(-8)))
          CFI (cfiCond295) V1 load(1, XDATA, add(CFA_XSP16, literal(-7)))
          CFI (cfiCond295) R7 load(1, XDATA, add(CFA_XSP16, literal(-6)))
          CFI (cfiCond295) ?RET_LOW load(1, XDATA, add(CFA_XSP16, literal(-5)))
          CFI (cfiCond295) ?RET_HIGH load(1, XDATA, add(CFA_XSP16, literal(-4)))
          CFI (cfiCond295) ?BRET_EXT load(1, XDATA, add(CFA_XSP16, literal(-3)))
          CFI (cfiCond295) DPL0 load(1, XDATA, add(CFA_XSP16, literal(-2)))
          CFI (cfiCond295) DPH0 load(1, XDATA, add(CFA_XSP16, literal(-1)))
          CFI (cfiCond295) CFA_SP SP+-2
          CFI (cfiCond295) CFA_XSP16 add(XSP16, 18)
          CFI Block cfiPicker296 Using cfiCommon1
          CFI (cfiPicker296) NoFunction
          CFI (cfiPicker296) Picker
        MOVX      @DPTR,A
        LCALL     ?Subroutine48 & 0xFFFF
??CrossCallReturnLabel_91:
        RET
          CFI EndBlock cfiCond294
          CFI EndBlock cfiCond295
          CFI EndBlock cfiPicker296

        RSEG BANKED_CODE:HUGECODE:NOROOT(0)
?Subroutine48:
          CFI Block cfiCond297 Using cfiCommon0
          CFI Function hotItemUpdate
          CFI Conditional ??CrossCallReturnLabel_91, ??CrossCallReturnLabel_0
          CFI R6 load(1, XDATA, add(CFA_XSP16, literal(-9)))
          CFI VB load(1, XDATA, add(CFA_XSP16, literal(-8)))
          CFI V0 load(1, XDATA, add(CFA_XSP16, literal(-7)))
          CFI R7 load(1, XDATA, add(CFA_XSP16, literal(-6)))
          CFI ?RET_LOW load(1, XDATA, add(CFA_XSP16, literal(-5)))
          CFI ?RET_HIGH load(1, XDATA, add(CFA_XSP16, literal(-4)))
          CFI ?BRET_EXT load(1, XDATA, add(CFA_XSP16, literal(-3)))
          CFI DPL0 load(1, XDATA, add(CFA_XSP16, literal(-2)))
          CFI DPH0 load(1, XDATA, add(CFA_XSP16, literal(-1)))
          CFI CFA_SP SP+-4
          CFI CFA_XSP16 add(XSP16, 9)
          CFI Block cfiCond298 Using cfiCommon0
          CFI (cfiCond298) Function osal_nv_item_len
          CFI (cfiCond298) Conditional ??CrossCallReturnLabel_91, ??CrossCallReturnLabel_1
          CFI (cfiCond298) R6 load(1, XDATA, add(CFA_XSP16, literal(-10)))
          CFI (cfiCond298) VB load(1, XDATA, add(CFA_XSP16, literal(-9)))
          CFI (cfiCond298) V0 load(1, XDATA, add(CFA_XSP16, literal(-8)))
          CFI (cfiCond298) V1 load(1, XDATA, add(CFA_XSP16, literal(-7)))
          CFI (cfiCond298) R7 load(1, XDATA, add(CFA_XSP16, literal(-6)))
          CFI (cfiCond298) ?RET_LOW load(1, XDATA, add(CFA_XSP16, literal(-5)))
          CFI (cfiCond298) ?RET_HIGH load(1, XDATA, add(CFA_XSP16, literal(-4)))
          CFI (cfiCond298) ?BRET_EXT load(1, XDATA, add(CFA_XSP16, literal(-3)))
          CFI (cfiCond298) DPL0 load(1, XDATA, add(CFA_XSP16, literal(-2)))
          CFI (cfiCond298) DPH0 load(1, XDATA, add(CFA_XSP16, literal(-1)))
          CFI (cfiCond298) CFA_SP SP+-4
          CFI (cfiCond298) CFA_XSP16 add(XSP16, 18)
          CFI Block cfiCond299 Using cfiCommon0
          CFI (cfiCond299) Function osal_nv_read
          CFI (cfiCond299) Conditional ??CrossCallReturnLabel_90
          CFI (cfiCond299) R6 load(1, XDATA, add(CFA_XSP16, literal(-16)))
          CFI (cfiCond299) VB load(1, XDATA, add(CFA_XSP16, literal(-15)))
          CFI (cfiCond299) V0 load(1, XDATA, add(CFA_XSP16, literal(-14)))
          CFI (cfiCond299) V1 load(1, XDATA, add(CFA_XSP16, literal(-13)))
          CFI (cfiCond299) V2 load(1, XDATA, add(CFA_XSP16, literal(-12)))
          CFI (cfiCond299) V3 load(1, XDATA, add(CFA_XSP16, literal(-11)))
          CFI (cfiCond299) V4 load(1, XDATA, add(CFA_XSP16, literal(-10)))
          CFI (cfiCond299) V5 load(1, XDATA, add(CFA_XSP16, literal(-9)))
          CFI (cfiCond299) V6 load(1, XDATA, add(CFA_XSP16, literal(-8)))
          CFI (cfiCond299) V7 load(1, XDATA, add(CFA_XSP16, literal(-7)))
          CFI (cfiCond299) R7 load(1, XDATA, add(CFA_XSP16, literal(-6)))
          CFI (cfiCond299) ?RET_LOW load(1, XDATA, add(CFA_XSP16, literal(-5)))
          CFI (cfiCond299) ?RET_HIGH load(1, XDATA, add(CFA_XSP16, literal(-4)))
          CFI (cfiCond299) ?BRET_EXT load(1, XDATA, add(CFA_XSP16, literal(-3)))
          CFI (cfiCond299) DPL0 load(1, XDATA, add(CFA_XSP16, literal(-2)))
          CFI (cfiCond299) DPH0 load(1, XDATA, add(CFA_XSP16, literal(-1)))
          CFI (cfiCond299) CFA_SP SP+-2
          CFI (cfiCond299) CFA_XSP16 add(XSP16, 18)
          CFI Block cfiPicker300 Using cfiCommon1
          CFI (cfiPicker300) NoFunction
          CFI (cfiPicker300) Picker
        MOV       A,R1
        ADD       A,R1
        MOV       R0,A
        CLR       A
        RLC       A
        MOV       R1,A
        MOV       A,#hotOff & 0xff
        ADD       A,R0
        MOV       DPL,A
        MOV       A,#(hotOff >> 8) & 0xff
        ADDC      A,R1
        MOV       DPH,A
        RET
          CFI EndBlock cfiCond297
          CFI EndBlock cfiCond298
          CFI EndBlock cfiCond299
          CFI EndBlock cfiPicker300
// 1281 
// 1282 /*********************************************************************
// 1283  * @fn      osal_nv_write
// 1284  *
// 1285  * @brief   Write a data item to NV. Function can write an entire item to NV or
// 1286  *          an element of an item by indexing into the item with an offset.
// 1287  *
// 1288  * @param   id  - Valid NV item Id.
// 1289  * @param   ndx - Index offset into item
// 1290  * @param   len - Length of data to write.
// 1291  * @param  *buf - Data to write.
// 1292  *
// 1293  * @return  SUCCESS if successful, NV_ITEM_UNINIT if item did not
// 1294  *          exist in NV and offset is non-zero, NV_OPER_FAILED if failure.
// 1295  */

        RSEG BANKED_CODE:HUGECODE:NOROOT(0)
// 1296 uint8 osal_nv_write( uint16 id, uint16 ndx, uint16 len, void *buf )
osal_nv_write:
          CFI Block cfiBlock301 Using cfiCommon0
          CFI Function osal_nv_write
        CODE
// 1297 {
        FUNCALL osal_nv_write, HalAdcCheckVdd
        LOCFRAME ISTACK, 0, STACK
        LOCFRAME PSTACK, 0, STACK
        LOCFRAME XSTACK, 35, STACK
        LOCFRAME IOVERLAY, 0, STATIC
        LOCFRAME DOVERLAY, 0, STATIC
        ARGFRAME ISTACK, 0, STACK
        ARGFRAME PSTACK, 0, STACK
        ARGFRAME XSTACK, 35, STACK
        ARGFRAME IOVERLAY, 0, STATIC
        ARGFRAME DOVERLAY, 0, STATIC
        FUNCALL osal_nv_write, findItem
        LOCFRAME ISTACK, 0, STACK
        LOCFRAME PSTACK, 0, STACK
        LOCFRAME XSTACK, 35, STACK
        LOCFRAME IOVERLAY, 0, STATIC
        LOCFRAME DOVERLAY, 0, STATIC
        ARGFRAME ISTACK, 0, STACK
        ARGFRAME PSTACK, 0, STACK
        ARGFRAME XSTACK, 35, STACK
        ARGFRAME IOVERLAY, 0, STATIC
        ARGFRAME DOVERLAY, 0, STATIC
        FUNCALL osal_nv_write, HalFlashRead
        LOCFRAME ISTACK, 0, STACK
        LOCFRAME PSTACK, 0, STACK
        LOCFRAME XSTACK, 37, STACK
        LOCFRAME IOVERLAY, 0, STATIC
        LOCFRAME DOVERLAY, 0, STATIC
        ARGFRAME ISTACK, 0, STACK
        ARGFRAME PSTACK, 0, STACK
        ARGFRAME XSTACK, 37, STACK
        ARGFRAME IOVERLAY, 0, STATIC
        ARGFRAME DOVERLAY, 0, STATIC
        FUNCALL osal_nv_write, HalFlashRead
        LOCFRAME ISTACK, 0, STACK
        LOCFRAME PSTACK, 0, STACK
        LOCFRAME XSTACK, 37, STACK
        LOCFRAME IOVERLAY, 0, STATIC
        LOCFRAME DOVERLAY, 0, STATIC
        ARGFRAME ISTACK, 0, STACK
        ARGFRAME PSTACK, 0, STACK
        ARGFRAME XSTACK, 37, STACK
        ARGFRAME IOVERLAY, 0, STATIC
        ARGFRAME DOVERLAY, 0, STATIC
        FUNCALL osal_nv_write, initItem
        LOCFRAME ISTACK, 0, STACK
        LOCFRAME PSTACK, 0, STACK
        LOCFRAME XSTACK, 37, STACK
        LOCFRAME IOVERLAY, 0, STATIC
        LOCFRAME DOVERLAY, 0, STATIC
        ARGFRAME ISTACK, 0, STACK
        ARGFRAME PSTACK, 0, STACK
        ARGFRAME XSTACK, 37, STACK
        ARGFRAME IOVERLAY, 0, STATIC
        ARGFRAME DOVERLAY, 0, STATIC
        FUNCALL osal_nv_write, setItem
        LOCFRAME ISTACK, 0, STACK
        LOCFRAME PSTACK, 0, STACK
        LOCFRAME XSTACK, 35, STACK
        LOCFRAME IOVERLAY, 0, STATIC
        LOCFRAME DOVERLAY, 0, STATIC
        ARGFRAME ISTACK, 0, STACK
        ARGFRAME PSTACK, 0, STACK
        ARGFRAME XSTACK, 35, STACK
        ARGFRAME IOVERLAY, 0, STATIC
        ARGFRAME DOVERLAY, 0, STATIC
        FUNCALL osal_nv_write, xferBuf
        LOCFRAME ISTACK, 0, STACK
        LOCFRAME PSTACK, 0, STACK
        LOCFRAME XSTACK, 39, STACK
        LOCFRAME IOVERLAY, 0, STATIC
        LOCFRAME DOVERLAY, 0, STATIC
        ARGFRAME ISTACK, 0, STACK
        ARGFRAME PSTACK, 0, STACK
        ARGFRAME XSTACK, 39, STACK
        ARGFRAME IOVERLAY, 0, STATIC
        ARGFRAME DOVERLAY, 0, STATIC
        FUNCALL osal_nv_write, writeBuf
        LOCFRAME ISTACK, 0, STACK
        LOCFRAME PSTACK, 0, STACK
        LOCFRAME XSTACK, 37, STACK
        LOCFRAME IOVERLAY, 0, STATIC
        LOCFRAME DOVERLAY, 0, STATIC
        ARGFRAME ISTACK, 0, STACK
        ARGFRAME PSTACK, 0, STACK
        ARGFRAME XSTACK, 37, STACK
        ARGFRAME IOVERLAY, 0, STATIC
        ARGFRAME DOVERLAY, 0, STATIC
        FUNCALL osal_nv_write, xferBuf
        LOCFRAME ISTACK, 0, STACK
        LOCFRAME PSTACK, 0, STACK
        LOCFRAME XSTACK, 39, STACK
        LOCFRAME IOVERLAY, 0, STATIC
        LOCFRAME DOVERLAY, 0, STATIC
        ARGFRAME ISTACK, 0, STACK
        ARGFRAME PSTACK, 0, STACK
        ARGFRAME XSTACK, 39, STACK
        ARGFRAME IOVERLAY, 0, STATIC
        ARGFRAME DOVERLAY, 0, STATIC
        FUNCALL osal_nv_write, calcChkF
        LOCFRAME ISTACK, 0, STACK
        LOCFRAME PSTACK, 0, STACK
        LOCFRAME XSTACK, 35, STACK
        LOCFRAME IOVERLAY, 0, STATIC
        LOCFRAME DOVERLAY, 0, STATIC
        ARGFRAME ISTACK, 0, STACK
        ARGFRAME PSTACK, 0, STACK
        ARGFRAME XSTACK, 35, STACK
        ARGFRAME IOVERLAY, 0, STATIC
        ARGFRAME DOVERLAY, 0, STATIC
        FUNCALL osal_nv_write, setChk
        LOCFRAME ISTACK, 0, STACK
        LOCFRAME PSTACK, 0, STACK
        LOCFRAME XSTACK, 35, STACK
        LOCFRAME IOVERLAY, 0, STATIC
        LOCFRAME DOVERLAY, 0, STATIC
        ARGFRAME ISTACK, 0, STACK
        ARGFRAME PSTACK, 0, STACK
        ARGFRAME XSTACK, 35, STACK
        ARGFRAME IOVERLAY, 0, STATIC
        ARGFRAME DOVERLAY, 0, STATIC
        FUNCALL osal_nv_write, hotItemUpdate
        LOCFRAME ISTACK, 0, STACK
        LOCFRAME PSTACK, 0, STACK
        LOCFRAME XSTACK, 35, STACK
        LOCFRAME IOVERLAY, 0, STATIC
        LOCFRAME DOVERLAY, 0, STATIC
        ARGFRAME ISTACK, 0, STACK
        ARGFRAME PSTACK, 0, STACK
        ARGFRAME XSTACK, 35, STACK
        ARGFRAME IOVERLAY, 0, STATIC
        ARGFRAME DOVERLAY, 0, STATIC
        FUNCALL osal_nv_write, erasePage
        LOCFRAME ISTACK, 0, STACK
        LOCFRAME PSTACK, 0, STACK
        LOCFRAME XSTACK, 35, STACK
        LOCFRAME IOVERLAY, 0, STATIC
        LOCFRAME DOVERLAY, 0, STATIC
        ARGFRAME ISTACK, 0, STACK
        ARGFRAME PSTACK, 0, STACK
        ARGFRAME XSTACK, 35, STACK
        ARGFRAME IOVERLAY, 0, STATIC
        ARGFRAME DOVERLAY, 0, STATIC
        FUNCALL osal_nv_write, setPageUse
        LOCFRAME ISTACK, 0, STACK
        LOCFRAME PSTACK, 0, STACK
        LOCFRAME XSTACK, 35, STACK
        LOCFRAME IOVERLAY, 0, STATIC
        LOCFRAME DOVERLAY, 0, STATIC
        ARGFRAME ISTACK, 0, STACK
        ARGFRAME PSTACK, 0, STACK
        ARGFRAME XSTACK, 35, STACK
        ARGFRAME IOVERLAY, 0, STATIC
        ARGFRAME DOVERLAY, 0, STATIC
        FUNCALL osal_nv_write, erasePage
        LOCFRAME ISTACK, 0, STACK
        LOCFRAME PSTACK, 0, STACK
        LOCFRAME XSTACK, 35, STACK
        LOCFRAME IOVERLAY, 0, STATIC
        LOCFRAME DOVERLAY, 0, STATIC
        ARGFRAME ISTACK, 0, STACK
        ARGFRAME PSTACK, 0, STACK
        ARGFRAME XSTACK, 35, STACK
        ARGFRAME IOVERLAY, 0, STATIC
        ARGFRAME DOVERLAY, 0, STATIC
        FUNCALL osal_nv_write, setItem
        LOCFRAME ISTACK, 0, STACK
        LOCFRAME PSTACK, 0, STACK
        LOCFRAME XSTACK, 35, STACK
        LOCFRAME IOVERLAY, 0, STATIC
        LOCFRAME DOVERLAY, 0, STATIC
        ARGFRAME ISTACK, 0, STACK
        ARGFRAME PSTACK, 0, STACK
        ARGFRAME XSTACK, 35, STACK
        ARGFRAME IOVERLAY, 0, STATIC
        ARGFRAME DOVERLAY, 0, STATIC
        REQUIRE ?V0
        REQUIRE ?V1
        REQUIRE ?V2
        REQUIRE ?V3
        REQUIRE ?V4
        REQUIRE ?V5
        REQUIRE ?V6
        REQUIRE ?V7
        MOV       A,#-0x10
        LCALL     ?BANKED_ENTER_XDATA
          CFI DPH0 load(1, XDATA, add(CFA_XSP16, literal(-1)))
          CFI DPL0 load(1, XDATA, add(CFA_XSP16, literal(-2)))
          CFI ?BRET_EXT load(1, XDATA, add(CFA_XSP16, literal(-3)))
          CFI ?RET_HIGH load(1, XDATA, add(CFA_XSP16, literal(-4)))
          CFI ?RET_LOW load(1, XDATA, add(CFA_XSP16, literal(-5)))
          CFI R7 load(1, XDATA, add(CFA_XSP16, literal(-6)))
          CFI V7 load(1, XDATA, add(CFA_XSP16, literal(-7)))
          CFI V6 load(1, XDATA, add(CFA_XSP16, literal(-8)))
          CFI V5 load(1, XDATA, add(CFA_XSP16, literal(-9)))
          CFI V4 load(1, XDATA, add(CFA_XSP16, literal(-10)))
          CFI V3 load(1, XDATA, add(CFA_XSP16, literal(-11)))
          CFI V2 load(1, XDATA, add(CFA_XSP16, literal(-12)))
          CFI V1 load(1, XDATA, add(CFA_XSP16, literal(-13)))
          CFI V0 load(1, XDATA, add(CFA_XSP16, literal(-14)))
          CFI VB load(1, XDATA, add(CFA_XSP16, literal(-15)))
          CFI R6 load(1, XDATA, add(CFA_XSP16, literal(-16)))
          CFI CFA_SP SP+0
          CFI CFA_XSP16 add(XSP16, 16)
        ; Saved register size: 16
        ; Auto size: 19
        MOV       A,#-0x13
        LCALL     ?ALLOC_XSTACK8
          CFI CFA_XSP16 add(XSP16, 35)
        MOV       A,#0x11
        LCALL     ?XSTACK_DISP0_8
        MOV       A,R2
        MOVX      @DPTR,A
        INC       DPTR
        MOV       A,R3
        MOVX      @DPTR,A
        MOV       A,#0x7
        LCALL     ?XSTACK_DISP0_8
        MOV       A,R4
        MOVX      @DPTR,A
        INC       DPTR
        MOV       A,R5
        MOVX      @DPTR,A
// 1298   uint8 rtrn = SUCCESS;
        MOV       A,#0x2
        LCALL     ?XSTACK_DISP0_8
        CLR       A
        MOVX      @DPTR,A
// 1299 
// 1300   if ( !OSAL_NV_CHECK_BUS_VOLTAGE )
        ; Setup parameters for call to function HalAdcCheckVdd
        MOV       R1,#0x4e
        LCALL     `??HalAdcCheckVdd::?relay`; Banked call to: HalAdcCheckVdd
        MOV       A,R1
        JNZ       $+5
        LJMP      ??osal_nv_write_0 & 0xFFFF
// 1301   {
// 1302     return NV_OPER_FAILED;
// 1303   }
// 1304   else if ( len != 0 )
        MOV       A,#0x23
        LCALL     ?XSTACK_DISP0_8
        LCALL     ?Subroutine13 & 0xFFFF
??CrossCallReturnLabel_17:
        JNZ       $+5
        LJMP      ??CrossCallReturnLabel_95 & 0xFFFF
// 1305   {
// 1306     osalNvHdr_t hdr;
// 1307     uint16 origOff, srcOff;
// 1308     uint16 cnt, chk;
// 1309     uint8 *ptr, srcPg;
// 1310 
// 1311     origOff = srcOff = findItem( id );
        ; Setup parameters for call to function findItem
        MOV       A,#0x11
        LCALL     ?XSTACK_DISP0_8
        LCALL     ??Subroutine67_0 & 0xFFFF
??CrossCallReturnLabel_154:
        LCALL     `??findItem::?relay`; Banked call to: findItem
        MOV       A,#0x3
        LCALL     ?XSTACK_DISP0_8
        MOV       A,R2
        MOVX      @DPTR,A
        INC       DPTR
        MOV       A,R3
        MOVX      @DPTR,A
// 1312     srcPg = findPg;
        MOV       DPTR,#findPg
        MOVX      A,@DPTR
        PUSH      A
          CFI CFA_SP SP+-1
        MOV       A,#0x1
        LCALL     ?XSTACK_DISP0_8
        POP       A
          CFI CFA_SP SP+0
        MOVX      @DPTR,A
// 1313     if ( srcOff == OSAL_NV_ITEM_NULL )
        MOV       A,#0x3
        LCALL     ?XSTACK_DISP0_8
        LCALL     ?Subroutine13 & 0xFFFF
??CrossCallReturnLabel_18:
        JNZ       ??osal_nv_write_1
// 1314     {
// 1315       return NV_ITEM_UNINIT;
        MOV       R1,#0x9
        LJMP      ??osal_nv_write_2 & 0xFFFF
// 1316     }
// 1317 
// 1318     HalFlashRead(srcPg, (srcOff - OSAL_NV_HDR_SIZE), (uint8 *)(&hdr), OSAL_NV_HDR_SIZE);
??osal_nv_write_1:
        ; Setup parameters for call to function HalFlashRead
        MOV       ?V0,#0x8
        MOV       ?V1,#0x0
        MOV       R0,#?V0
        LCALL     ?PUSH_XSTACK_I_TWO
          CFI CFA_XSP16 add(XSP16, 37)
        MOV       A,#0xb
        LCALL     ?XSTACK_DISP102_8
        MOV       A,#0x5
        LCALL     ?XSTACK_DISP0_8
        MOVX      A,@DPTR
        ADD       A,#-0x8
        MOV       R2,A
        INC       DPTR
        MOVX      A,@DPTR
        ADDC      A,#-0x1
        MOV       R3,A
        MOV       A,#0x3
        LCALL     ?XSTACK_DISP0_8
        LCALL     ?Subroutine11 & 0xFFFF
??CrossCallReturnLabel_120:
        LCALL     ?DEALLOC_XSTACK8
          CFI CFA_XSP16 add(XSP16, 35)
// 1319     if ( hdr.len < (ndx + len) )
        MOV       A,#0xb
        LCALL     ?XSTACK_DISP0_8
        PUSH      DPL
          CFI CFA_SP SP+-1
        PUSH      DPH
          CFI CFA_SP SP+-2
        MOV       A,#0x7
        LCALL     ?XSTACK_DISP0_8
        LCALL     ?Subroutine23 & 0xFFFF
??CrossCallReturnLabel_43:
        MOV       A,#0x23
        LCALL     ?XSTACK_DISP0_8
        MOVX      A,@DPTR
        ADD       A,R0
        MOV       R0,A
        INC       DPTR
        MOVX      A,@DPTR
        ADDC      A,R1
        MOV       R1,A
        POP       DPH
          CFI CFA_SP SP+-1
        POP       DPL
          CFI CFA_SP SP+0
        CLR       C
        MOVX      A,@DPTR
        SUBB      A,R0
        INC       DPTR
        MOVX      A,@DPTR
        SUBB      A,R1
        JNC       ??osal_nv_write_3
// 1320     {
// 1321       return NV_OPER_FAILED;
??osal_nv_write_0:
        MOV       R1,#0xa
        LJMP      ??osal_nv_write_2 & 0xFFFF
// 1322     }
// 1323 
// 1324     srcOff += ndx;
??osal_nv_write_3:
        MOV       A,#0x3
        LCALL     ?XSTACK_DISP0_8
        LCALL     ?Subroutine23 & 0xFFFF
??CrossCallReturnLabel_44:
        MOV       A,#0x7
        LCALL     ?XSTACK_DISP0_8
        MOVX      A,@DPTR
        ADD       A,R0
        MOV       ?V2,A
        INC       DPTR
        MOVX      A,@DPTR
        ADDC      A,R1
        MOV       ?V3,A
        MOV       A,#0x5
        LCALL     ?XSTACK_DISP0_8
        MOV       A,?V2
        MOVX      @DPTR,A
        INC       DPTR
        MOV       A,?V3
        MOVX      @DPTR,A
// 1325     ptr = buf;
        MOV       A,#0x25
        LCALL     ?XSTACK_DISP0_8
        MOVX      A,@DPTR
        MOV       ?V6,A
        INC       DPTR
        MOVX      A,@DPTR
        MOV       ?V7,A
// 1326     cnt = len;
        MOV       A,#0x23
        LCALL     ?XSTACK_DISP0_8
        MOVX      A,@DPTR
        MOV       R6,A
        INC       DPTR
        MOVX      A,@DPTR
        MOV       R7,A
// 1327     chk = 0;
        MOV       ?V0,#0x0
        SJMP      ??osal_nv_write_4
// 1328     while ( cnt-- )
// 1329     {
// 1330       uint8 tmp;
// 1331       HalFlashRead(srcPg, srcOff, &tmp, 1);
??osal_nv_write_5:
        ; Setup parameters for call to function HalFlashRead
        MOV       ?V4,#0x1
        MOV       ?V5,#0x0
        MOV       R0,#?V4
        LCALL     ?PUSH_XSTACK_I_TWO
          CFI CFA_XSP16 add(XSP16, 37)
        MOV       A,#0x2
        LCALL     ?XSTACK_DISP102_8
        MOV       A,#0x7
        LCALL     ?XSTACK_DISP0_8
        LCALL     ??Subroutine67_0 & 0xFFFF
??CrossCallReturnLabel_155:
        MOV       A,#0x3
        LCALL     ?XSTACK_DISP0_8
        LCALL     ?Subroutine11 & 0xFFFF
??CrossCallReturnLabel_121:
        LCALL     ?DEALLOC_XSTACK8
          CFI CFA_XSP16 add(XSP16, 35)
// 1332       if ( tmp != *ptr )
        MOV       DPL,?XSP + 0
        MOV       DPH,?XSP + 1
        MOVX      A,@DPTR
        MOV       R0,A
        MOV       DPL,?V6
        MOV       DPH,?V7
        MOVX      A,@DPTR
        XRL       A,R0
        JZ        ??osal_nv_write_6
// 1333       {
// 1334         chk = 1;  // Mark that at least one byte is different.
        MOV       ?V0,#0x1
// 1335         // Calculate expected checksum after transferring old data and writing new data.
// 1336         hdr.chk -= tmp;
        MOV       A,#0xd
        LCALL     ?XSTACK_DISP0_8
        CLR       C
        MOVX      A,@DPTR
        SUBB      A,R0
        MOVX      @DPTR,A
        INC       DPTR
        MOVX      A,@DPTR
        SUBB      A,#0x0
        MOVX      @DPTR,A
// 1337         hdr.chk += *ptr;
        MOV       DPL,?V6
        MOV       DPH,?V7
        MOVX      A,@DPTR
        MOV       R0,A
        MOV       A,#0xd
        LCALL     ?XSTACK_DISP0_8
        MOVX      A,@DPTR
        ADD       A,R0
        MOVX      @DPTR,A
        INC       DPTR
        MOVX      A,@DPTR
        ADDC      A,#0x0
        MOVX      @DPTR,A
// 1338       }
// 1339       srcOff++;
??osal_nv_write_6:
        MOV       A,#0x5
        LCALL     ?XSTACK_DISP0_8
        MOVX      A,@DPTR
        ADD       A,#0x1
        MOVX      @DPTR,A
        INC       DPTR
        MOVX      A,@DPTR
        ADDC      A,#0x0
        MOVX      @DPTR,A
// 1340       ptr++;
        MOV       DPL,?V6
        MOV       DPH,?V7
        INC       DPTR
        MOV       ?V6,DPL
        MOV       ?V7,DPH
// 1341     }
??osal_nv_write_4:
        LCALL     ?Subroutine43 & 0xFFFF
??CrossCallReturnLabel_80:
        JNZ       ??osal_nv_write_5
// 1342 
// 1343     if ( chk != 0 )  // If the buffer to write is different in one or more bytes.
        MOV       A,?V0
        MOV       C,0xE0 /* A   */.0
        JC        $+5
        LJMP      ??CrossCallReturnLabel_95 & 0xFFFF
// 1344     {
// 1345       uint8 comPg = OSAL_NV_PAGE_NULL;
        MOV       DPL,?XSP + 0
        MOV       DPH,?XSP + 1
        CLR       A
        MOVX      @DPTR,A
// 1346       uint8 dstPg = initItem( FALSE, id, hdr.len, &comPg );
        ; Setup parameters for call to function initItem
        MOV       R0,?XSP + 0
        MOV       R1,?XSP + 1
        MOV       ?V0,R0
        MOV       ?V1,R1
        MOV       R0,#?V0
        LCALL     ?PUSH_XSTACK_I_TWO
          CFI CFA_XSP16 add(XSP16, 37)
        MOV       A,#0xd
        LCALL     ?XSTACK_DISP0_8
        LCALL     ?Subroutine27 & 0xFFFF
??CrossCallReturnLabel_53:
        MOV       A,#0x13
        LCALL     ?XSTACK_DISP0_8
        LCALL     ??Subroutine67_0 & 0xFFFF
??CrossCallReturnLabel_156:
        MOV       R1,#0x0
        LCALL     `??initItem::?relay`; Banked call to: initItem
        MOV       A,#0x2
        LCALL     ?DEALLOC_XSTACK8
          CFI CFA_XSP16 add(XSP16, 35)
        MOV       A,R1
        MOV       ?V6,A
// 1347 
// 1348       if ( dstPg != OSAL_NV_PAGE_NULL )
        JNZ       $+5
        LJMP      ??osal_nv_write_7 & 0xFFFF
// 1349       {
// 1350         uint16 tmp = OSAL_NV_DATA_SIZE( hdr.len );
        MOV       A,#0xb
        LCALL     ?XSTACK_DISP0_8
        LCALL     ?Subroutine23 & 0xFFFF
??CrossCallReturnLabel_45:
        CLR       C
        MOV       A,R0
        SUBB      A,#-0x4
        MOV       A,R1
        SUBB      A,#-0x1
        JC        ??osal_nv_write_8
        MOV       ?V0,#-0x4
        MOV       ?V1,#-0x1
        SJMP      ??osal_nv_write_9
??osal_nv_write_8:
        MOV       A,R0
        ADD       A,#0x3
        JNC       ??osal_nv_write_10
        INC       R1
??osal_nv_write_10:
        ANL       A,#0xfc
        MOV       ?V0,A
        MOV       A,R1
        MOV       ?V1,A
// 1351         uint16 dstOff = pgOff[dstPg-OSAL_NV_PAGE_BEG] - tmp;
??osal_nv_write_9:
        MOV       R0,?V6
        MOV       A,R0
        ADD       A,R0
        MOV       R0,A
        CLR       A
        RLC       A
        MOV       R1,A
        MOV       A,#(pgOff + 14) & 0xff
        ADD       A,R0
        MOV       R0,A
        MOV       A,#((pgOff - 242) >> 8) & 0xff
        ADDC      A,R1
        MOV       R1,A
        MOV       A,#0x5
        LCALL     ?XSTACK_DISP0_8
        LCALL     ?Subroutine10 & 0xFFFF
??CrossCallReturnLabel_12:
        MOV       A,#0x5
        LCALL     ?XSTACK_DISP0_8
        LCALL     ?Subroutine15 & 0xFFFF
// 1352         srcOff = origOff;
// 1353 
// 1354         /* Prevent excessive re-writes to item header caused by numerous, rapid, & successive
// 1355          * OSAL_Nv interruptions caused by resets.
// 1356          */
// 1357         if ( hdr.stat == OSAL_NV_ERASED_ID )
??CrossCallReturnLabel_22:
        MOV       A,#0xf
        LCALL     ?XSTACK_DISP0_8
        MOVX      A,@DPTR
        CPL       A
        JNZ       ??osal_nv_write_11
        INC       DPTR
        MOVX      A,@DPTR
        CPL       A
??osal_nv_write_11:
        JNZ       ??CrossCallReturnLabel_94
// 1358         {
// 1359           setItem( srcPg, srcOff, eNvXfer );
        ; Setup parameters for call to function setItem
        MOV       R4,#0x0
        MOV       A,#0x3
        LCALL     ?XSTACK_DISP0_8
        LCALL     ??Subroutine67_0 & 0xFFFF
// 1360         }
??CrossCallReturnLabel_157:
        MOV       A,#0x1
        LCALL     ?XSTACK_DISP0_8
        LCALL     ??Subroutine53_0 & 0xFFFF
// 1361 
// 1362         xferBuf( srcPg, srcOff, dstPg, dstOff, ndx );
??CrossCallReturnLabel_94:
        ; Setup parameters for call to function xferBuf
        MOV       A,#0x7
        LCALL     ?XSTACK_DISP0_8
        LCALL     ?PUSH_XSTACK8_X_TWO
          CFI CFA_XSP16 add(XSP16, 37)
        MOV       ?V4,R6
        MOV       ?V5,R7
        MOV       R0,#?V4
        LCALL     ?PUSH_XSTACK_I_TWO
          CFI CFA_XSP16 add(XSP16, 39)
        MOV       R4,?V6
        MOV       A,#0x7
        LCALL     ?XSTACK_DISP0_8
        LCALL     ??Subroutine67_0 & 0xFFFF
??CrossCallReturnLabel_158:
        MOV       A,#0x5
        LCALL     ?XSTACK_DISP0_8
        MOVX      A,@DPTR
        MOV       R1,A
        LCALL     `??xferBuf::?relay`; Banked call to: xferBuf
        MOV       A,#0x4
        LCALL     ?DEALLOC_XSTACK8
          CFI CFA_XSP16 add(XSP16, 35)
// 1363         srcOff += ndx;
// 1364         dstOff += ndx;
        MOV       A,#0x7
        LCALL     ?XSTACK_DISP0_8
        MOVX      A,@DPTR
        ADD       A,R6
        MOV       R6,A
        INC       DPTR
        MOVX      A,@DPTR
        ADDC      A,R7
        MOV       R7,A
// 1365 
// 1366         writeBuf( dstPg, dstOff, len, buf );
        ; Setup parameters for call to function writeBuf
        MOV       A,#0x25
        LCALL     ?XSTACK_DISP0_8
        LCALL     ?PUSH_XSTACK8_X_TWO
          CFI CFA_XSP16 add(XSP16, 37)
        MOV       A,#0x25
        LCALL     ?XSTACK_DISP0_8
        LCALL     ?Subroutine14 & 0xFFFF
??CrossCallReturnLabel_19:
        LCALL     `??writeBuf::?relay`; Banked call to: writeBuf
        MOV       A,#0x2
        LCALL     ?DEALLOC_XSTACK8
          CFI CFA_XSP16 add(XSP16, 35)
// 1367         srcOff += len;
// 1368         dstOff += len;
// 1369 
// 1370         xferBuf( srcPg, srcOff, dstPg, dstOff, (hdr.len-ndx-len) );
        ; Setup parameters for call to function xferBuf
        MOV       A,#0xb
        LCALL     ?XSTACK_DISP0_8
        PUSH      DPL
          CFI CFA_SP SP+-1
        PUSH      DPH
          CFI CFA_SP SP+-2
        MOV       A,#0x7
        LCALL     ?XSTACK_DISP0_8
        LCALL     ?Subroutine23 & 0xFFFF
??CrossCallReturnLabel_46:
        POP       DPH
          CFI CFA_SP SP+-1
        POP       DPL
          CFI CFA_SP SP+0
        MOVX      A,@DPTR
        CLR       C
        SUBB      A,R0
        MOV       R2,A
        INC       DPTR
        MOVX      A,@DPTR
        SUBB      A,R1
        MOV       R3,A
        MOV       A,#0x23
        LCALL     ?XSTACK_DISP0_8
        LCALL     ?Subroutine23 & 0xFFFF
??CrossCallReturnLabel_47:
        MOV       A,R2
        CLR       C
        SUBB      A,R0
        MOV       ?V4,A
        MOV       A,R3
        SUBB      A,R1
        MOV       ?V5,A
        MOV       R0,#?V4
        LCALL     ?PUSH_XSTACK_I_TWO
          CFI CFA_XSP16 add(XSP16, 37)
        MOV       A,#0x25
        LCALL     ?XSTACK_DISP0_8
        MOVX      A,@DPTR
        ADD       A,R6
        MOV       ?V4,A
        INC       DPTR
        MOVX      A,@DPTR
        ADDC      A,R7
        MOV       ?V5,A
        MOV       R0,#?V4
        LCALL     ?PUSH_XSTACK_I_TWO
          CFI CFA_XSP16 add(XSP16, 39)
        MOV       R4,?V6
        MOV       A,#0x27
        LCALL     ?XSTACK_DISP0_8
        MOVX      A,@DPTR
        ADD       A,?V2
        MOV       R2,A
        INC       DPTR
        MOVX      A,@DPTR
        ADDC      A,?V3
        MOV       R3,A
        MOV       A,#0x5
        LCALL     ?XSTACK_DISP0_8
        MOVX      A,@DPTR
        MOV       R1,A
        LCALL     `??xferBuf::?relay`; Banked call to: xferBuf
        MOV       A,#0x4
        LCALL     ?DEALLOC_XSTACK8
          CFI CFA_XSP16 add(XSP16, 35)
// 1371 
// 1372         // Calculate and write the new checksum.
// 1373         dstOff = pgOff[dstPg-OSAL_NV_PAGE_BEG] - tmp;
        MOV       A,#0x5
        LCALL     ?XSTACK_DISP0_8
        LCALL     ?Subroutine15 & 0xFFFF
// 1374 
// 1375         if ( hdr.chk == calcChkF( dstPg, dstOff, hdr.len ) )
??CrossCallReturnLabel_23:
        ; Setup parameters for call to function calcChkF
        MOV       A,#0xb
        LCALL     ?XSTACK_DISP0_8
        LCALL     ?Subroutine14 & 0xFFFF
??CrossCallReturnLabel_20:
        LCALL     `??calcChkF::?relay`; Banked call to: calcChkF
        MOV       A,#0xd
        LCALL     ?XSTACK_DISP0_8
        LCALL     ?Subroutine20 & 0xFFFF
??CrossCallReturnLabel_33:
        JNZ       ??osal_nv_write_12
        MOV       A,R3
        XRL       A,R5
??osal_nv_write_12:
        JNZ       ??osal_nv_write_7
// 1376         {
// 1377           if ( hdr.chk != setChk( dstPg, dstOff, hdr.chk ) )
        ; Setup parameters for call to function setChk
        MOV       A,R6
        MOV       R2,A
        MOV       A,R7
        MOV       R3,A
        LCALL     ?Subroutine41 & 0xFFFF
??CrossCallReturnLabel_77:
        MOV       A,#0xd
        LCALL     ?XSTACK_DISP0_8
        MOVX      A,@DPTR
        XRL       A,R0
        JNZ       ??osal_nv_write_13
        INC       DPTR
        MOVX      A,@DPTR
        XRL       A,R1
??osal_nv_write_13:
        JNZ       ??osal_nv_write_7
// 1378           {
// 1379             rtrn = NV_OPER_FAILED;
// 1380           }
// 1381           else
// 1382           {
// 1383             hotItemUpdate(dstPg, dstOff, hdr.id);
        ; Setup parameters for call to function hotItemUpdate
        MOV       A,#0x9
        LCALL     ?XSTACK_DISP0_8
        LCALL     ?Subroutine14 & 0xFFFF
// 1384           }
// 1385         }
// 1386         else
// 1387         {
// 1388           rtrn = NV_OPER_FAILED;
// 1389         }
// 1390       }
??CrossCallReturnLabel_21:
        LCALL     `??hotItemUpdate::?relay`; Banked call to: hotItemUpdate
        SJMP      ??osal_nv_write_14
// 1391       else
// 1392       {
// 1393         rtrn = NV_OPER_FAILED;
??osal_nv_write_7:
        MOV       A,#0x2
        LCALL     ?XSTACK_DISP0_8
        MOV       A,#0xa
        MOVX      @DPTR,A
// 1394       }
// 1395 
// 1396       if ( comPg != OSAL_NV_PAGE_NULL )
??osal_nv_write_14:
        MOV       DPL,?XSP + 0
        MOV       DPH,?XSP + 1
        MOVX      A,@DPTR
        JZ        ??osal_nv_write_15
// 1397       {
// 1398         /* Even though the page compaction succeeded, if the new item is coming from the compacted
// 1399          * page and writing the new value failed, then the compaction must be aborted.
// 1400          */
// 1401         if ( (srcPg == comPg) && (rtrn == NV_OPER_FAILED) )
        MOV       A,#0x1
        LCALL     ?XSTACK_DISP0_8
        LCALL     ?Subroutine26 & 0xFFFF
??CrossCallReturnLabel_48:
        JNZ       ??osal_nv_write_16
        MOV       A,#0x2
        LCALL     ?XSTACK_DISP0_8
        MOVX      A,@DPTR
        XRL       A,#0xa
        JNZ       ??osal_nv_write_16
// 1402         {
// 1403           erasePage( pgRes );
        ; Setup parameters for call to function erasePage
        LCALL     ?Subroutine25 & 0xFFFF
// 1404         }
??CrossCallReturnLabel_102:
        SJMP      ??CrossCallReturnLabel_95
// 1405         else
// 1406         {
// 1407           COMPACT_PAGE_CLEANUP( comPg );
??osal_nv_write_16:
        ; Setup parameters for call to function setPageUse
        LCALL     ?Subroutine28 & 0xFFFF
??CrossCallReturnLabel_56:
        ; Setup parameters for call to function erasePage
        MOV       DPL,?XSP + 0
        MOV       DPH,?XSP + 1
        LCALL     ??Subroutine56_0 & 0xFFFF
??CrossCallReturnLabel_103:
        MOV       DPL,?XSP + 0
        MOV       DPH,?XSP + 1
        MOVX      A,@DPTR
        MOV       DPTR,#pgRes
        MOVX      @DPTR,A
// 1408         }
// 1409       }
// 1410 
// 1411       /* Zero of the old item must wait until after compact page cleanup has finished - if the item
// 1412        * is zeroed before and cleanup is interrupted by a power-cycle, the new item can be lost.
// 1413        */
// 1414       if ( (srcPg != comPg) && (rtrn != NV_OPER_FAILED) )
??osal_nv_write_15:
        MOV       A,#0x1
        LCALL     ?XSTACK_DISP0_8
        LCALL     ?Subroutine26 & 0xFFFF
??CrossCallReturnLabel_49:
        JZ        ??CrossCallReturnLabel_95
        MOV       A,#0x2
        LCALL     ?XSTACK_DISP0_8
        MOVX      A,@DPTR
        XRL       A,#0xa
        JZ        ??CrossCallReturnLabel_95
// 1415       {
// 1416         setItem( srcPg, origOff, eNvZero );
        ; Setup parameters for call to function setItem
        MOV       R4,#0x1
        MOV       A,#0x3
        LCALL     ?XSTACK_DISP0_8
        LCALL     ??Subroutine67_0 & 0xFFFF
// 1417       }
// 1418     }
// 1419   }
??CrossCallReturnLabel_159:
        MOV       A,R4
        LCALL     ?XSTACK_DISP0_8
        LCALL     ??Subroutine53_0 & 0xFFFF
// 1420 
// 1421   return rtrn;
??CrossCallReturnLabel_95:
        MOV       A,#0x2
        LCALL     ?XSTACK_DISP0_8
        MOVX      A,@DPTR
        MOV       R1,A
??osal_nv_write_2:
        MOV       A,#0x13
        LJMP      ??Subroutine62_0 & 0xFFFF
// 1422 }
          CFI EndBlock cfiBlock301

        RSEG BANKED_CODE:HUGECODE:NOROOT(0)
?Subroutine41:
          CFI Block cfiCond302 Using cfiCommon0
          CFI Function writeItem
          CFI Conditional ??CrossCallReturnLabel_76
          CFI R6 load(1, XDATA, add(CFA_XSP16, literal(-16)))
          CFI VB load(1, XDATA, add(CFA_XSP16, literal(-15)))
          CFI V0 load(1, XDATA, add(CFA_XSP16, literal(-14)))
          CFI V1 load(1, XDATA, add(CFA_XSP16, literal(-13)))
          CFI V2 load(1, XDATA, add(CFA_XSP16, literal(-12)))
          CFI V3 load(1, XDATA, add(CFA_XSP16, literal(-11)))
          CFI V4 load(1, XDATA, add(CFA_XSP16, literal(-10)))
          CFI V5 load(1, XDATA, add(CFA_XSP16, literal(-9)))
          CFI V6 load(1, XDATA, add(CFA_XSP16, literal(-8)))
          CFI V7 load(1, XDATA, add(CFA_XSP16, literal(-7)))
          CFI R7 load(1, XDATA, add(CFA_XSP16, literal(-6)))
          CFI ?RET_LOW load(1, XDATA, add(CFA_XSP16, literal(-5)))
          CFI ?RET_HIGH load(1, XDATA, add(CFA_XSP16, literal(-4)))
          CFI ?BRET_EXT load(1, XDATA, add(CFA_XSP16, literal(-3)))
          CFI DPL0 load(1, XDATA, add(CFA_XSP16, literal(-2)))
          CFI DPH0 load(1, XDATA, add(CFA_XSP16, literal(-1)))
          CFI CFA_SP SP+-2
          CFI CFA_XSP16 add(XSP16, 28)
          CFI Block cfiCond303 Using cfiCommon0
          CFI (cfiCond303) Function osal_nv_write
          CFI (cfiCond303) Conditional ??CrossCallReturnLabel_77
          CFI (cfiCond303) R6 load(1, XDATA, add(CFA_XSP16, literal(-16)))
          CFI (cfiCond303) VB load(1, XDATA, add(CFA_XSP16, literal(-15)))
          CFI (cfiCond303) V0 load(1, XDATA, add(CFA_XSP16, literal(-14)))
          CFI (cfiCond303) V1 load(1, XDATA, add(CFA_XSP16, literal(-13)))
          CFI (cfiCond303) V2 load(1, XDATA, add(CFA_XSP16, literal(-12)))
          CFI (cfiCond303) V3 load(1, XDATA, add(CFA_XSP16, literal(-11)))
          CFI (cfiCond303) V4 load(1, XDATA, add(CFA_XSP16, literal(-10)))
          CFI (cfiCond303) V5 load(1, XDATA, add(CFA_XSP16, literal(-9)))
          CFI (cfiCond303) V6 load(1, XDATA, add(CFA_XSP16, literal(-8)))
          CFI (cfiCond303) V7 load(1, XDATA, add(CFA_XSP16, literal(-7)))
          CFI (cfiCond303) R7 load(1, XDATA, add(CFA_XSP16, literal(-6)))
          CFI (cfiCond303) ?RET_LOW load(1, XDATA, add(CFA_XSP16, literal(-5)))
          CFI (cfiCond303) ?RET_HIGH load(1, XDATA, add(CFA_XSP16, literal(-4)))
          CFI (cfiCond303) ?BRET_EXT load(1, XDATA, add(CFA_XSP16, literal(-3)))
          CFI (cfiCond303) DPL0 load(1, XDATA, add(CFA_XSP16, literal(-2)))
          CFI (cfiCond303) DPH0 load(1, XDATA, add(CFA_XSP16, literal(-1)))
          CFI (cfiCond303) CFA_SP SP+-2
          CFI (cfiCond303) CFA_XSP16 add(XSP16, 35)
          CFI Block cfiPicker304 Using cfiCommon1
          CFI (cfiPicker304) NoFunction
          CFI (cfiPicker304) Picker
        MOV       R1,?V6
        LCALL     `??setChk::?relay`; Banked call to: setChk
        MOV       ?V0,R2
        MOV       ?V1,R3
        MOV       R0,?V0
        MOV       R1,?V1
        RET
          CFI EndBlock cfiCond302
          CFI EndBlock cfiCond303
          CFI EndBlock cfiPicker304

        RSEG BANKED_CODE:HUGECODE:NOROOT(0)
?Subroutine26:
          CFI Block cfiCond305 Using cfiCommon0
          CFI Function osal_nv_write
          CFI Conditional ??CrossCallReturnLabel_48
          CFI R6 load(1, XDATA, add(CFA_XSP16, literal(-16)))
          CFI VB load(1, XDATA, add(CFA_XSP16, literal(-15)))
          CFI V0 load(1, XDATA, add(CFA_XSP16, literal(-14)))
          CFI V1 load(1, XDATA, add(CFA_XSP16, literal(-13)))
          CFI V2 load(1, XDATA, add(CFA_XSP16, literal(-12)))
          CFI V3 load(1, XDATA, add(CFA_XSP16, literal(-11)))
          CFI V4 load(1, XDATA, add(CFA_XSP16, literal(-10)))
          CFI V5 load(1, XDATA, add(CFA_XSP16, literal(-9)))
          CFI V6 load(1, XDATA, add(CFA_XSP16, literal(-8)))
          CFI V7 load(1, XDATA, add(CFA_XSP16, literal(-7)))
          CFI R7 load(1, XDATA, add(CFA_XSP16, literal(-6)))
          CFI ?RET_LOW load(1, XDATA, add(CFA_XSP16, literal(-5)))
          CFI ?RET_HIGH load(1, XDATA, add(CFA_XSP16, literal(-4)))
          CFI ?BRET_EXT load(1, XDATA, add(CFA_XSP16, literal(-3)))
          CFI DPL0 load(1, XDATA, add(CFA_XSP16, literal(-2)))
          CFI DPH0 load(1, XDATA, add(CFA_XSP16, literal(-1)))
          CFI CFA_SP SP+-2
          CFI CFA_XSP16 add(XSP16, 35)
          CFI Block cfiCond306 Using cfiCommon0
          CFI (cfiCond306) Function osal_nv_write
          CFI (cfiCond306) Conditional ??CrossCallReturnLabel_49
          CFI (cfiCond306) R6 load(1, XDATA, add(CFA_XSP16, literal(-16)))
          CFI (cfiCond306) VB load(1, XDATA, add(CFA_XSP16, literal(-15)))
          CFI (cfiCond306) V0 load(1, XDATA, add(CFA_XSP16, literal(-14)))
          CFI (cfiCond306) V1 load(1, XDATA, add(CFA_XSP16, literal(-13)))
          CFI (cfiCond306) V2 load(1, XDATA, add(CFA_XSP16, literal(-12)))
          CFI (cfiCond306) V3 load(1, XDATA, add(CFA_XSP16, literal(-11)))
          CFI (cfiCond306) V4 load(1, XDATA, add(CFA_XSP16, literal(-10)))
          CFI (cfiCond306) V5 load(1, XDATA, add(CFA_XSP16, literal(-9)))
          CFI (cfiCond306) V6 load(1, XDATA, add(CFA_XSP16, literal(-8)))
          CFI (cfiCond306) V7 load(1, XDATA, add(CFA_XSP16, literal(-7)))
          CFI (cfiCond306) R7 load(1, XDATA, add(CFA_XSP16, literal(-6)))
          CFI (cfiCond306) ?RET_LOW load(1, XDATA, add(CFA_XSP16, literal(-5)))
          CFI (cfiCond306) ?RET_HIGH load(1, XDATA, add(CFA_XSP16, literal(-4)))
          CFI (cfiCond306) ?BRET_EXT load(1, XDATA, add(CFA_XSP16, literal(-3)))
          CFI (cfiCond306) DPL0 load(1, XDATA, add(CFA_XSP16, literal(-2)))
          CFI (cfiCond306) DPH0 load(1, XDATA, add(CFA_XSP16, literal(-1)))
          CFI (cfiCond306) CFA_SP SP+-2
          CFI (cfiCond306) CFA_XSP16 add(XSP16, 35)
          CFI Block cfiPicker307 Using cfiCommon1
          CFI (cfiPicker307) NoFunction
          CFI (cfiPicker307) Picker
        MOVX      A,@DPTR
        MOV       R0,A
        MOV       DPL,?XSP + 0
        MOV       DPH,?XSP + 1
        MOVX      A,@DPTR
        XRL       A,R0
        RET
          CFI EndBlock cfiCond305
          CFI EndBlock cfiCond306
          CFI EndBlock cfiPicker307

        RSEG BANKED_CODE:HUGECODE:NOROOT(0)
?Subroutine15:
          CFI Block cfiCond308 Using cfiCommon0
          CFI Function osal_nv_write
          CFI Conditional ??CrossCallReturnLabel_22
          CFI R6 load(1, XDATA, add(CFA_XSP16, literal(-16)))
          CFI VB load(1, XDATA, add(CFA_XSP16, literal(-15)))
          CFI V0 load(1, XDATA, add(CFA_XSP16, literal(-14)))
          CFI V1 load(1, XDATA, add(CFA_XSP16, literal(-13)))
          CFI V2 load(1, XDATA, add(CFA_XSP16, literal(-12)))
          CFI V3 load(1, XDATA, add(CFA_XSP16, literal(-11)))
          CFI V4 load(1, XDATA, add(CFA_XSP16, literal(-10)))
          CFI V5 load(1, XDATA, add(CFA_XSP16, literal(-9)))
          CFI V6 load(1, XDATA, add(CFA_XSP16, literal(-8)))
          CFI V7 load(1, XDATA, add(CFA_XSP16, literal(-7)))
          CFI R7 load(1, XDATA, add(CFA_XSP16, literal(-6)))
          CFI ?RET_LOW load(1, XDATA, add(CFA_XSP16, literal(-5)))
          CFI ?RET_HIGH load(1, XDATA, add(CFA_XSP16, literal(-4)))
          CFI ?BRET_EXT load(1, XDATA, add(CFA_XSP16, literal(-3)))
          CFI DPL0 load(1, XDATA, add(CFA_XSP16, literal(-2)))
          CFI DPH0 load(1, XDATA, add(CFA_XSP16, literal(-1)))
          CFI CFA_SP SP+-2
          CFI CFA_XSP16 add(XSP16, 35)
          CFI Block cfiCond309 Using cfiCommon0
          CFI (cfiCond309) Function osal_nv_write
          CFI (cfiCond309) Conditional ??CrossCallReturnLabel_23
          CFI (cfiCond309) R6 load(1, XDATA, add(CFA_XSP16, literal(-16)))
          CFI (cfiCond309) VB load(1, XDATA, add(CFA_XSP16, literal(-15)))
          CFI (cfiCond309) V0 load(1, XDATA, add(CFA_XSP16, literal(-14)))
          CFI (cfiCond309) V1 load(1, XDATA, add(CFA_XSP16, literal(-13)))
          CFI (cfiCond309) V2 load(1, XDATA, add(CFA_XSP16, literal(-12)))
          CFI (cfiCond309) V3 load(1, XDATA, add(CFA_XSP16, literal(-11)))
          CFI (cfiCond309) V4 load(1, XDATA, add(CFA_XSP16, literal(-10)))
          CFI (cfiCond309) V5 load(1, XDATA, add(CFA_XSP16, literal(-9)))
          CFI (cfiCond309) V6 load(1, XDATA, add(CFA_XSP16, literal(-8)))
          CFI (cfiCond309) V7 load(1, XDATA, add(CFA_XSP16, literal(-7)))
          CFI (cfiCond309) R7 load(1, XDATA, add(CFA_XSP16, literal(-6)))
          CFI (cfiCond309) ?RET_LOW load(1, XDATA, add(CFA_XSP16, literal(-5)))
          CFI (cfiCond309) ?RET_HIGH load(1, XDATA, add(CFA_XSP16, literal(-4)))
          CFI (cfiCond309) ?BRET_EXT load(1, XDATA, add(CFA_XSP16, literal(-3)))
          CFI (cfiCond309) DPL0 load(1, XDATA, add(CFA_XSP16, literal(-2)))
          CFI (cfiCond309) DPH0 load(1, XDATA, add(CFA_XSP16, literal(-1)))
          CFI (cfiCond309) CFA_SP SP+-2
          CFI (cfiCond309) CFA_XSP16 add(XSP16, 35)
          CFI Block cfiPicker310 Using cfiCommon1
          CFI (cfiPicker310) NoFunction
          CFI (cfiPicker310) Picker
        LCALL     ?Subroutine47 & 0xFFFF
??CrossCallReturnLabel_140:
        CLR       C
        SUBB      A,?V0
        MOV       R6,A
        INC       DPTR
        MOVX      A,@DPTR
        SUBB      A,?V1
        MOV       R7,A
        RET
          CFI EndBlock cfiCond308
          CFI EndBlock cfiCond309
          CFI EndBlock cfiPicker310

        RSEG BANKED_CODE:HUGECODE:NOROOT(0)
?Subroutine14:
          CFI Block cfiCond311 Using cfiCommon0
          CFI Function osal_nv_write
          CFI Conditional ??CrossCallReturnLabel_19
          CFI R6 load(1, XDATA, add(CFA_XSP16, literal(-16)))
          CFI VB load(1, XDATA, add(CFA_XSP16, literal(-15)))
          CFI V0 load(1, XDATA, add(CFA_XSP16, literal(-14)))
          CFI V1 load(1, XDATA, add(CFA_XSP16, literal(-13)))
          CFI V2 load(1, XDATA, add(CFA_XSP16, literal(-12)))
          CFI V3 load(1, XDATA, add(CFA_XSP16, literal(-11)))
          CFI V4 load(1, XDATA, add(CFA_XSP16, literal(-10)))
          CFI V5 load(1, XDATA, add(CFA_XSP16, literal(-9)))
          CFI V6 load(1, XDATA, add(CFA_XSP16, literal(-8)))
          CFI V7 load(1, XDATA, add(CFA_XSP16, literal(-7)))
          CFI R7 load(1, XDATA, add(CFA_XSP16, literal(-6)))
          CFI ?RET_LOW load(1, XDATA, add(CFA_XSP16, literal(-5)))
          CFI ?RET_HIGH load(1, XDATA, add(CFA_XSP16, literal(-4)))
          CFI ?BRET_EXT load(1, XDATA, add(CFA_XSP16, literal(-3)))
          CFI DPL0 load(1, XDATA, add(CFA_XSP16, literal(-2)))
          CFI DPH0 load(1, XDATA, add(CFA_XSP16, literal(-1)))
          CFI CFA_SP SP+-2
          CFI CFA_XSP16 add(XSP16, 37)
          CFI Block cfiCond312 Using cfiCommon0
          CFI (cfiCond312) Function osal_nv_write
          CFI (cfiCond312) Conditional ??CrossCallReturnLabel_20
          CFI (cfiCond312) R6 load(1, XDATA, add(CFA_XSP16, literal(-16)))
          CFI (cfiCond312) VB load(1, XDATA, add(CFA_XSP16, literal(-15)))
          CFI (cfiCond312) V0 load(1, XDATA, add(CFA_XSP16, literal(-14)))
          CFI (cfiCond312) V1 load(1, XDATA, add(CFA_XSP16, literal(-13)))
          CFI (cfiCond312) V2 load(1, XDATA, add(CFA_XSP16, literal(-12)))
          CFI (cfiCond312) V3 load(1, XDATA, add(CFA_XSP16, literal(-11)))
          CFI (cfiCond312) V4 load(1, XDATA, add(CFA_XSP16, literal(-10)))
          CFI (cfiCond312) V5 load(1, XDATA, add(CFA_XSP16, literal(-9)))
          CFI (cfiCond312) V6 load(1, XDATA, add(CFA_XSP16, literal(-8)))
          CFI (cfiCond312) V7 load(1, XDATA, add(CFA_XSP16, literal(-7)))
          CFI (cfiCond312) R7 load(1, XDATA, add(CFA_XSP16, literal(-6)))
          CFI (cfiCond312) ?RET_LOW load(1, XDATA, add(CFA_XSP16, literal(-5)))
          CFI (cfiCond312) ?RET_HIGH load(1, XDATA, add(CFA_XSP16, literal(-4)))
          CFI (cfiCond312) ?BRET_EXT load(1, XDATA, add(CFA_XSP16, literal(-3)))
          CFI (cfiCond312) DPL0 load(1, XDATA, add(CFA_XSP16, literal(-2)))
          CFI (cfiCond312) DPH0 load(1, XDATA, add(CFA_XSP16, literal(-1)))
          CFI (cfiCond312) CFA_SP SP+-2
          CFI (cfiCond312) CFA_XSP16 add(XSP16, 35)
          CFI Block cfiCond313 Using cfiCommon0
          CFI (cfiCond313) Function osal_nv_write
          CFI (cfiCond313) Conditional ??CrossCallReturnLabel_21
          CFI (cfiCond313) R6 load(1, XDATA, add(CFA_XSP16, literal(-16)))
          CFI (cfiCond313) VB load(1, XDATA, add(CFA_XSP16, literal(-15)))
          CFI (cfiCond313) V0 load(1, XDATA, add(CFA_XSP16, literal(-14)))
          CFI (cfiCond313) V1 load(1, XDATA, add(CFA_XSP16, literal(-13)))
          CFI (cfiCond313) V2 load(1, XDATA, add(CFA_XSP16, literal(-12)))
          CFI (cfiCond313) V3 load(1, XDATA, add(CFA_XSP16, literal(-11)))
          CFI (cfiCond313) V4 load(1, XDATA, add(CFA_XSP16, literal(-10)))
          CFI (cfiCond313) V5 load(1, XDATA, add(CFA_XSP16, literal(-9)))
          CFI (cfiCond313) V6 load(1, XDATA, add(CFA_XSP16, literal(-8)))
          CFI (cfiCond313) V7 load(1, XDATA, add(CFA_XSP16, literal(-7)))
          CFI (cfiCond313) R7 load(1, XDATA, add(CFA_XSP16, literal(-6)))
          CFI (cfiCond313) ?RET_LOW load(1, XDATA, add(CFA_XSP16, literal(-5)))
          CFI (cfiCond313) ?RET_HIGH load(1, XDATA, add(CFA_XSP16, literal(-4)))
          CFI (cfiCond313) ?BRET_EXT load(1, XDATA, add(CFA_XSP16, literal(-3)))
          CFI (cfiCond313) DPL0 load(1, XDATA, add(CFA_XSP16, literal(-2)))
          CFI (cfiCond313) DPH0 load(1, XDATA, add(CFA_XSP16, literal(-1)))
          CFI (cfiCond313) CFA_SP SP+-2
          CFI (cfiCond313) CFA_XSP16 add(XSP16, 35)
          CFI Block cfiPicker314 Using cfiCommon1
          CFI (cfiPicker314) NoFunction
          CFI (cfiPicker314) Picker
        LCALL     ?Subroutine46 & 0xFFFF
??CrossCallReturnLabel_85:
        MOV       A,R6
        MOV       R2,A
        MOV       A,R7
        MOV       R3,A
        MOV       R1,?V6
        RET
          CFI EndBlock cfiCond311
          CFI EndBlock cfiCond312
          CFI EndBlock cfiCond313
          CFI EndBlock cfiPicker314
// 1423 
// 1424 /*********************************************************************
// 1425  * @fn      osal_nv_read
// 1426  *
// 1427  * @brief   Read data from NV. This function can be used to read an entire item from NV or
// 1428  *          an element of an item by indexing into the item with an offset.
// 1429  *          Read data is copied into *buf.
// 1430  *
// 1431  * @param   id  - Valid NV item Id.
// 1432  * @param   ndx - Index offset into item
// 1433  * @param   len - Length of data to read.
// 1434  * @param  *buf - Data is read into this buffer.
// 1435  *
// 1436  * @return  SUCCESS if NV data was copied to the parameter 'buf'.
// 1437  *          Otherwise, NV_OPER_FAILED for failure.
// 1438  */

        RSEG BANKED_CODE:HUGECODE:NOROOT(0)
// 1439 uint8 osal_nv_read( uint16 id, uint16 ndx, uint16 len, void *buf )
osal_nv_read:
          CFI Block cfiBlock315 Using cfiCommon0
          CFI Function osal_nv_read
        CODE
// 1440 {
        FUNCALL osal_nv_read, hotItem
        LOCFRAME ISTACK, 0, STACK
        LOCFRAME PSTACK, 0, STACK
        LOCFRAME XSTACK, 16, STACK
        LOCFRAME IOVERLAY, 0, STATIC
        LOCFRAME DOVERLAY, 0, STATIC
        ARGFRAME ISTACK, 0, STACK
        ARGFRAME PSTACK, 0, STACK
        ARGFRAME XSTACK, 16, STACK
        ARGFRAME IOVERLAY, 0, STATIC
        ARGFRAME DOVERLAY, 0, STATIC
        FUNCALL osal_nv_read, HalFlashRead
        LOCFRAME ISTACK, 0, STACK
        LOCFRAME PSTACK, 0, STACK
        LOCFRAME XSTACK, 18, STACK
        LOCFRAME IOVERLAY, 0, STATIC
        LOCFRAME DOVERLAY, 0, STATIC
        ARGFRAME ISTACK, 0, STACK
        ARGFRAME PSTACK, 0, STACK
        ARGFRAME XSTACK, 18, STACK
        ARGFRAME IOVERLAY, 0, STATIC
        ARGFRAME DOVERLAY, 0, STATIC
        FUNCALL osal_nv_read, findItem
        LOCFRAME ISTACK, 0, STACK
        LOCFRAME PSTACK, 0, STACK
        LOCFRAME XSTACK, 16, STACK
        LOCFRAME IOVERLAY, 0, STATIC
        LOCFRAME DOVERLAY, 0, STATIC
        ARGFRAME ISTACK, 0, STACK
        ARGFRAME PSTACK, 0, STACK
        ARGFRAME XSTACK, 16, STACK
        ARGFRAME IOVERLAY, 0, STATIC
        ARGFRAME DOVERLAY, 0, STATIC
        FUNCALL osal_nv_read, HalFlashRead
        LOCFRAME ISTACK, 0, STACK
        LOCFRAME PSTACK, 0, STACK
        LOCFRAME XSTACK, 18, STACK
        LOCFRAME IOVERLAY, 0, STATIC
        LOCFRAME DOVERLAY, 0, STATIC
        ARGFRAME ISTACK, 0, STACK
        ARGFRAME PSTACK, 0, STACK
        ARGFRAME XSTACK, 18, STACK
        ARGFRAME IOVERLAY, 0, STATIC
        ARGFRAME DOVERLAY, 0, STATIC
        REQUIRE ?V0
        REQUIRE ?V1
        REQUIRE ?V2
        REQUIRE ?V3
        REQUIRE ?V4
        REQUIRE ?V5
        REQUIRE ?V6
        REQUIRE ?V7
        MOV       A,#-0x10
        LCALL     ?BANKED_ENTER_XDATA
          CFI DPH0 load(1, XDATA, add(CFA_XSP16, literal(-1)))
          CFI DPL0 load(1, XDATA, add(CFA_XSP16, literal(-2)))
          CFI ?BRET_EXT load(1, XDATA, add(CFA_XSP16, literal(-3)))
          CFI ?RET_HIGH load(1, XDATA, add(CFA_XSP16, literal(-4)))
          CFI ?RET_LOW load(1, XDATA, add(CFA_XSP16, literal(-5)))
          CFI R7 load(1, XDATA, add(CFA_XSP16, literal(-6)))
          CFI V7 load(1, XDATA, add(CFA_XSP16, literal(-7)))
          CFI V6 load(1, XDATA, add(CFA_XSP16, literal(-8)))
          CFI V5 load(1, XDATA, add(CFA_XSP16, literal(-9)))
          CFI V4 load(1, XDATA, add(CFA_XSP16, literal(-10)))
          CFI V3 load(1, XDATA, add(CFA_XSP16, literal(-11)))
          CFI V2 load(1, XDATA, add(CFA_XSP16, literal(-12)))
          CFI V1 load(1, XDATA, add(CFA_XSP16, literal(-13)))
          CFI V0 load(1, XDATA, add(CFA_XSP16, literal(-14)))
          CFI VB load(1, XDATA, add(CFA_XSP16, literal(-15)))
          CFI R6 load(1, XDATA, add(CFA_XSP16, literal(-16)))
          CFI CFA_SP SP+0
          CFI CFA_XSP16 add(XSP16, 16)
        ; Saved register size: 16
        ; Auto size: 0
        MOV       ?V0,R2
        MOV       ?V1,R3
        MOV       ?V4,R4
        MOV       ?V5,R5
// 1441   uint16 offset;
// 1442   uint8 hotIdx;
// 1443 
// 1444   if ((hotIdx = hotItem(id)) < OSAL_NV_MAX_HOT)
        ; Setup parameters for call to function hotItem
        LCALL     `??hotItem::?relay`; Banked call to: hotItem
        MOV       A,R1
        MOV       R0,A
        MOV       A,#0x10
        LCALL     ?XSTACK_DISP0_8
        MOVX      A,@DPTR
        MOV       R6,A
        INC       DPTR
        MOVX      A,@DPTR
        MOV       R7,A
        MOV       A,#0x12
        LCALL     ?XSTACK_DISP0_8
        MOVX      A,@DPTR
        MOV       ?V2,A
        INC       DPTR
        MOVX      A,@DPTR
        MOV       ?V3,A
        MOV       A,R1
        CLR       C
        SUBB      A,#0x3
        JNC       ??osal_nv_read_0
// 1445   {
// 1446     HalFlashRead(hotPg[hotIdx], hotOff[hotIdx]+ndx, buf, len);
        MOV       A,R1
        MOV       ?V0,A
        ; Setup parameters for call to function HalFlashRead
        MOV       ?V6,R6
        MOV       ?V7,R7
        MOV       R0,#?V6
        LCALL     ?PUSH_XSTACK_I_TWO
          CFI CFA_XSP16 add(XSP16, 18)
        MOV       R4,?V2
        MOV       R5,?V3
        LCALL     ?Subroutine48 & 0xFFFF
// 1447     return SUCCESS;
// 1448   }
??CrossCallReturnLabel_90:
        MOVX      A,@DPTR
        ADD       A,?V4
        MOV       R2,A
        INC       DPTR
        MOVX      A,@DPTR
        ADDC      A,?V5
        MOV       R3,A
        MOV       A,#hotPg & 0xff
        ADD       A,?V0
        MOV       DPL,A
        CLR       A
        ADDC      A,#(hotPg >> 8) & 0xff
        MOV       DPH,A
        SJMP      ??osal_nv_read_1
          CFI CFA_XSP16 add(XSP16, 16)
// 1449 
// 1450   if ((offset = findItem(id)) == OSAL_NV_ITEM_NULL)
??osal_nv_read_0:
        ; Setup parameters for call to function findItem
        MOV       R2,?V0
        MOV       R3,?V1
        LCALL     ??Subroutine66_0 & 0xFFFF
??CrossCallReturnLabel_147:
        JNZ       ??osal_nv_read_2
// 1451   {
// 1452     return NV_OPER_FAILED;
        MOV       R1,#0xa
        SJMP      ??osal_nv_read_3
// 1453   }
// 1454   else
// 1455   {
// 1456     HalFlashRead(findPg, offset+ndx, buf, len);
??osal_nv_read_2:
        ; Setup parameters for call to function HalFlashRead
        MOV       ?V0,R6
        MOV       ?V1,R7
        MOV       R0,#?V0
        LCALL     ?PUSH_XSTACK_I_TWO
          CFI CFA_XSP16 add(XSP16, 18)
        MOV       R4,?V2
        MOV       R5,?V3
        MOV       A,R2
        ADD       A,?V4
        MOV       R2,A
        MOV       A,R3
        ADDC      A,?V5
        MOV       R3,A
        MOV       DPTR,#findPg
??osal_nv_read_1:
        LCALL     ?Subroutine11 & 0xFFFF
??CrossCallReturnLabel_122:
        LCALL     ?DEALLOC_XSTACK8
          CFI CFA_XSP16 add(XSP16, 16)
// 1457     return SUCCESS;
        MOV       R1,#0x0
// 1458   }
??osal_nv_read_3:
        LJMP      ??Subroutine63_0 & 0xFFFF
// 1459 }
          CFI EndBlock cfiBlock315
// 1460 
// 1461 /*********************************************************************
// 1462  * @fn      osal_nv_delete
// 1463  *
// 1464  * @brief   Delete item from NV. This function will fail if the length
// 1465  *          parameter does not match the length of the item in NV.
// 1466  *
// 1467  * @param   id  - Valid NV item Id.
// 1468  * @param   len - Length of item to delete.
// 1469  *
// 1470  * @return  SUCCESS if item was deleted,
// 1471  *          NV_ITEM_UNINIT if item did not exist in NV,
// 1472  *          NV_BAD_ITEM_LEN if length parameter not correct,
// 1473  *          NV_OPER_FAILED if attempted deletion failed.
// 1474  */

        RSEG BANKED_CODE:HUGECODE:NOROOT(0)
// 1475 uint8 osal_nv_delete( uint16 id, uint16 len )
osal_nv_delete:
          CFI Block cfiBlock316 Using cfiCommon0
          CFI Function osal_nv_delete
        CODE
// 1476 {
        FUNCALL osal_nv_delete, findItem
        LOCFRAME ISTACK, 0, STACK
        LOCFRAME PSTACK, 0, STACK
        LOCFRAME XSTACK, 14, STACK
        LOCFRAME IOVERLAY, 0, STATIC
        LOCFRAME DOVERLAY, 0, STATIC
        ARGFRAME ISTACK, 0, STACK
        ARGFRAME PSTACK, 0, STACK
        ARGFRAME XSTACK, 14, STACK
        ARGFRAME IOVERLAY, 0, STATIC
        ARGFRAME DOVERLAY, 0, STATIC
        FUNCALL osal_nv_delete, osal_nv_item_len
        LOCFRAME ISTACK, 0, STACK
        LOCFRAME PSTACK, 0, STACK
        LOCFRAME XSTACK, 14, STACK
        LOCFRAME IOVERLAY, 0, STATIC
        LOCFRAME DOVERLAY, 0, STATIC
        ARGFRAME ISTACK, 0, STACK
        ARGFRAME PSTACK, 0, STACK
        ARGFRAME XSTACK, 14, STACK
        ARGFRAME IOVERLAY, 0, STATIC
        ARGFRAME DOVERLAY, 0, STATIC
        FUNCALL osal_nv_delete, setItem
        LOCFRAME ISTACK, 0, STACK
        LOCFRAME PSTACK, 0, STACK
        LOCFRAME XSTACK, 14, STACK
        LOCFRAME IOVERLAY, 0, STATIC
        LOCFRAME DOVERLAY, 0, STATIC
        ARGFRAME ISTACK, 0, STACK
        ARGFRAME PSTACK, 0, STACK
        ARGFRAME XSTACK, 14, STACK
        ARGFRAME IOVERLAY, 0, STATIC
        ARGFRAME DOVERLAY, 0, STATIC
        FUNCALL osal_nv_delete, findItem
        LOCFRAME ISTACK, 0, STACK
        LOCFRAME PSTACK, 0, STACK
        LOCFRAME XSTACK, 14, STACK
        LOCFRAME IOVERLAY, 0, STATIC
        LOCFRAME DOVERLAY, 0, STATIC
        ARGFRAME ISTACK, 0, STACK
        ARGFRAME PSTACK, 0, STACK
        ARGFRAME XSTACK, 14, STACK
        ARGFRAME IOVERLAY, 0, STATIC
        ARGFRAME DOVERLAY, 0, STATIC
        REQUIRE ?V0
        REQUIRE ?V1
        REQUIRE ?V2
        REQUIRE ?V3
        REQUIRE ?V4
        REQUIRE ?V5
        MOV       A,#-0xe
        LCALL     ?BANKED_ENTER_XDATA
          CFI DPH0 load(1, XDATA, add(CFA_XSP16, literal(-1)))
          CFI DPL0 load(1, XDATA, add(CFA_XSP16, literal(-2)))
          CFI ?BRET_EXT load(1, XDATA, add(CFA_XSP16, literal(-3)))
          CFI ?RET_HIGH load(1, XDATA, add(CFA_XSP16, literal(-4)))
          CFI ?RET_LOW load(1, XDATA, add(CFA_XSP16, literal(-5)))
          CFI R7 load(1, XDATA, add(CFA_XSP16, literal(-6)))
          CFI V5 load(1, XDATA, add(CFA_XSP16, literal(-7)))
          CFI V4 load(1, XDATA, add(CFA_XSP16, literal(-8)))
          CFI V3 load(1, XDATA, add(CFA_XSP16, literal(-9)))
          CFI V2 load(1, XDATA, add(CFA_XSP16, literal(-10)))
          CFI V1 load(1, XDATA, add(CFA_XSP16, literal(-11)))
          CFI V0 load(1, XDATA, add(CFA_XSP16, literal(-12)))
          CFI VB load(1, XDATA, add(CFA_XSP16, literal(-13)))
          CFI R6 load(1, XDATA, add(CFA_XSP16, literal(-14)))
          CFI CFA_SP SP+0
          CFI CFA_XSP16 add(XSP16, 14)
        ; Saved register size: 14
        ; Auto size: 0
        MOV       A,R2
        MOV       R6,A
        MOV       A,R3
        MOV       R7,A
        MOV       ?V2,R4
        MOV       ?V3,R5
// 1477   uint16 length;
// 1478   uint16 offset;
// 1479 
// 1480   offset = findItem( id );
        ; Setup parameters for call to function findItem
        LCALL     `??findItem::?relay`; Banked call to: findItem
        MOV       ?V0,R2
        MOV       ?V1,R3
// 1481   if ( offset == OSAL_NV_ITEM_NULL )
        MOV       A,R2
        ORL       A,R3
        JNZ       ??osal_nv_delete_0
// 1482   {
// 1483     // NV item does not exist
// 1484     return NV_ITEM_UNINIT;
        MOV       R1,#0x9
        SJMP      ??osal_nv_delete_1
// 1485   }
// 1486 
// 1487   length = osal_nv_item_len( id );
// 1488   if ( length != len )
??osal_nv_delete_0:
        ; Setup parameters for call to function osal_nv_item_len
        MOV       A,R6
        MOV       R2,A
        MOV       A,R7
        MOV       R3,A
        LCALL     `??osal_nv_item_len::?relay`; Banked call to: osal_nv_item_len
        MOV       A,?V2
        XRL       A,R2
        JNZ       ??osal_nv_delete_2
        MOV       A,?V3
        XRL       A,R3
??osal_nv_delete_2:
        JZ        ??osal_nv_delete_3
// 1489   {
// 1490     // NV item has different length
// 1491     return NV_BAD_ITEM_LEN;
        MOV       R1,#0xc
        SJMP      ??osal_nv_delete_1
// 1492   }
// 1493 
// 1494   // Set item header ID to zero to 'delete' the item
// 1495   setItem( findPg, offset, eNvZero );
??osal_nv_delete_3:
        ; Setup parameters for call to function setItem
        MOV       R4,#0x1
        MOV       R2,?V0
        MOV       R3,?V1
        LCALL     ?Subroutine24 & 0xFFFF
// 1496 
// 1497   // Verify that item has been removed
// 1498   offset = findItem( id );
// 1499   if ( offset != OSAL_NV_ITEM_NULL )
??CrossCallReturnLabel_93:
        ; Setup parameters for call to function findItem
        LCALL     ?Subroutine42 & 0xFFFF
??CrossCallReturnLabel_145:
        JZ        ??osal_nv_delete_4
// 1500   {
// 1501     // Still there
// 1502     return NV_OPER_FAILED;
        MOV       R1,#0xa
        SJMP      ??osal_nv_delete_1
// 1503   }
// 1504   else
// 1505   {
// 1506     // Yes, it's gone
// 1507     return SUCCESS;
??osal_nv_delete_4:
        MOV       R1,#0x0
// 1508   }
??osal_nv_delete_1:
        LJMP      ?Subroutine4 & 0xFFFF
// 1509 }
          CFI EndBlock cfiBlock316

        RSEG BANK_RELAYS:CODE:REORDER:NOROOT(0)
`??initNV::?relay`:
        CODE
        LCALL   ?BDISPATCH
        DATA24
        DC24    initNV

        RSEG BANK_RELAYS:CODE:REORDER:NOROOT(0)
`??setPageUse::?relay`:
        CODE
        LCALL   ?BDISPATCH
        DATA24
        DC24    setPageUse

        RSEG BANK_RELAYS:CODE:REORDER:NOROOT(0)
`??initPage::?relay`:
        CODE
        LCALL   ?BDISPATCH
        DATA24
        DC24    initPage

        RSEG BANK_RELAYS:CODE:REORDER:NOROOT(0)
`??erasePage::?relay`:
        CODE
        LCALL   ?BDISPATCH
        DATA24
        DC24    erasePage

        RSEG BANK_RELAYS:CODE:REORDER:NOROOT(0)
`??compactPage::?relay`:
        CODE
        LCALL   ?BDISPATCH
        DATA24
        DC24    compactPage

        RSEG BANK_RELAYS:CODE:REORDER:NOROOT(0)
`??findItem::?relay`:
        CODE
        LCALL   ?BDISPATCH
        DATA24
        DC24    findItem

        RSEG BANK_RELAYS:CODE:REORDER:NOROOT(0)
`??initItem::?relay`:
        CODE
        LCALL   ?BDISPATCH
        DATA24
        DC24    initItem

        RSEG BANK_RELAYS:CODE:REORDER:NOROOT(0)
`??setItem::?relay`:
        CODE
        LCALL   ?BDISPATCH
        DATA24
        DC24    setItem

        RSEG BANK_RELAYS:CODE:REORDER:NOROOT(0)
`??setChk::?relay`:
        CODE
        LCALL   ?BDISPATCH
        DATA24
        DC24    setChk

        RSEG BANK_RELAYS:CODE:REORDER:NOROOT(0)
`??calcChkF::?relay`:
        CODE
        LCALL   ?BDISPATCH
        DATA24
        DC24    calcChkF

        RSEG BANK_RELAYS:CODE:REORDER:NOROOT(0)
`??writeWord::?relay`:
        CODE
        LCALL   ?BDISPATCH
        DATA24
        DC24    writeWord

        RSEG BANK_RELAYS:CODE:REORDER:NOROOT(0)
`??writeWordH::?relay`:
        CODE
        LCALL   ?BDISPATCH
        DATA24
        DC24    writeWordH

        RSEG BANK_RELAYS:CODE:REORDER:NOROOT(0)
`??writeBuf::?relay`:
        CODE
        LCALL   ?BDISPATCH
        DATA24
        DC24    writeBuf

        RSEG BANK_RELAYS:CODE:REORDER:NOROOT(0)
`??xferBuf::?relay`:
        CODE
        LCALL   ?BDISPATCH
        DATA24
        DC24    xferBuf

        RSEG BANK_RELAYS:CODE:REORDER:NOROOT(0)
`??writeItem::?relay`:
        CODE
        LCALL   ?BDISPATCH
        DATA24
        DC24    writeItem

        RSEG BANK_RELAYS:CODE:REORDER:NOROOT(0)
`??hotItem::?relay`:
        CODE
        LCALL   ?BDISPATCH
        DATA24
        DC24    hotItem

        RSEG BANK_RELAYS:CODE:REORDER:NOROOT(0)
`??hotItemUpdate::?relay`:
        CODE
        LCALL   ?BDISPATCH
        DATA24
        DC24    hotItemUpdate

        RSEG BANK_RELAYS:CODE:REORDER:NOROOT(0)
`??osal_nv_init::?relay`:
        CODE
        LCALL   ?BDISPATCH
        DATA24
        DC24    osal_nv_init

        RSEG BANK_RELAYS:CODE:REORDER:NOROOT(0)
`??osal_nv_item_init::?relay`:
        CODE
        LCALL   ?BDISPATCH
        DATA24
        DC24    osal_nv_item_init

        RSEG BANK_RELAYS:CODE:REORDER:NOROOT(0)
`??osal_nv_item_len::?relay`:
        CODE
        LCALL   ?BDISPATCH
        DATA24
        DC24    osal_nv_item_len

        RSEG BANK_RELAYS:CODE:REORDER:NOROOT(0)
`??osal_nv_write::?relay`:
        CODE
        LCALL   ?BDISPATCH
        DATA24
        DC24    osal_nv_write

        RSEG BANK_RELAYS:CODE:REORDER:NOROOT(0)
`??osal_nv_read::?relay`:
        CODE
        LCALL   ?BDISPATCH
        DATA24
        DC24    osal_nv_read

        RSEG BANK_RELAYS:CODE:REORDER:NOROOT(0)
`??osal_nv_delete::?relay`:
        CODE
        LCALL   ?BDISPATCH
        DATA24
        DC24    osal_nv_delete

        END
// 1510 
// 1511 /*********************************************************************
// 1512  */
// 
//  5 302 bytes in segment BANKED_CODE
//    138 bytes in segment BANK_RELAYS
//      6 bytes in segment XDATA_ROM_C
//     35 bytes in segment XDATA_Z
// 12 288 bytes in segment ZIGNV_ADDRESS_SPACE
// 
//    138 bytes of CODE     memory
//      6 bytes of CONST    memory
//  5 302 bytes of HUGECODE memory
// 12 323 bytes of XDATA    memory
//
//Errors: none
//Warnings: none
