###############################################################################
#
# IAR C/C++ Compiler V10.20.1.5333 for 8051               28/Apr/2026  20:22:12
# Copyright 2004-2018 IAR Systems AB.
# PC-locked license - IAR Embedded Workbench for 8051
#
#    Core               =  plain
#    Code model         =  banked
#    Data model         =  large
#    Calling convention =  xdata reentrant
#    Constant location  =  data_rom
#    Dptr setup         =  1,16
#                          
#    Source file        =  
#        E:\BaiduNetdiskDownload\´đ°¸\ĘµŃéČý ZigBee´úÂë\Z-Stack 3.0.1\Z-Stack
#        3.0.1\Components\osal\mcu\cc2530\OSAL_Nv.c
#    Command line       =  
#        -f C:\Users\ZH\AppData\Local\Temp\EW571D.tmp
#        ("E:\BaiduNetdiskDownload\´đ°¸\ĘµŃéČý ZigBee´úÂë\Z-Stack 3.0.1\Z-Stack
#        3.0.1\Components\osal\mcu\cc2530\OSAL_Nv.c" -D SECURE=1 -D
#        TC_LINKKEY_JOIN -D NV_INIT -D NV_RESTORE -D xZTOOL_P1 -D xMT_TASK -D
#        xMT_APP_FUNC -D xMT_SYS_FUNC -D xMT_ZDO_FUNC -D xMT_ZDO_MGMT -D
#        xMT_APP_CNF_FUNC -D LCD_SUPPORTED=DEBUG -D MULTICAST_ENABLED=FALSE -D
#        ZCL_READ -D ZCL_DISCOVER -D ZCL_WRITE -D ZCL_BASIC -D ZCL_IDENTIFY -D
#        ZCL_ON_OFF -D ZCL_GROUPS -D ZCL_REPORT_DESTINATION_DEVICE -D
#        ZCL_REPORT -D HAL_LED=TRUE -D HAL_KEY=TRUE -D ISR_KEYINTERRUPT -D
#        HAL_UART=TRUE -D INT_HEAP_LEN=2300 -D HAL_LCD=TRUE -D
#        xHAL_LCD_OLED12864 -D HAL_ADC=TRUE -D HAL_UART=TRUE -D
#        INT_HEAP_LEN=2048 -lC "E:\BaiduNetdiskDownload\´đ°¸\ĘµŃéČý
#        ZigBee´úÂë\Z-Stack 3.0.1\Z-Stack
#        3.0.1\Projects\zstack\HomeAutomation\SampleSwitch\CC2530DB\CoordinatorEB\List"
#        -lA "E:\BaiduNetdiskDownload\´đ°¸\ĘµŃéČý ZigBee´úÂë\Z-Stack
#        3.0.1\Z-Stack
#        3.0.1\Projects\zstack\HomeAutomation\SampleSwitch\CC2530DB\CoordinatorEB\List"
#        --diag_suppress Pe001,Pa010 -o "E:\BaiduNetdiskDownload\´đ°¸\ĘµŃéČý
#        ZigBee´úÂë\Z-Stack 3.0.1\Z-Stack
#        3.0.1\Projects\zstack\HomeAutomation\SampleSwitch\CC2530DB\CoordinatorEB\Obj"
#        -e --debug --core=plain --dptr=16,1 --data_model=large
#        --code_model=banked --calling_convention=xdata_reentrant
#        --place_constants=data_rom --nr_virtual_regs 8 -f
#        "E:\BaiduNetdiskDownload\´đ°¸\ĘµŃéČý ZigBee´úÂë\Z-Stack 3.0.1\Z-Stack
#        3.0.1\Projects\zstack\HomeAutomation\SampleSwitch\CC2530DB\..\..\..\Tools\CC2530DB\f8wCoord.cfg"
#        (-DCPU32MHZ -DROOT=__near_func -DMAC_CFG_APP_PENDING_QUEUE=TRUE
#        -DMAC_CFG_TX_DATA_MAX=5 -DMAC_CFG_TX_MAX=8 -DMAC_CFG_RX_MAX=5
#        -DZDO_COORDINATOR -DRTR_NWK) -f "E:\BaiduNetdiskDownload\´đ°¸\ĘµŃéČý
#        ZigBee´úÂë\Z-Stack 3.0.1\Z-Stack
#        3.0.1\Projects\zstack\HomeAutomation\SampleSwitch\CC2530DB\..\..\..\Tools\CC2530DB\f8wConfig.cfg"
#        (-DZIGBEEPRO -DSECURE=1 -DZG_SECURE_DYNAMIC=0 -DREFLECTOR
#        -DDEFAULT_CHANLIST=0x00000800 -DZDAPP_CONFIG_PAN_ID=0xFFFF
#        -DNWK_START_DELAY=100 -DEXTENDED_JOINING_RANDOM_MASK=0x007F
#        -DBEACON_REQUEST_DELAY=100 -DBEACON_REQ_DELAY_MASK=0x00FF
#        -DLINK_STATUS_JITTER_MASK=0x007F -DROUTE_EXPIRY_TIME=30
#        -DAPSC_ACK_WAIT_DURATION_POLLED=3000 -DNWK_INDIRECT_MSG_TIMEOUT=7
#        -DMAX_RREQ_ENTRIES=8 -DAPSC_MAX_FRAME_RETRIES=3
#        -DNWK_MAX_DATA_RETRIES=2 -DMAX_POLL_FAILURE_RETRIES=2 -DMAX_BCAST=9
#        -DAPS_MAX_GROUPS=16 -DMAX_RTG_ENTRIES=40 -DNWK_MAX_BINDING_ENTRIES=4
#        -DMAX_BINDING_CLUSTER_IDS=4 -DDEFAULT_KEY={0} -DMAC_MAX_FRAME_SIZE=116
#        -DZDNWKMGR_MIN_TRANSMISSIONS=20 "-DCONST=const __code"
#        -DGENERIC=__generic -DRFD_RCVC_ALWAYS_ON=FALSE -DPOLL_RATE=1000
#        -DQUEUED_POLL_RATE=100 -DRESPONSE_POLL_RATE=100 -DREJOIN_POLL_RATE=440
#        -DREJOIN_BACKOFF=900000 -DREJOIN_SCAN=900000 -DENABLE_LED4_DISABLE_S1)
#        -f "E:\BaiduNetdiskDownload\´đ°¸\ĘµŃéČý ZigBee´úÂë\Z-Stack
#        3.0.1\Z-Stack
#        3.0.1\Projects\zstack\HomeAutomation\SampleSwitch\CC2530DB\..\..\..\Tools\CC2530DB\f8wZCL.cfg"
#        -I "E:\BaiduNetdiskDownload\´đ°¸\ĘµŃéČý ZigBee´úÂë\Z-Stack
#        3.0.1\Z-Stack
#        3.0.1\Projects\zstack\HomeAutomation\SampleSwitch\CC2530DB\" -I
#        "E:\BaiduNetdiskDownload\´đ°¸\ĘµŃéČý ZigBee´úÂë\Z-Stack 3.0.1\Z-Stack
#        3.0.1\Projects\zstack\HomeAutomation\SampleSwitch\CC2530DB\..\Source\"
#        -I "E:\BaiduNetdiskDownload\´đ°¸\ĘµŃéČý ZigBee´úÂë\Z-Stack
#        3.0.1\Z-Stack
#        3.0.1\Projects\zstack\HomeAutomation\SampleSwitch\CC2530DB\..\..\Source\"
#        -I "E:\BaiduNetdiskDownload\´đ°¸\ĘµŃéČý ZigBee´úÂë\Z-Stack
#        3.0.1\Z-Stack
#        3.0.1\Projects\zstack\HomeAutomation\SampleSwitch\CC2530DB\..\..\..\ZMain\TI2530DB\"
#        -I "E:\BaiduNetdiskDownload\´đ°¸\ĘµŃéČý ZigBee´úÂë\Z-Stack
#        3.0.1\Z-Stack
#        3.0.1\Projects\zstack\HomeAutomation\SampleSwitch\CC2530DB\..\..\..\..\..\Components\hal\include\"
#        -I "E:\BaiduNetdiskDownload\´đ°¸\ĘµŃéČý ZigBee´úÂë\Z-Stack
#        3.0.1\Z-Stack
#        3.0.1\Projects\zstack\HomeAutomation\SampleSwitch\CC2530DB\..\..\..\..\..\Components\hal\target\CC2530EB\"
#        -I "E:\BaiduNetdiskDownload\´đ°¸\ĘµŃéČý ZigBee´úÂë\Z-Stack
#        3.0.1\Z-Stack
#        3.0.1\Projects\zstack\HomeAutomation\SampleSwitch\CC2530DB\..\..\..\..\..\Components\mac\include\"
#        -I "E:\BaiduNetdiskDownload\´đ°¸\ĘµŃéČý ZigBee´úÂë\Z-Stack
#        3.0.1\Z-Stack
#        3.0.1\Projects\zstack\HomeAutomation\SampleSwitch\CC2530DB\..\..\..\..\..\Components\mac\high_level\"
#        -I "E:\BaiduNetdiskDownload\´đ°¸\ĘµŃéČý ZigBee´úÂë\Z-Stack
#        3.0.1\Z-Stack
#        3.0.1\Projects\zstack\HomeAutomation\SampleSwitch\CC2530DB\..\..\..\..\..\Components\mac\low_level\srf04\"
#        -I "E:\BaiduNetdiskDownload\´đ°¸\ĘµŃéČý ZigBee´úÂë\Z-Stack
#        3.0.1\Z-Stack
#        3.0.1\Projects\zstack\HomeAutomation\SampleSwitch\CC2530DB\..\..\..\..\..\Components\mac\low_level\srf04\single_chip\"
#        -I "E:\BaiduNetdiskDownload\´đ°¸\ĘµŃéČý ZigBee´úÂë\Z-Stack
#        3.0.1\Z-Stack
#        3.0.1\Projects\zstack\HomeAutomation\SampleSwitch\CC2530DB\..\..\..\..\..\Components\mt\"
#        -I "E:\BaiduNetdiskDownload\´đ°¸\ĘµŃéČý ZigBee´úÂë\Z-Stack
#        3.0.1\Z-Stack
#        3.0.1\Projects\zstack\HomeAutomation\SampleSwitch\CC2530DB\..\..\..\..\..\Components\osal\include\"
#        -I "E:\BaiduNetdiskDownload\´đ°¸\ĘµŃéČý ZigBee´úÂë\Z-Stack
#        3.0.1\Z-Stack
#        3.0.1\Projects\zstack\HomeAutomation\SampleSwitch\CC2530DB\..\..\..\..\..\Components\services\saddr\"
#        -I "E:\BaiduNetdiskDownload\´đ°¸\ĘµŃéČý ZigBee´úÂë\Z-Stack
#        3.0.1\Z-Stack
#        3.0.1\Projects\zstack\HomeAutomation\SampleSwitch\CC2530DB\..\..\..\..\..\Components\services\sdata\"
#        -I "E:\BaiduNetdiskDownload\´đ°¸\ĘµŃéČý ZigBee´úÂë\Z-Stack
#        3.0.1\Z-Stack
#        3.0.1\Projects\zstack\HomeAutomation\SampleSwitch\CC2530DB\..\..\..\..\..\Components\stack\af\"
#        -I "E:\BaiduNetdiskDownload\´đ°¸\ĘµŃéČý ZigBee´úÂë\Z-Stack
#        3.0.1\Z-Stack
#        3.0.1\Projects\zstack\HomeAutomation\SampleSwitch\CC2530DB\..\..\..\..\..\Components\stack\bdb\"
#        -I "E:\BaiduNetdiskDownload\´đ°¸\ĘµŃéČý ZigBee´úÂë\Z-Stack
#        3.0.1\Z-Stack
#        3.0.1\Projects\zstack\HomeAutomation\SampleSwitch\CC2530DB\..\..\..\..\..\Components\stack\gp\"
#        -I "E:\BaiduNetdiskDownload\´đ°¸\ĘµŃéČý ZigBee´úÂë\Z-Stack
#        3.0.1\Z-Stack
#        3.0.1\Projects\zstack\HomeAutomation\SampleSwitch\CC2530DB\..\..\..\..\..\Components\stack\nwk\"
#        -I "E:\BaiduNetdiskDownload\´đ°¸\ĘµŃéČý ZigBee´úÂë\Z-Stack
#        3.0.1\Z-Stack
#        3.0.1\Projects\zstack\HomeAutomation\SampleSwitch\CC2530DB\..\..\..\..\..\Components\stack\sapi\"
#        -I "E:\BaiduNetdiskDownload\´đ°¸\ĘµŃéČý ZigBee´úÂë\Z-Stack
#        3.0.1\Z-Stack
#        3.0.1\Projects\zstack\HomeAutomation\SampleSwitch\CC2530DB\..\..\..\..\..\Components\stack\sec\"
#        -I "E:\BaiduNetdiskDownload\´đ°¸\ĘµŃéČý ZigBee´úÂë\Z-Stack
#        3.0.1\Z-Stack
#        3.0.1\Projects\zstack\HomeAutomation\SampleSwitch\CC2530DB\..\..\..\..\..\Components\stack\sys\"
#        -I "E:\BaiduNetdiskDownload\´đ°¸\ĘµŃéČý ZigBee´úÂë\Z-Stack
#        3.0.1\Z-Stack
#        3.0.1\Projects\zstack\HomeAutomation\SampleSwitch\CC2530DB\..\..\..\..\..\Components\stack\zcl\"
#        -I "E:\BaiduNetdiskDownload\´đ°¸\ĘµŃéČý ZigBee´úÂë\Z-Stack
#        3.0.1\Z-Stack
#        3.0.1\Projects\zstack\HomeAutomation\SampleSwitch\CC2530DB\..\..\..\..\..\Components\stack\zdo\"
#        -I "E:\BaiduNetdiskDownload\´đ°¸\ĘµŃéČý ZigBee´úÂë\Z-Stack
#        3.0.1\Z-Stack
#        3.0.1\Projects\zstack\HomeAutomation\SampleSwitch\CC2530DB\..\..\..\..\..\Components\zmac\"
#        -I "E:\BaiduNetdiskDownload\´đ°¸\ĘµŃéČý ZigBee´úÂë\Z-Stack
#        3.0.1\Z-Stack
#        3.0.1\Projects\zstack\HomeAutomation\SampleSwitch\CC2530DB\..\..\..\..\..\Components\zmac\f8w\"
#        -I "E:\BaiduNetdiskDownload\´đ°¸\ĘµŃéČý ZigBee´úÂë\Z-Stack
#        3.0.1\Z-Stack
#        3.0.1\Projects\zstack\HomeAutomation\SampleSwitch\CC2530DB\..\..\..\..\..\Components\hal\target\CC2530EB\Common\"
#        -I "E:\BaiduNetdiskDownload\´đ°¸\ĘµŃéČý ZigBee´úÂë\Z-Stack
#        3.0.1\Z-Stack
#        3.0.1\Projects\zstack\HomeAutomation\SampleSwitch\CC2530DB\..\..\..\..\..\Components\hal\target\CC2530EB\SPI\"
#        -I "E:\BaiduNetdiskDownload\´đ°¸\ĘµŃéČý ZigBee´úÂë\Z-Stack
#        3.0.1\Z-Stack
#        3.0.1\Projects\zstack\HomeAutomation\SampleSwitch\CC2530DB\..\..\..\..\..\Components\hal\target\CC2530EB\HW_LCD\Font\"
#        -I "E:\BaiduNetdiskDownload\´đ°¸\ĘµŃéČý ZigBee´úÂë\Z-Stack
#        3.0.1\Z-Stack
#        3.0.1\Projects\zstack\HomeAutomation\SampleSwitch\CC2530DB\..\..\..\..\..\Components\hal\target\CC2530EB\HW_LCD\HAL_LCD_SPI\"
#        -I "E:\BaiduNetdiskDownload\´đ°¸\ĘµŃéČý ZigBee´úÂë\Z-Stack
#        3.0.1\Z-Stack
#        3.0.1\Projects\zstack\HomeAutomation\SampleSwitch\CC2530DB\..\..\..\..\..\Components\hal\target\CC2530EB\HW_LCD\HAL_OLED\"
#        -I "E:\BaiduNetdiskDownload\´đ°¸\ĘµŃéČý ZigBee´úÂë\Z-Stack
#        3.0.1\Z-Stack
#        3.0.1\Projects\zstack\HomeAutomation\SampleSwitch\CC2530DB\..\..\..\..\..\Components\hal\target\CC2530EB\HW_LCD\HAL_TFT\"
#        -Ohz --require_prototypes)
#    Locale             =  Chinese (Simplified)_CHN.936
#    List file          =  
#        E:\BaiduNetdiskDownload\´đ°¸\ĘµŃéČý ZigBee´úÂë\Z-Stack 3.0.1\Z-Stack
#        3.0.1\Projects\zstack\HomeAutomation\SampleSwitch\CC2530DB\CoordinatorEB\List\OSAL_Nv.lst
#    Object file        =  
#        E:\BaiduNetdiskDownload\´đ°¸\ĘµŃéČý ZigBee´úÂë\Z-Stack 3.0.1\Z-Stack
#        3.0.1\Projects\zstack\HomeAutomation\SampleSwitch\CC2530DB\CoordinatorEB\Obj\OSAL_Nv.r51
#
###############################################################################

E:\BaiduNetdiskDownload\´đ°¸\ĘµŃéČý ZigBee´úÂë\Z-Stack 3.0.1\Z-Stack 3.0.1\Components\osal\mcu\cc2530\OSAL_Nv.c
      1          /******************************************************************************
      2            Filename:       OSAL_Nv.c
      3            Revised:        $Date: 2014-12-19 13:07:30 -0800 (Fri, 19 Dec 2014) $
      4            Revision:       $Revision: 41556 $
      5          
      6            Description:    This module contains the OSAL non-volatile memory functions.
      7          
      8          
      9            Copyright 2006-2014 Texas Instruments Incorporated. All rights reserved.
     10          
     11            IMPORTANT: Your use of this Software is limited to those specific rights
     12            granted under the terms of a software license agreement between the user
     13            who downloaded the software, his/her employer (which must be your employer)
     14            and Texas Instruments Incorporated (the "License"). You may not use this
     15            Software unless you agree to abide by the terms of the License. The License
     16            limits your use, and you acknowledge, that the Software may not be modified,
     17            copied or distributed unless embedded on a Texas Instruments microcontroller
     18            or used solely and exclusively in conjunction with a Texas Instruments radio
     19            frequency transceiver, which is integrated into your product. Other than for
     20            the foregoing purpose, you may not use, reproduce, copy, prepare derivative
     21            works of, modify, distribute, perform, display or sell this Software and/or
     22            its documentation for any purpose.
     23          
     24            YOU FURTHER ACKNOWLEDGE AND AGREE THAT THE SOFTWARE AND DOCUMENTATION ARE
     25            PROVIDED “AS IS” WITHOUT WARRANTY OF ANY KIND, EITHER EXPRESS OR IMPLIED,
     26            INCLUDING WITHOUT LIMITATION, ANY WARRANTY OF MERCHANTABILITY, TITLE,
     27            NON-INFRINGEMENT AND FITNESS FOR A PARTICULAR PURPOSE. IN NO EVENT SHALL
     28            TEXAS INSTRUMENTS OR ITS LICENSORS BE LIABLE OR OBLIGATED UNDER CONTRACT,
     29            NEGLIGENCE, STRICT LIABILITY, CONTRIBUTION, BREACH OF WARRANTY, OR OTHER
     30            LEGAL EQUITABLE THEORY ANY DIRECT OR INDIRECT DAMAGES OR EXPENSES
     31            INCLUDING BUT NOT LIMITED TO ANY INCIDENTAL, SPECIAL, INDIRECT, PUNITIVE
     32            OR CONSEQUENTIAL DAMAGES, LOST PROFITS OR LOST DATA, COST OF PROCUREMENT
     33            OF SUBSTITUTE GOODS, TECHNOLOGY, SERVICES, OR ANY CLAIMS BY THIRD PARTIES
     34            (INCLUDING BUT NOT LIMITED TO ANY DEFENSE THEREOF), OR OTHER SIMILAR COSTS.
     35          
     36            Should you have any questions regarding your right to use this Software,
     37            contact Texas Instruments Incorporated at www.TI.com.
     38          ******************************************************************************/
     39          
     40          /******************************************************************************
     41            Notes:
     42              - A trick buried deep in initPage() requires that the MSB of the NV Item Id
     43                is to be reserved for use by this module.
     44          ******************************************************************************/
     45          
     46          /*********************************************************************
     47           * INCLUDES
     48           */
     49          
     50          #include "hal_adc.h"
     51          #include "hal_flash.h"
     52          #include "hal_types.h"
     53          #include "OSAL_Nv.h"
     54          #include "ZComDef.h"
     55          #ifdef HAL_MCU_CC2533
     56          #include "hal_batmon.h"
     57          #endif
     58          
     59          /*********************************************************************
     60           * CONSTANTS
     61           */
     62          
     63          #define OSAL_NV_PAGE_SIZE       HAL_FLASH_PAGE_SIZE
     64          #define OSAL_NV_PAGES_USED      HAL_NV_PAGE_CNT
     65          #define OSAL_NV_PAGE_BEG        HAL_NV_PAGE_BEG
     66          #define OSAL_NV_PAGE_END       (OSAL_NV_PAGE_BEG + OSAL_NV_PAGES_USED - 1)
     67          
     68          #define OSAL_NV_ACTIVE          0x00
     69          #define OSAL_NV_ERASED          0xFF
     70          #define OSAL_NV_ERASED_ID       0xFFFF
     71          #define OSAL_NV_ZEROED_ID       0x0000
     72          // Reserve MSB of Id to signal a search for the "old" source copy (new write interrupted/failed.)
     73          #define OSAL_NV_SOURCE_ID       0x8000
     74          
     75          // In case pages 0-1 are ever used, define a null page value.
     76          #define OSAL_NV_PAGE_NULL       0
     77          
     78          // In case item Id 0 is ever used, define a null item value.
     79          #define OSAL_NV_ITEM_NULL       0
     80          
     81          #define OSAL_NV_WORD_SIZE       HAL_FLASH_WORD_SIZE
     82          
     83          #define OSAL_NV_PAGE_HDR_OFFSET 0
     84          
     85          #define OSAL_NV_MAX_HOT         3

   \                                 In  segment XDATA_ROM_C, align 1
     86          static const uint16 hotIds[OSAL_NV_MAX_HOT] = {
   \                     hotIds:
   \   000000   8200         DW 130
   \   000002   3A00         DW 58
   \   000004   3B00         DW 59
     87            ZCD_NV_NWKKEY,
     88            ZCD_NV_NWK_ACTIVE_KEY_INFO,
     89            ZCD_NV_NWK_ALTERN_KEY_INFO,
     90          };
     91          
     92          /*********************************************************************
     93           * MACROS
     94           */
     95          
     96          #if (defined HAL_MCU_CC2530 || defined HAL_MCU_CC2531)
     97          #define OSAL_NV_CHECK_BUS_VOLTAGE  HalAdcCheckVdd(VDD_MIN_NV)
     98          #elif defined HAL_MCU_CC2533
     99          # define  OSAL_NV_CHECK_BUS_VOLTAGE  (HalBatMonRead( HAL_BATMON_MIN_FLASH ))
    100          #else
    101          # warning No implementation of a low Vdd check.
    102          # define  OSAL_NV_CHECK_BUS_VOLTAGE
    103          #endif
    104          
    105          #define OSAL_NV_DATA_SIZE( LEN )                      \
    106            (((LEN) >= ((uint16)(65536UL - OSAL_NV_WORD_SIZE))) ? \
    107                       ((uint16)(65536UL - OSAL_NV_WORD_SIZE))  : \
    108                       ((((LEN) + OSAL_NV_WORD_SIZE - 1) / OSAL_NV_WORD_SIZE) * OSAL_NV_WORD_SIZE))
    109          
    110          #define OSAL_NV_ITEM_SIZE( LEN )                                         \
    111            (((LEN) >= ((uint16)(65536UL - OSAL_NV_WORD_SIZE - OSAL_NV_HDR_SIZE))) ? \
    112                       ((uint16)(65536UL - OSAL_NV_WORD_SIZE))                     : \
    113            (((((LEN) + OSAL_NV_WORD_SIZE - 1) / OSAL_NV_WORD_SIZE) * OSAL_NV_WORD_SIZE) + OSAL_NV_HDR_SIZE))
    114          
    115          #define COMPACT_PAGE_CLEANUP( COM_PG ) st ( \
    116            /* In order to recover from a page compaction that is interrupted,\
    117             * the logic in osal_nv_init() depends upon the following order:\
    118             * 1. State of the target of compaction is changed to ePgInUse.\
    119             * 2. Compacted page is erased.\
    120             */\
    121            setPageUse( pgRes, TRUE );  /* Mark the reserve page as being in use. */\
    122            erasePage( (COM_PG) ); \
    123            \
    124            pgRes = (COM_PG);           /* Set the reserve page to be the newly erased page. */\
    125          )
    126          
    127          /*********************************************************************
    128           * TYPEDEFS
    129           */
    130          
    131          typedef struct
    132          {
    133            uint16 id;
    134            uint16 len;   // Enforce Flash-WORD size on len.
    135            uint16 chk;   // Byte-wise checksum of the 'len' data bytes of the item.
    136            uint16 stat;  // Item status.
    137          } osalNvHdr_t;
    138          // Struct member offsets.
    139          #define OSAL_NV_HDR_ID    0
    140          #define OSAL_NV_HDR_LEN   2
    141          #define OSAL_NV_HDR_CHK   4
    142          #define OSAL_NV_HDR_STAT  6
    143          
    144          #define OSAL_NV_HDR_ITEM  2  // Length of any item of a header struct.
    145          #define OSAL_NV_HDR_SIZE  8
    146          #define OSAL_NV_HDR_HALF (OSAL_NV_HDR_SIZE / 2)
    147          
    148          typedef struct
    149          {
    150            uint16 active;
    151            uint16 inUse;
    152            uint16 xfer;
    153            uint16 spare;
    154          } osalNvPgHdr_t;
    155          // Struct member offsets.
    156          #define OSAL_NV_PG_ACTIVE 0
    157          #define OSAL_NV_PG_INUSE  2
    158          #define OSAL_NV_PG_XFER   4
    159          #define OSAL_NV_PG_SPARE  6
    160          
    161          #define OSAL_NV_PAGE_HDR_SIZE  8
    162          #define OSAL_NV_PAGE_HDR_HALF (OSAL_NV_PAGE_HDR_SIZE / 2)
    163          
    164          typedef enum
    165          {
    166            eNvXfer,
    167            eNvZero
    168          } eNvHdrEnum;
    169          
    170          typedef enum
    171          {
    172            ePgActive,
    173            ePgInUse,
    174            ePgXfer,
    175            ePgSpare
    176          } ePgHdrEnum;
    177          
    178          /*********************************************************************
    179           * GLOBAL VARIABLES
    180           */
    181          
    182          #ifndef OAD_KEEP_NV_PAGES
    183          // When NV pages are to remain intact during OAD download,
    184          // the image itself should not include NV pages.
    185          #pragma location="ZIGNV_ADDRESS_SPACE"

   \                                 In  segment ZIGNV_ADDRESS_SPACE, align 1
    186          __no_init uint8 _nvBuf[OSAL_NV_PAGES_USED * OSAL_NV_PAGE_SIZE];
   \                     _nvBuf:
   \   000000                DS 12288
    187          #pragma required=_nvBuf
    188          #endif // OAD_KEEP_NV_PAGES
    189          
    190          /*********************************************************************
    191           * LOCAL VARIABLES
    192           */
    193          
    194          // Offset into the page of the first available erased space.

   \                                 In  segment XDATA_Z, align 1, keep-with-next
    195          static uint16 pgOff[OSAL_NV_PAGES_USED];
   \                     pgOff:
   \   000000                DS 12
   \   00000C                REQUIRE __INIT_XDATA_Z
   \   00000C                REQUIRE _nvBuf
    196          
    197          // Count of the bytes lost for the zeroed-out items.

   \                                 In  segment XDATA_Z, align 1, keep-with-next
    198          static uint16 pgLost[OSAL_NV_PAGES_USED];
   \                     pgLost:
   \   000000                DS 12
   \   00000C                REQUIRE __INIT_XDATA_Z
    199          

   \                                 In  segment XDATA_Z, align 1, keep-with-next
    200          static uint8 pgRes;  // Page reserved for item compacting transfer.
   \                     pgRes:
   \   000000                DS 1
   \   000001                REQUIRE __INIT_XDATA_Z
    201          
    202          // Saving ~100 code bytes to move a uint8* parameter/return value from findItem() to a global.

   \                                 In  segment XDATA_Z, align 1, keep-with-next
    203          static uint8 findPg;
   \                     findPg:
   \   000000                DS 1
   \   000001                REQUIRE __INIT_XDATA_Z
    204          
    205          // NV page and offsets for hot items.

   \                                 In  segment XDATA_Z, align 1, keep-with-next
    206          static uint8 hotPg[OSAL_NV_MAX_HOT];
   \                     hotPg:
   \   000000                DS 3
   \   000003                REQUIRE __INIT_XDATA_Z

   \                                 In  segment XDATA_Z, align 1, keep-with-next
    207          static uint16 hotOff[OSAL_NV_MAX_HOT];
   \                     hotOff:
   \   000000                DS 6
   \   000006                REQUIRE __INIT_XDATA_Z
    208          
    209          /*********************************************************************
    210           * LOCAL FUNCTIONS
    211           */
    212          
    213          static uint8  initNV( void );
    214          
    215          static void   setPageUse( uint8 pg, uint8 inUse );
    216          static uint16 initPage( uint8 pg, uint16 id, uint8 findDups );
    217          static void   erasePage( uint8 pg );
    218          static uint8  compactPage( uint8 srcPg, uint16 skipId );
    219          
    220          static uint16 findItem( uint16 id );
    221          static uint8  initItem( uint8 flag, uint16 id, uint16 len, void *buf );
    222          static void   setItem( uint8 pg, uint16 offset, eNvHdrEnum stat );
    223          static uint16 setChk( uint8 pg, uint16 offset, uint16 chk );
    224          
    225          static uint16 calcChkB( uint16 len, uint8 *buf );
    226          static uint16 calcChkF( uint8 pg, uint16 offset, uint16 len );
    227          
    228          static void   writeWord( uint8 pg, uint16 offset, uint8 *buf );
    229          static void   writeWordH( uint8 pg, uint16 offset, uint8 *buf );
    230          static void   writeWordM( uint8 pg, uint16 offset, uint8 *buf, uint16 cnt );
    231          static void   writeBuf( uint8 pg, uint16 offset, uint16 len, uint8 *buf );
    232          static void   xferBuf( uint8 srcPg, uint16 srcOff, uint8 dstPg, uint16 dstOff, uint16 len );
    233          
    234          static uint8  writeItem( uint8 pg, uint16 id, uint16 len, void *buf, uint8 flag );
    235          static uint8  hotItem(uint16 id);
    236          static void   hotItemUpdate(uint8 pg, uint16 off, uint16 id);
    237          
    238          /*********************************************************************
    239           * @fn      initNV
    240           *
    241           * @brief   Initialize the NV flash pages.
    242           *
    243           * @param   none
    244           *
    245           * @return  TRUE
    246           */

   \                                 In  segment BANKED_CODE, align 1, keep-with-next
    247          static uint8 initNV( void )
   \                     initNV:
    248          {
   \   000000                REQUIRE ?V0
   \   000000                REQUIRE ?V2
   \   000000                REQUIRE ?V3
   \   000000   74F4         MOV       A,#-0xc
   \   000002   12....       LCALL     ?BANKED_ENTER_XDATA
   \   000005                ; Saved register size: 12
   \   000005                ; Auto size: 8
   \   000005   74F8         MOV       A,#-0x8
   \   000007   12....       LCALL     ?ALLOC_XSTACK8
    249            osalNvPgHdr_t pgHdr;
    250            uint8 oldPg = OSAL_NV_PAGE_NULL;
   \   00000A   75..00       MOV       ?V0,#0x0
    251            uint8 findDups = FALSE;
   \   00000D   7F00         MOV       R7,#0x0
    252            uint8 pg;
    253          
    254            pgRes = OSAL_NV_PAGE_NULL;
   \   00000F   90....       MOV       DPTR,#pgRes
   \   000012   E4           CLR       A
   \   000013   F0           MOVX      @DPTR,A
    255          
    256            for ( pg = OSAL_NV_PAGE_BEG; pg <= OSAL_NV_PAGE_END; pg++ )
   \   000014   7E79         MOV       R6,#0x79
    257            {
    258              HalFlashRead(pg, OSAL_NV_PAGE_HDR_OFFSET, (uint8 *)(&pgHdr), OSAL_NV_HDR_SIZE);
   \                     ??initNV_0:
   \   000016                ; Setup parameters for call to function HalFlashRead
   \   000016   75..08       MOV       ?V2,#0x8
   \   000019   8F..         MOV       ?V3,R7
   \   00001B   78..         MOV       R0,#?V2
   \   00001D   12....       LCALL     ?PUSH_XSTACK_I_TWO
   \   000020   7402         MOV       A,#0x2
   \   000022   12....       LCALL     ?XSTACK_DISP102_8
   \   000025   7A00         MOV       R2,#0x0
   \   000027   7B00         MOV       R3,#0x0
   \   000029   EE           MOV       A,R6
   \   00002A   12....       LCALL     ??Subroutine60_0 & 0xFFFF
   \                     ??CrossCallReturnLabel_123:
   \   00002D   12....       LCALL     ?DEALLOC_XSTACK8
    259          
    260              if ( pgHdr.active == OSAL_NV_ERASED_ID )
   \   000030   85..82       MOV       DPL,?XSP + 0
   \   000033   85..83       MOV       DPH,?XSP + 1
   \   000036   E0           MOVX      A,@DPTR
   \   000037   F4           CPL       A
   \   000038   7003         JNZ       ??initNV_1
   \   00003A   A3           INC       DPTR
   \   00003B   E0           MOVX      A,@DPTR
   \   00003C   F4           CPL       A
   \                     ??initNV_1:
   \   00003D   7013         JNZ       ??initNV_2
    261              {
    262                if ( pgRes == OSAL_NV_PAGE_NULL )
   \   00003F   90....       MOV       DPTR,#pgRes
   \   000042   E0           MOVX      A,@DPTR
   \   000043   7004         JNZ       ??initNV_3
    263                {
    264                  pgRes = pg;
   \   000045   EE           MOV       A,R6
   \   000046   F0           MOVX      @DPTR,A
   \   000047   8019         SJMP      ??initNV_4
    265                }
    266                else
    267                {
    268                  setPageUse( pg, TRUE );
   \                     ??initNV_3:
   \   000049                ; Setup parameters for call to function setPageUse
   \   000049   7A01         MOV       R2,#0x1
   \   00004B   EE           MOV       A,R6
   \   00004C   F9           MOV       R1,A
   \   00004D   12....       LCALL     `??setPageUse::?relay`; Banked call to: setPageUse
   \   000050   8010         SJMP      ??initNV_4
    269                }
    270              }
    271              // An Xfer from this page was in progress.
    272              else if ( pgHdr.xfer != OSAL_NV_ERASED_ID )
   \                     ??initNV_2:
   \   000052   7404         MOV       A,#0x4
   \   000054   12....       LCALL     ?XSTACK_DISP0_8
   \   000057   E0           MOVX      A,@DPTR
   \   000058   F4           CPL       A
   \   000059   7003         JNZ       ??initNV_5
   \   00005B   A3           INC       DPTR
   \   00005C   E0           MOVX      A,@DPTR
   \   00005D   F4           CPL       A
   \                     ??initNV_5:
   \   00005E   6002         JZ        ??initNV_4
    273              {
    274                oldPg = pg;
   \   000060   8E..         MOV       ?V0,R6
    275              }
    276            }
   \                     ??initNV_4:
   \   000062   0E           INC       R6
   \   000063   EE           MOV       A,R6
   \   000064   C3           CLR       C
   \   000065   947F         SUBB      A,#0x7f
   \   000067   40AD         JC        ??initNV_0
    277          
    278            // If a page compaction was interrupted before the old page was erased.
    279            if ( oldPg != OSAL_NV_PAGE_NULL )
   \   000069   E5..         MOV       A,?V0
   \   00006B   90....       MOV       DPTR,#pgRes
   \   00006E   601F         JZ        ??initNV_6
    280            {
    281              /* Interrupted compaction before the target of compaction was put in use;
    282               * so erase the target of compaction and start again.
    283               */
    284              if ( pgRes != OSAL_NV_PAGE_NULL )
   \   000070   E0           MOVX      A,@DPTR
   \   000071   600F         JZ        ??initNV_7
    285              {
    286                erasePage( pgRes );
   \   000073                ; Setup parameters for call to function erasePage
   \   000073   F9           MOV       R1,A
   \   000074   12....       LCALL     `??erasePage::?relay`; Banked call to: erasePage
    287                (void)compactPage( oldPg, OSAL_NV_ITEM_NULL );
   \   000077                ; Setup parameters for call to function compactPage
   \   000077   7A00         MOV       R2,#0x0
   \   000079   7B00         MOV       R3,#0x0
   \   00007B   A9..         MOV       R1,?V0
   \   00007D   12....       LCALL     `??compactPage::?relay`; Banked call to: compactPage
   \   000080   8014         SJMP      ??initNV_8
    288              }
    289              /* Interrupted compaction after the target of compaction was put in use,
    290               * but before the old page was erased; so erase it now and create a new reserve page.
    291               */
    292              else
    293              {
    294                erasePage( oldPg );
   \                     ??initNV_7:
   \   000082                ; Setup parameters for call to function erasePage
   \   000082   A9..         MOV       R1,?V0
   \   000084   12....       LCALL     `??erasePage::?relay`; Banked call to: erasePage
    295                pgRes = oldPg;
   \   000087   E5..         MOV       A,?V0
   \   000089   90....       MOV       DPTR,#pgRes
   \   00008C   F0           MOVX      @DPTR,A
   \   00008D   8007         SJMP      ??initNV_8
    296              }
    297            }
    298            else if ( pgRes != OSAL_NV_PAGE_NULL )
   \                     ??initNV_6:
   \   00008F   E0           MOVX      A,@DPTR
   \   000090   6004         JZ        ??initNV_8
    299            {
    300              erasePage( pgRes );  // The last page erase could have been interrupted by a power-cycle.
   \   000092                ; Setup parameters for call to function erasePage
   \   000092   F9           MOV       R1,A
   \   000093   12....       LCALL     `??erasePage::?relay`; Banked call to: erasePage
    301            }
    302            /* else if there is no reserve page, COMPACT_PAGE_CLEANUP() must have succeeded to put the old
    303             * reserve page (i.e. the target of the compacted items) into use but got interrupted by a reset
    304             * while trying to erase the page to be compacted. Such a page should only contain duplicate items
    305             * (i.e. all items will be marked 'Xfer') and thus should have the lost count equal to the page
    306             * size less the page header.
    307             */
    308          
    309            for ( pg = OSAL_NV_PAGE_BEG; pg <= OSAL_NV_PAGE_END; pg++ )
   \                     ??initNV_8:
   \   000096   7E79         MOV       R6,#0x79
    310            {
    311              // Calculate page offset and lost bytes - any "old" item triggers an N^2 re-scan from start.
    312              if ( initPage( pg, OSAL_NV_ITEM_NULL, findDups ) != OSAL_NV_ITEM_NULL )
   \                     ??initNV_9:
   \   000098                ; Setup parameters for call to function initPage
   \   000098   EF           MOV       A,R7
   \   000099   FC           MOV       R4,A
   \   00009A   7A00         MOV       R2,#0x0
   \   00009C   7B00         MOV       R3,#0x0
   \   00009E   EE           MOV       A,R6
   \   00009F   F9           MOV       R1,A
   \   0000A0   12....       LCALL     `??initPage::?relay`; Banked call to: initPage
   \   0000A3   EA           MOV       A,R2
   \   0000A4   4B           ORL       A,R3
   \   0000A5   6004         JZ        ??initNV_10
    313              {
    314                findDups = TRUE;
   \   0000A7   7F01         MOV       R7,#0x1
    315                pg = (OSAL_NV_PAGE_BEG - 1);  // Pre-decrement so that loop increment will start over at zero.
   \   0000A9   7E78         MOV       R6,#0x78
    316                continue;
    317              }
    318            }
   \                     ??initNV_10:
   \   0000AB   0E           INC       R6
   \   0000AC   EE           MOV       A,R6
   \   0000AD   C3           CLR       C
   \   0000AE   947F         SUBB      A,#0x7f
   \   0000B0   40E6         JC        ??initNV_9
    319          
    320            if (findDups)
   \   0000B2   EF           MOV       A,R7
   \   0000B3   A2E0         MOV       C,0xE0 /* A   */.0
   \   0000B5   5014         JNC       ??initNV_11
    321            {
    322              // Final pass to calculate page lost after invalidating duplicate items.
    323              for ( pg = OSAL_NV_PAGE_BEG; pg <= OSAL_NV_PAGE_END; pg++ )
   \   0000B7   7E79         MOV       R6,#0x79
    324              {
    325                (void)initPage( pg, OSAL_NV_ITEM_NULL, FALSE );
   \                     ??initNV_12:
   \   0000B9                ; Setup parameters for call to function initPage
   \   0000B9   7C00         MOV       R4,#0x0
   \   0000BB   7A00         MOV       R2,#0x0
   \   0000BD   7B00         MOV       R3,#0x0
   \   0000BF   EE           MOV       A,R6
   \   0000C0   F9           MOV       R1,A
   \   0000C1   12....       LCALL     `??initPage::?relay`; Banked call to: initPage
    326              }
   \   0000C4   0E           INC       R6
   \   0000C5   EE           MOV       A,R6
   \   0000C6   C3           CLR       C
   \   0000C7   947F         SUBB      A,#0x7f
   \   0000C9   40EE         JC        ??initNV_12
    327            }
    328          
    329            if ( pgRes == OSAL_NV_PAGE_NULL )
   \                     ??initNV_11:
   \   0000CB   90....       MOV       DPTR,#pgRes
   \   0000CE   E0           MOVX      A,@DPTR
   \   0000CF   703C         JNZ       ??initNV_13
    330            {
    331              uint8 idx, mostLost = 0;
   \   0000D1   7E00         MOV       R6,#0x0
    332          
    333              for ( idx = 0; idx < OSAL_NV_PAGES_USED; idx++ )
   \   0000D3   7C00         MOV       R4,#0x0
    334              {
    335                // Is this the page that was compacted?
    336                if (pgLost[idx] == (OSAL_NV_PAGE_SIZE - OSAL_NV_PAGE_HDR_SIZE))
   \                     ??initNV_14:
   \   0000D5   EC           MOV       A,R4
   \   0000D6   12....       LCALL     ?Subroutine30 & 0xFFFF
   \                     ??CrossCallReturnLabel_57:
   \   0000D9   12....       LCALL     ?Subroutine12 & 0xFFFF
   \                     ??CrossCallReturnLabel_160:
   \   0000DC   74F8         MOV       A,#-0x8
   \   0000DE   6A           XRL       A,R2
   \   0000DF   7003         JNZ       ??initNV_15
   \   0000E1   7407         MOV       A,#0x7
   \   0000E3   6B           XRL       A,R3
   \                     ??initNV_15:
   \   0000E4   7004         JNZ       ??initNV_16
    337                {
    338                  mostLost = idx;
   \   0000E6   EC           MOV       A,R4
   \   0000E7   FE           MOV       R6,A
    339                  break;
   \   0000E8   8018         SJMP      ??initNV_17
    340                }
    341                /* This check is not expected to be necessary because the above test should always succeed
    342                 * with an early loop exit.
    343                 */
    344                else if (pgLost[idx] > pgLost[mostLost])
   \                     ??initNV_16:
   \   0000EA   EE           MOV       A,R6
   \   0000EB   12....       LCALL     ?Subroutine30 & 0xFFFF
   \                     ??CrossCallReturnLabel_58:
   \   0000EE   39           ADDC      A,R1
   \   0000EF   F583         MOV       DPH,A
   \   0000F1   C3           CLR       C
   \   0000F2   E0           MOVX      A,@DPTR
   \   0000F3   9A           SUBB      A,R2
   \   0000F4   A3           INC       DPTR
   \   0000F5   E0           MOVX      A,@DPTR
   \   0000F6   9B           SUBB      A,R3
   \   0000F7   5002         JNC       ??initNV_18
    345                {
    346                  mostLost = idx;
   \   0000F9   EC           MOV       A,R4
   \   0000FA   FE           MOV       R6,A
    347                }
    348              }
   \                     ??initNV_18:
   \   0000FB   0C           INC       R4
   \   0000FC   EC           MOV       A,R4
   \   0000FD   C3           CLR       C
   \   0000FE   9406         SUBB      A,#0x6
   \   000100   40D3         JC        ??initNV_14
    349          
    350              pgRes = mostLost + OSAL_NV_PAGE_BEG;
   \                     ??initNV_17:
   \   000102   7479         MOV       A,#0x79
   \   000104   2E           ADD       A,R6
   \   000105   90....       MOV       DPTR,#pgRes
   \   000108   F0           MOVX      @DPTR,A
    351              erasePage( pgRes );  // The last page erase had been interrupted by a power-cycle.
   \   000109                ; Setup parameters for call to function erasePage
   \   000109   F9           MOV       R1,A
   \   00010A   12....       LCALL     `??erasePage::?relay`; Banked call to: erasePage
    352            }
    353          
    354            return TRUE;
   \                     ??initNV_13:
   \   00010D   7901         MOV       R1,#0x1
   \   00010F   7408         MOV       A,#0x8
   \   000111   80..         SJMP      ??Subroutine51_0
    355          }

   \                                 In  segment BANKED_CODE, align 1, keep-with-next
   \                     ?Subroutine30:
   \   000000   25E0         ADD       A,0xE0 /* A   */
   \   000002   F8           MOV       R0,A
   \   000003   E4           CLR       A
   \   000004   33           RLC       A
   \   000005   F9           MOV       R1,A
   \   000006   74..         MOV       A,#pgLost & 0xff
   \   000008   28           ADD       A,R0
   \   000009   F582         MOV       DPL,A
   \   00000B   74..         MOV       A,#(pgLost >> 8) & 0xff
   \   00000D   22           RET

   \                                 In  segment BANKED_CODE, align 1, keep-with-next
   \                     ??Subroutine51_0:
   \   000000   12....       LCALL     ?DEALLOC_XSTACK8
   \   000003                REQUIRE ??Subroutine52_0
   \   000003                ; // Fall through to label ??Subroutine52_0

   \                                 In  segment BANKED_CODE, align 1, keep-with-next
   \                     ??Subroutine52_0:
   \   000000   7F04         MOV       R7,#0x4
   \   000002   02....       LJMP      ?BANKED_LEAVE_XDATA

   \                                 In  segment BANKED_CODE, align 1, keep-with-next
   \                     ??Subroutine60_0:
   \   000000   F9           MOV       R1,A
   \   000001                REQUIRE ??Subroutine61_0
   \   000001                ; // Fall through to label ??Subroutine61_0

   \                                 In  segment BANKED_CODE, align 1, keep-with-next
   \                     ??Subroutine61_0:
   \   000000   12....       LCALL     `??HalFlashRead::?relay`; Banked call to: HalFlashRead
   \   000003   7402         MOV       A,#0x2
   \   000005   22           RET

   \                                 In  segment BANKED_CODE, align 1, keep-with-next
   \                     ?Subroutine12:
   \   000000   39           ADDC      A,R1
   \   000001   F583         MOV       DPH,A
   \   000003                REQUIRE ??Subroutine67_0
   \   000003                ; // Fall through to label ??Subroutine67_0

   \                                 In  segment BANKED_CODE, align 1, keep-with-next
   \                     ??Subroutine67_0:
   \   000000   E0           MOVX      A,@DPTR
   \   000001   FA           MOV       R2,A
   \   000002   A3           INC       DPTR
   \   000003   E0           MOVX      A,@DPTR
   \   000004   FB           MOV       R3,A
   \   000005   22           RET
    356          
    357          /*********************************************************************
    358           * @fn      setPageUse
    359           *
    360           * @brief   Set page header active/inUse state according to 'inUse'.
    361           *
    362           * @param   pg - Valid NV page to verify and init.
    363           * @param   inUse - Boolean TRUE if inUse, FALSE if only active.
    364           *
    365           * @return  none
    366           */

   \                                 In  segment BANKED_CODE, align 1, keep-with-next
    367          static void setPageUse( uint8 pg, uint8 inUse )
   \                     setPageUse:
    368          {
   \   000000   74F7         MOV       A,#-0x9
   \   000002   12....       LCALL     ?BANKED_ENTER_XDATA
   \   000005                ; Saved register size: 9
   \   000005                ; Auto size: 8
   \   000005   74F8         MOV       A,#-0x8
   \   000007   12....       LCALL     ?ALLOC_XSTACK8
    369            osalNvPgHdr_t pgHdr;
    370          
    371            pgHdr.active = OSAL_NV_ZEROED_ID;
   \   00000A   85..82       MOV       DPL,?XSP + 0
   \   00000D   85..83       MOV       DPH,?XSP + 1
   \   000010   E4           CLR       A
   \   000011   F0           MOVX      @DPTR,A
   \   000012   A3           INC       DPTR
   \   000013   F0           MOVX      @DPTR,A
    372          
    373            if ( inUse )
   \   000014   EA           MOV       A,R2
   \   000015   6008         JZ        ??setPageUse_0
    374            {
    375              pgHdr.inUse = OSAL_NV_ZEROED_ID;
   \   000017   7402         MOV       A,#0x2
   \   000019   12....       LCALL     ?XSTACK_DISP0_8
   \   00001C   E4           CLR       A
   \   00001D   8007         SJMP      ??setPageUse_1
    376            }
    377            else
    378            {
    379              pgHdr.inUse = OSAL_NV_ERASED_ID;
   \                     ??setPageUse_0:
   \   00001F   7402         MOV       A,#0x2
   \   000021   12....       LCALL     ?XSTACK_DISP0_8
   \   000024   74FF         MOV       A,#-0x1
    380            }
   \                     ??setPageUse_1:
   \   000026   12....       LCALL     ??Subroutine57_0 & 0xFFFF
    381          
    382            writeWord( pg, OSAL_NV_PAGE_HDR_OFFSET, (uint8*)(&pgHdr) );
   \                     ??CrossCallReturnLabel_106:
   \   000029   7A00         MOV       R2,#0x0
   \   00002B   7B00         MOV       R3,#0x0
   \   00002D   12....       LCALL     `??writeWord::?relay`; Banked call to: writeWord
    383          }
   \   000030   7408         MOV       A,#0x8
   \   000032   02....       LJMP      ?Subroutine1 & 0xFFFF

   \                                 In  segment BANKED_CODE, align 1, keep-with-next
   \                     ?Subroutine1:
   \   000000   12....       LCALL     ?DEALLOC_XSTACK8
   \   000003                REQUIRE ??Subroutine54_0
   \   000003                ; // Fall through to label ??Subroutine54_0

   \                                 In  segment BANKED_CODE, align 1, keep-with-next
   \                     ??Subroutine54_0:
   \   000000   7F01         MOV       R7,#0x1
   \   000002   02....       LJMP      ?BANKED_LEAVE_XDATA

   \                                 In  segment BANKED_CODE, align 1, keep-with-next
   \                     ??Subroutine57_0:
   \   000000   F0           MOVX      @DPTR,A
   \   000001   A3           INC       DPTR
   \   000002   F0           MOVX      @DPTR,A
   \   000003                ; Setup parameters for call to function writeWordH
   \   000003                ; Setup parameters for call to function writeWord
   \   000003                ; Setup parameters for call to function writeWord
   \   000003   AC..         MOV       R4,?XSP + 0
   \   000005   AD..         MOV       R5,?XSP + 1
   \   000007   22           RET
    384          
    385          /*********************************************************************
    386           * @fn      initPage
    387           *
    388           * @brief   Walk the page items; calculate checksums, lost bytes & page offset.
    389           *
    390           * @param   pg - Valid NV page to verify and init.
    391           * @param   id - Valid NV item Id to use function as a "findItem".
    392           *               If set to NULL then just perform the page initialization.
    393           * @param   findDups - TRUE on recursive call from initNV() to find and zero-out duplicate items
    394           *                     left from a write that is interrupted by a reset/power-cycle.
    395           *                     FALSE otherwise.
    396           *
    397           * @return  If 'id' is non-NULL and good checksums are found, return the offset
    398           *          of the data corresponding to item Id; else OSAL_NV_ITEM_NULL.
    399           */

   \                                 In  segment BANKED_CODE, align 1, keep-with-next
    400          static uint16 initPage( uint8 pg, uint16 id, uint8 findDups )
   \                     initPage:
    401          {
   \   000000                REQUIRE ?V0
   \   000000                REQUIRE ?V1
   \   000000                REQUIRE ?V2
   \   000000                REQUIRE ?V3
   \   000000                REQUIRE ?V4
   \   000000                REQUIRE ?V5
   \   000000                REQUIRE ?V6
   \   000000                REQUIRE ?V7
   \   000000   74F0         MOV       A,#-0x10
   \   000002   12....       LCALL     ?BANKED_ENTER_XDATA
   \   000005                ; Saved register size: 16
   \   000005                ; Auto size: 10
   \   000005   74F6         MOV       A,#-0xa
   \   000007   12....       LCALL     ?ALLOC_XSTACK8
   \   00000A   85..82       MOV       DPL,?XSP + 0
   \   00000D   85..83       MOV       DPH,?XSP + 1
   \   000010   12....       LCALL     ?Subroutine9 & 0xFFFF
   \                     ??CrossCallReturnLabel_4:
   \   000013   8C..         MOV       ?V7,R4
    402            uint16 offset = OSAL_NV_PAGE_HDR_SIZE;
   \   000015   75..08       MOV       ?V0,#0x8
   \   000018   75..00       MOV       ?V1,#0x0
    403            uint16 sz, lost = 0;
   \   00001B   75..00       MOV       ?V2,#0x0
   \   00001E   75..00       MOV       ?V3,#0x0
    404            osalNvHdr_t hdr;
    405          
    406            do
    407            {
    408              HalFlashRead(pg, offset, (uint8 *)(&hdr), OSAL_NV_HDR_SIZE);
   \                     ??initPage_0:
   \   000021                ; Setup parameters for call to function HalFlashRead
   \   000021   75..08       MOV       ?V4,#0x8
   \   000024   75..00       MOV       ?V5,#0x0
   \   000027   78..         MOV       R0,#?V4
   \   000029   12....       LCALL     ?PUSH_XSTACK_I_TWO
   \   00002C   7404         MOV       A,#0x4
   \   00002E   12....       LCALL     ?XSTACK_DISP102_8
   \   000031   AA..         MOV       R2,?V0
   \   000033   AB..         MOV       R3,?V1
   \   000035   A9..         MOV       R1,?V6
   \   000037   12....       LCALL     ??Subroutine61_0 & 0xFFFF
   \                     ??CrossCallReturnLabel_125:
   \   00003A   12....       LCALL     ?DEALLOC_XSTACK8
    409          
    410              if ( hdr.id == OSAL_NV_ERASED_ID )
   \   00003D   7402         MOV       A,#0x2
   \   00003F   12....       LCALL     ?XSTACK_DISP0_8
   \   000042   E0           MOVX      A,@DPTR
   \   000043   F4           CPL       A
   \   000044   7003         JNZ       ??initPage_1
   \   000046   A3           INC       DPTR
   \   000047   E0           MOVX      A,@DPTR
   \   000048   F4           CPL       A
   \                     ??initPage_1:
   \   000049   7003         JNZ       $+5
   \   00004B   02....       LJMP      ??initPage_2 & 0xFFFF
    411              {
    412                break;
    413              }
    414          
    415              // Get the actual size in bytes which is the ceiling(hdr.len)
    416              sz = OSAL_NV_DATA_SIZE( hdr.len );
   \   00004E   7404         MOV       A,#0x4
   \   000050   12....       LCALL     ?XSTACK_DISP0_8
   \   000053   12....       LCALL     ?Subroutine18 & 0xFFFF
   \                     ??CrossCallReturnLabel_26:
   \   000056   4006         JC        ??initPage_3
   \   000058   7EFC         MOV       R6,#-0x4
   \   00005A   7FFF         MOV       R7,#-0x1
   \   00005C   8003         SJMP      ??CrossCallReturnLabel_68
   \                     ??initPage_3:
   \   00005E   12....       LCALL     ?Subroutine36 & 0xFFFF
    417          
    418              // A bad 'len' write has blown away the rest of the page.
    419              if (sz > (OSAL_NV_PAGE_SIZE - OSAL_NV_HDR_SIZE - offset))
   \                     ??CrossCallReturnLabel_68:
   \   000061   12....       LCALL     ?Subroutine35 & 0xFFFF
   \                     ??CrossCallReturnLabel_66:
   \   000064   5020         JNC       ??initPage_4
    420              {
    421                lost += (OSAL_NV_PAGE_SIZE - offset);
   \   000066   E5..         MOV       A,?V2
   \   000068   2400         ADD       A,#0x0
   \   00006A   E5..         MOV       A,?V3
   \   00006C   3408         ADDC      A,#0x8
   \   00006E   F5..         MOV       ?V3,A
   \   000070   C3           CLR       C
   \   000071   E5..         MOV       A,?V2
   \   000073   95..         SUBB      A,?V0
   \   000075   F5..         MOV       ?V2,A
   \   000077   E5..         MOV       A,?V3
   \   000079   95..         SUBB      A,?V1
   \   00007B   F5..         MOV       ?V3,A
    422                offset = OSAL_NV_PAGE_SIZE;
   \   00007D   75..00       MOV       ?V0,#0x0
   \   000080   75..08       MOV       ?V1,#0x8
    423                break;
   \   000083   02....       LJMP      ??initPage_2 & 0xFFFF
    424              }
    425          
    426              offset += OSAL_NV_HDR_SIZE;
   \                     ??initPage_4:
   \   000086   12....       LCALL     ?Subroutine38 & 0xFFFF
    427          
    428              if ( hdr.id != OSAL_NV_ZEROED_ID )
   \                     ??CrossCallReturnLabel_70:
   \   000089   7402         MOV       A,#0x2
   \   00008B   12....       LCALL     ?XSTACK_DISP0_8
   \   00008E   12....       LCALL     ?Subroutine13 & 0xFFFF
   \                     ??CrossCallReturnLabel_13:
   \   000091   7003         JNZ       $+5
   \   000093   02....       LJMP      ??initPage_5 & 0xFFFF
    429              {
    430                /* This trick allows function to do double duty for findItem() without
    431                 * compromising its essential functionality at powerup initialization.
    432                 */
    433                if ( id != OSAL_NV_ITEM_NULL )
   \   000096   85..82       MOV       DPL,?XSP + 0
   \   000099   85..83       MOV       DPH,?XSP + 1
   \   00009C   12....       LCALL     ?Subroutine13 & 0xFFFF
   \                     ??CrossCallReturnLabel_14:
   \   00009F   6050         JZ        ??initPage_6
    434                {
    435                  /* This trick allows asking to find the old/transferred item in case
    436                   * of a successful new item write that gets interrupted before the
    437                   * old item can be zeroed out.
    438                   */
    439                  if ( (id & 0x7fff) == hdr.id )
   \   0000A1   85..82       MOV       DPL,?XSP + 0
   \   0000A4   85..83       MOV       DPH,?XSP + 1
   \   0000A7   A3           INC       DPTR
   \   0000A8   E0           MOVX      A,@DPTR
   \   0000A9   547F         ANL       A,#0x7f
   \   0000AB   F9           MOV       R1,A
   \   0000AC   7402         MOV       A,#0x2
   \   0000AE   12....       LCALL     ?XSTACK_DISP0_8
   \   0000B1   E0           MOVX      A,@DPTR
   \   0000B2   68           XRL       A,R0
   \   0000B3   7003         JNZ       ??initPage_7
   \   0000B5   A3           INC       DPTR
   \   0000B6   E0           MOVX      A,@DPTR
   \   0000B7   69           XRL       A,R1
   \                     ??initPage_7:
   \   0000B8   6003         JZ        $+5
   \   0000BA   02....       LJMP      ??initPage_8 & 0xFFFF
    440                  {
    441                    if ( (((id & OSAL_NV_SOURCE_ID) == 0) && (hdr.stat == OSAL_NV_ERASED_ID)) ||
    442                         (((id & OSAL_NV_SOURCE_ID) != 0) && (hdr.stat != OSAL_NV_ERASED_ID)) )
   \   0000BD   7408         MOV       A,#0x8
   \   0000BF   12....       LCALL     ?XSTACK_DISP0_8
   \   0000C2   12....       LCALL     ??Subroutine67_0 & 0xFFFF
   \                     ??CrossCallReturnLabel_148:
   \   0000C5   85..82       MOV       DPL,?XSP + 0
   \   0000C8   85..83       MOV       DPH,?XSP + 1
   \   0000CB   A3           INC       DPTR
   \   0000CC   E0           MOVX      A,@DPTR
   \   0000CD   5480         ANL       A,#0x80
   \   0000CF   700F         JNZ       ??initPage_9
   \   0000D1   74FF         MOV       A,#-0x1
   \   0000D3   6A           XRL       A,R2
   \   0000D4   7003         JNZ       ??initPage_10
   \   0000D6   74FF         MOV       A,#-0x1
   \   0000D8   6B           XRL       A,R3
   \                     ??initPage_10:
   \   0000D9   6003         JZ        $+5
   \   0000DB   02....       LJMP      ??initPage_8 & 0xFFFF
   \   0000DE   800A         SJMP      ??initPage_11
   \                     ??initPage_9:
   \   0000E0   74FF         MOV       A,#-0x1
   \   0000E2   6A           XRL       A,R2
   \   0000E3   7003         JNZ       ??initPage_12
   \   0000E5   74FF         MOV       A,#-0x1
   \   0000E7   6B           XRL       A,R3
   \                     ??initPage_12:
   \   0000E8   6075         JZ        ??initPage_8
    443                    {
    444                      return offset;
   \                     ??initPage_11:
   \   0000EA   AA..         MOV       R2,?V0
   \   0000EC   AB..         MOV       R3,?V1
   \   0000EE   02....       LJMP      ??initPage_13 & 0xFFFF
    445                    }
    446                  }
    447                }
    448                // When invoked from the osal_nv_init(), verify checksums and find & zero any duplicates.
    449                else
    450                {
    451                  if ( hdr.chk == calcChkF( pg, offset, hdr.len ) )
   \                     ??initPage_6:
   \   0000F1                ; Setup parameters for call to function calcChkF
   \   0000F1   AA..         MOV       R2,?V0
   \   0000F3   AB..         MOV       R3,?V1
   \   0000F5   12....       LCALL     ?Subroutine40 & 0xFFFF
   \                     ??CrossCallReturnLabel_74:
   \   0000F8   7406         MOV       A,#0x6
   \   0000FA   12....       LCALL     ?XSTACK_DISP0_8
   \   0000FD   E0           MOVX      A,@DPTR
   \   0000FE   68           XRL       A,R0
   \   0000FF   7003         JNZ       ??initPage_14
   \   000101   A3           INC       DPTR
   \   000102   E0           MOVX      A,@DPTR
   \   000103   69           XRL       A,R1
   \                     ??initPage_14:
   \   000104   703D         JNZ       ??initPage_15
    452                  {
    453                    if ( findDups )
   \   000106   7408         MOV       A,#0x8
   \   000108   12....       LCALL     ?XSTACK_DISP0_8
   \   00010B   12....       LCALL     ?Subroutine23 & 0xFFFF
   \                     ??CrossCallReturnLabel_38:
   \   00010E   E5..         MOV       A,?V7
   \   000110   6021         JZ        ??initPage_16
    454                    {
    455                      if ( hdr.stat == OSAL_NV_ERASED_ID )
   \   000112   74FF         MOV       A,#-0x1
   \   000114   68           XRL       A,R0
   \   000115   7003         JNZ       ??initPage_17
   \   000117   74FF         MOV       A,#-0x1
   \   000119   69           XRL       A,R1
   \                     ??initPage_17:
   \   00011A   7043         JNZ       ??initPage_8
    456                      {
    457                        /* The trick of setting the MSB of the item Id causes the logic
    458                         * immediately above to return a valid page only if the header 'stat'
    459                         * indicates that it was the older item being transferred.
    460                         */
    461                        uint16 off = findItem( (hdr.id | OSAL_NV_SOURCE_ID) );
   \   00011C                ; Setup parameters for call to function findItem
   \   00011C   7402         MOV       A,#0x2
   \   00011E   12....       LCALL     ?XSTACK_DISP0_8
   \   000121   E0           MOVX      A,@DPTR
   \   000122   FA           MOV       R2,A
   \   000123   A3           INC       DPTR
   \   000124   E0           MOVX      A,@DPTR
   \   000125   4480         ORL       A,#0x80
   \   000127   12....       LCALL     ??Subroutine65_0 & 0xFFFF
    462          
    463                        if ( off != OSAL_NV_ITEM_NULL )
   \                     ??CrossCallReturnLabel_146:
   \   00012A   6033         JZ        ??initPage_8
    464                        {
    465                          setItem( findPg, off, eNvZero );  // Mark old duplicate as invalid.
   \   00012C                ; Setup parameters for call to function setItem
   \   00012C   7C01         MOV       R4,#0x1
   \   00012E   12....       LCALL     ?Subroutine24 & 0xFFFF
    466                        }
    467                      }
    468                    }
   \                     ??CrossCallReturnLabel_92:
   \   000131   802C         SJMP      ??initPage_8
    469                    // Any "old" item immediately exits and triggers the N^2 exhaustive initialization.
    470                    else if ( hdr.stat != OSAL_NV_ERASED_ID )
   \                     ??initPage_16:
   \   000133   74FF         MOV       A,#-0x1
   \   000135   68           XRL       A,R0
   \   000136   7003         JNZ       ??initPage_18
   \   000138   74FF         MOV       A,#-0x1
   \   00013A   69           XRL       A,R1
   \                     ??initPage_18:
   \   00013B   6022         JZ        ??initPage_8
    471                    {
    472                      return OSAL_NV_ERASED_ID;
   \   00013D   7AFF         MOV       R2,#-0x1
   \   00013F   7BFF         MOV       R3,#-0x1
   \   000141   804F         SJMP      ??initPage_13
    473                    }
    474                  }
    475                  else
    476                  {
    477                    setItem( pg, offset, eNvZero );  // Mark bad checksum as invalid.
   \                     ??initPage_15:
   \   000143                ; Setup parameters for call to function setItem
   \   000143   7C01         MOV       R4,#0x1
   \   000145   AA..         MOV       R2,?V0
   \   000147   AB..         MOV       R3,?V1
   \   000149   A9..         MOV       R1,?V6
   \   00014B   12....       LCALL     `??setItem::?relay`; Banked call to: setItem
    478                    lost += (OSAL_NV_HDR_SIZE + sz);
    479                  }
    480                }
    481              }
    482              else
    483              {
    484                lost += (OSAL_NV_HDR_SIZE + sz);
   \                     ??initPage_5:
   \   00014E   EE           MOV       A,R6
   \   00014F   2408         ADD       A,#0x8
   \   000151   F8           MOV       R0,A
   \   000152   E4           CLR       A
   \   000153   3F           ADDC      A,R7
   \   000154   F9           MOV       R1,A
   \   000155   E5..         MOV       A,?V2
   \   000157   28           ADD       A,R0
   \   000158   F5..         MOV       ?V2,A
   \   00015A   E5..         MOV       A,?V3
   \   00015C   39           ADDC      A,R1
   \   00015D   F5..         MOV       ?V3,A
    485              }
    486              offset += sz;
   \                     ??initPage_8:
   \   00015F   E5..         MOV       A,?V0
   \   000161   2E           ADD       A,R6
   \   000162   F5..         MOV       ?V0,A
   \   000164   E5..         MOV       A,?V1
   \   000166   3F           ADDC      A,R7
   \   000167   F5..         MOV       ?V1,A
    487          
    488            } while (offset < (OSAL_NV_PAGE_SIZE - OSAL_NV_HDR_SIZE));
   \   000169   C3           CLR       C
   \   00016A   E5..         MOV       A,?V0
   \   00016C   94F8         SUBB      A,#-0x8
   \   00016E   E5..         MOV       A,?V1
   \   000170   9407         SUBB      A,#0x7
   \   000172   5003         JNC       $+5
   \   000174   02....       LJMP      ??initPage_0 & 0xFFFF
    489          
    490            pgOff[pg - OSAL_NV_PAGE_BEG] = offset;
   \                     ??initPage_2:
   \   000177   A8..         MOV       R0,?V6
   \   000179   E8           MOV       A,R0
   \   00017A   28           ADD       A,R0
   \   00017B   12....       LCALL     ??Subroutine55_0 & 0xFFFF
   \                     ??CrossCallReturnLabel_96:
   \   00017E   E5..         MOV       A,?V0
   \   000180   F0           MOVX      @DPTR,A
   \   000181   A3           INC       DPTR
   \   000182   E5..         MOV       A,?V1
   \   000184   12....       LCALL     ?Subroutine8 & 0xFFFF
    491            pgLost[pg - OSAL_NV_PAGE_BEG] = lost;
   \                     ??CrossCallReturnLabel_2:
   \   000187   E5..         MOV       A,?V2
   \   000189   F0           MOVX      @DPTR,A
   \   00018A   A3           INC       DPTR
   \   00018B   E5..         MOV       A,?V3
   \   00018D   F0           MOVX      @DPTR,A
    492          
    493            return OSAL_NV_ITEM_NULL;
   \   00018E   7A00         MOV       R2,#0x0
   \   000190   7B00         MOV       R3,#0x0
   \                     ??initPage_13:
   \   000192   02....       LJMP      ?Subroutine2 & 0xFFFF
    494          }

   \                                 In  segment BANKED_CODE, align 1, keep-with-next
   \                     ?Subroutine24:
   \   000000   90....       MOV       DPTR,#findPg
   \   000003                REQUIRE ??Subroutine53_0
   \   000003                ; // Fall through to label ??Subroutine53_0

   \                                 In  segment BANKED_CODE, align 1, keep-with-next
   \                     ??Subroutine53_0:
   \   000000   E0           MOVX      A,@DPTR
   \   000001   F9           MOV       R1,A
   \   000002   12....       LCALL     `??setItem::?relay`; Banked call to: setItem
   \   000005   22           RET

   \                                 In  segment BANKED_CODE, align 1, keep-with-next
   \                     ?Subroutine8:
   \   000000   F0           MOVX      @DPTR,A
   \   000001   74..         MOV       A,#(pgLost + 14) & 0xff
   \   000003   28           ADD       A,R0
   \   000004   F582         MOV       DPL,A
   \   000006   74..         MOV       A,#((pgLost - 242) >> 8) & 0xff
   \   000008   39           ADDC      A,R1
   \   000009   F583         MOV       DPH,A
   \   00000B   22           RET

   \                                 In  segment BANKED_CODE, align 1, keep-with-next
   \                     ?Subroutine40:
   \   000000   A9..         MOV       R1,?V6
   \   000002   12....       LCALL     `??calcChkF::?relay`; Banked call to: calcChkF
   \   000005   8A..         MOV       ?V4,R2
   \   000007   8B..         MOV       ?V5,R3
   \   000009   A8..         MOV       R0,?V4
   \   00000B   A9..         MOV       R1,?V5
   \   00000D   22           RET

   \                                 In  segment BANKED_CODE, align 1, keep-with-next
   \                     ?Subroutine38:
   \   000000   E5..         MOV       A,?V0
   \   000002   2408         ADD       A,#0x8
   \   000004   F5..         MOV       ?V0,A
   \   000006   E4           CLR       A
   \   000007   35..         ADDC      A,?V1
   \   000009   F5..         MOV       ?V1,A
   \   00000B   22           RET

   \                                 In  segment BANKED_CODE, align 1, keep-with-next
   \                     ?Subroutine36:
   \   000000   EC           MOV       A,R4
   \   000001   2403         ADD       A,#0x3
   \   000003   F8           MOV       R0,A
   \   000004   E4           CLR       A
   \   000005   3D           ADDC      A,R5
   \   000006   F9           MOV       R1,A
   \   000007   E8           MOV       A,R0
   \   000008   54FC         ANL       A,#0xfc
   \   00000A   FE           MOV       R6,A
   \   00000B   E9           MOV       A,R1
   \   00000C   FF           MOV       R7,A
   \   00000D   22           RET

   \                                 In  segment BANKED_CODE, align 1, keep-with-next
   \                     ?Subroutine35:
   \   000000   74F8         MOV       A,#-0x8
   \   000002   C3           CLR       C
   \   000003   95..         SUBB      A,?V0
   \   000005   F8           MOV       R0,A
   \   000006   7407         MOV       A,#0x7
   \   000008   95..         SUBB      A,?V1
   \   00000A   F9           MOV       R1,A
   \   00000B   C3           CLR       C
   \   00000C   E8           MOV       A,R0
   \   00000D   9E           SUBB      A,R6
   \   00000E   E9           MOV       A,R1
   \   00000F   9F           SUBB      A,R7
   \   000010   22           RET

   \                                 In  segment BANKED_CODE, align 1, keep-with-next
   \                     ??Subroutine55_0:
   \   000000   F8           MOV       R0,A
   \   000001   E4           CLR       A
   \   000002   33           RLC       A
   \   000003   F9           MOV       R1,A
   \   000004   74..         MOV       A,#(pgOff + 14) & 0xff
   \   000006   28           ADD       A,R0
   \   000007   F582         MOV       DPL,A
   \   000009   74..         MOV       A,#((pgOff - 242) >> 8) & 0xff
   \   00000B   39           ADDC      A,R1
   \   00000C   F583         MOV       DPH,A
   \   00000E   22           RET

   \                                 In  segment BANKED_CODE, align 1, keep-with-next
   \                     ?Subroutine18:
   \   000000   12....       LCALL     ?Subroutine46 & 0xFFFF
   \                     ??CrossCallReturnLabel_87:
   \   000003   C3           CLR       C
   \   000004   EC           MOV       A,R4
   \   000005   94FC         SUBB      A,#-0x4
   \   000007   ED           MOV       A,R5
   \   000008   94FF         SUBB      A,#-0x1
   \   00000A   22           RET

   \                                 In  segment BANKED_CODE, align 1, keep-with-next
   \                     ?Subroutine13:
   \   000000   E0           MOVX      A,@DPTR
   \   000001   F8           MOV       R0,A
   \   000002   A3           INC       DPTR
   \   000003   E0           MOVX      A,@DPTR
   \   000004   F9           MOV       R1,A
   \   000005   E8           MOV       A,R0
   \   000006   49           ORL       A,R1
   \   000007   22           RET

   \                                 In  segment BANKED_CODE, align 1, keep-with-next
   \                     ?Subroutine9:
   \   000000   EA           MOV       A,R2
   \   000001   F0           MOVX      @DPTR,A
   \   000002   A3           INC       DPTR
   \   000003   EB           MOV       A,R3
   \   000004   F0           MOVX      @DPTR,A
   \   000005   89..         MOV       ?V6,R1
   \   000007   22           RET

   \                                 In  segment BANKED_CODE, align 1, keep-with-next
   \                     ?Subroutine2:
   \   000000   740A         MOV       A,#0xa
   \   000002                REQUIRE ??Subroutine62_0
   \   000002                ; // Fall through to label ??Subroutine62_0

   \                                 In  segment BANKED_CODE, align 1, keep-with-next
   \                     ??Subroutine62_0:
   \   000000   12....       LCALL     ?DEALLOC_XSTACK8
   \   000003                REQUIRE ??Subroutine63_0
   \   000003                ; // Fall through to label ??Subroutine63_0

   \                                 In  segment BANKED_CODE, align 1, keep-with-next
   \                     ??Subroutine63_0:
   \   000000   7F08         MOV       R7,#0x8
   \   000002   02....       LJMP      ?BANKED_LEAVE_XDATA

   \                                 In  segment BANKED_CODE, align 1, keep-with-next
   \                     ?Subroutine46:
   \   000000   E0           MOVX      A,@DPTR
   \   000001   FC           MOV       R4,A
   \   000002   A3           INC       DPTR
   \   000003   E0           MOVX      A,@DPTR
   \   000004   FD           MOV       R5,A
   \   000005   22           RET

   \                                 In  segment BANKED_CODE, align 1, keep-with-next
   \                     ?Subroutine23:
   \   000000   E0           MOVX      A,@DPTR
   \   000001   F8           MOV       R0,A
   \   000002   A3           INC       DPTR
   \   000003   E0           MOVX      A,@DPTR
   \   000004   F9           MOV       R1,A
   \   000005   22           RET

   \                                 In  segment BANKED_CODE, align 1, keep-with-next
   \                     ??Subroutine65_0:
   \   000000   FB           MOV       R3,A
   \   000001                REQUIRE ??Subroutine66_0
   \   000001                ; // Fall through to label ??Subroutine66_0

   \                                 In  segment BANKED_CODE, align 1, keep-with-next
   \                     ??Subroutine66_0:
   \   000000   12....       LCALL     `??findItem::?relay`; Banked call to: findItem
   \   000003   EA           MOV       A,R2
   \   000004   4B           ORL       A,R3
   \   000005   22           RET
    495          
    496          /*********************************************************************
    497           * @fn      erasePage
    498           *
    499           * @brief   Erases a page in Flash.
    500           *
    501           * @param   pg - Valid NV page to erase.
    502           *
    503           * @return  none
    504           */

   \                                 In  segment BANKED_CODE, align 1, keep-with-next
    505          static void erasePage( uint8 pg )
   \                     erasePage:
    506          {
   \   000000   74F7         MOV       A,#-0x9
   \   000002   12....       LCALL     ?BANKED_ENTER_XDATA
   \   000005                ; Saved register size: 9
   \   000005                ; Auto size: 0
   \   000005   E9           MOV       A,R1
   \   000006   FE           MOV       R6,A
    507            HalFlashErase(pg);
   \   000007                ; Setup parameters for call to function HalFlashErase
   \   000007   12....       LCALL     `??HalFlashErase::?relay`; Banked call to: HalFlashErase
    508          
    509            pgOff[pg - OSAL_NV_PAGE_BEG] = OSAL_NV_PAGE_HDR_SIZE;
   \   00000A   EE           MOV       A,R6
   \   00000B   2E           ADD       A,R6
   \   00000C   12....       LCALL     ??Subroutine55_0 & 0xFFFF
   \                     ??CrossCallReturnLabel_97:
   \   00000F   7408         MOV       A,#0x8
   \   000011   F0           MOVX      @DPTR,A
   \   000012   A3           INC       DPTR
   \   000013   E4           CLR       A
   \   000014   12....       LCALL     ?Subroutine8 & 0xFFFF
    510            pgLost[pg - OSAL_NV_PAGE_BEG] = 0;
   \                     ??CrossCallReturnLabel_3:
   \   000017   E4           CLR       A
   \   000018   F0           MOVX      @DPTR,A
   \   000019   A3           INC       DPTR
   \   00001A   F0           MOVX      @DPTR,A
    511          }
   \   00001B   80..         SJMP      ??Subroutine54_0
    512          
    513          /*********************************************************************
    514           * @fn      compactPage
    515           *
    516           * @brief   Compacts the page specified.
    517           *
    518           * @param   srcPg - Valid NV page to erase.
    519           * @param   skipId - Item Id to not compact.
    520           *
    521           * @return  TRUE if valid items from 'srcPg' are successully compacted onto the 'pgRes';
    522           *          FALSE otherwise.
    523           *          Note that on a failure, this could loop, re-erasing the 'pgRes' and re-compacting with
    524           *          the risk of infinitely looping on HAL flash failure.
    525           *          Worst case scenario: HAL flash starts failing in general, perhaps low Vdd?
    526           *          All page compactions will fail which will cause all osal_nv_write() calls to return
    527           *          NV_OPER_FAILED.
    528           *          Eventually, all pages in use may also be in the state of "pending compaction" where
    529           *          the page header member OSAL_NV_PG_XFER is zeroed out.
    530           *          During this "HAL flash brown-out", the code will run and OTA should work (until low Vdd
    531           *          causes an actual chip brown-out, of course.) Although no new NV items will be created
    532           *          or written, the last value written with a return value of SUCCESS can continue to be
    533           *          read successfully.
    534           *          If eventually HAL flash starts working again, all of the pages marked as
    535           *          "pending compaction" may or may not be eventually compacted. But, initNV() will
    536           *          deterministically clean-up one page pending compaction per power-cycle
    537           *          (if HAL flash is working.) Nevertheless, one erased reserve page will be maintained
    538           *          through such a scenario.
    539           */

   \                                 In  segment BANKED_CODE, align 1, keep-with-next
    540          static uint8 compactPage( uint8 srcPg, uint16 skipId )
   \                     compactPage:
    541          {
   \   000000                REQUIRE ?V0
   \   000000                REQUIRE ?V1
   \   000000                REQUIRE ?V2
   \   000000                REQUIRE ?V3
   \   000000                REQUIRE ?V4
   \   000000                REQUIRE ?V5
   \   000000                REQUIRE ?V6
   \   000000   74F1         MOV       A,#-0xf
   \   000002   12....       LCALL     ?BANKED_ENTER_XDATA
   \   000005                ; Saved register size: 15
   \   000005                ; Auto size: 11
   \   000005   74F5         MOV       A,#-0xb
   \   000007   12....       LCALL     ?ALLOC_XSTACK8
   \   00000A   7409         MOV       A,#0x9
   \   00000C   12....       LCALL     ?XSTACK_DISP0_8
   \   00000F   12....       LCALL     ?Subroutine9 & 0xFFFF
    542            uint16 srcOff;
    543            uint8 rtrn;
    544          
    545            // To minimize code size, only check for a clean page here where it's absolutely required.
    546            for (srcOff = 0; srcOff < OSAL_NV_PAGE_SIZE; srcOff++)
   \                     ??CrossCallReturnLabel_5:
   \   000012   75..00       MOV       ?V2,#0x0
   \   000015   75..00       MOV       ?V3,#0x0
    547            {
    548              HalFlashRead(pgRes, srcOff, &rtrn, 1);
   \                     ??compactPage_0:
   \   000018                ; Setup parameters for call to function HalFlashRead
   \   000018   75..01       MOV       ?V0,#0x1
   \   00001B   75..00       MOV       ?V1,#0x0
   \   00001E   78..         MOV       R0,#?V0
   \   000020   12....       LCALL     ?PUSH_XSTACK_I_TWO
   \   000023   7402         MOV       A,#0x2
   \   000025   12....       LCALL     ?XSTACK_DISP102_8
   \   000028   AA..         MOV       R2,?V2
   \   00002A   AB..         MOV       R3,?V3
   \   00002C   90....       MOV       DPTR,#pgRes
   \   00002F   12....       LCALL     ?Subroutine11 & 0xFFFF
   \                     ??CrossCallReturnLabel_115:
   \   000032   12....       LCALL     ?DEALLOC_XSTACK8
    549              if (rtrn != OSAL_NV_ERASED)
   \   000035   85..82       MOV       DPL,?XSP + 0
   \   000038   85..83       MOV       DPH,?XSP + 1
   \   00003B   E0           MOVX      A,@DPTR
   \   00003C   F4           CPL       A
   \   00003D   6008         JZ        ??compactPage_1
    550              {
    551                erasePage(pgRes);
   \   00003F                ; Setup parameters for call to function erasePage
   \   00003F   12....       LCALL     ?Subroutine25 & 0xFFFF
    552                return FALSE;
   \                     ??CrossCallReturnLabel_100:
   \   000042   7900         MOV       R1,#0x0
   \   000044   02....       LJMP      ??compactPage_2 & 0xFFFF
    553              }
    554            }
   \                     ??compactPage_1:
   \   000047   05..         INC       ?V2
   \   000049   E5..         MOV       A,?V2
   \   00004B   7002         JNZ       ??compactPage_3
   \   00004D   05..         INC       ?V3
   \                     ??compactPage_3:
   \   00004F   C3           CLR       C
   \   000050   E5..         MOV       A,?V3
   \   000052   9408         SUBB      A,#0x8
   \   000054   40C2         JC        ??compactPage_0
    555          
    556            srcOff = OSAL_NV_PAGE_HDR_SIZE;
   \   000056   75..08       MOV       ?V2,#0x8
   \   000059   75..00       MOV       ?V3,#0x0
    557            rtrn = TRUE;
   \   00005C   7401         MOV       A,#0x1
   \   00005E   F0           MOVX      @DPTR,A
    558          
    559            while ( srcOff < (OSAL_NV_PAGE_SIZE - OSAL_NV_HDR_SIZE ) )
    560            {
    561              osalNvHdr_t hdr;
    562              uint16 sz, dstOff = pgOff[pgRes-OSAL_NV_PAGE_BEG];
   \                     ??compactPage_4:
   \   00005F   90....       MOV       DPTR,#pgRes
   \   000062   E0           MOVX      A,@DPTR
   \   000063   12....       LCALL     ?Subroutine29 & 0xFFFF
   \                     ??CrossCallReturnLabel_98:
   \   000066   12....       LCALL     ?Subroutine19 & 0xFFFF
    563          
    564              HalFlashRead(srcPg, srcOff, (uint8 *)(&hdr), OSAL_NV_HDR_SIZE);
   \                     ??CrossCallReturnLabel_28:
   \   000069                ; Setup parameters for call to function HalFlashRead
   \   000069   75..08       MOV       ?V4,#0x8
   \   00006C   75..00       MOV       ?V5,#0x0
   \   00006F   78..         MOV       R0,#?V4
   \   000071   12....       LCALL     ?PUSH_XSTACK_I_TWO
   \   000074   7403         MOV       A,#0x3
   \   000076   12....       LCALL     ?XSTACK_DISP102_8
   \   000079   AA..         MOV       R2,?V2
   \   00007B   AB..         MOV       R3,?V3
   \   00007D   A9..         MOV       R1,?V6
   \   00007F   12....       LCALL     ??Subroutine61_0 & 0xFFFF
   \                     ??CrossCallReturnLabel_126:
   \   000082   12....       LCALL     ?DEALLOC_XSTACK8
    565          
    566              if ( hdr.id == OSAL_NV_ERASED_ID )
   \   000085   7401         MOV       A,#0x1
   \   000087   12....       LCALL     ?XSTACK_DISP0_8
   \   00008A   E0           MOVX      A,@DPTR
   \   00008B   F4           CPL       A
   \   00008C   7003         JNZ       ??compactPage_5
   \   00008E   A3           INC       DPTR
   \   00008F   E0           MOVX      A,@DPTR
   \   000090   F4           CPL       A
   \                     ??compactPage_5:
   \   000091   7003         JNZ       $+5
   \   000093   02....       LJMP      ??compactPage_6 & 0xFFFF
    567              {
    568                break;
    569              }
    570          
    571              // Get the actual size in bytes which is the ceiling(hdr.len)
    572              sz = OSAL_NV_DATA_SIZE( hdr.len );
   \   000096   7403         MOV       A,#0x3
   \   000098   12....       LCALL     ?XSTACK_DISP0_8
   \   00009B   12....       LCALL     ?Subroutine18 & 0xFFFF
   \                     ??CrossCallReturnLabel_27:
   \   00009E   4006         JC        ??compactPage_7
   \   0000A0   7EFC         MOV       R6,#-0x4
   \   0000A2   7FFF         MOV       R7,#-0x1
   \   0000A4   8003         SJMP      ??CrossCallReturnLabel_69
   \                     ??compactPage_7:
   \   0000A6   12....       LCALL     ?Subroutine36 & 0xFFFF
    573          
    574              if ( sz > (OSAL_NV_PAGE_SIZE - OSAL_NV_HDR_SIZE - srcOff) )
   \                     ??CrossCallReturnLabel_69:
   \   0000A9   74F8         MOV       A,#-0x8
   \   0000AB   C3           CLR       C
   \   0000AC   95..         SUBB      A,?V2
   \   0000AE   F8           MOV       R0,A
   \   0000AF   7407         MOV       A,#0x7
   \   0000B1   95..         SUBB      A,?V3
   \   0000B3   F9           MOV       R1,A
   \   0000B4   C3           CLR       C
   \   0000B5   E8           MOV       A,R0
   \   0000B6   9E           SUBB      A,R6
   \   0000B7   E9           MOV       A,R1
   \   0000B8   9F           SUBB      A,R7
   \   0000B9   5003         JNC       $+5
   \   0000BB   02....       LJMP      ??compactPage_6 & 0xFFFF
    575              {
    576                break;
    577              }
    578          
    579              if ( sz > (OSAL_NV_PAGE_SIZE - OSAL_NV_HDR_SIZE - dstOff) )
   \   0000BE   12....       LCALL     ?Subroutine35 & 0xFFFF
   \                     ??CrossCallReturnLabel_67:
   \   0000C1   5003         JNC       $+5
   \   0000C3   02....       LJMP      ??compactPage_8 & 0xFFFF
    580              {
    581                rtrn = FALSE;
    582                break;
    583              }
    584          
    585              srcOff += OSAL_NV_HDR_SIZE;
   \   0000C6   12....       LCALL     ?Subroutine39 & 0xFFFF
    586          
    587              if ( (hdr.id != OSAL_NV_ZEROED_ID) && (hdr.id != skipId) )
   \                     ??CrossCallReturnLabel_72:
   \   0000C9   7401         MOV       A,#0x1
   \   0000CB   12....       LCALL     ?XSTACK_DISP0_8
   \   0000CE   12....       LCALL     ?Subroutine13 & 0xFFFF
   \                     ??CrossCallReturnLabel_15:
   \   0000D1   7003         JNZ       $+5
   \   0000D3   02....       LJMP      ??compactPage_9 & 0xFFFF
   \   0000D6   7409         MOV       A,#0x9
   \   0000D8   12....       LCALL     ?XSTACK_DISP0_8
   \   0000DB   E0           MOVX      A,@DPTR
   \   0000DC   68           XRL       A,R0
   \   0000DD   7003         JNZ       ??compactPage_10
   \   0000DF   A3           INC       DPTR
   \   0000E0   E0           MOVX      A,@DPTR
   \   0000E1   69           XRL       A,R1
   \                     ??compactPage_10:
   \   0000E2   7003         JNZ       $+5
   \   0000E4   02....       LJMP      ??compactPage_9 & 0xFFFF
    588              {
    589                if ( hdr.chk == calcChkF( srcPg, srcOff, hdr.len ) )
   \   0000E7                ; Setup parameters for call to function calcChkF
   \   0000E7   AA..         MOV       R2,?V2
   \   0000E9   AB..         MOV       R3,?V3
   \   0000EB   12....       LCALL     ?Subroutine40 & 0xFFFF
   \                     ??CrossCallReturnLabel_75:
   \   0000EE   7405         MOV       A,#0x5
   \   0000F0   12....       LCALL     ?XSTACK_DISP0_8
   \   0000F3   E0           MOVX      A,@DPTR
   \   0000F4   68           XRL       A,R0
   \   0000F5   7003         JNZ       ??compactPage_11
   \   0000F7   A3           INC       DPTR
   \   0000F8   E0           MOVX      A,@DPTR
   \   0000F9   69           XRL       A,R1
   \                     ??compactPage_11:
   \   0000FA   6003         JZ        $+5
   \   0000FC   02....       LJMP      ??compactPage_9 & 0xFFFF
    590                {
    591                  /* Prevent excessive re-writes to item header caused by numerous, rapid, & successive
    592                   * OSAL_Nv interruptions caused by resets.
    593                   */
    594                  if ( hdr.stat == OSAL_NV_ERASED_ID )
   \   0000FF   7407         MOV       A,#0x7
   \   000101   12....       LCALL     ?XSTACK_DISP0_8
   \   000104   E0           MOVX      A,@DPTR
   \   000105   F4           CPL       A
   \   000106   7003         JNZ       ??compactPage_12
   \   000108   A3           INC       DPTR
   \   000109   E0           MOVX      A,@DPTR
   \   00010A   F4           CPL       A
   \                     ??compactPage_12:
   \   00010B   700B         JNZ       ??compactPage_13
    595                  {
    596                    setItem( srcPg, srcOff, eNvXfer );
   \   00010D                ; Setup parameters for call to function setItem
   \   00010D   7C00         MOV       R4,#0x0
   \   00010F   AA..         MOV       R2,?V2
   \   000111   AB..         MOV       R3,?V3
   \   000113   A9..         MOV       R1,?V6
   \   000115   12....       LCALL     `??setItem::?relay`; Banked call to: setItem
    597                  }
    598          
    599                  if ( writeItem( pgRes, hdr.id, hdr.len, NULL, FALSE ) )
   \                     ??compactPage_13:
   \   000118                ; Setup parameters for call to function writeItem
   \   000118   75..00       MOV       ?V4,#0x0
   \   00011B   78..         MOV       R0,#?V4
   \   00011D   12....       LCALL     ?PUSH_XSTACK_I_ONE
   \   000120   E4           CLR       A
   \   000121   F5..         MOV       ?V5,A
   \   000123   78..         MOV       R0,#?V4
   \   000125   12....       LCALL     ?PUSH_XSTACK_I_TWO
   \   000128   7406         MOV       A,#0x6
   \   00012A   12....       LCALL     ?XSTACK_DISP0_8
   \   00012D   12....       LCALL     ?Subroutine27 & 0xFFFF
   \                     ??CrossCallReturnLabel_50:
   \   000130   7404         MOV       A,#0x4
   \   000132   12....       LCALL     ?XSTACK_DISP0_8
   \   000135   12....       LCALL     ??Subroutine67_0 & 0xFFFF
   \                     ??CrossCallReturnLabel_149:
   \   000138   90....       MOV       DPTR,#pgRes
   \   00013B   E0           MOVX      A,@DPTR
   \   00013C   F9           MOV       R1,A
   \   00013D   12....       LCALL     `??writeItem::?relay`; Banked call to: writeItem
   \   000140   7403         MOV       A,#0x3
   \   000142   12....       LCALL     ?DEALLOC_XSTACK8
   \   000145   E9           MOV       A,R1
   \   000146   7003         JNZ       $+5
   \   000148   02....       LJMP      ??compactPage_8 & 0xFFFF
    600                  {
    601                    dstOff += OSAL_NV_HDR_SIZE;
   \   00014B   12....       LCALL     ?Subroutine38 & 0xFFFF
    602                    xferBuf( srcPg, srcOff, pgRes, dstOff, sz );
   \                     ??CrossCallReturnLabel_71:
   \   00014E                ; Setup parameters for call to function xferBuf
   \   00014E   8E..         MOV       ?V4,R6
   \   000150   8F..         MOV       ?V5,R7
   \   000152   78..         MOV       R0,#?V4
   \   000154   12....       LCALL     ?PUSH_XSTACK_I_TWO
   \   000157   78..         MOV       R0,#?V0
   \   000159   12....       LCALL     ?PUSH_XSTACK_I_TWO
   \   00015C   90....       MOV       DPTR,#pgRes
   \   00015F   E0           MOVX      A,@DPTR
   \   000160   FC           MOV       R4,A
   \   000161   AA..         MOV       R2,?V2
   \   000163   AB..         MOV       R3,?V3
   \   000165   A9..         MOV       R1,?V6
   \   000167   12....       LCALL     `??xferBuf::?relay`; Banked call to: xferBuf
   \   00016A   7404         MOV       A,#0x4
   \   00016C   12....       LCALL     ?DEALLOC_XSTACK8
    603                    // Calculate and write the new checksum.
    604                    if (hdr.chk == calcChkF(pgRes, dstOff, hdr.len))
   \   00016F                ; Setup parameters for call to function calcChkF
   \   00016F   7403         MOV       A,#0x3
   \   000171   12....       LCALL     ?XSTACK_DISP0_8
   \   000174   12....       LCALL     ?Subroutine17 & 0xFFFF
   \                     ??CrossCallReturnLabel_24:
   \   000177   12....       LCALL     `??calcChkF::?relay`; Banked call to: calcChkF
   \   00017A   7405         MOV       A,#0x5
   \   00017C   12....       LCALL     ?XSTACK_DISP0_8
   \   00017F   12....       LCALL     ?Subroutine20 & 0xFFFF
   \                     ??CrossCallReturnLabel_31:
   \   000182   7002         JNZ       ??compactPage_14
   \   000184   EB           MOV       A,R3
   \   000185   6D           XRL       A,R5
   \                     ??compactPage_14:
   \   000186   7053         JNZ       ??compactPage_8
    605                    {
    606                      if ( hdr.chk != setChk( pgRes, dstOff, hdr.chk ) )
   \   000188                ; Setup parameters for call to function setChk
   \   000188   AA..         MOV       R2,?V0
   \   00018A   AB..         MOV       R3,?V1
   \   00018C   90....       MOV       DPTR,#pgRes
   \   00018F   E0           MOVX      A,@DPTR
   \   000190   F9           MOV       R1,A
   \   000191   12....       LCALL     `??setChk::?relay`; Banked call to: setChk
   \   000194   8A..         MOV       ?V4,R2
   \   000196   8B..         MOV       ?V5,R3
   \   000198   A8..         MOV       R0,?V4
   \   00019A   A9..         MOV       R1,?V5
   \   00019C   7405         MOV       A,#0x5
   \   00019E   12....       LCALL     ?XSTACK_DISP0_8
   \   0001A1   E0           MOVX      A,@DPTR
   \   0001A2   68           XRL       A,R0
   \   0001A3   7003         JNZ       ??compactPage_15
   \   0001A5   A3           INC       DPTR
   \   0001A6   E0           MOVX      A,@DPTR
   \   0001A7   69           XRL       A,R1
   \                     ??compactPage_15:
   \   0001A8   7031         JNZ       ??compactPage_8
    607                      {
    608                        rtrn = FALSE;
    609                        break;
    610                      }
    611                      else
    612                      {
    613                        hotItemUpdate(pgRes, dstOff, hdr.id);
   \   0001AA                ; Setup parameters for call to function hotItemUpdate
   \   0001AA   7401         MOV       A,#0x1
   \   0001AC   12....       LCALL     ?XSTACK_DISP0_8
   \   0001AF   12....       LCALL     ?Subroutine17 & 0xFFFF
    614                      }
    615                    }
    616                    else
    617                    {
    618                      rtrn = FALSE;
    619                      break;
    620                    }
    621                  }
   \                     ??CrossCallReturnLabel_25:
   \   0001B2   12....       LCALL     `??hotItemUpdate::?relay`; Banked call to: hotItemUpdate
    622                  else
    623                  {
    624                    rtrn = FALSE;
    625                    break;
    626                  }
    627                }
    628              }
    629          
    630              srcOff += sz;
   \                     ??compactPage_9:
   \   0001B5   E5..         MOV       A,?V2
   \   0001B7   2E           ADD       A,R6
   \   0001B8   F5..         MOV       ?V2,A
   \   0001BA   E5..         MOV       A,?V3
   \   0001BC   3F           ADDC      A,R7
   \   0001BD   F5..         MOV       ?V3,A
   \   0001BF   C3           CLR       C
   \   0001C0   E5..         MOV       A,?V2
   \   0001C2   94F8         SUBB      A,#-0x8
   \   0001C4   E5..         MOV       A,?V3
   \   0001C6   9407         SUBB      A,#0x7
   \   0001C8   5003         JNC       $+5
   \   0001CA   02....       LJMP      ??compactPage_4 & 0xFFFF
    631            }
    632          
    633            if (rtrn == FALSE)
   \                     ??compactPage_6:
   \   0001CD   85..82       MOV       DPL,?XSP + 0
   \   0001D0   85..83       MOV       DPH,?XSP + 1
   \   0001D3   E0           MOVX      A,@DPTR
   \   0001D4   700F         JNZ       ??compactPage_16
    634            {
    635              erasePage(pgRes);
   \                     ??compactPage_17:
   \   0001D6                ; Setup parameters for call to function erasePage
   \   0001D6   12....       LCALL     ?Subroutine25 & 0xFFFF
    636            }
   \                     ??CrossCallReturnLabel_101:
   \   0001D9   8022         SJMP      ??compactPage_18
   \                     ??compactPage_8:
   \   0001DB   85..82       MOV       DPL,?XSP + 0
   \   0001DE   85..83       MOV       DPH,?XSP + 1
   \   0001E1   E4           CLR       A
   \   0001E2   F0           MOVX      @DPTR,A
   \   0001E3   80F1         SJMP      ??compactPage_17
    637            else if (skipId == OSAL_NV_ITEM_NULL)
   \                     ??compactPage_16:
   \   0001E5   7409         MOV       A,#0x9
   \   0001E7   12....       LCALL     ?XSTACK_DISP0_8
   \   0001EA   12....       LCALL     ?Subroutine13 & 0xFFFF
   \                     ??CrossCallReturnLabel_16:
   \   0001ED   700E         JNZ       ??compactPage_18
    638            {
    639              COMPACT_PAGE_CLEANUP(srcPg);
   \   0001EF                ; Setup parameters for call to function setPageUse
   \   0001EF   12....       LCALL     ?Subroutine28 & 0xFFFF
   \                     ??CrossCallReturnLabel_54:
   \   0001F2                ; Setup parameters for call to function erasePage
   \   0001F2   A9..         MOV       R1,?V6
   \   0001F4   12....       LCALL     `??erasePage::?relay`; Banked call to: erasePage
   \   0001F7   E5..         MOV       A,?V6
   \   0001F9   90....       MOV       DPTR,#pgRes
   \   0001FC   F0           MOVX      @DPTR,A
    640            }
    641            // else invoking function must cleanup.
    642          
    643            return rtrn;
   \                     ??compactPage_18:
   \   0001FD   85..82       MOV       DPL,?XSP + 0
   \   000200   85..83       MOV       DPH,?XSP + 1
   \   000203   E0           MOVX      A,@DPTR
   \   000204   F9           MOV       R1,A
   \                     ??compactPage_2:
   \   000205   740B         MOV       A,#0xb
   \   000207                REQUIRE ?Subroutine3
   \   000207                ; // Fall through to label ?Subroutine3
    644          }

   \                                 In  segment BANKED_CODE, align 1, keep-with-next
   \                     ?Subroutine3:
   \   000000   12....       LCALL     ?DEALLOC_XSTACK8
   \   000003   7F07         MOV       R7,#0x7
   \   000005   02....       LJMP      ?BANKED_LEAVE_XDATA

   \                                 In  segment BANKED_CODE, align 1, keep-with-next
   \                     ?Subroutine29:
   \   000000   25E0         ADD       A,0xE0 /* A   */
   \   000002                REQUIRE ??Subroutine55_0
   \   000002                ; // Fall through to label ??Subroutine55_0

   \                                 In  segment BANKED_CODE, align 1, keep-with-next
   \                     ?Subroutine25:
   \   000000   90....       MOV       DPTR,#pgRes
   \   000003                REQUIRE ??Subroutine56_0
   \   000003                ; // Fall through to label ??Subroutine56_0

   \                                 In  segment BANKED_CODE, align 1, keep-with-next
   \                     ??Subroutine56_0:
   \   000000   E0           MOVX      A,@DPTR
   \   000001   F9           MOV       R1,A
   \   000002   12....       LCALL     `??erasePage::?relay`; Banked call to: erasePage
   \   000005   22           RET

   \                                 In  segment BANKED_CODE, align 1, keep-with-next
   \                     ?Subroutine17:
   \   000000   12....       LCALL     ?Subroutine46 & 0xFFFF
   \                     ??CrossCallReturnLabel_86:
   \   000003   AA..         MOV       R2,?V0
   \   000005   AB..         MOV       R3,?V1
   \   000007   90....       MOV       DPTR,#pgRes
   \   00000A   E0           MOVX      A,@DPTR
   \   00000B   F9           MOV       R1,A
   \   00000C   22           RET

   \                                 In  segment BANKED_CODE, align 1, keep-with-next
   \                     ?Subroutine28:
   \   000000   7A01         MOV       R2,#0x1
   \   000002   90....       MOV       DPTR,#pgRes
   \   000005   E0           MOVX      A,@DPTR
   \   000006   F9           MOV       R1,A
   \   000007   12....       LCALL     `??setPageUse::?relay`; Banked call to: setPageUse
   \   00000A   22           RET

   \                                 In  segment BANKED_CODE, align 1, keep-with-next
   \                     ?Subroutine19:
   \   000000   E0           MOVX      A,@DPTR
   \   000001   F5..         MOV       ?V0,A
   \   000003   A3           INC       DPTR
   \   000004   E0           MOVX      A,@DPTR
   \   000005   F5..         MOV       ?V1,A
   \   000007   22           RET

   \                                 In  segment BANKED_CODE, align 1, keep-with-next
   \                     ?Subroutine11:
   \   000000   E0           MOVX      A,@DPTR
   \   000001                REQUIRE ??Subroutine60_0
   \   000001                ; // Fall through to label ??Subroutine60_0

   \                                 In  segment BANKED_CODE, align 1, keep-with-next
   \                     ?Subroutine39:
   \   000000   E5..         MOV       A,?V2
   \   000002   2408         ADD       A,#0x8
   \   000004   F5..         MOV       ?V2,A
   \   000006   E4           CLR       A
   \   000007   35..         ADDC      A,?V3
   \   000009   F5..         MOV       ?V3,A
   \   00000B   22           RET

   \                                 In  segment BANKED_CODE, align 1, keep-with-next
   \                     ?Subroutine27:
   \   000000   12....       LCALL     ?Subroutine46 & 0xFFFF
   \                     ??CrossCallReturnLabel_89:
   \   000003   22           RET

   \                                 In  segment BANKED_CODE, align 1, keep-with-next
   \                     ?Subroutine20:
   \   000000   12....       LCALL     ?Subroutine46 & 0xFFFF
   \                     ??CrossCallReturnLabel_88:
   \   000003   EA           MOV       A,R2
   \   000004   6C           XRL       A,R4
   \   000005   22           RET
    645          
    646          /*********************************************************************
    647           * @fn      findItem
    648           *
    649           * @brief   Find an item Id in NV and return the page and offset to its data.
    650           *
    651           * @param   id - Valid NV item Id.
    652           *
    653           * @return  Offset of data corresponding to item Id, if found;
    654           *          otherwise OSAL_NV_ITEM_NULL.
    655           *
    656           *          The page containing the item, if found;
    657           *          otherwise no valid assignment made - left equal to item Id.
    658           *
    659           */

   \                                 In  segment BANKED_CODE, align 1, keep-with-next
    660          static uint16 findItem( uint16 id )
   \                     findItem:
    661          {
   \   000000                REQUIRE ?V0
   \   000000                REQUIRE ?V2
   \   000000                REQUIRE ?V3
   \   000000   74F4         MOV       A,#-0xc
   \   000002   12....       LCALL     ?BANKED_ENTER_XDATA
   \   000005                ; Saved register size: 12
   \   000005                ; Auto size: 0
   \   000005   EA           MOV       A,R2
   \   000006   FE           MOV       R6,A
   \   000007   EB           MOV       A,R3
   \   000008   8003         SJMP      ??findItem_0
    662            uint16 off;
    663            uint8 pg;
    664          
    665            for ( pg = OSAL_NV_PAGE_BEG; pg <= OSAL_NV_PAGE_END; pg++ )
    666            {
    667              if ( (off = initPage( pg, id, FALSE )) != OSAL_NV_ITEM_NULL )
    668              {
    669                findPg = pg;
    670                return off;
    671              }
    672            }
    673          
    674            // Now attempt to find the item as the "old" item of a failed/interrupted NV write.
    675            if ( (id & OSAL_NV_SOURCE_ID) == 0 )
    676            {
    677              return findItem( id | OSAL_NV_SOURCE_ID );
   \                     ??findItem_1:
   \   00000A   7480         MOV       A,#-0x80
   \   00000C   4F           ORL       A,R7
   \                     ??findItem_0:
   \   00000D   FF           MOV       R7,A
    678            }
   \   00000E   75..79       MOV       ?V0,#0x79
   \                     ??findItem_2:
   \   000011                ; Setup parameters for call to function initPage
   \   000011   7C00         MOV       R4,#0x0
   \   000013   EE           MOV       A,R6
   \   000014   FA           MOV       R2,A
   \   000015   EF           MOV       A,R7
   \   000016   FB           MOV       R3,A
   \   000017   A9..         MOV       R1,?V0
   \   000019   12....       LCALL     `??initPage::?relay`; Banked call to: initPage
   \   00001C   EA           MOV       A,R2
   \   00001D   4B           ORL       A,R3
   \   00001E   6008         JZ        ??findItem_3
   \   000020   E5..         MOV       A,?V0
   \   000022   90....       MOV       DPTR,#findPg
   \   000025   F0           MOVX      @DPTR,A
   \   000026   8015         SJMP      ??findItem_4
   \                     ??findItem_3:
   \   000028   05..         INC       ?V0
   \   00002A   E5..         MOV       A,?V0
   \   00002C   C3           CLR       C
   \   00002D   947F         SUBB      A,#0x7f
   \   00002F   40E0         JC        ??findItem_2
   \   000031   EF           MOV       A,R7
   \   000032   5480         ANL       A,#0x80
   \   000034   60D4         JZ        ??findItem_1
    679            else
    680            {
    681              findPg = OSAL_NV_PAGE_NULL;
   \   000036   90....       MOV       DPTR,#findPg
   \   000039   E4           CLR       A
   \   00003A   F0           MOVX      @DPTR,A
    682              return OSAL_NV_ITEM_NULL;
   \   00003B   FA           MOV       R2,A
   \   00003C   FB           MOV       R3,A
    683            }
   \                     ??findItem_4:
   \   00003D   02....       LJMP      ??Subroutine52_0 & 0xFFFF
    684          }
    685          
    686          /*********************************************************************
    687           * @fn      initItem
    688           *
    689           * @brief   An NV item is created and initialized with the data passed to the function, if any.
    690           *
    691           * @param   flag - TRUE if the 'buf' parameter contains data for the call to writeItem().
    692           *                 (i.e. if invoked from osal_nv_item_init() ).
    693           *                 FALSE if writeItem() should just write the header and the 'buf' parameter
    694           *                 is ok to use as a return value of the page number to be cleaned with
    695           *                 COMPACT_PAGE_CLEANUP().
    696           *                 (i.e. if invoked from osal_nv_write() ).
    697           * @param   id  - Valid NV item Id.
    698           * @param   len - Item data length.
    699           * @param  *buf - Pointer to item initalization data. Set to NULL if none.
    700           *
    701           * @return  The OSAL Nv page number if item write and read back checksums ok;
    702           *          OSAL_NV_PAGE_NULL otherwise.
    703           */

   \                                 In  segment BANKED_CODE, align 1, keep-with-next
    704          static uint8 initItem( uint8 flag, uint16 id, uint16 len, void *buf )
   \                     initItem:
    705          {
   \   000000                REQUIRE ?V0
   \   000000                REQUIRE ?V1
   \   000000                REQUIRE ?V2
   \   000000                REQUIRE ?V3
   \   000000                REQUIRE ?V4
   \   000000                REQUIRE ?V6
   \   000000                REQUIRE ?V7
   \   000000   74F0         MOV       A,#-0x10
   \   000002   12....       LCALL     ?BANKED_ENTER_XDATA
   \   000005                ; Saved register size: 16
   \   000005                ; Auto size: 10
   \   000005   74F6         MOV       A,#-0xa
   \   000007   12....       LCALL     ?ALLOC_XSTACK8
   \   00000A   89..         MOV       ?V4,R1
   \   00000C   8A..         MOV       ?V6,R2
   \   00000E   8B..         MOV       ?V7,R3
   \   000010   8C..         MOV       ?V0,R4
   \   000012   8D..         MOV       ?V1,R5
    706            uint16 sz = OSAL_NV_ITEM_SIZE( len );
   \   000014   C3           CLR       C
   \   000015   EC           MOV       A,R4
   \   000016   94F4         SUBB      A,#-0xc
   \   000018   ED           MOV       A,R5
   \   000019   94FF         SUBB      A,#-0x1
   \   00001B   400E         JC        ??initItem_0
   \   00001D   85..82       MOV       DPL,?XSP + 0
   \   000020   85..83       MOV       DPH,?XSP + 1
   \   000023   74FC         MOV       A,#-0x4
   \   000025   F0           MOVX      @DPTR,A
   \   000026   A3           INC       DPTR
   \   000027   74FF         MOV       A,#-0x1
   \   000029   8019         SJMP      ??initItem_1
   \                     ??initItem_0:
   \   00002B   EC           MOV       A,R4
   \   00002C   2403         ADD       A,#0x3
   \   00002E   F8           MOV       R0,A
   \   00002F   E4           CLR       A
   \   000030   35..         ADDC      A,?V1
   \   000032   F9           MOV       R1,A
   \   000033   E8           MOV       A,R0
   \   000034   54FC         ANL       A,#0xfc
   \   000036   2408         ADD       A,#0x8
   \   000038   5001         JNC       ??initItem_2
   \   00003A   09           INC       R1
   \                     ??initItem_2:
   \   00003B   85..82       MOV       DPL,?XSP + 0
   \   00003E   85..83       MOV       DPH,?XSP + 1
   \   000041   F0           MOVX      @DPTR,A
   \   000042   A3           INC       DPTR
   \   000043   E9           MOV       A,R1
   \                     ??initItem_1:
   \   000044   F0           MOVX      @DPTR,A
    707            uint8 rtrn = OSAL_NV_PAGE_NULL;
   \   000045   7F00         MOV       R7,#0x0
    708            uint8 cnt = OSAL_NV_PAGES_USED;
   \   000047   7C06         MOV       R4,#0x6
    709            uint8 pg = pgRes+1;  // Set to 1 after the reserve page to even wear across all available pages.
   \   000049   90....       MOV       DPTR,#pgRes
   \   00004C   E0           MOVX      A,@DPTR
   \   00004D   04           INC       A
   \   00004E   FE           MOV       R6,A
    710          
    711            do {
    712              if (pg >= OSAL_NV_PAGE_BEG+OSAL_NV_PAGES_USED)
   \                     ??initItem_3:
   \   00004F   EE           MOV       A,R6
   \   000050   C3           CLR       C
   \   000051   947F         SUBB      A,#0x7f
   \   000053   4002         JC        ??initItem_4
    713              {
    714                pg = OSAL_NV_PAGE_BEG;
   \   000055   7E79         MOV       R6,#0x79
    715              }
    716              if ( pg != pgRes )
   \                     ??initItem_4:
   \   000057   90....       MOV       DPTR,#pgRes
   \   00005A   E0           MOVX      A,@DPTR
   \   00005B   6E           XRL       A,R6
   \   00005C   6030         JZ        ??initItem_5
    717              {
    718                uint8 idx = pg - OSAL_NV_PAGE_BEG;
   \   00005E   7487         MOV       A,#-0x79
   \   000060   2E           ADD       A,R6
    719                if ( sz <= (OSAL_NV_PAGE_SIZE - pgOff[idx] + pgLost[idx]) )
   \   000061   25E0         ADD       A,0xE0 /* A   */
   \   000063   F8           MOV       R0,A
   \   000064   E4           CLR       A
   \   000065   33           RLC       A
   \   000066   F9           MOV       R1,A
   \   000067   74..         MOV       A,#pgOff & 0xff
   \   000069   28           ADD       A,R0
   \   00006A   F582         MOV       DPL,A
   \   00006C   74..         MOV       A,#(pgOff >> 8) & 0xff
   \   00006E   12....       LCALL     ?Subroutine12 & 0xFFFF
    720                {
    721                  break;
    722                }
    723              }
   \                     ??CrossCallReturnLabel_161:
   \   000071   E4           CLR       A
   \   000072   C3           CLR       C
   \   000073   9A           SUBB      A,R2
   \   000074   FA           MOV       R2,A
   \   000075   7408         MOV       A,#0x8
   \   000077   9B           SUBB      A,R3
   \   000078   FB           MOV       R3,A
   \   000079   74..         MOV       A,#pgLost & 0xff
   \   00007B   28           ADD       A,R0
   \   00007C   F582         MOV       DPL,A
   \   00007E   74..         MOV       A,#(pgLost >> 8) & 0xff
   \   000080   39           ADDC      A,R1
   \   000081   F583         MOV       DPH,A
   \   000083   E0           MOVX      A,@DPTR
   \   000084   2A           ADD       A,R2
   \   000085   FA           MOV       R2,A
   \   000086   A3           INC       DPTR
   \   000087   E0           MOVX      A,@DPTR
   \   000088   3B           ADDC      A,R3
   \   000089   12....       LCALL     ?Subroutine22 & 0xFFFF
   \                     ??CrossCallReturnLabel_36:
   \   00008C   5008         JNC       ??initItem_6
    724              pg++;
   \                     ??initItem_5:
   \   00008E   0E           INC       R6
    725            } while (--cnt);
   \   00008F   1C           DEC       R4
   \   000090   EC           MOV       A,R4
   \   000091   70BC         JNZ       ??initItem_3
   \   000093   02....       LJMP      ??initItem_7 & 0xFFFF
    726          
    727            if (cnt)
   \                     ??initItem_6:
   \   000096   EC           MOV       A,R4
   \   000097   7003         JNZ       $+5
   \   000099   02....       LJMP      ??initItem_7 & 0xFFFF
    728            {
    729              // Item fits if an old page is compacted.
    730              if ( sz > (OSAL_NV_PAGE_SIZE - pgOff[pg - OSAL_NV_PAGE_BEG]) )
   \   00009C   EE           MOV       A,R6
   \   00009D   12....       LCALL     ?Subroutine29 & 0xFFFF
   \                     ??CrossCallReturnLabel_99:
   \   0000A0   12....       LCALL     ?Subroutine23 & 0xFFFF
   \                     ??CrossCallReturnLabel_39:
   \   0000A3   E4           CLR       A
   \   0000A4   C3           CLR       C
   \   0000A5   98           SUBB      A,R0
   \   0000A6   FA           MOV       R2,A
   \   0000A7   7408         MOV       A,#0x8
   \   0000A9   99           SUBB      A,R1
   \   0000AA   12....       LCALL     ?Subroutine22 & 0xFFFF
   \                     ??CrossCallReturnLabel_37:
   \   0000AD   4003         JC        $+5
   \   0000AF   02....       LJMP      ??initItem_8 & 0xFFFF
    731              {
    732                osalNvPgHdr_t pgHdr;
    733          
    734                /* Prevent excessive re-writes to page header caused by numerous, rapid, & successive
    735                 * OSAL_Nv interruptions caused by resets.
    736                 */
    737                HalFlashRead(pg, OSAL_NV_PAGE_HDR_OFFSET, (uint8 *)(&pgHdr), OSAL_NV_PAGE_HDR_SIZE);
   \   0000B2                ; Setup parameters for call to function HalFlashRead
   \   0000B2   75..08       MOV       ?V2,#0x8
   \   0000B5   8F..         MOV       ?V3,R7
   \   0000B7   78..         MOV       R0,#?V2
   \   0000B9   12....       LCALL     ?PUSH_XSTACK_I_TWO
   \   0000BC   7404         MOV       A,#0x4
   \   0000BE   12....       LCALL     ?XSTACK_DISP102_8
   \   0000C1   7A00         MOV       R2,#0x0
   \   0000C3   7B00         MOV       R3,#0x0
   \   0000C5   EE           MOV       A,R6
   \   0000C6   12....       LCALL     ??Subroutine60_0 & 0xFFFF
   \                     ??CrossCallReturnLabel_124:
   \   0000C9   12....       LCALL     ?DEALLOC_XSTACK8
    738                if ( pgHdr.xfer == OSAL_NV_ERASED_ID )
   \   0000CC   7406         MOV       A,#0x6
   \   0000CE   12....       LCALL     ?XSTACK_DISP0_8
   \   0000D1   E0           MOVX      A,@DPTR
   \   0000D2   F4           CPL       A
   \   0000D3   7003         JNZ       ??initItem_9
   \   0000D5   A3           INC       DPTR
   \   0000D6   E0           MOVX      A,@DPTR
   \   0000D7   F4           CPL       A
   \                     ??initItem_9:
   \   0000D8   700B         JNZ       ??initItem_10
    739                {
    740                  // Mark the old page as being in process of compaction.
    741                  sz = OSAL_NV_ZEROED_ID;
   \   0000DA   12....       LCALL     ?Subroutine7 & 0xFFFF
    742                  writeWordH( pg, OSAL_NV_PG_XFER, (uint8*)(&sz) );
    743                }
   \                     ??CrossCallReturnLabel_104:
   \   0000DD   7A04         MOV       R2,#0x4
   \   0000DF   FB           MOV       R3,A
   \   0000E0   EE           MOV       A,R6
   \   0000E1   F9           MOV       R1,A
   \   0000E2   12....       LCALL     `??writeWordH::?relay`; Banked call to: writeWordH
    744          
    745                /* First the old page is compacted, then the new item will be the last one written to what
    746                 * had been the reserved page.
    747                 */
    748                if (compactPage( pg, id ))
   \                     ??initItem_10:
   \   0000E5                ; Setup parameters for call to function compactPage
   \   0000E5   AA..         MOV       R2,?V6
   \   0000E7   AB..         MOV       R3,?V7
   \   0000E9   EE           MOV       A,R6
   \   0000EA   F9           MOV       R1,A
   \   0000EB   12....       LCALL     `??compactPage::?relay`; Banked call to: compactPage
   \   0000EE   E9           MOV       A,R1
   \   0000EF   6072         JZ        ??initItem_7
    749                {
    750                  if ( writeItem( pgRes, id, len, buf, flag ) )
   \   0000F1                ; Setup parameters for call to function writeItem
   \   0000F1   E5..         MOV       A,?V4
   \   0000F3   F5..         MOV       ?V2,A
   \   0000F5   78..         MOV       R0,#?V2
   \   0000F7   12....       LCALL     ?PUSH_XSTACK_I_ONE
   \   0000FA   741B         MOV       A,#0x1b
   \   0000FC   12....       LCALL     ?XSTACK_DISP0_8
   \   0000FF   12....       LCALL     ?PUSH_XSTACK8_X_TWO
   \   000102   AC..         MOV       R4,?V0
   \   000104   AD..         MOV       R5,?V1
   \   000106   AA..         MOV       R2,?V6
   \   000108   AB..         MOV       R3,?V7
   \   00010A   90....       MOV       DPTR,#pgRes
   \   00010D   E0           MOVX      A,@DPTR
   \   00010E   F9           MOV       R1,A
   \   00010F   12....       LCALL     `??writeItem::?relay`; Banked call to: writeItem
   \   000112   7403         MOV       A,#0x3
   \   000114   12....       LCALL     ?DEALLOC_XSTACK8
   \   000117   E9           MOV       A,R1
   \   000118   6005         JZ        ??initItem_11
    751                  {
    752                    rtrn = pgRes;
   \   00011A   90....       MOV       DPTR,#pgRes
   \   00011D   E0           MOVX      A,@DPTR
   \   00011E   FF           MOV       R7,A
    753                  }
    754          
    755                  if ( flag == FALSE )
   \                     ??initItem_11:
   \   00011F   E5..         MOV       A,?V4
   \   000121   700B         JNZ       ??initItem_12
    756                  {
    757                    /* Overload 'buf' as an OUT parameter to pass back to the calling function
    758                     * the old page to be cleaned up.
    759                     */
    760                    *(uint8 *)buf = pg;
   \   000123   741A         MOV       A,#0x1a
   \   000125   12....       LCALL     ?XSTACK_DISP0_8
   \   000128   12....       LCALL     ?Subroutine50 & 0xFFFF
    761                  }
   \                     ??CrossCallReturnLabel_142:
   \   00012B   EE           MOV       A,R6
   \   00012C   800C         SJMP      ??initItem_13
    762                  else
    763                  {
    764                    /* Safe to do the compacted page cleanup even if writeItem() above failed because the
    765                     * item does not yet exist since this call with flag==TRUE is from osal_nv_item_init().
    766                     */
    767                    COMPACT_PAGE_CLEANUP( pg );
   \                     ??initItem_12:
   \   00012E                ; Setup parameters for call to function setPageUse
   \   00012E   12....       LCALL     ?Subroutine28 & 0xFFFF
   \                     ??CrossCallReturnLabel_55:
   \   000131                ; Setup parameters for call to function erasePage
   \   000131   EE           MOV       A,R6
   \   000132   F9           MOV       R1,A
   \   000133   12....       LCALL     `??erasePage::?relay`; Banked call to: erasePage
   \   000136   EE           MOV       A,R6
   \   000137   90....       MOV       DPTR,#pgRes
   \                     ??initItem_13:
   \   00013A   F0           MOVX      @DPTR,A
   \   00013B   8026         SJMP      ??initItem_7
    768                  }
    769                }
    770              }
    771              else
    772              {
    773                if ( writeItem( pg, id, len, buf, flag ) )
   \                     ??initItem_8:
   \   00013D                ; Setup parameters for call to function writeItem
   \   00013D   E5..         MOV       A,?V4
   \   00013F   F5..         MOV       ?V2,A
   \   000141   78..         MOV       R0,#?V2
   \   000143   12....       LCALL     ?PUSH_XSTACK_I_ONE
   \   000146   741B         MOV       A,#0x1b
   \   000148   12....       LCALL     ?XSTACK_DISP0_8
   \   00014B   12....       LCALL     ?PUSH_XSTACK8_X_TWO
   \   00014E   AC..         MOV       R4,?V0
   \   000150   AA..         MOV       R2,?V6
   \   000152   AB..         MOV       R3,?V7
   \   000154   EE           MOV       A,R6
   \   000155   F9           MOV       R1,A
   \   000156   12....       LCALL     `??writeItem::?relay`; Banked call to: writeItem
   \   000159   7403         MOV       A,#0x3
   \   00015B   12....       LCALL     ?DEALLOC_XSTACK8
   \   00015E   E9           MOV       A,R1
   \   00015F   6002         JZ        ??initItem_7
    774                {
    775                  rtrn = pg;
   \   000161   EE           MOV       A,R6
   \   000162   FF           MOV       R7,A
    776                }
    777              }
    778            }
    779          
    780            return rtrn;
   \                     ??initItem_7:
   \   000163   EF           MOV       A,R7
   \   000164   F9           MOV       R1,A
   \   000165   02....       LJMP      ?Subroutine2 & 0xFFFF
    781          }

   \                                 In  segment BANKED_CODE, align 1, keep-with-next
   \                     ?Subroutine22:
   \   000000   FB           MOV       R3,A
   \   000001   85..82       MOV       DPL,?XSP + 0
   \   000004   85..83       MOV       DPH,?XSP + 1
   \   000007   E0           MOVX      A,@DPTR
   \   000008   F8           MOV       R0,A
   \   000009   A3           INC       DPTR
   \   00000A   E0           MOVX      A,@DPTR
   \   00000B   F9           MOV       R1,A
   \   00000C   C3           CLR       C
   \   00000D   EA           MOV       A,R2
   \   00000E   98           SUBB      A,R0
   \   00000F   EB           MOV       A,R3
   \   000010   99           SUBB      A,R1
   \   000011   22           RET

   \                                 In  segment BANKED_CODE, align 1, keep-with-next
   \                     ?Subroutine7:
   \   000000   85..82       MOV       DPL,?XSP + 0
   \   000003   85..83       MOV       DPH,?XSP + 1
   \   000006   E4           CLR       A
   \   000007                REQUIRE ??Subroutine57_0
   \   000007                ; // Fall through to label ??Subroutine57_0

   \                                 In  segment BANKED_CODE, align 1, keep-with-next
   \                     ?Subroutine50:
   \   000000   E0           MOVX      A,@DPTR
   \   000001   F8           MOV       R0,A
   \   000002   A3           INC       DPTR
   \   000003   E0           MOVX      A,@DPTR
   \   000004   F583         MOV       DPH,A
   \   000006   8882         MOV       DPL,R0
   \   000008   22           RET
    782          
    783          /*********************************************************************
    784           * @fn      setItem
    785           *
    786           * @brief   Set an item Id or status to mark its state.
    787           *
    788           * @param   pg - Valid NV page.
    789           * @param   offset - Valid offset into the page of the item data - the header
    790           *                   offset is calculated from this.
    791           * @param   stat - Valid enum value for the item status.
    792           *
    793           * @return  none
    794           */

   \                                 In  segment BANKED_CODE, align 1, keep-with-next
    795          static void setItem( uint8 pg, uint16 offset, eNvHdrEnum stat )
   \                     setItem:
    796          {
   \   000000                REQUIRE ?V0
   \   000000                REQUIRE ?V1
   \   000000                REQUIRE ?V2
   \   000000                REQUIRE ?V3
   \   000000                REQUIRE ?V4
   \   000000                REQUIRE ?V5
   \   000000   74F2         MOV       A,#-0xe
   \   000002   12....       LCALL     ?BANKED_ENTER_XDATA
   \   000005                ; Saved register size: 14
   \   000005                ; Auto size: 8
   \   000005   74F8         MOV       A,#-0x8
   \   000007   12....       LCALL     ?ALLOC_XSTACK8
   \   00000A   89..         MOV       ?V2,R1
   \   00000C   8C..         MOV       ?V3,R4
    797            osalNvHdr_t hdr;
    798          
    799            offset -= OSAL_NV_HDR_SIZE;
   \   00000E   EA           MOV       A,R2
   \   00000F   24F8         ADD       A,#-0x8
   \   000011   F5..         MOV       ?V0,A
   \   000013   EB           MOV       A,R3
   \   000014   34FF         ADDC      A,#-0x1
   \   000016   F5..         MOV       ?V1,A
    800            HalFlashRead(pg, offset, (uint8 *)(&hdr), OSAL_NV_HDR_SIZE);
   \   000018                ; Setup parameters for call to function HalFlashRead
   \   000018   75..08       MOV       ?V4,#0x8
   \   00001B   75..00       MOV       ?V5,#0x0
   \   00001E   78..         MOV       R0,#?V4
   \   000020   12....       LCALL     ?PUSH_XSTACK_I_TWO
   \   000023   7402         MOV       A,#0x2
   \   000025   12....       LCALL     ?XSTACK_DISP102_8
   \   000028   AA..         MOV       R2,?V0
   \   00002A   AB..         MOV       R3,?V1
   \   00002C   12....       LCALL     ??Subroutine61_0 & 0xFFFF
   \                     ??CrossCallReturnLabel_127:
   \   00002F   12....       LCALL     ?DEALLOC_XSTACK8
    801          
    802            if ( stat == eNvXfer )
   \   000032   E5..         MOV       A,?V3
   \   000034   7022         JNZ       ??setItem_0
    803            {
    804              hdr.stat = OSAL_NV_ACTIVE;
   \   000036   7406         MOV       A,#0x6
   \   000038   12....       LCALL     ?XSTACK_DISP0_8
   \   00003B   E4           CLR       A
   \   00003C   F0           MOVX      @DPTR,A
   \   00003D   A3           INC       DPTR
   \   00003E   F0           MOVX      @DPTR,A
    805              /* Write status to flash. Total of 4 bytes written to Flash 
    806               * ( 2 bytes of checksum and 2 bytes of status) 
    807               */
    808              writeWord( pg, offset+OSAL_NV_HDR_CHK, (uint8*)(&(hdr.chk)) );
   \   00003F                ; Setup parameters for call to function writeWord
   \   00003F   7404         MOV       A,#0x4
   \   000041   12....       LCALL     ?XSTACK_DISP0_8
   \   000044   AC82         MOV       R4,DPL
   \   000046   AD83         MOV       R5,DPH
   \   000048   E5..         MOV       A,?V0
   \   00004A   2404         ADD       A,#0x4
   \   00004C   FA           MOV       R2,A
   \   00004D   E4           CLR       A
   \   00004E   35..         ADDC      A,?V1
   \   000050   FB           MOV       R3,A
   \   000051   A9..         MOV       R1,?V2
   \   000053   12....       LCALL     `??writeWord::?relay`; Banked call to: writeWord
   \   000056   8031         SJMP      ??CrossCallReturnLabel_108
    809            }
    810            else // if ( stat == eNvZero )
    811            {
    812              uint16 sz = ((hdr.len + (OSAL_NV_WORD_SIZE-1)) / OSAL_NV_WORD_SIZE) * OSAL_NV_WORD_SIZE +
    813                                                                                    OSAL_NV_HDR_SIZE;
   \                     ??setItem_0:
   \   000058   7402         MOV       A,#0x2
   \   00005A   12....       LCALL     ?XSTACK_DISP0_8
   \   00005D   E0           MOVX      A,@DPTR
   \   00005E   2403         ADD       A,#0x3
   \   000060   F8           MOV       R0,A
   \   000061   A3           INC       DPTR
   \   000062   E0           MOVX      A,@DPTR
   \   000063   3400         ADDC      A,#0x0
   \   000065   F9           MOV       R1,A
   \   000066   E8           MOV       A,R0
   \   000067   12....       LCALL     ?Subroutine34 & 0xFFFF
    814              hdr.id = 0;
   \                     ??CrossCallReturnLabel_63:
   \   00006A   12....       LCALL     ?Subroutine7 & 0xFFFF
    815              writeWord( pg, offset, (uint8 *)(&hdr) );
   \                     ??CrossCallReturnLabel_105:
   \   00006D   AA..         MOV       R2,?V0
   \   00006F   AB..         MOV       R3,?V1
   \   000071   A9..         MOV       R1,?V2
   \   000073   12....       LCALL     `??writeWord::?relay`; Banked call to: writeWord
    816              pgLost[pg-OSAL_NV_PAGE_BEG] += sz;
   \   000076   A8..         MOV       R0,?V2
   \   000078   E8           MOV       A,R0
   \   000079   28           ADD       A,R0
   \   00007A   F8           MOV       R0,A
   \   00007B   E4           CLR       A
   \   00007C   33           RLC       A
   \   00007D   F9           MOV       R1,A
   \   00007E   74..         MOV       A,#(pgLost + 14) & 0xff
   \   000080   28           ADD       A,R0
   \   000081   F582         MOV       DPL,A
   \   000083   74..         MOV       A,#((pgLost - 242) >> 8) & 0xff
   \   000085   39           ADDC      A,R1
   \   000086   12....       LCALL     ?Subroutine37 & 0xFFFF
    817            }
    818          }
   \                     ??CrossCallReturnLabel_108:
   \   000089   7408         MOV       A,#0x8
   \   00008B   12....       LCALL     ?DEALLOC_XSTACK8
   \   00008E                REQUIRE ?Subroutine4
   \   00008E                ; // Fall through to label ?Subroutine4

   \                                 In  segment BANKED_CODE, align 1, keep-with-next
   \                     ?Subroutine4:
   \   000000   7F06         MOV       R7,#0x6
   \   000002   02....       LJMP      ?BANKED_LEAVE_XDATA

   \                                 In  segment BANKED_CODE, align 1, keep-with-next
   \                     ?Subroutine37:
   \   000000   F583         MOV       DPH,A
   \   000002   E0           MOVX      A,@DPTR
   \   000003                REQUIRE ??Subroutine58_0
   \   000003                ; // Fall through to label ??Subroutine58_0

   \                                 In  segment BANKED_CODE, align 1, keep-with-next
   \                     ??Subroutine58_0:
   \   000000   2E           ADD       A,R6
   \   000001   F0           MOVX      @DPTR,A
   \   000002   A3           INC       DPTR
   \   000003   E0           MOVX      A,@DPTR
   \   000004   3F           ADDC      A,R7
   \   000005   F0           MOVX      @DPTR,A
   \   000006   22           RET

   \                                 In  segment BANKED_CODE, align 1, keep-with-next
   \                     ?Subroutine34:
   \   000000   54FC         ANL       A,#0xfc
   \   000002   2408         ADD       A,#0x8
   \   000004   FE           MOV       R6,A
   \   000005   E4           CLR       A
   \   000006   39           ADDC      A,R1
   \   000007   FF           MOV       R7,A
   \   000008   22           RET
    819          
    820          /*********************************************************************
    821           * @fn      setChk
    822           *
    823           * @brief   Set the item header checksum given the data buffer offset.
    824           *
    825           * @param   pg - Valid NV page.
    826           * @param   offset - Valid offset into the page of the item data - the header
    827           *                   offset is calculated from this.
    828           * @param   chk - The checksum to set.
    829           *
    830           * @return  The checksum read back.
    831           */

   \                                 In  segment BANKED_CODE, align 1, keep-with-next
   \                     ?Subroutine0:
   \   000000   7402         MOV       A,#0x2
   \   000002                REQUIRE ??Subroutine51_0
   \   000002                ; // Fall through to label ??Subroutine51_0

   \                                 In  segment BANKED_CODE, align 1, keep-with-next
    832          static uint16 setChk( uint8 pg, uint16 offset, uint16 chk )
   \                     setChk:
    833          {
   \   000000                REQUIRE ?V0
   \   000000                REQUIRE ?V2
   \   000000                REQUIRE ?V3
   \   000000   74F4         MOV       A,#-0xc
   \   000002   12....       LCALL     ?BANKED_ENTER_XDATA
   \   000005                ; Saved register size: 12
   \   000005                ; Auto size: 2
   \   000005   74FE         MOV       A,#-0x2
   \   000007   12....       LCALL     ?ALLOC_XSTACK8
   \   00000A   85..82       MOV       DPL,?XSP + 0
   \   00000D   85..83       MOV       DPH,?XSP + 1
   \   000010   EC           MOV       A,R4
   \   000011   F0           MOVX      @DPTR,A
   \   000012   A3           INC       DPTR
   \   000013   ED           MOV       A,R5
   \   000014   F0           MOVX      @DPTR,A
   \   000015   89..         MOV       ?V0,R1
    834            offset -= OSAL_NV_WORD_SIZE;
   \   000017   EA           MOV       A,R2
   \   000018   24FC         ADD       A,#-0x4
   \   00001A   FE           MOV       R6,A
   \   00001B   EB           MOV       A,R3
   \   00001C   34FF         ADDC      A,#-0x1
   \   00001E   FF           MOV       R7,A
    835            writeWordH( pg, offset, (uint8 *)&chk );
   \   00001F                ; Setup parameters for call to function writeWordH
   \   00001F   AC..         MOV       R4,?XSP + 0
   \   000021   AD..         MOV       R5,?XSP + 1
   \   000023   EE           MOV       A,R6
   \   000024   FA           MOV       R2,A
   \   000025   EF           MOV       A,R7
   \   000026   FB           MOV       R3,A
   \   000027   12....       LCALL     `??writeWordH::?relay`; Banked call to: writeWordH
    836            HalFlashRead( pg, offset, (uint8 *)(&chk), sizeof( chk ) );
   \   00002A                ; Setup parameters for call to function HalFlashRead
   \   00002A   75..02       MOV       ?V2,#0x2
   \   00002D   75..00       MOV       ?V3,#0x0
   \   000030   78..         MOV       R0,#?V2
   \   000032   12....       LCALL     ?PUSH_XSTACK_I_TWO
   \   000035   7402         MOV       A,#0x2
   \   000037   12....       LCALL     ?XSTACK_DISP102_8
   \   00003A   EE           MOV       A,R6
   \   00003B   FA           MOV       R2,A
   \   00003C   EF           MOV       A,R7
   \   00003D   FB           MOV       R3,A
   \   00003E   A9..         MOV       R1,?V0
   \   000040   12....       LCALL     ??Subroutine61_0 & 0xFFFF
   \                     ??CrossCallReturnLabel_128:
   \   000043   12....       LCALL     ?DEALLOC_XSTACK8
    837          
    838            return chk;
   \   000046   85..82       MOV       DPL,?XSP + 0
   \   000049   85..83       MOV       DPH,?XSP + 1
   \   00004C   12....       LCALL     ??Subroutine67_0 & 0xFFFF
   \                     ??CrossCallReturnLabel_150:
   \   00004F   02....       LJMP      ?Subroutine0 & 0xFFFF
    839          }
    840          
    841          /*********************************************************************
    842           * @fn      calcChkB
    843           *
    844           * @brief   Calculates the data checksum over the 'buf' parameter.
    845           *
    846           * @param   len - Byte count of the data to be checksummed.
    847           * @param   buf - Data buffer to be checksummed.
    848           *
    849           * @return  Calculated checksum of the data bytes.
    850           */
    851          static uint16 calcChkB( uint16 len, uint8 *buf )
    852          {
    853            uint8 fill = len % OSAL_NV_WORD_SIZE;
    854            uint16 chk;
    855          
    856            if ( !buf )
    857            {
    858              chk = len * OSAL_NV_ERASED;
    859            }
    860            else
    861            {
    862              chk = 0;
    863              while ( len-- )
    864              {
    865                chk += *buf++;
    866              }
    867            }
    868          
    869            // calcChkF() will calculate over OSAL_NV_WORD_SIZE alignment.
    870            if ( fill )
    871            {
    872              chk += (OSAL_NV_WORD_SIZE - fill) * OSAL_NV_ERASED;
    873            }
    874          
    875            return chk;
    876          }
    877          
    878          /*********************************************************************
    879           * @fn      calcChkF
    880           *
    881           * @brief   Calculates the data checksum by reading the data bytes from NV.
    882           *
    883           * @param   pg - A valid NV Flash page.
    884           * @param   offset - A valid offset into the page.
    885           * @param   len - Byte count of the data to be checksummed.
    886           *
    887           * @return  Calculated checksum of the data bytes.
    888           */

   \                                 In  segment BANKED_CODE, align 1, keep-with-next
    889          static uint16 calcChkF( uint8 pg, uint16 offset, uint16 len )
   \                     calcChkF:
    890          {
   \   000000                REQUIRE ?V0
   \   000000                REQUIRE ?V1
   \   000000                REQUIRE ?V2
   \   000000                REQUIRE ?V3
   \   000000                REQUIRE ?V4
   \   000000                REQUIRE ?V5
   \   000000                REQUIRE ?V6
   \   000000   74F1         MOV       A,#-0xf
   \   000002   12....       LCALL     ?BANKED_ENTER_XDATA
   \   000005                ; Saved register size: 15
   \   000005                ; Auto size: 4
   \   000005   74FC         MOV       A,#-0x4
   \   000007   12....       LCALL     ?ALLOC_XSTACK8
   \   00000A   89..         MOV       ?V6,R1
   \   00000C   8A..         MOV       ?V0,R2
   \   00000E   8B..         MOV       ?V1,R3
   \   000010   ED           MOV       A,R5
   \   000011   FF           MOV       R7,A
    891            uint16 chk = 0;
   \   000012   75..00       MOV       ?V2,#0x0
   \   000015   75..00       MOV       ?V3,#0x0
    892          
    893            len = (len + (OSAL_NV_WORD_SIZE-1)) / OSAL_NV_WORD_SIZE;
   \   000018   EC           MOV       A,R4
   \   000019   2403         ADD       A,#0x3
   \   00001B   F5..         MOV       ?V4,A
   \   00001D   E4           CLR       A
   \   00001E   3F           ADDC      A,R7
   \   00001F   F5..         MOV       ?V5,A
   \   000021   7402         MOV       A,#0x2
   \   000023   78..         MOV       R0,#?V4
   \   000025   12....       LCALL     ?US_SHR
   \   000028   AE..         MOV       R6,?V4
   \   00002A   AF..         MOV       R7,?V5
    894          
    895            while ( len-- )
   \                     ??calcChkF_0:
   \   00002C   12....       LCALL     ?Subroutine43 & 0xFFFF
   \                     ??CrossCallReturnLabel_78:
   \   00002F   6048         JZ        ??calcChkF_1
    896            {
    897              uint8 cnt, tmp[OSAL_NV_WORD_SIZE];
    898          
    899              HalFlashRead(pg, offset, tmp, OSAL_NV_WORD_SIZE);
   \   000031                ; Setup parameters for call to function HalFlashRead
   \   000031   75..04       MOV       ?V4,#0x4
   \   000034   75..00       MOV       ?V5,#0x0
   \   000037   78..         MOV       R0,#?V4
   \   000039   12....       LCALL     ?PUSH_XSTACK_I_TWO
   \   00003C   7402         MOV       A,#0x2
   \   00003E   12....       LCALL     ?XSTACK_DISP102_8
   \   000041   AA..         MOV       R2,?V0
   \   000043   AB..         MOV       R3,?V1
   \   000045   A9..         MOV       R1,?V6
   \   000047   12....       LCALL     ??Subroutine61_0 & 0xFFFF
   \                     ??CrossCallReturnLabel_129:
   \   00004A   12....       LCALL     ?DEALLOC_XSTACK8
    900              offset += OSAL_NV_WORD_SIZE;
   \   00004D   12....       LCALL     ?Subroutine49 & 0xFFFF
    901          
    902              for ( cnt = 0; cnt < OSAL_NV_WORD_SIZE; cnt++ )
   \                     ??CrossCallReturnLabel_113:
   \   000050   7800         MOV       R0,#0x0
    903              {
    904                chk += tmp[cnt];
   \                     ??calcChkF_2:
   \   000052   E8           MOV       A,R0
   \   000053   FA           MOV       R2,A
   \   000054   85..82       MOV       DPL,?XSP + 0
   \   000057   85..83       MOV       DPH,?XSP + 1
   \   00005A   E582         MOV       A,DPL
   \   00005C   2A           ADD       A,R2
   \   00005D   F582         MOV       DPL,A
   \   00005F   E4           CLR       A
   \   000060   3583         ADDC      A,DPH
   \   000062   F583         MOV       DPH,A
   \   000064   E0           MOVX      A,@DPTR
   \   000065   FA           MOV       R2,A
   \   000066   E5..         MOV       A,?V2
   \   000068   2A           ADD       A,R2
   \   000069   F5..         MOV       ?V2,A
   \   00006B   E4           CLR       A
   \   00006C   35..         ADDC      A,?V3
   \   00006E   F5..         MOV       ?V3,A
    905              }
   \   000070   08           INC       R0
   \   000071   E8           MOV       A,R0
   \   000072   C3           CLR       C
   \   000073   9404         SUBB      A,#0x4
   \   000075   50B5         JNC       ??calcChkF_0
   \   000077   80D9         SJMP      ??calcChkF_2
    906            }
    907          
    908            return chk;
   \                     ??calcChkF_1:
   \   000079   AA..         MOV       R2,?V2
   \   00007B   AB..         MOV       R3,?V3
   \   00007D   7404         MOV       A,#0x4
   \   00007F   02....       LJMP      ?Subroutine3 & 0xFFFF
    909          }

   \                                 In  segment BANKED_CODE, align 1, keep-with-next
   \                     ?Subroutine43:
   \   000000   EE           MOV       A,R6
   \   000001   F8           MOV       R0,A
   \   000002   EF           MOV       A,R7
   \   000003   F9           MOV       R1,A
   \   000004   E8           MOV       A,R0
   \   000005   24FF         ADD       A,#-0x1
   \   000007   1E           DEC       R6
   \   000008   E9           MOV       A,R1
   \   000009   34FF         ADDC      A,#-0x1
   \   00000B   FF           MOV       R7,A
   \   00000C   E8           MOV       A,R0
   \   00000D   49           ORL       A,R1
   \   00000E   22           RET

   \                                 In  segment BANKED_CODE, align 1, keep-with-next
   \                     ?Subroutine49:
   \   000000   E5..         MOV       A,?V0
   \   000002   2404         ADD       A,#0x4
   \   000004   F5..         MOV       ?V0,A
   \   000006   E4           CLR       A
   \   000007   35..         ADDC      A,?V1
   \   000009   F5..         MOV       ?V1,A
   \   00000B   22           RET
    910          
    911          /*********************************************************************
    912           * @fn      writeWord
    913           *
    914           * @brief   Writes a Flash-WORD to NV.
    915           *
    916           * @param   pg - A valid NV Flash page.
    917           * @param   offset - A valid offset into the page.
    918           * @param   buf - Pointer to source buffer.
    919           *
    920           * @return  none
    921           */

   \                                 In  segment BANKED_CODE, align 1, keep-with-next
    922          static void writeWord( uint8 pg, uint16 offset, uint8 *buf )
   \                     writeWord:
    923          {
   \   000000                REQUIRE ?V0
   \   000000                REQUIRE ?V1
   \   000000                REQUIRE ?V2
   \   000000                REQUIRE ?V3
   \   000000   74F4         MOV       A,#-0xc
   \   000002   12....       LCALL     ?BANKED_ENTER_XDATA
   \   000005                ; Saved register size: 12
   \   000005                ; Auto size: 0
    924            offset = (offset / HAL_FLASH_WORD_SIZE) +
    925                    ((uint16)pg * (HAL_FLASH_PAGE_SIZE / HAL_FLASH_WORD_SIZE));
    926          
    927            HalFlashWrite(offset, buf, 1);
   \   000005                ; Setup parameters for call to function HalFlashWrite
   \   000005   75..01       MOV       ?V0,#0x1
   \   000008   75..00       MOV       ?V1,#0x0
   \   00000B   78..         MOV       R0,#?V0
   \   00000D   12....       LCALL     ?PUSH_XSTACK_I_TWO
   \   000010   8A..         MOV       ?V0,R2
   \   000012   8B..         MOV       ?V1,R3
   \   000014   7402         MOV       A,#0x2
   \   000016   78..         MOV       R0,#?V0
   \   000018   12....       LCALL     ?US_SHR
   \   00001B   E9           MOV       A,R1
   \   00001C   F5..         MOV       ?V2,A
   \   00001E   75..00       MOV       ?V3,#0x0
   \   000021   7409         MOV       A,#0x9
   \   000023   78..         MOV       R0,#?V2
   \   000025   12....       LCALL     ?S_SHL
   \   000028   E5..         MOV       A,?V0
   \   00002A   2400         ADD       A,#0x0
   \   00002C   FA           MOV       R2,A
   \   00002D   E5..         MOV       A,?V1
   \   00002F   35..         ADDC      A,?V3
   \   000031   FB           MOV       R3,A
   \   000032   12....       LCALL     `??HalFlashWrite::?relay`; Banked call to: HalFlashWrite
   \   000035   02....       LJMP      ?Subroutine0 & 0xFFFF
    928          }
    929          
    930          /*********************************************************************
    931           * @fn      writeWordM
    932           *
    933           * @brief   Writes multiple Flash-WORDs to NV.
    934           *
    935           * @param   pg - A valid NV Flash page.
    936           * @param   offset - A valid offset into the page.
    937           * @param   buf - Pointer to source buffer.
    938           * @param   cnt - Number of 4-byte blocks to write.
    939           *
    940           * @return  none
    941           */
    942          static void writeWordM( uint8 pg, uint16 offset, uint8 *buf, uint16 cnt )
    943          {
    944            offset = (offset / HAL_FLASH_WORD_SIZE) +
    945                    ((uint16)pg * (HAL_FLASH_PAGE_SIZE / HAL_FLASH_WORD_SIZE));
    946            HalFlashWrite(offset, buf, cnt);
    947          }
    948          
    949          /*********************************************************************
    950           * @fn      writeWordH
    951           *
    952           * @brief   Writes the 1st half of a Flash-WORD to NV (filling 2nd half with 0xffff).
    953           *
    954           * @param   pg - A valid NV Flash page.
    955           * @param   offset - A valid offset into the page.
    956           * @param   buf - Pointer to source buffer.
    957           *
    958           * @return  none
    959           */

   \                                 In  segment BANKED_CODE, align 1, keep-with-next
    960          static void writeWordH( uint8 pg, uint16 offset, uint8 *buf )
   \                     writeWordH:
    961          {
   \   000000   74F7         MOV       A,#-0x9
   \   000002   12....       LCALL     ?BANKED_ENTER_XDATA
   \   000005                ; Saved register size: 9
   \   000005                ; Auto size: 4
   \   000005   74FC         MOV       A,#-0x4
   \   000007   12....       LCALL     ?ALLOC_XSTACK8
    962            uint8 tmp[4];
    963          
    964            tmp[0] = buf[0];
   \   00000A   8C82         MOV       DPL,R4
   \   00000C   8D83         MOV       DPH,R5
   \   00000E   E0           MOVX      A,@DPTR
   \   00000F   85..82       MOV       DPL,?XSP + 0
   \   000012   85..83       MOV       DPH,?XSP + 1
   \   000015   F0           MOVX      @DPTR,A
    965            tmp[1] = buf[1];
   \   000016   8C82         MOV       DPL,R4
   \   000018   8D83         MOV       DPH,R5
   \   00001A   A3           INC       DPTR
   \   00001B   E0           MOVX      A,@DPTR
   \   00001C   C0E0         PUSH      A
   \   00001E   7401         MOV       A,#0x1
   \   000020   12....       LCALL     ?XSTACK_DISP0_8
   \   000023   D0E0         POP       A
   \   000025   F0           MOVX      @DPTR,A
    966            tmp[2] = OSAL_NV_ERASED;
   \   000026   7402         MOV       A,#0x2
   \   000028   12....       LCALL     ?XSTACK_DISP0_8
   \   00002B   74FF         MOV       A,#-0x1
   \   00002D   F0           MOVX      @DPTR,A
    967            tmp[3] = OSAL_NV_ERASED;
   \   00002E   7403         MOV       A,#0x3
   \   000030   12....       LCALL     ?XSTACK_DISP0_8
   \   000033   74FF         MOV       A,#-0x1
   \   000035   F0           MOVX      @DPTR,A
    968          
    969            writeWord( pg, offset, tmp );
   \   000036                ; Setup parameters for call to function writeWord
   \   000036   AC..         MOV       R4,?XSP + 0
   \   000038   AD..         MOV       R5,?XSP + 1
   \   00003A   12....       LCALL     `??writeWord::?relay`; Banked call to: writeWord
    970          }
   \   00003D   7404         MOV       A,#0x4
   \   00003F   02....       LJMP      ?Subroutine1 & 0xFFFF
    971          
    972          /*********************************************************************
    973           * @fn      writeBuf
    974           *
    975           * @brief   Writes a data buffer to NV.
    976           *
    977           * @param   dstPg - A valid NV Flash page.
    978           * @param   offset - A valid offset into the page.
    979           * @param   len  - Byte count of the data to write.
    980           * @param   buf  - The data to write.
    981           *
    982           * @return  TRUE if data buf checksum matches read back checksum, else FALSE.
    983           */

   \                                 In  segment BANKED_CODE, align 1, keep-with-next
    984          static void writeBuf( uint8 dstPg, uint16 dstOff, uint16 len, uint8 *buf )
   \                     writeBuf:
    985          {
   \   000000                REQUIRE ?V0
   \   000000                REQUIRE ?V1
   \   000000                REQUIRE ?V2
   \   000000                REQUIRE ?V3
   \   000000                REQUIRE ?V4
   \   000000                REQUIRE ?V5
   \   000000                REQUIRE ?V6
   \   000000                REQUIRE ?V7
   \   000000   74F0         MOV       A,#-0x10
   \   000002   12....       LCALL     ?BANKED_ENTER_XDATA
   \   000005                ; Saved register size: 16
   \   000005                ; Auto size: 4
   \   000005   74FC         MOV       A,#-0x4
   \   000007   12....       LCALL     ?ALLOC_XSTACK8
   \   00000A   89..         MOV       ?V7,R1
   \   00000C   8A..         MOV       ?V0,R2
   \   00000E   8B..         MOV       ?V1,R3
   \   000010   EC           MOV       A,R4
   \   000011   FE           MOV       R6,A
   \   000012   ED           MOV       A,R5
   \   000013   FF           MOV       R7,A
    986            uint8 rem = dstOff % OSAL_NV_WORD_SIZE;
   \   000014   EA           MOV       A,R2
   \   000015   5403         ANL       A,#0x3
   \   000017   F5..         MOV       ?V6,A
    987            uint8 tmp[OSAL_NV_WORD_SIZE];
    988          
    989            if ( rem )
   \   000019   605F         JZ        ??CrossCallReturnLabel_112
    990            {
    991              dstOff = (dstOff / OSAL_NV_WORD_SIZE) * OSAL_NV_WORD_SIZE;
   \   00001B   74FC         MOV       A,#-0x4
   \   00001D   5A           ANL       A,R2
   \   00001E   F5..         MOV       ?V0,A
    992              HalFlashRead(dstPg, dstOff, tmp, OSAL_NV_WORD_SIZE);
   \   000020                ; Setup parameters for call to function HalFlashRead
   \   000020   75..04       MOV       ?V2,#0x4
   \   000023   75..00       MOV       ?V3,#0x0
   \   000026   78..         MOV       R0,#?V2
   \   000028   12....       LCALL     ?PUSH_XSTACK_I_TWO
   \   00002B   7402         MOV       A,#0x2
   \   00002D   12....       LCALL     ?XSTACK_DISP102_8
   \   000030   AA..         MOV       R2,?V0
   \   000032   12....       LCALL     ??Subroutine61_0 & 0xFFFF
   \                     ??CrossCallReturnLabel_130:
   \   000035   12....       LCALL     ?DEALLOC_XSTACK8
   \                     ??writeBuf_0:
   \   000038   EE           MOV       A,R6
   \   000039   4F           ORL       A,R7
   \   00003A   6031         JZ        ??writeBuf_1
    993          
    994              while ( (rem < OSAL_NV_WORD_SIZE) && len )
    995              {
    996                tmp[rem++] = *buf++;
   \   00003C   7414         MOV       A,#0x14
   \   00003E   12....       LCALL     ?XSTACK_DISP0_8
   \   000041   12....       LCALL     ??Subroutine64_0 & 0xFFFF
   \                     ??CrossCallReturnLabel_135:
   \   000044   C0E0         PUSH      A
   \   000046   A8..         MOV       R0,?V6
   \   000048   12....       LCALL     ?Subroutine32 & 0xFFFF
   \                     ??CrossCallReturnLabel_61:
   \   00004B   D0E0         POP       A
   \   00004D   F0           MOVX      @DPTR,A
   \   00004E   7414         MOV       A,#0x14
   \   000050   12....       LCALL     ?XSTACK_DISP0_8
   \   000053   12....       LCALL     ?Subroutine21 & 0xFFFF
   \                     ??CrossCallReturnLabel_34:
   \   000056   12....       LCALL     ?XSTACK_DISP0_8
   \   000059   12....       LCALL     ?Subroutine10 & 0xFFFF
   \                     ??CrossCallReturnLabel_7:
   \   00005C   05..         INC       ?V6
    997                len--;
   \   00005E   EE           MOV       A,R6
   \   00005F   24FF         ADD       A,#-0x1
   \   000061   1E           DEC       R6
   \   000062   EF           MOV       A,R7
   \   000063   34FF         ADDC      A,#-0x1
   \   000065   FF           MOV       R7,A
    998              }
   \   000066   E5..         MOV       A,?V6
   \   000068   C3           CLR       C
   \   000069   9404         SUBB      A,#0x4
   \   00006B   40CB         JC        ??writeBuf_0
    999          
   1000              writeWord( dstPg, dstOff, tmp );
   \                     ??writeBuf_1:
   \   00006D                ; Setup parameters for call to function writeWord
   \   00006D   AC..         MOV       R4,?XSP + 0
   \   00006F   AD..         MOV       R5,?XSP + 1
   \   000071   AA..         MOV       R2,?V0
   \   000073   AB..         MOV       R3,?V1
   \   000075   A9..         MOV       R1,?V7
   \   000077   12....       LCALL     ??Subroutine59_0 & 0xFFFF
   1001              dstOff += OSAL_NV_WORD_SIZE;
   1002            }
   1003          
   1004            rem = len % OSAL_NV_WORD_SIZE;
   \                     ??CrossCallReturnLabel_112:
   \   00007A   EE           MOV       A,R6
   \   00007B   5403         ANL       A,#0x3
   \   00007D   F5..         MOV       ?V6,A
   1005            len /= OSAL_NV_WORD_SIZE;
   \   00007F   8E..         MOV       ?V2,R6
   \   000081   8F..         MOV       ?V3,R7
   \   000083   7402         MOV       A,#0x2
   \   000085   78..         MOV       R0,#?V2
   \   000087   12....       LCALL     ?US_SHR
   \   00008A   AE..         MOV       R6,?V2
   \   00008C   AF..         MOV       R7,?V3
   1006          
   1007            if ( len )
   \   00008E   EE           MOV       A,R6
   \   00008F   4F           ORL       A,R7
   \   000090   6067         JZ        ??CrossCallReturnLabel_8
   1008            {
   1009              writeWordM( dstPg, dstOff, buf, len );
   \   000092                ; Setup parameters for call to function HalFlashWrite
   \   000092   78..         MOV       R0,#?V2
   \   000094   12....       LCALL     ?PUSH_XSTACK_I_TWO
   \   000097   7416         MOV       A,#0x16
   \   000099   12....       LCALL     ?XSTACK_DISP0_8
   \   00009C   12....       LCALL     ?Subroutine27 & 0xFFFF
   \                     ??CrossCallReturnLabel_51:
   \   00009F   85....       MOV       ?V2,?V0
   \   0000A2   85....       MOV       ?V3,?V1
   \   0000A5   7402         MOV       A,#0x2
   \   0000A7   78..         MOV       R0,#?V2
   \   0000A9   12....       LCALL     ?US_SHR
   \   0000AC   E5..         MOV       A,?V7
   \   0000AE   F5..         MOV       ?V4,A
   \   0000B0   75..00       MOV       ?V5,#0x0
   \   0000B3   7409         MOV       A,#0x9
   \   0000B5   78..         MOV       R0,#?V4
   \   0000B7   12....       LCALL     ?S_SHL
   \   0000BA   E5..         MOV       A,?V2
   \   0000BC   2400         ADD       A,#0x0
   \   0000BE   FA           MOV       R2,A
   \   0000BF   E5..         MOV       A,?V3
   \   0000C1   35..         ADDC      A,?V5
   \   0000C3   FB           MOV       R3,A
   \   0000C4   12....       LCALL     `??HalFlashWrite::?relay`; Banked call to: HalFlashWrite
   \   0000C7   7402         MOV       A,#0x2
   \   0000C9   12....       LCALL     ?DEALLOC_XSTACK8
   1010              dstOff += OSAL_NV_WORD_SIZE * len;
   \   0000CC   8E..         MOV       ?V2,R6
   \   0000CE   8F..         MOV       ?V3,R7
   \   0000D0   7402         MOV       A,#0x2
   \   0000D2   78..         MOV       R0,#?V2
   \   0000D4   12....       LCALL     ?S_SHL
   \   0000D7   A8..         MOV       R0,?V2
   \   0000D9   A9..         MOV       R1,?V3
   \   0000DB   E5..         MOV       A,?V0
   \   0000DD   28           ADD       A,R0
   \   0000DE   F5..         MOV       ?V0,A
   \   0000E0   E5..         MOV       A,?V1
   \   0000E2   39           ADDC      A,R1
   \   0000E3   F5..         MOV       ?V1,A
   1011              buf += OSAL_NV_WORD_SIZE * len;
   \   0000E5   7414         MOV       A,#0x14
   \   0000E7   12....       LCALL     ?XSTACK_DISP0_8
   \   0000EA   E0           MOVX      A,@DPTR
   \   0000EB   28           ADD       A,R0
   \   0000EC   F8           MOV       R0,A
   \   0000ED   A3           INC       DPTR
   \   0000EE   E0           MOVX      A,@DPTR
   \   0000EF   39           ADDC      A,R1
   \   0000F0   F9           MOV       R1,A
   \   0000F1   7414         MOV       A,#0x14
   \   0000F3   12....       LCALL     ?XSTACK_DISP0_8
   \   0000F6   12....       LCALL     ?Subroutine10 & 0xFFFF
   1012            }
   1013          
   1014            if ( rem )
   \                     ??CrossCallReturnLabel_8:
   \   0000F9   E5..         MOV       A,?V6
   \   0000FB   6057         JZ        ??writeBuf_2
   1015            {
   1016              uint8 idx = 0;
   \   0000FD   7E00         MOV       R6,#0x0
   1017              HalFlashRead(dstPg, dstOff, tmp, OSAL_NV_WORD_SIZE);
   \   0000FF                ; Setup parameters for call to function HalFlashRead
   \   0000FF   75..04       MOV       ?V2,#0x4
   \   000102   8E..         MOV       ?V3,R6
   \   000104   78..         MOV       R0,#?V2
   \   000106   12....       LCALL     ?PUSH_XSTACK_I_TWO
   \   000109   7402         MOV       A,#0x2
   \   00010B   12....       LCALL     ?XSTACK_DISP102_8
   \   00010E   AA..         MOV       R2,?V0
   \   000110   AB..         MOV       R3,?V1
   \   000112   A9..         MOV       R1,?V7
   \   000114   12....       LCALL     ??Subroutine61_0 & 0xFFFF
   \                     ??CrossCallReturnLabel_131:
   \   000117   12....       LCALL     ?DEALLOC_XSTACK8
   \   00011A   8021         SJMP      ??writeBuf_3
   1018              while ( rem-- )
   1019              {
   1020                tmp[idx++] = *buf++;
   \                     ??writeBuf_4:
   \   00011C   7414         MOV       A,#0x14
   \   00011E   12....       LCALL     ?XSTACK_DISP0_8
   \   000121   12....       LCALL     ??Subroutine64_0 & 0xFFFF
   1021              }
   \                     ??CrossCallReturnLabel_136:
   \   000124   C0E0         PUSH      A
   \   000126   EE           MOV       A,R6
   \   000127   F8           MOV       R0,A
   \   000128   12....       LCALL     ?Subroutine32 & 0xFFFF
   \                     ??CrossCallReturnLabel_62:
   \   00012B   D0E0         POP       A
   \   00012D   F0           MOVX      @DPTR,A
   \   00012E   7414         MOV       A,#0x14
   \   000130   12....       LCALL     ?XSTACK_DISP0_8
   \   000133   12....       LCALL     ?Subroutine21 & 0xFFFF
   \                     ??CrossCallReturnLabel_35:
   \   000136   12....       LCALL     ?XSTACK_DISP0_8
   \   000139   12....       LCALL     ?Subroutine10 & 0xFFFF
   \                     ??CrossCallReturnLabel_9:
   \   00013C   0E           INC       R6
   \                     ??writeBuf_3:
   \   00013D   AF..         MOV       R7,?V6
   \   00013F   74FF         MOV       A,#-0x1
   \   000141   2F           ADD       A,R7
   \   000142   F5..         MOV       ?V6,A
   \   000144   04           INC       A
   \   000145   70D5         JNZ       ??writeBuf_4
   1022              writeWord( dstPg, dstOff, tmp );
   \   000147                ; Setup parameters for call to function writeWord
   \   000147   AC..         MOV       R4,?XSP + 0
   \   000149   AD..         MOV       R5,?XSP + 1
   \   00014B   AA..         MOV       R2,?V0
   \   00014D   AB..         MOV       R3,?V1
   \   00014F   A9..         MOV       R1,?V7
   \   000151   12....       LCALL     `??writeWord::?relay`; Banked call to: writeWord
   1023            }
   1024          }
   \                     ??writeBuf_2:
   \   000154   7404         MOV       A,#0x4
   \   000156   02....       LJMP      ??Subroutine62_0 & 0xFFFF

   \                                 In  segment BANKED_CODE, align 1, keep-with-next
   \                     ?Subroutine32:
   \   000000   85..82       MOV       DPL,?XSP + 0
   \   000003   85..83       MOV       DPH,?XSP + 1
   \   000006   E582         MOV       A,DPL
   \   000008   28           ADD       A,R0
   \   000009   F582         MOV       DPL,A
   \   00000B   E4           CLR       A
   \   00000C   3583         ADDC      A,DPH
   \   00000E   F583         MOV       DPH,A
   \   000010   22           RET

   \                                 In  segment BANKED_CODE, align 1, keep-with-next
   \                     ?Subroutine21:
   \   000000   E0           MOVX      A,@DPTR
   \   000001   2401         ADD       A,#0x1
   \   000003   F8           MOV       R0,A
   \   000004   A3           INC       DPTR
   \   000005   E0           MOVX      A,@DPTR
   \   000006   3400         ADDC      A,#0x0
   \   000008   F9           MOV       R1,A
   \   000009   7414         MOV       A,#0x14
   \   00000B   22           RET

   \                                 In  segment BANKED_CODE, align 1, keep-with-next
   \                     ??Subroutine59_0:
   \   000000   12....       LCALL     `??writeWord::?relay`; Banked call to: writeWord
   \   000003   12....       LCALL     ?Subroutine49 & 0xFFFF
   \                     ??CrossCallReturnLabel_114:
   \   000006   22           RET

   \                                 In  segment BANKED_CODE, align 1, keep-with-next
   \                     ??Subroutine64_0:
   \   000000   12....       LCALL     ?Subroutine47 & 0xFFFF
   \                     ??CrossCallReturnLabel_141:
   \   000003   22           RET

   \                                 In  segment BANKED_CODE, align 1, keep-with-next
   \                     ?Subroutine47:
   \   000000   12....       LCALL     ?Subroutine50 & 0xFFFF
   \                     ??CrossCallReturnLabel_143:
   \   000003   E0           MOVX      A,@DPTR
   \   000004   22           RET

   \                                 In  segment BANKED_CODE, align 1, keep-with-next
   \                     ?Subroutine10:
   \   000000   E8           MOV       A,R0
   \   000001   F0           MOVX      @DPTR,A
   \   000002   A3           INC       DPTR
   \   000003   E9           MOV       A,R1
   \   000004   F0           MOVX      @DPTR,A
   \   000005   22           RET
   1025          
   1026          /*********************************************************************
   1027           * @fn      xferBuf
   1028           *
   1029           * @brief   Xfers an NV buffer from one location to another, enforcing OSAL_NV_WORD_SIZE writes.
   1030           *
   1031           * @return  none
   1032           */

   \                                 In  segment BANKED_CODE, align 1, keep-with-next
   1033          static void xferBuf( uint8 srcPg, uint16 srcOff, uint8 dstPg, uint16 dstOff, uint16 len )
   \                     xferBuf:
   1034          {
   \   000000                REQUIRE ?V0
   \   000000                REQUIRE ?V1
   \   000000                REQUIRE ?V2
   \   000000                REQUIRE ?V3
   \   000000                REQUIRE ?V4
   \   000000                REQUIRE ?V5
   \   000000                REQUIRE ?V6
   \   000000                REQUIRE ?V7
   \   000000   74F0         MOV       A,#-0x10
   \   000002   12....       LCALL     ?BANKED_ENTER_XDATA
   \   000005                ; Saved register size: 16
   \   000005                ; Auto size: 5
   \   000005   74FB         MOV       A,#-0x5
   \   000007   12....       LCALL     ?ALLOC_XSTACK8
   \   00000A   E9           MOV       A,R1
   \   00000B   85..82       MOV       DPL,?XSP + 0
   \   00000E   85..83       MOV       DPH,?XSP + 1
   \   000011   F0           MOVX      @DPTR,A
   \   000012   8A..         MOV       ?V6,R2
   \   000014   8B..         MOV       ?V7,R3
   \   000016   8C..         MOV       ?V3,R4
   \   000018   7415         MOV       A,#0x15
   \   00001A   12....       LCALL     ?XSTACK_DISP0_8
   \   00001D   12....       LCALL     ?Subroutine19 & 0xFFFF
   1035            uint8 rem = dstOff % OSAL_NV_WORD_SIZE;
   \                     ??CrossCallReturnLabel_29:
   \   000020   E5..         MOV       A,?V0
   \   000022   5403         ANL       A,#0x3
   \   000024   F5..         MOV       ?V2,A
   \   000026   7417         MOV       A,#0x17
   \   000028   12....       LCALL     ?XSTACK_DISP0_8
   \   00002B   E0           MOVX      A,@DPTR
   \   00002C   FE           MOV       R6,A
   \   00002D   A3           INC       DPTR
   \   00002E   E0           MOVX      A,@DPTR
   \   00002F   FF           MOV       R7,A
   1036            uint8 tmp[OSAL_NV_WORD_SIZE];
   1037          
   1038            if ( rem )
   \   000030   E5..         MOV       A,?V2
   \   000032   6069         JZ        ??CrossCallReturnLabel_110
   1039            {
   1040              dstOff -= rem;
   \   000034   F8           MOV       R0,A
   \   000035   C3           CLR       C
   \   000036   E5..         MOV       A,?V0
   \   000038   98           SUBB      A,R0
   \   000039   F5..         MOV       ?V0,A
   \   00003B   E5..         MOV       A,?V1
   \   00003D   9400         SUBB      A,#0x0
   \   00003F   F5..         MOV       ?V1,A
   1041              HalFlashRead(dstPg, dstOff, tmp, OSAL_NV_WORD_SIZE);
   \   000041                ; Setup parameters for call to function HalFlashRead
   \   000041   75..04       MOV       ?V4,#0x4
   \   000044   75..00       MOV       ?V5,#0x0
   \   000047   78..         MOV       R0,#?V4
   \   000049   12....       LCALL     ?PUSH_XSTACK_I_TWO
   \   00004C   7403         MOV       A,#0x3
   \   00004E   12....       LCALL     ?XSTACK_DISP102_8
   \   000051   AA..         MOV       R2,?V0
   \   000053   AB..         MOV       R3,?V1
   \   000055   A9..         MOV       R1,?V3
   \   000057   12....       LCALL     ??Subroutine61_0 & 0xFFFF
   \                     ??CrossCallReturnLabel_132:
   \   00005A   12....       LCALL     ?DEALLOC_XSTACK8
   \                     ??xferBuf_0:
   \   00005D   EE           MOV       A,R6
   \   00005E   4F           ORL       A,R7
   \   00005F   6034         JZ        ??xferBuf_1
   1042          
   1043              while ( (rem < OSAL_NV_WORD_SIZE) && len )
   1044              {
   1045                HalFlashRead(srcPg, srcOff, tmp+rem, 1);
   \   000061                ; Setup parameters for call to function HalFlashRead
   \   000061   75..01       MOV       ?V4,#0x1
   \   000064   78..         MOV       R0,#?V4
   \   000066   12....       LCALL     ?PUSH_XSTACK_I_TWO
   \   000069   A8..         MOV       R0,?V2
   \   00006B   7403         MOV       A,#0x3
   \   00006D   12....       LCALL     ?XSTACK_DISP0_8
   \   000070   12....       LCALL     ?Subroutine31 & 0xFFFF
   \                     ??CrossCallReturnLabel_59:
   \   000073   12....       LCALL     ?XSTACK_DISP0_8
   \   000076   12....       LCALL     ?Subroutine11 & 0xFFFF
   \                     ??CrossCallReturnLabel_116:
   \   000079   12....       LCALL     ?DEALLOC_XSTACK8
   1046                srcOff++;
   \   00007C   05..         INC       ?V6
   \   00007E   E5..         MOV       A,?V6
   \   000080   7002         JNZ       ??xferBuf_2
   \   000082   05..         INC       ?V7
   1047                rem++;
   \                     ??xferBuf_2:
   \   000084   05..         INC       ?V2
   1048                len--;
   \   000086   EE           MOV       A,R6
   \   000087   24FF         ADD       A,#-0x1
   \   000089   1E           DEC       R6
   \   00008A   EF           MOV       A,R7
   \   00008B   34FF         ADDC      A,#-0x1
   \   00008D   FF           MOV       R7,A
   1049              }
   \   00008E   E5..         MOV       A,?V2
   \   000090   C3           CLR       C
   \   000091   9404         SUBB      A,#0x4
   \   000093   40C8         JC        ??xferBuf_0
   1050          
   1051              writeWord( dstPg, dstOff, tmp );
   \                     ??xferBuf_1:
   \   000095                ; Setup parameters for call to function writeWord
   \   000095   7401         MOV       A,#0x1
   \   000097   12....       LCALL     ?XSTACK_DISP102_8
   \   00009A   12....       LCALL     ?Subroutine33 & 0xFFFF
   1052              dstOff += OSAL_NV_WORD_SIZE;
   1053            }
   1054          
   1055            rem = len % OSAL_NV_WORD_SIZE;
   \                     ??CrossCallReturnLabel_110:
   \   00009D   EE           MOV       A,R6
   \   00009E   5403         ANL       A,#0x3
   \   0000A0   F5..         MOV       ?V2,A
   1056            len /= OSAL_NV_WORD_SIZE;
   \   0000A2   8E..         MOV       ?V4,R6
   \   0000A4   8F..         MOV       ?V5,R7
   \   0000A6   7402         MOV       A,#0x2
   \   0000A8   78..         MOV       R0,#?V4
   \   0000AA   12....       LCALL     ?US_SHR
   \   0000AD   AE..         MOV       R6,?V4
   \   0000AF   AF..         MOV       R7,?V5
   \   0000B1   8032         SJMP      ??CrossCallReturnLabel_111
   1057          
   1058            while ( len-- )
   1059            {
   1060              HalFlashRead(srcPg, srcOff, tmp, OSAL_NV_WORD_SIZE);
   \                     ??xferBuf_3:
   \   0000B3                ; Setup parameters for call to function HalFlashRead
   \   0000B3   75..04       MOV       ?V4,#0x4
   \   0000B6   75..00       MOV       ?V5,#0x0
   \   0000B9   78..         MOV       R0,#?V4
   \   0000BB   12....       LCALL     ?PUSH_XSTACK_I_TWO
   \   0000BE   7403         MOV       A,#0x3
   \   0000C0   12....       LCALL     ?XSTACK_DISP102_8
   \   0000C3   AA..         MOV       R2,?V6
   \   0000C5   AB..         MOV       R3,?V7
   \   0000C7   7402         MOV       A,#0x2
   \   0000C9   12....       LCALL     ?XSTACK_DISP0_8
   \   0000CC   12....       LCALL     ?Subroutine11 & 0xFFFF
   \                     ??CrossCallReturnLabel_117:
   \   0000CF   12....       LCALL     ?DEALLOC_XSTACK8
   1061              srcOff += OSAL_NV_WORD_SIZE;
   \   0000D2   E5..         MOV       A,?V6
   \   0000D4   2404         ADD       A,#0x4
   \   0000D6   F5..         MOV       ?V6,A
   \   0000D8   E4           CLR       A
   \   0000D9   35..         ADDC      A,?V7
   \   0000DB   F5..         MOV       ?V7,A
   1062              writeWord( dstPg, dstOff, tmp );
   \   0000DD                ; Setup parameters for call to function writeWord
   \   0000DD   7401         MOV       A,#0x1
   \   0000DF   12....       LCALL     ?XSTACK_DISP102_8
   \   0000E2   12....       LCALL     ?Subroutine33 & 0xFFFF
   1063              dstOff += OSAL_NV_WORD_SIZE;
   1064            }
   \                     ??CrossCallReturnLabel_111:
   \   0000E5   12....       LCALL     ?Subroutine43 & 0xFFFF
   \                     ??CrossCallReturnLabel_79:
   \   0000E8   70C9         JNZ       ??xferBuf_3
   1065          
   1066            if ( rem )
   \   0000EA   E5..         MOV       A,?V2
   \   0000EC   605B         JZ        ??xferBuf_4
   1067            {
   1068              uint8 idx = 0;
   \   0000EE   7E00         MOV       R6,#0x0
   1069              HalFlashRead(dstPg, dstOff, tmp, OSAL_NV_WORD_SIZE);
   \   0000F0                ; Setup parameters for call to function HalFlashRead
   \   0000F0   75..04       MOV       ?V4,#0x4
   \   0000F3   8E..         MOV       ?V5,R6
   \   0000F5   78..         MOV       R0,#?V4
   \   0000F7   12....       LCALL     ?PUSH_XSTACK_I_TWO
   \   0000FA   7403         MOV       A,#0x3
   \   0000FC   12....       LCALL     ?XSTACK_DISP102_8
   \   0000FF   AA..         MOV       R2,?V0
   \   000101   AB..         MOV       R3,?V1
   \   000103   A9..         MOV       R1,?V3
   \   000105   12....       LCALL     ??Subroutine61_0 & 0xFFFF
   \                     ??CrossCallReturnLabel_133:
   \   000108   12....       LCALL     ?DEALLOC_XSTACK8
   \   00010B   8024         SJMP      ??xferBuf_5
   1070              while ( rem-- )
   1071              {
   1072                HalFlashRead(srcPg, srcOff, tmp+idx, 1);
   \                     ??xferBuf_6:
   \   00010D                ; Setup parameters for call to function HalFlashRead
   \   00010D   75..01       MOV       ?V4,#0x1
   \   000110   78..         MOV       R0,#?V4
   \   000112   12....       LCALL     ?PUSH_XSTACK_I_TWO
   \   000115   EE           MOV       A,R6
   \   000116   F8           MOV       R0,A
   \   000117   7403         MOV       A,#0x3
   \   000119   12....       LCALL     ?XSTACK_DISP0_8
   \   00011C   12....       LCALL     ?Subroutine31 & 0xFFFF
   \                     ??CrossCallReturnLabel_60:
   \   00011F   12....       LCALL     ?XSTACK_DISP0_8
   \   000122   12....       LCALL     ?Subroutine11 & 0xFFFF
   \                     ??CrossCallReturnLabel_118:
   \   000125   12....       LCALL     ?DEALLOC_XSTACK8
   1073                srcOff++;
   \   000128   05..         INC       ?V6
   \   00012A   E5..         MOV       A,?V6
   \   00012C   7002         JNZ       ??xferBuf_7
   \   00012E   05..         INC       ?V7
   1074                idx++;
   \                     ??xferBuf_7:
   \   000130   0E           INC       R6
   1075              }
   \                     ??xferBuf_5:
   \   000131   AF..         MOV       R7,?V2
   \   000133   74FF         MOV       A,#-0x1
   \   000135   2F           ADD       A,R7
   \   000136   F5..         MOV       ?V2,A
   \   000138   04           INC       A
   \   000139   70D2         JNZ       ??xferBuf_6
   1076              writeWord( dstPg, dstOff, tmp );
   \   00013B                ; Setup parameters for call to function writeWord
   \   00013B   7401         MOV       A,#0x1
   \   00013D   12....       LCALL     ?XSTACK_DISP102_8
   \   000140   AA..         MOV       R2,?V0
   \   000142   AB..         MOV       R3,?V1
   \   000144   A9..         MOV       R1,?V3
   \   000146   12....       LCALL     `??writeWord::?relay`; Banked call to: writeWord
   1077            }
   1078          }
   \                     ??xferBuf_4:
   \   000149   7405         MOV       A,#0x5
   \   00014B   80..         SJMP      ??Subroutine62_0

   \                                 In  segment BANKED_CODE, align 1, keep-with-next
   \                     ?Subroutine33:
   \   000000   AA..         MOV       R2,?V0
   \   000002   AB..         MOV       R3,?V1
   \   000004   A9..         MOV       R1,?V3
   \   000006                REQUIRE ??Subroutine59_0
   \   000006                ; // Fall through to label ??Subroutine59_0

   \                                 In  segment BANKED_CODE, align 1, keep-with-next
   \                     ?Subroutine31:
   \   000000   E582         MOV       A,DPL
   \   000002   28           ADD       A,R0
   \   000003   FC           MOV       R4,A
   \   000004   E4           CLR       A
   \   000005   3583         ADDC      A,DPH
   \   000007   FD           MOV       R5,A
   \   000008   AA..         MOV       R2,?V6
   \   00000A   AB..         MOV       R3,?V7
   \   00000C   7402         MOV       A,#0x2
   \   00000E   22           RET
   1079          
   1080          /*********************************************************************
   1081           * @fn      writeItem
   1082           *
   1083           * @brief   Writes an item header/data combo to the specified NV page.
   1084           *
   1085           * @param   pg - Valid NV Flash page.
   1086           * @param   id - Valid NV item Id.
   1087           * @param   len  - Byte count of the data to write.
   1088           * @param   buf  - The data to write. If NULL, no data/checksum write.
   1089           * @param   flag - TRUE if the checksum should be written, FALSE otherwise.
   1090           *
   1091           * @return  TRUE if header/data to write matches header/data read back, else FALSE.
   1092           */

   \                                 In  segment BANKED_CODE, align 1, keep-with-next
   1093          static uint8 writeItem( uint8 pg, uint16 id, uint16 len, void *buf, uint8 flag )
   \                     writeItem:
   1094          {
   \   000000                REQUIRE ?V0
   \   000000                REQUIRE ?V1
   \   000000                REQUIRE ?V2
   \   000000                REQUIRE ?V3
   \   000000                REQUIRE ?V4
   \   000000                REQUIRE ?V5
   \   000000                REQUIRE ?V6
   \   000000                REQUIRE ?V7
   \   000000   74F0         MOV       A,#-0x10
   \   000002   12....       LCALL     ?BANKED_ENTER_XDATA
   \   000005                ; Saved register size: 16
   \   000005                ; Auto size: 12
   \   000005   74F4         MOV       A,#-0xc
   \   000007   12....       LCALL     ?ALLOC_XSTACK8
   \   00000A   740A         MOV       A,#0xa
   \   00000C   12....       LCALL     ?XSTACK_DISP0_8
   \   00000F   12....       LCALL     ?Subroutine9 & 0xFFFF
   \                     ??CrossCallReturnLabel_6:
   \   000012   EC           MOV       A,R4
   \   000013   FE           MOV       R6,A
   \   000014   ED           MOV       A,R5
   \   000015   FF           MOV       R7,A
   1095            uint16 offset = pgOff[pg-OSAL_NV_PAGE_BEG];
   \   000016   E9           MOV       A,R1
   \   000017   29           ADD       A,R1
   \   000018   F5..         MOV       ?V0,A
   \   00001A   E4           CLR       A
   \   00001B   33           RLC       A
   \   00001C   F5..         MOV       ?V1,A
   \   00001E   74..         MOV       A,#(pgOff + 14) & 0xff
   \   000020   25..         ADD       A,?V0
   \   000022   F8           MOV       R0,A
   \   000023   74..         MOV       A,#((pgOff - 242) >> 8) & 0xff
   \   000025   35..         ADDC      A,?V1
   \   000027   F9           MOV       R1,A
   \   000028   85..82       MOV       DPL,?XSP + 0
   \   00002B   85..83       MOV       DPH,?XSP + 1
   \   00002E   12....       LCALL     ?Subroutine10 & 0xFFFF
   \                     ??CrossCallReturnLabel_10:
   \   000031   12....       LCALL     ?Subroutine16 & 0xFFFF
   \                     ??CrossCallReturnLabel_137:
   \   000034   F5..         MOV       ?V2,A
   \   000036   A3           INC       DPTR
   \   000037   E0           MOVX      A,@DPTR
   \   000038   F5..         MOV       ?V3,A
   1096            uint8 rtrn = FALSE;
   \   00003A   75..00       MOV       ?V7,#0x0
   1097            osalNvHdr_t hdr;
   1098          
   1099            hdr.id = id;
   \   00003D   740A         MOV       A,#0xa
   \   00003F   12....       LCALL     ?XSTACK_DISP0_8
   \   000042   12....       LCALL     ?Subroutine23 & 0xFFFF
   \                     ??CrossCallReturnLabel_40:
   \   000045   7402         MOV       A,#0x2
   \   000047   12....       LCALL     ?XSTACK_DISP0_8
   \   00004A   12....       LCALL     ?Subroutine10 & 0xFFFF
   1100            hdr.len = len;
   \                     ??CrossCallReturnLabel_11:
   \   00004D   7404         MOV       A,#0x4
   \   00004F   12....       LCALL     ?XSTACK_DISP0_8
   \   000052   EC           MOV       A,R4
   \   000053   F0           MOVX      @DPTR,A
   \   000054   A3           INC       DPTR
   \   000055   ED           MOV       A,R5
   \   000056   F0           MOVX      @DPTR,A
   1101          
   1102            writeWord( pg, offset, (uint8 *)&hdr );
   \   000057                ; Setup parameters for call to function writeWord
   \   000057   7402         MOV       A,#0x2
   \   000059   12....       LCALL     ?XSTACK_DISP102_8
   \   00005C   AA..         MOV       R2,?V2
   \   00005E   AB..         MOV       R3,?V3
   \   000060   A9..         MOV       R1,?V6
   \   000062   12....       LCALL     `??writeWord::?relay`; Banked call to: writeWord
   1103            HalFlashRead(pg, offset, (uint8 *)(&hdr), OSAL_NV_HDR_SIZE);
   \   000065                ; Setup parameters for call to function HalFlashRead
   \   000065   75..08       MOV       ?V4,#0x8
   \   000068   75..00       MOV       ?V5,#0x0
   \   00006B   78..         MOV       R0,#?V4
   \   00006D   12....       LCALL     ?PUSH_XSTACK_I_TWO
   \   000070   7404         MOV       A,#0x4
   \   000072   12....       LCALL     ?XSTACK_DISP102_8
   \   000075   AA..         MOV       R2,?V2
   \   000077   AB..         MOV       R3,?V3
   \   000079   A9..         MOV       R1,?V6
   \   00007B   12....       LCALL     ??Subroutine61_0 & 0xFFFF
   \                     ??CrossCallReturnLabel_134:
   \   00007E   12....       LCALL     ?DEALLOC_XSTACK8
   1104          
   1105            if ( (hdr.id == id) && (hdr.len == len) )
   \   000081   7404         MOV       A,#0x4
   \   000083   12....       LCALL     ?XSTACK_DISP0_8
   \   000086   12....       LCALL     ?Subroutine23 & 0xFFFF
   \                     ??CrossCallReturnLabel_41:
   \   000089   7402         MOV       A,#0x2
   \   00008B   12....       LCALL     ?XSTACK_DISP0_8
   \   00008E   12....       LCALL     ??Subroutine67_0 & 0xFFFF
   \                     ??CrossCallReturnLabel_151:
   \   000091   740A         MOV       A,#0xa
   \   000093   12....       LCALL     ?XSTACK_DISP0_8
   \   000096   E0           MOVX      A,@DPTR
   \   000097   6A           XRL       A,R2
   \   000098   7003         JNZ       ??writeItem_0
   \   00009A   A3           INC       DPTR
   \   00009B   E0           MOVX      A,@DPTR
   \   00009C   6B           XRL       A,R3
   \                     ??writeItem_0:
   \   00009D   6003         JZ        $+5
   \   00009F   02....       LJMP      ??writeItem_1 & 0xFFFF
   \   0000A2   EE           MOV       A,R6
   \   0000A3   68           XRL       A,R0
   \   0000A4   7002         JNZ       ??writeItem_2
   \   0000A6   EF           MOV       A,R7
   \   0000A7   69           XRL       A,R1
   \                     ??writeItem_2:
   \   0000A8   6003         JZ        $+5
   \   0000AA   02....       LJMP      ??writeItem_1 & 0xFFFF
   1106            {
   1107              if ( flag )
   \   0000AD   741E         MOV       A,#0x1e
   \   0000AF   12....       LCALL     ?XSTACK_DISP0_8
   \   0000B2   E0           MOVX      A,@DPTR
   \   0000B3   7003         JNZ       $+5
   \   0000B5   02....       LJMP      ??writeItem_3 & 0xFFFF
   \   0000B8   741C         MOV       A,#0x1c
   \   0000BA   12....       LCALL     ?XSTACK_DISP0_8
   \   0000BD   12....       LCALL     ?Subroutine19 & 0xFFFF
   1108              {
   1109                hdr.chk = calcChkB( len, buf );
   \                     ??CrossCallReturnLabel_30:
   \   0000C0   85..82       MOV       DPL,?V0
   \   0000C3   F583         MOV       DPH,A
   \   0000C5   EE           MOV       A,R6
   \   0000C6   F8           MOV       R0,A
   \   0000C7   EF           MOV       A,R7
   \   0000C8   F9           MOV       R1,A
   \   0000C9   EE           MOV       A,R6
   \   0000CA   5403         ANL       A,#0x3
   \   0000CC   F5..         MOV       ?V4,A
   \   0000CE   E582         MOV       A,DPL
   \   0000D0   4583         ORL       A,DPH
   \   0000D2   7015         JNZ       ??writeItem_4
   \   0000D4   EE           MOV       A,R6
   \   0000D5   75F0FF       MOV       B,#-0x1
   \   0000D8   A4           MUL       AB
   \   0000D9   F8           MOV       R0,A
   \   0000DA   AAF0         MOV       R2,B
   \   0000DC   75F0FF       MOV       B,#-0x1
   \   0000DF   EF           MOV       A,R7
   \   0000E0   A4           MUL       AB
   \   0000E1   2A           ADD       A,R2
   \   0000E2   F9           MOV       R1,A
   \   0000E3   E8           MOV       A,R0
   \   0000E4   FA           MOV       R2,A
   \   0000E5   E9           MOV       A,R1
   \   0000E6   FB           MOV       R3,A
   \   0000E7   801F         SJMP      ??writeItem_5
   \                     ??writeItem_4:
   \   0000E9   7A00         MOV       R2,#0x0
   \   0000EB   7B00         MOV       R3,#0x0
   \   0000ED   8009         SJMP      ??writeItem_6
   \                     ??writeItem_7:
   \   0000EF   E0           MOVX      A,@DPTR
   \   0000F0   FC           MOV       R4,A
   \   0000F1   EA           MOV       A,R2
   \   0000F2   2C           ADD       A,R4
   \   0000F3   FA           MOV       R2,A
   \   0000F4   E4           CLR       A
   \   0000F5   3B           ADDC      A,R3
   \   0000F6   FB           MOV       R3,A
   \   0000F7   A3           INC       DPTR
   \                     ??writeItem_6:
   \   0000F8   E8           MOV       A,R0
   \   0000F9   FC           MOV       R4,A
   \   0000FA   E9           MOV       A,R1
   \   0000FB   FD           MOV       R5,A
   \   0000FC   EC           MOV       A,R4
   \   0000FD   24FF         ADD       A,#-0x1
   \   0000FF   18           DEC       R0
   \   000100   ED           MOV       A,R5
   \   000101   34FF         ADDC      A,#-0x1
   \   000103   F9           MOV       R1,A
   \   000104   EC           MOV       A,R4
   \   000105   4D           ORL       A,R5
   \   000106   70E7         JNZ       ??writeItem_7
   \                     ??writeItem_5:
   \   000108   E5..         MOV       A,?V4
   \   00010A   601E         JZ        ??writeItem_8
   \   00010C   F8           MOV       R0,A
   \   00010D   7404         MOV       A,#0x4
   \   00010F   C3           CLR       C
   \   000110   98           SUBB      A,R0
   \   000111   F8           MOV       R0,A
   \   000112   95E0         SUBB      A,0xE0 /* A   */
   \   000114   F9           MOV       R1,A
   \   000115   E8           MOV       A,R0
   \   000116   75F0FF       MOV       B,#-0x1
   \   000119   A4           MUL       AB
   \   00011A   F8           MOV       R0,A
   \   00011B   ACF0         MOV       R4,B
   \   00011D   75F0FF       MOV       B,#-0x1
   \   000120   E9           MOV       A,R1
   \   000121   A4           MUL       AB
   \   000122   2C           ADD       A,R4
   \   000123   F9           MOV       R1,A
   \   000124   EA           MOV       A,R2
   \   000125   28           ADD       A,R0
   \   000126   FA           MOV       R2,A
   \   000127   EB           MOV       A,R3
   \   000128   39           ADDC      A,R1
   \   000129   FB           MOV       R3,A
   \                     ??writeItem_8:
   \   00012A   7406         MOV       A,#0x6
   \   00012C   12....       LCALL     ?XSTACK_DISP0_8
   \   00012F   EA           MOV       A,R2
   \   000130   F0           MOVX      @DPTR,A
   \   000131   A3           INC       DPTR
   \   000132   EB           MOV       A,R3
   \   000133   F0           MOVX      @DPTR,A
   1110          
   1111                offset += OSAL_NV_HDR_SIZE;
   \   000134   12....       LCALL     ?Subroutine39 & 0xFFFF
   1112                if ( buf != NULL )
   \                     ??CrossCallReturnLabel_73:
   \   000137   E5..         MOV       A,?V0
   \   000139   45..         ORL       A,?V1
   \   00013B   6017         JZ        ??writeItem_9
   1113                {
   1114                  writeBuf( pg, offset, len, buf );
   \   00013D                ; Setup parameters for call to function writeBuf
   \   00013D   78..         MOV       R0,#?V0
   \   00013F   12....       LCALL     ?PUSH_XSTACK_I_TWO
   \   000142   EE           MOV       A,R6
   \   000143   FC           MOV       R4,A
   \   000144   EF           MOV       A,R7
   \   000145   FD           MOV       R5,A
   \   000146   AA..         MOV       R2,?V2
   \   000148   AB..         MOV       R3,?V3
   \   00014A   A9..         MOV       R1,?V6
   \   00014C   12....       LCALL     `??writeBuf::?relay`; Banked call to: writeBuf
   \   00014F   7402         MOV       A,#0x2
   \   000151   12....       LCALL     ?DEALLOC_XSTACK8
   1115                }
   1116          
   1117                if ( hdr.chk == calcChkF( pg, offset, len ) )
   \                     ??writeItem_9:
   \   000154                ; Setup parameters for call to function calcChkF
   \   000154   EE           MOV       A,R6
   \   000155   FC           MOV       R4,A
   \   000156   EF           MOV       A,R7
   \   000157   FD           MOV       R5,A
   \   000158   AA..         MOV       R2,?V2
   \   00015A   AB..         MOV       R3,?V3
   \   00015C   A9..         MOV       R1,?V6
   \   00015E   12....       LCALL     `??calcChkF::?relay`; Banked call to: calcChkF
   \   000161   7406         MOV       A,#0x6
   \   000163   12....       LCALL     ?XSTACK_DISP0_8
   \   000166   12....       LCALL     ?Subroutine20 & 0xFFFF
   \                     ??CrossCallReturnLabel_32:
   \   000169   7002         JNZ       ??writeItem_10
   \   00016B   EB           MOV       A,R3
   \   00016C   6D           XRL       A,R5
   \                     ??writeItem_10:
   \   00016D   7029         JNZ       ??writeItem_11
   1118                {
   1119                  if ( hdr.chk == setChk( pg, offset, hdr.chk ) )
   \   00016F                ; Setup parameters for call to function setChk
   \   00016F   AA..         MOV       R2,?V2
   \   000171   AB..         MOV       R3,?V3
   \   000173   12....       LCALL     ?Subroutine41 & 0xFFFF
   \                     ??CrossCallReturnLabel_76:
   \   000176   7406         MOV       A,#0x6
   \   000178   12....       LCALL     ?XSTACK_DISP0_8
   \   00017B   E0           MOVX      A,@DPTR
   \   00017C   68           XRL       A,R0
   \   00017D   7003         JNZ       ??writeItem_12
   \   00017F   A3           INC       DPTR
   \   000180   E0           MOVX      A,@DPTR
   \   000181   69           XRL       A,R1
   \                     ??writeItem_12:
   \   000182   7014         JNZ       ??writeItem_11
   1120                  {
   1121                    hotItemUpdate(pg, offset, hdr.id);
   \   000184                ; Setup parameters for call to function hotItemUpdate
   \   000184   7402         MOV       A,#0x2
   \   000186   12....       LCALL     ?XSTACK_DISP0_8
   \   000189   12....       LCALL     ?Subroutine27 & 0xFFFF
   \                     ??CrossCallReturnLabel_52:
   \   00018C   AA..         MOV       R2,?V2
   \   00018E   AB..         MOV       R3,?V3
   \   000190   A9..         MOV       R1,?V6
   \   000192   12....       LCALL     `??hotItemUpdate::?relay`; Banked call to: hotItemUpdate
   1122                    rtrn = TRUE;
   1123                  }
   1124                }
   1125              }
   1126              else
   1127              {
   1128                rtrn = TRUE;
   \                     ??writeItem_3:
   \   000195   75..01       MOV       ?V7,#0x1
   1129              }
   1130          
   1131              len = OSAL_NV_ITEM_SIZE( hdr.len );
   \                     ??writeItem_11:
   \   000198   7404         MOV       A,#0x4
   \   00019A   12....       LCALL     ?XSTACK_DISP0_8
   \   00019D   12....       LCALL     ?Subroutine23 & 0xFFFF
   1132            }
   \                     ??CrossCallReturnLabel_42:
   \   0001A0   C3           CLR       C
   \   0001A1   E8           MOV       A,R0
   \   0001A2   94F4         SUBB      A,#-0xc
   \   0001A4   E9           MOV       A,R1
   \   0001A5   94FF         SUBB      A,#-0x1
   \   0001A7   4006         JC        ??writeItem_13
   \   0001A9   7EFC         MOV       R6,#-0x4
   \   0001AB   7FFF         MOV       R7,#-0x1
   \   0001AD   804A         SJMP      ??CrossCallReturnLabel_109
   \                     ??writeItem_13:
   \   0001AF   E8           MOV       A,R0
   \   0001B0   2403         ADD       A,#0x3
   \   0001B2   5001         JNC       ??writeItem_14
   \   0001B4   09           INC       R1
   \                     ??writeItem_14:
   \   0001B5   12....       LCALL     ?Subroutine34 & 0xFFFF
   \                     ??CrossCallReturnLabel_64:
   \   0001B8   803F         SJMP      ??CrossCallReturnLabel_109
   1133            else
   1134            {
   1135              len = OSAL_NV_ITEM_SIZE( hdr.len );
   \                     ??writeItem_1:
   \   0001BA   C3           CLR       C
   \   0001BB   E8           MOV       A,R0
   \   0001BC   94F4         SUBB      A,#-0xc
   \   0001BE   E9           MOV       A,R1
   \   0001BF   94FF         SUBB      A,#-0x1
   \   0001C1   4006         JC        ??writeItem_15
   \   0001C3   7EFC         MOV       R6,#-0x4
   \   0001C5   7FFF         MOV       R7,#-0x1
   \   0001C7   8009         SJMP      ??CrossCallReturnLabel_65
   \                     ??writeItem_15:
   \   0001C9   E8           MOV       A,R0
   \   0001CA   2403         ADD       A,#0x3
   \   0001CC   5001         JNC       ??writeItem_16
   \   0001CE   09           INC       R1
   \                     ??writeItem_16:
   \   0001CF   12....       LCALL     ?Subroutine34 & 0xFFFF
   1136          
   1137              if (len > (OSAL_NV_PAGE_SIZE - pgOff[pg - OSAL_NV_PAGE_BEG]))
   \                     ??CrossCallReturnLabel_65:
   \   0001D2   12....       LCALL     ?Subroutine16 & 0xFFFF
   \                     ??CrossCallReturnLabel_138:
   \   0001D5   F8           MOV       R0,A
   \   0001D6   A3           INC       DPTR
   \   0001D7   E0           MOVX      A,@DPTR
   \   0001D8   F9           MOV       R1,A
   \   0001D9   E4           CLR       A
   \   0001DA   C3           CLR       C
   \   0001DB   98           SUBB      A,R0
   \   0001DC   F8           MOV       R0,A
   \   0001DD   7408         MOV       A,#0x8
   \   0001DF   99           SUBB      A,R1
   \   0001E0   F9           MOV       R1,A
   \   0001E1   C3           CLR       C
   \   0001E2   E8           MOV       A,R0
   \   0001E3   9E           SUBB      A,R6
   \   0001E4   E9           MOV       A,R1
   \   0001E5   9F           SUBB      A,R7
   \   0001E6   5004         JNC       ??writeItem_17
   1138              {
   1139                len = (OSAL_NV_PAGE_SIZE - pgOff[pg - OSAL_NV_PAGE_BEG]);
   \   0001E8   E8           MOV       A,R0
   \   0001E9   FE           MOV       R6,A
   \   0001EA   E9           MOV       A,R1
   \   0001EB   FF           MOV       R7,A
   1140              }
   1141          
   1142              pgLost[pg - OSAL_NV_PAGE_BEG] += len;
   \                     ??writeItem_17:
   \   0001EC   74..         MOV       A,#(pgLost + 14) & 0xff
   \   0001EE   25..         ADD       A,?V0
   \   0001F0   F582         MOV       DPL,A
   \   0001F2   74..         MOV       A,#((pgLost - 242) >> 8) & 0xff
   \   0001F4   35..         ADDC      A,?V1
   \   0001F6   12....       LCALL     ?Subroutine37 & 0xFFFF
   1143            }
   1144            pgOff[pg - OSAL_NV_PAGE_BEG] += len;
   \                     ??CrossCallReturnLabel_109:
   \   0001F9   12....       LCALL     ?Subroutine16 & 0xFFFF
   \                     ??CrossCallReturnLabel_139:
   \   0001FC   12....       LCALL     ??Subroutine58_0 & 0xFFFF
   1145          
   1146            return rtrn;
   \                     ??CrossCallReturnLabel_107:
   \   0001FF   A9..         MOV       R1,?V7
   \   000201   740C         MOV       A,#0xc
   \   000203   02....       LJMP      ??Subroutine62_0 & 0xFFFF
   1147          }

   \                                 In  segment BANKED_CODE, align 1, keep-with-next
   \                     ?Subroutine16:
   \   000000   85..82       MOV       DPL,?XSP + 0
   \   000003   85..83       MOV       DPH,?XSP + 1
   \   000006                REQUIRE ??Subroutine64_0
   \   000006                ; // Fall through to label ??Subroutine64_0

   \                                 In  segment BANKED_CODE, align 1, keep-with-next
   \                     ?Subroutine41:
   \   000000   A9..         MOV       R1,?V6
   \   000002   12....       LCALL     `??setChk::?relay`; Banked call to: setChk
   \   000005   8A..         MOV       ?V0,R2
   \   000007   8B..         MOV       ?V1,R3
   \   000009   A8..         MOV       R0,?V0
   \   00000B   A9..         MOV       R1,?V1
   \   00000D   22           RET
   1148          
   1149          /*********************************************************************
   1150           * @fn      hotItem
   1151           *
   1152           * @brief   Look for the parameter 'id' in the hot items array.
   1153           *
   1154           * @param   id - A valid NV item Id.
   1155           *
   1156           * @return  A valid index into the hot items if the item is hot; OSAL_NV_MAX_HOT if not.
   1157           */

   \                                 In  segment BANKED_CODE, align 1, keep-with-next
   1158          static uint8 hotItem(uint16 id)
   \                     hotItem:
   1159          {
   \   000000   C082         PUSH      DPL
   \   000002   C083         PUSH      DPH
   \   000004                ; Saved register size: 2
   \   000004                ; Auto size: 0
   1160            uint8 hotIdx;
   1161          
   1162            for (hotIdx = 0; hotIdx < OSAL_NV_MAX_HOT; hotIdx++)
   \   000004   7900         MOV       R1,#0x0
   1163            {
   1164              if (hotIds[hotIdx] == id)
   \                     ??hotItem_0:
   \   000006   E9           MOV       A,R1
   \   000007   25E0         ADD       A,0xE0 /* A   */
   \   000009   FC           MOV       R4,A
   \   00000A   E4           CLR       A
   \   00000B   33           RLC       A
   \   00000C   FD           MOV       R5,A
   \   00000D   74..         MOV       A,#hotIds & 0xff
   \   00000F   2C           ADD       A,R4
   \   000010   F582         MOV       DPL,A
   \   000012   74..         MOV       A,#(hotIds >> 8) & 0xff
   \   000014   3D           ADDC      A,R5
   \   000015   F583         MOV       DPH,A
   \   000017   E0           MOVX      A,@DPTR
   \   000018   6A           XRL       A,R2
   \   000019   7003         JNZ       ??hotItem_1
   \   00001B   A3           INC       DPTR
   \   00001C   E0           MOVX      A,@DPTR
   \   00001D   6B           XRL       A,R3
   \                     ??hotItem_1:
   \   00001E   6007         JZ        ??hotItem_2
   1165              {
   1166                break;
   1167              }
   1168            }
   \   000020   09           INC       R1
   \   000021   E9           MOV       A,R1
   \   000022   C3           CLR       C
   \   000023   9403         SUBB      A,#0x3
   \   000025   40DF         JC        ??hotItem_0
   1169          
   1170            return hotIdx;
   \                     ??hotItem_2:
   \   000027                REQUIRE ?Subroutine5
   \   000027                ; // Fall through to label ?Subroutine5
   1171          }

   \                                 In  segment BANKED_CODE, align 1, keep-with-next
   \                     ?Subroutine5:
   \   000000   D083         POP       DPH
   \   000002   D082         POP       DPL
   \   000004   02....       LJMP      ?BRET
   1172          
   1173          /*********************************************************************
   1174           * @fn      hotItemUpdate
   1175           *
   1176           * @brief   If the parameter 'id' is a hot item, update the corresponding hot item data.
   1177           *
   1178           * @param   pg - The new NV page corresponding to the hot item.
   1179           * @param   off - The new NV page offset corresponding to the hot item.
   1180           * @param   id - A valid NV item Id.
   1181           *
   1182           * @return  none
   1183           */

   \                                 In  segment BANKED_CODE, align 1, keep-with-next
   1184          static void hotItemUpdate(uint8 pg, uint16 off, uint16 id)
   \                     hotItemUpdate:
   1185          {
   \   000000                REQUIRE ?V0
   \   000000   74F7         MOV       A,#-0x9
   \   000002   12....       LCALL     ?BANKED_ENTER_XDATA
   \   000005                ; Saved register size: 9
   \   000005                ; Auto size: 0
   \   000005   89..         MOV       ?V0,R1
   \   000007   EA           MOV       A,R2
   \   000008   FE           MOV       R6,A
   \   000009   EB           MOV       A,R3
   \   00000A   FF           MOV       R7,A
   \   00000B   EC           MOV       A,R4
   \   00000C   FA           MOV       R2,A
   \   00000D   ED           MOV       A,R5
   \   00000E   FB           MOV       R3,A
   1186            uint8 hotIdx = hotItem(id);
   \   00000F                ; Setup parameters for call to function hotItem
   \   00000F   12....       LCALL     ?Subroutine45 & 0xFFFF
   1187          
   1188            if (hotIdx < OSAL_NV_MAX_HOT)
   \                     ??CrossCallReturnLabel_83:
   \   000012   500D         JNC       ??hotItemUpdate_0
   1189            {
   1190              {
   1191                hotPg[hotIdx] = pg;
   \   000014   12....       LCALL     ?Subroutine44 & 0xFFFF
   1192                hotOff[hotIdx] = off;
   1193              }
   1194            }
   \                     ??CrossCallReturnLabel_81:
   \   000017   E5..         MOV       A,?V0
   \   000019   12....       LCALL     ?Subroutine6 & 0xFFFF
   \                     ??CrossCallReturnLabel_0:
   \   00001C   EE           MOV       A,R6
   \   00001D   F0           MOVX      @DPTR,A
   \   00001E   A3           INC       DPTR
   \   00001F   EF           MOV       A,R7
   \   000020   F0           MOVX      @DPTR,A
   1195          }
   \                     ??hotItemUpdate_0:
   \   000021   02....       LJMP      ??Subroutine54_0 & 0xFFFF

   \                                 In  segment BANKED_CODE, align 1, keep-with-next
   \                     ?Subroutine45:
   \   000000   12....       LCALL     `??hotItem::?relay`; Banked call to: hotItem
   \   000003   E9           MOV       A,R1
   \   000004   F8           MOV       R0,A
   \   000005   C3           CLR       C
   \   000006   9403         SUBB      A,#0x3
   \   000008   22           RET

   \                                 In  segment BANKED_CODE, align 1, keep-with-next
   \                     ?Subroutine44:
   \   000000   74..         MOV       A,#hotPg & 0xff
   \   000002   29           ADD       A,R1
   \   000003   F582         MOV       DPL,A
   \   000005   E4           CLR       A
   \   000006   34..         ADDC      A,#(hotPg >> 8) & 0xff
   \   000008   F583         MOV       DPH,A
   \   00000A   22           RET

   \                                 In  segment BANKED_CODE, align 1, keep-with-next
   \                     ?Subroutine6:
   \   000000   F0           MOVX      @DPTR,A
   \   000001   12....       LCALL     ?Subroutine48 & 0xFFFF
   \                     ??CrossCallReturnLabel_91:
   \   000004   22           RET

   \                                 In  segment BANKED_CODE, align 1, keep-with-next
   \                     ?Subroutine48:
   \   000000   E9           MOV       A,R1
   \   000001   29           ADD       A,R1
   \   000002   F8           MOV       R0,A
   \   000003   E4           CLR       A
   \   000004   33           RLC       A
   \   000005   F9           MOV       R1,A
   \   000006   74..         MOV       A,#hotOff & 0xff
   \   000008   28           ADD       A,R0
   \   000009   F582         MOV       DPL,A
   \   00000B   74..         MOV       A,#(hotOff >> 8) & 0xff
   \   00000D   39           ADDC      A,R1
   \   00000E   F583         MOV       DPH,A
   \   000010   22           RET
   1196          
   1197          /*********************************************************************
   1198           * @fn      osal_nv_init
   1199           *
   1200           * @brief   Initialize NV service.
   1201           *
   1202           * @param   p - Not used.
   1203           *
   1204           * @return  none
   1205           */

   \                                 In  segment BANKED_CODE, align 1, keep-with-next
   1206          void osal_nv_init( void *p )
   \                     osal_nv_init:
   1207          {
   \   000000   C082         PUSH      DPL
   \   000002   C083         PUSH      DPH
   \   000004                ; Saved register size: 2
   \   000004                ; Auto size: 0
   1208            (void)p;  // Suppress Lint warning.
   1209            (void)initNV();  // Always returns TRUE after pages have been erased.
   \   000004                ; Setup parameters for call to function initNV
   \   000004   12....       LCALL     `??initNV::?relay`; Banked call to: initNV
   1210          }
   \   000007   80..         SJMP      ?Subroutine5
   1211          
   1212          /*********************************************************************
   1213           * @fn      osal_nv_item_init
   1214           *
   1215           * @brief   If the NV item does not already exist, it is created and
   1216           *          initialized with the data passed to the function, if any.
   1217           *          This function must be called before calling osal_nv_read() or
   1218           *          osal_nv_write().
   1219           *
   1220           * @param   id  - Valid NV item Id.
   1221           * @param   len - Item length.
   1222           * @param  *buf - Pointer to item initalization data. Set to NULL if none.
   1223           *
   1224           * @return  NV_ITEM_UNINIT - Id did not exist and was created successfully.
   1225           *          SUCCESS        - Id already existed, no action taken.
   1226           *          NV_OPER_FAILED - Failure to find or create Id.
   1227           */

   \                                 In  segment BANKED_CODE, align 1, keep-with-next
   1228          uint8 osal_nv_item_init( uint16 id, uint16 len, void *buf )
   \                     osal_nv_item_init:
   1229          {
   \   000000                REQUIRE ?V0
   \   000000                REQUIRE ?V1
   \   000000                REQUIRE ?V2
   \   000000                REQUIRE ?V3
   \   000000   74F4         MOV       A,#-0xc
   \   000002   12....       LCALL     ?BANKED_ENTER_XDATA
   \   000005                ; Saved register size: 12
   \   000005                ; Auto size: 0
   \   000005   EA           MOV       A,R2
   \   000006   FE           MOV       R6,A
   \   000007   EB           MOV       A,R3
   \   000008   FF           MOV       R7,A
   \   000009   8C..         MOV       ?V0,R4
   \   00000B   8D..         MOV       ?V1,R5
   1230            uint16 offset;
   1231          
   1232            if ( !OSAL_NV_CHECK_BUS_VOLTAGE )
   \   00000D                ; Setup parameters for call to function HalAdcCheckVdd
   \   00000D   794E         MOV       R1,#0x4e
   \   00000F   12....       LCALL     `??HalAdcCheckVdd::?relay`; Banked call to: HalAdcCheckVdd
   \   000012   E9           MOV       A,R1
   \   000013   6036         JZ        ??osal_nv_item_init_0
   1233            {
   1234              return NV_OPER_FAILED;
   1235            }
   1236            else if ((offset = findItem(id)) != OSAL_NV_ITEM_NULL)
   \   000015                ; Setup parameters for call to function findItem
   \   000015   12....       LCALL     ?Subroutine42 & 0xFFFF
   \                     ??CrossCallReturnLabel_144:
   \   000018   6010         JZ        ??osal_nv_item_init_1
   1237            {
   1238              // Re-populate the NV hot item data if the corresponding items are already established.
   1239              hotItemUpdate(findPg, offset, id);
   \   00001A                ; Setup parameters for call to function hotItemUpdate
   \   00001A   EE           MOV       A,R6
   \   00001B   FC           MOV       R4,A
   \   00001C   EF           MOV       A,R7
   \   00001D   FD           MOV       R5,A
   \   00001E   90....       MOV       DPTR,#findPg
   \   000021   E0           MOVX      A,@DPTR
   \   000022   F9           MOV       R1,A
   \   000023   12....       LCALL     `??hotItemUpdate::?relay`; Banked call to: hotItemUpdate
   1240          
   1241              return SUCCESS;
   \   000026   7900         MOV       R1,#0x0
   \   000028   8023         SJMP      ??osal_nv_item_init_2
   1242            }
   1243            else if ( initItem( TRUE, id, len, buf ) != OSAL_NV_PAGE_NULL )
   \                     ??osal_nv_item_init_1:
   \   00002A                ; Setup parameters for call to function initItem
   \   00002A   740C         MOV       A,#0xc
   \   00002C   12....       LCALL     ?XSTACK_DISP0_8
   \   00002F   12....       LCALL     ?PUSH_XSTACK8_X_TWO
   \   000032   AC..         MOV       R4,?V0
   \   000034   AD..         MOV       R5,?V1
   \   000036   EE           MOV       A,R6
   \   000037   FA           MOV       R2,A
   \   000038   EF           MOV       A,R7
   \   000039   FB           MOV       R3,A
   \   00003A   7901         MOV       R1,#0x1
   \   00003C   12....       LCALL     `??initItem::?relay`; Banked call to: initItem
   \   00003F   7402         MOV       A,#0x2
   \   000041   12....       LCALL     ?DEALLOC_XSTACK8
   \   000044   E9           MOV       A,R1
   \   000045   6004         JZ        ??osal_nv_item_init_0
   1244            {
   1245              return NV_ITEM_UNINIT;
   \   000047   7909         MOV       R1,#0x9
   \   000049   8002         SJMP      ??osal_nv_item_init_2
   1246            }
   1247            else
   1248            {
   1249              return NV_OPER_FAILED;
   \                     ??osal_nv_item_init_0:
   \   00004B   790A         MOV       R1,#0xa
   1250            }
   \                     ??osal_nv_item_init_2:
   \   00004D   02....       LJMP      ??Subroutine52_0 & 0xFFFF
   1251          }

   \                                 In  segment BANKED_CODE, align 1, keep-with-next
   \                     ?Subroutine42:
   \   000000   EE           MOV       A,R6
   \   000001   FA           MOV       R2,A
   \   000002   EF           MOV       A,R7
   \   000003                REQUIRE ??Subroutine65_0
   \   000003                ; // Fall through to label ??Subroutine65_0
   1252          
   1253          /*********************************************************************
   1254           * @fn      osal_nv_item_len
   1255           *
   1256           * @brief   Get the data length of the item stored in NV memory.
   1257           *
   1258           * @param   id  - Valid NV item Id.
   1259           *
   1260           * @return  Item length, if found; zero otherwise.
   1261           */

   \                                 In  segment BANKED_CODE, align 1, keep-with-next
   1262          uint16 osal_nv_item_len( uint16 id )
   \                     osal_nv_item_len:
   1263          {
   \   000000                REQUIRE ?V0
   \   000000                REQUIRE ?V1
   \   000000   74F6         MOV       A,#-0xa
   \   000002   12....       LCALL     ?BANKED_ENTER_XDATA
   \   000005                ; Saved register size: 10
   \   000005                ; Auto size: 8
   \   000005   74F8         MOV       A,#-0x8
   \   000007   12....       LCALL     ?ALLOC_XSTACK8
   \   00000A   EA           MOV       A,R2
   \   00000B   FE           MOV       R6,A
   \   00000C   EB           MOV       A,R3
   \   00000D   FF           MOV       R7,A
   1264            osalNvHdr_t hdr;
   1265            uint16 offset;
   1266            uint8 hotIdx;
   1267          
   1268            if ((hotIdx = hotItem(id)) < OSAL_NV_MAX_HOT)
   \   00000E                ; Setup parameters for call to function hotItem
   \   00000E   12....       LCALL     ?Subroutine45 & 0xFFFF
   \                     ??CrossCallReturnLabel_84:
   \   000011   5040         JNC       ??osal_nv_item_len_0
   1269            {
   1270              findPg = hotPg[hotIdx];
   \   000013   12....       LCALL     ?Subroutine44 & 0xFFFF
   1271              offset = hotOff[hotIdx];
   1272            }
   \                     ??CrossCallReturnLabel_82:
   \   000016   E0           MOVX      A,@DPTR
   \   000017   90....       MOV       DPTR,#findPg
   \   00001A   12....       LCALL     ?Subroutine6 & 0xFFFF
   \                     ??CrossCallReturnLabel_1:
   \   00001D   12....       LCALL     ??Subroutine67_0 & 0xFFFF
   1273            else if ((offset = findItem(id)) == OSAL_NV_ITEM_NULL)
   1274            {
   1275              return 0;
   1276            }
   1277          
   1278            HalFlashRead(findPg, (offset - OSAL_NV_HDR_SIZE), (uint8 *)(&hdr), OSAL_NV_HDR_SIZE);
   \                     ??CrossCallReturnLabel_152:
   \   000020                ; Setup parameters for call to function HalFlashRead
   \   000020   75..08       MOV       ?V0,#0x8
   \   000023   75..00       MOV       ?V1,#0x0
   \   000026   78..         MOV       R0,#?V0
   \   000028   12....       LCALL     ?PUSH_XSTACK_I_TWO
   \   00002B   7402         MOV       A,#0x2
   \   00002D   12....       LCALL     ?XSTACK_DISP102_8
   \   000030   EA           MOV       A,R2
   \   000031   24F8         ADD       A,#-0x8
   \   000033   FA           MOV       R2,A
   \   000034   EB           MOV       A,R3
   \   000035   34FF         ADDC      A,#-0x1
   \   000037   FB           MOV       R3,A
   \   000038   90....       MOV       DPTR,#findPg
   \   00003B   12....       LCALL     ?Subroutine11 & 0xFFFF
   \                     ??CrossCallReturnLabel_119:
   \   00003E   12....       LCALL     ?DEALLOC_XSTACK8
   1279            return hdr.len;
   \   000041   7402         MOV       A,#0x2
   \   000043   12....       LCALL     ?XSTACK_DISP0_8
   \   000046   12....       LCALL     ??Subroutine67_0 & 0xFFFF
   \                     ??CrossCallReturnLabel_153:
   \   000049   7408         MOV       A,#0x8
   \   00004B   12....       LCALL     ?DEALLOC_XSTACK8
   \   00004E   7F02         MOV       R7,#0x2
   \   000050   02....       LJMP      ?BANKED_LEAVE_XDATA
   \                     ??osal_nv_item_len_0:
   \   000053                ; Setup parameters for call to function findItem
   \   000053   EE           MOV       A,R6
   \   000054   FA           MOV       R2,A
   \   000055   EF           MOV       A,R7
   \   000056   FB           MOV       R3,A
   \   000057   12....       LCALL     `??findItem::?relay`; Banked call to: findItem
   \   00005A   8B..         MOV       ?V1,R3
   \   00005C   A9..         MOV       R1,?V1
   \   00005E   EA           MOV       A,R2
   \   00005F   49           ORL       A,R1
   \   000060   70BE         JNZ       ??CrossCallReturnLabel_152
   \   000062   7A00         MOV       R2,#0x0
   \   000064   7B00         MOV       R3,#0x0
   \   000066   80E1         SJMP      ??CrossCallReturnLabel_153
   1280          }
   1281          
   1282          /*********************************************************************
   1283           * @fn      osal_nv_write
   1284           *
   1285           * @brief   Write a data item to NV. Function can write an entire item to NV or
   1286           *          an element of an item by indexing into the item with an offset.
   1287           *
   1288           * @param   id  - Valid NV item Id.
   1289           * @param   ndx - Index offset into item
   1290           * @param   len - Length of data to write.
   1291           * @param  *buf - Data to write.
   1292           *
   1293           * @return  SUCCESS if successful, NV_ITEM_UNINIT if item did not
   1294           *          exist in NV and offset is non-zero, NV_OPER_FAILED if failure.
   1295           */

   \                                 In  segment BANKED_CODE, align 1, keep-with-next
   1296          uint8 osal_nv_write( uint16 id, uint16 ndx, uint16 len, void *buf )
   \                     osal_nv_write:
   1297          {
   \   000000                REQUIRE ?V0
   \   000000                REQUIRE ?V1
   \   000000                REQUIRE ?V2
   \   000000                REQUIRE ?V3
   \   000000                REQUIRE ?V4
   \   000000                REQUIRE ?V5
   \   000000                REQUIRE ?V6
   \   000000                REQUIRE ?V7
   \   000000   74F0         MOV       A,#-0x10
   \   000002   12....       LCALL     ?BANKED_ENTER_XDATA
   \   000005                ; Saved register size: 16
   \   000005                ; Auto size: 19
   \   000005   74ED         MOV       A,#-0x13
   \   000007   12....       LCALL     ?ALLOC_XSTACK8
   \   00000A   7411         MOV       A,#0x11
   \   00000C   12....       LCALL     ?XSTACK_DISP0_8
   \   00000F   EA           MOV       A,R2
   \   000010   F0           MOVX      @DPTR,A
   \   000011   A3           INC       DPTR
   \   000012   EB           MOV       A,R3
   \   000013   F0           MOVX      @DPTR,A
   \   000014   7407         MOV       A,#0x7
   \   000016   12....       LCALL     ?XSTACK_DISP0_8
   \   000019   EC           MOV       A,R4
   \   00001A   F0           MOVX      @DPTR,A
   \   00001B   A3           INC       DPTR
   \   00001C   ED           MOV       A,R5
   \   00001D   F0           MOVX      @DPTR,A
   1298            uint8 rtrn = SUCCESS;
   \   00001E   7402         MOV       A,#0x2
   \   000020   12....       LCALL     ?XSTACK_DISP0_8
   \   000023   E4           CLR       A
   \   000024   F0           MOVX      @DPTR,A
   1299          
   1300            if ( !OSAL_NV_CHECK_BUS_VOLTAGE )
   \   000025                ; Setup parameters for call to function HalAdcCheckVdd
   \   000025   794E         MOV       R1,#0x4e
   \   000027   12....       LCALL     `??HalAdcCheckVdd::?relay`; Banked call to: HalAdcCheckVdd
   \   00002A   E9           MOV       A,R1
   \   00002B   7003         JNZ       $+5
   \   00002D   02....       LJMP      ??osal_nv_write_0 & 0xFFFF
   1301            {
   1302              return NV_OPER_FAILED;
   1303            }
   1304            else if ( len != 0 )
   \   000030   7423         MOV       A,#0x23
   \   000032   12....       LCALL     ?XSTACK_DISP0_8
   \   000035   12....       LCALL     ?Subroutine13 & 0xFFFF
   \                     ??CrossCallReturnLabel_17:
   \   000038   7003         JNZ       $+5
   \   00003A   02....       LJMP      ??CrossCallReturnLabel_95 & 0xFFFF
   1305            {
   1306              osalNvHdr_t hdr;
   1307              uint16 origOff, srcOff;
   1308              uint16 cnt, chk;
   1309              uint8 *ptr, srcPg;
   1310          
   1311              origOff = srcOff = findItem( id );
   \   00003D                ; Setup parameters for call to function findItem
   \   00003D   7411         MOV       A,#0x11
   \   00003F   12....       LCALL     ?XSTACK_DISP0_8
   \   000042   12....       LCALL     ??Subroutine67_0 & 0xFFFF
   \                     ??CrossCallReturnLabel_154:
   \   000045   12....       LCALL     `??findItem::?relay`; Banked call to: findItem
   \   000048   7403         MOV       A,#0x3
   \   00004A   12....       LCALL     ?XSTACK_DISP0_8
   \   00004D   EA           MOV       A,R2
   \   00004E   F0           MOVX      @DPTR,A
   \   00004F   A3           INC       DPTR
   \   000050   EB           MOV       A,R3
   \   000051   F0           MOVX      @DPTR,A
   1312              srcPg = findPg;
   \   000052   90....       MOV       DPTR,#findPg
   \   000055   E0           MOVX      A,@DPTR
   \   000056   C0E0         PUSH      A
   \   000058   7401         MOV       A,#0x1
   \   00005A   12....       LCALL     ?XSTACK_DISP0_8
   \   00005D   D0E0         POP       A
   \   00005F   F0           MOVX      @DPTR,A
   1313              if ( srcOff == OSAL_NV_ITEM_NULL )
   \   000060   7403         MOV       A,#0x3
   \   000062   12....       LCALL     ?XSTACK_DISP0_8
   \   000065   12....       LCALL     ?Subroutine13 & 0xFFFF
   \                     ??CrossCallReturnLabel_18:
   \   000068   7005         JNZ       ??osal_nv_write_1
   1314              {
   1315                return NV_ITEM_UNINIT;
   \   00006A   7909         MOV       R1,#0x9
   \   00006C   02....       LJMP      ??osal_nv_write_2 & 0xFFFF
   1316              }
   1317          
   1318              HalFlashRead(srcPg, (srcOff - OSAL_NV_HDR_SIZE), (uint8 *)(&hdr), OSAL_NV_HDR_SIZE);
   \                     ??osal_nv_write_1:
   \   00006F                ; Setup parameters for call to function HalFlashRead
   \   00006F   75..08       MOV       ?V0,#0x8
   \   000072   75..00       MOV       ?V1,#0x0
   \   000075   78..         MOV       R0,#?V0
   \   000077   12....       LCALL     ?PUSH_XSTACK_I_TWO
   \   00007A   740B         MOV       A,#0xb
   \   00007C   12....       LCALL     ?XSTACK_DISP102_8
   \   00007F   7405         MOV       A,#0x5
   \   000081   12....       LCALL     ?XSTACK_DISP0_8
   \   000084   E0           MOVX      A,@DPTR
   \   000085   24F8         ADD       A,#-0x8
   \   000087   FA           MOV       R2,A
   \   000088   A3           INC       DPTR
   \   000089   E0           MOVX      A,@DPTR
   \   00008A   34FF         ADDC      A,#-0x1
   \   00008C   FB           MOV       R3,A
   \   00008D   7403         MOV       A,#0x3
   \   00008F   12....       LCALL     ?XSTACK_DISP0_8
   \   000092   12....       LCALL     ?Subroutine11 & 0xFFFF
   \                     ??CrossCallReturnLabel_120:
   \   000095   12....       LCALL     ?DEALLOC_XSTACK8
   1319              if ( hdr.len < (ndx + len) )
   \   000098   740B         MOV       A,#0xb
   \   00009A   12....       LCALL     ?XSTACK_DISP0_8
   \   00009D   C082         PUSH      DPL
   \   00009F   C083         PUSH      DPH
   \   0000A1   7407         MOV       A,#0x7
   \   0000A3   12....       LCALL     ?XSTACK_DISP0_8
   \   0000A6   12....       LCALL     ?Subroutine23 & 0xFFFF
   \                     ??CrossCallReturnLabel_43:
   \   0000A9   7423         MOV       A,#0x23
   \   0000AB   12....       LCALL     ?XSTACK_DISP0_8
   \   0000AE   E0           MOVX      A,@DPTR
   \   0000AF   28           ADD       A,R0
   \   0000B0   F8           MOV       R0,A
   \   0000B1   A3           INC       DPTR
   \   0000B2   E0           MOVX      A,@DPTR
   \   0000B3   39           ADDC      A,R1
   \   0000B4   F9           MOV       R1,A
   \   0000B5   D083         POP       DPH
   \   0000B7   D082         POP       DPL
   \   0000B9   C3           CLR       C
   \   0000BA   E0           MOVX      A,@DPTR
   \   0000BB   98           SUBB      A,R0
   \   0000BC   A3           INC       DPTR
   \   0000BD   E0           MOVX      A,@DPTR
   \   0000BE   99           SUBB      A,R1
   \   0000BF   5005         JNC       ??osal_nv_write_3
   1320              {
   1321                return NV_OPER_FAILED;
   \                     ??osal_nv_write_0:
   \   0000C1   790A         MOV       R1,#0xa
   \   0000C3   02....       LJMP      ??osal_nv_write_2 & 0xFFFF
   1322              }
   1323          
   1324              srcOff += ndx;
   \                     ??osal_nv_write_3:
   \   0000C6   7403         MOV       A,#0x3
   \   0000C8   12....       LCALL     ?XSTACK_DISP0_8
   \   0000CB   12....       LCALL     ?Subroutine23 & 0xFFFF
   \                     ??CrossCallReturnLabel_44:
   \   0000CE   7407         MOV       A,#0x7
   \   0000D0   12....       LCALL     ?XSTACK_DISP0_8
   \   0000D3   E0           MOVX      A,@DPTR
   \   0000D4   28           ADD       A,R0
   \   0000D5   F5..         MOV       ?V2,A
   \   0000D7   A3           INC       DPTR
   \   0000D8   E0           MOVX      A,@DPTR
   \   0000D9   39           ADDC      A,R1
   \   0000DA   F5..         MOV       ?V3,A
   \   0000DC   7405         MOV       A,#0x5
   \   0000DE   12....       LCALL     ?XSTACK_DISP0_8
   \   0000E1   E5..         MOV       A,?V2
   \   0000E3   F0           MOVX      @DPTR,A
   \   0000E4   A3           INC       DPTR
   \   0000E5   E5..         MOV       A,?V3
   \   0000E7   F0           MOVX      @DPTR,A
   1325              ptr = buf;
   \   0000E8   7425         MOV       A,#0x25
   \   0000EA   12....       LCALL     ?XSTACK_DISP0_8
   \   0000ED   E0           MOVX      A,@DPTR
   \   0000EE   F5..         MOV       ?V6,A
   \   0000F0   A3           INC       DPTR
   \   0000F1   E0           MOVX      A,@DPTR
   \   0000F2   F5..         MOV       ?V7,A
   1326              cnt = len;
   \   0000F4   7423         MOV       A,#0x23
   \   0000F6   12....       LCALL     ?XSTACK_DISP0_8
   \   0000F9   E0           MOVX      A,@DPTR
   \   0000FA   FE           MOV       R6,A
   \   0000FB   A3           INC       DPTR
   \   0000FC   E0           MOVX      A,@DPTR
   \   0000FD   FF           MOV       R7,A
   1327              chk = 0;
   \   0000FE   75..00       MOV       ?V0,#0x0
   \   000101   8076         SJMP      ??osal_nv_write_4
   1328              while ( cnt-- )
   1329              {
   1330                uint8 tmp;
   1331                HalFlashRead(srcPg, srcOff, &tmp, 1);
   \                     ??osal_nv_write_5:
   \   000103                ; Setup parameters for call to function HalFlashRead
   \   000103   75..01       MOV       ?V4,#0x1
   \   000106   75..00       MOV       ?V5,#0x0
   \   000109   78..         MOV       R0,#?V4
   \   00010B   12....       LCALL     ?PUSH_XSTACK_I_TWO
   \   00010E   7402         MOV       A,#0x2
   \   000110   12....       LCALL     ?XSTACK_DISP102_8
   \   000113   7407         MOV       A,#0x7
   \   000115   12....       LCALL     ?XSTACK_DISP0_8
   \   000118   12....       LCALL     ??Subroutine67_0 & 0xFFFF
   \                     ??CrossCallReturnLabel_155:
   \   00011B   7403         MOV       A,#0x3
   \   00011D   12....       LCALL     ?XSTACK_DISP0_8
   \   000120   12....       LCALL     ?Subroutine11 & 0xFFFF
   \                     ??CrossCallReturnLabel_121:
   \   000123   12....       LCALL     ?DEALLOC_XSTACK8
   1332                if ( tmp != *ptr )
   \   000126   85..82       MOV       DPL,?XSP + 0
   \   000129   85..83       MOV       DPH,?XSP + 1
   \   00012C   E0           MOVX      A,@DPTR
   \   00012D   F8           MOV       R0,A
   \   00012E   85..82       MOV       DPL,?V6
   \   000131   85..83       MOV       DPH,?V7
   \   000134   E0           MOVX      A,@DPTR
   \   000135   68           XRL       A,R0
   \   000136   6026         JZ        ??osal_nv_write_6
   1333                {
   1334                  chk = 1;  // Mark that at least one byte is different.
   \   000138   75..01       MOV       ?V0,#0x1
   1335                  // Calculate expected checksum after transferring old data and writing new data.
   1336                  hdr.chk -= tmp;
   \   00013B   740D         MOV       A,#0xd
   \   00013D   12....       LCALL     ?XSTACK_DISP0_8
   \   000140   C3           CLR       C
   \   000141   E0           MOVX      A,@DPTR
   \   000142   98           SUBB      A,R0
   \   000143   F0           MOVX      @DPTR,A
   \   000144   A3           INC       DPTR
   \   000145   E0           MOVX      A,@DPTR
   \   000146   9400         SUBB      A,#0x0
   \   000148   F0           MOVX      @DPTR,A
   1337                  hdr.chk += *ptr;
   \   000149   85..82       MOV       DPL,?V6
   \   00014C   85..83       MOV       DPH,?V7
   \   00014F   E0           MOVX      A,@DPTR
   \   000150   F8           MOV       R0,A
   \   000151   740D         MOV       A,#0xd
   \   000153   12....       LCALL     ?XSTACK_DISP0_8
   \   000156   E0           MOVX      A,@DPTR
   \   000157   28           ADD       A,R0
   \   000158   F0           MOVX      @DPTR,A
   \   000159   A3           INC       DPTR
   \   00015A   E0           MOVX      A,@DPTR
   \   00015B   3400         ADDC      A,#0x0
   \   00015D   F0           MOVX      @DPTR,A
   1338                }
   1339                srcOff++;
   \                     ??osal_nv_write_6:
   \   00015E   7405         MOV       A,#0x5
   \   000160   12....       LCALL     ?XSTACK_DISP0_8
   \   000163   E0           MOVX      A,@DPTR
   \   000164   2401         ADD       A,#0x1
   \   000166   F0           MOVX      @DPTR,A
   \   000167   A3           INC       DPTR
   \   000168   E0           MOVX      A,@DPTR
   \   000169   3400         ADDC      A,#0x0
   \   00016B   F0           MOVX      @DPTR,A
   1340                ptr++;
   \   00016C   85..82       MOV       DPL,?V6
   \   00016F   85..83       MOV       DPH,?V7
   \   000172   A3           INC       DPTR
   \   000173   8582..       MOV       ?V6,DPL
   \   000176   8583..       MOV       ?V7,DPH
   1341              }
   \                     ??osal_nv_write_4:
   \   000179   12....       LCALL     ?Subroutine43 & 0xFFFF
   \                     ??CrossCallReturnLabel_80:
   \   00017C   7085         JNZ       ??osal_nv_write_5
   1342          
   1343              if ( chk != 0 )  // If the buffer to write is different in one or more bytes.
   \   00017E   E5..         MOV       A,?V0
   \   000180   A2E0         MOV       C,0xE0 /* A   */.0
   \   000182   4003         JC        $+5
   \   000184   02....       LJMP      ??CrossCallReturnLabel_95 & 0xFFFF
   1344              {
   1345                uint8 comPg = OSAL_NV_PAGE_NULL;
   \   000187   85..82       MOV       DPL,?XSP + 0
   \   00018A   85..83       MOV       DPH,?XSP + 1
   \   00018D   E4           CLR       A
   \   00018E   F0           MOVX      @DPTR,A
   1346                uint8 dstPg = initItem( FALSE, id, hdr.len, &comPg );
   \   00018F                ; Setup parameters for call to function initItem
   \   00018F   A8..         MOV       R0,?XSP + 0
   \   000191   A9..         MOV       R1,?XSP + 1
   \   000193   88..         MOV       ?V0,R0
   \   000195   89..         MOV       ?V1,R1
   \   000197   78..         MOV       R0,#?V0
   \   000199   12....       LCALL     ?PUSH_XSTACK_I_TWO
   \   00019C   740D         MOV       A,#0xd
   \   00019E   12....       LCALL     ?XSTACK_DISP0_8
   \   0001A1   12....       LCALL     ?Subroutine27 & 0xFFFF
   \                     ??CrossCallReturnLabel_53:
   \   0001A4   7413         MOV       A,#0x13
   \   0001A6   12....       LCALL     ?XSTACK_DISP0_8
   \   0001A9   12....       LCALL     ??Subroutine67_0 & 0xFFFF
   \                     ??CrossCallReturnLabel_156:
   \   0001AC   7900         MOV       R1,#0x0
   \   0001AE   12....       LCALL     `??initItem::?relay`; Banked call to: initItem
   \   0001B1   7402         MOV       A,#0x2
   \   0001B3   12....       LCALL     ?DEALLOC_XSTACK8
   \   0001B6   E9           MOV       A,R1
   \   0001B7   F5..         MOV       ?V6,A
   1347          
   1348                if ( dstPg != OSAL_NV_PAGE_NULL )
   \   0001B9   7003         JNZ       $+5
   \   0001BB   02....       LJMP      ??osal_nv_write_7 & 0xFFFF
   1349                {
   1350                  uint16 tmp = OSAL_NV_DATA_SIZE( hdr.len );
   \   0001BE   740B         MOV       A,#0xb
   \   0001C0   12....       LCALL     ?XSTACK_DISP0_8
   \   0001C3   12....       LCALL     ?Subroutine23 & 0xFFFF
   \                     ??CrossCallReturnLabel_45:
   \   0001C6   C3           CLR       C
   \   0001C7   E8           MOV       A,R0
   \   0001C8   94FC         SUBB      A,#-0x4
   \   0001CA   E9           MOV       A,R1
   \   0001CB   94FF         SUBB      A,#-0x1
   \   0001CD   4008         JC        ??osal_nv_write_8
   \   0001CF   75..FC       MOV       ?V0,#-0x4
   \   0001D2   75..FF       MOV       ?V1,#-0x1
   \   0001D5   800D         SJMP      ??osal_nv_write_9
   \                     ??osal_nv_write_8:
   \   0001D7   E8           MOV       A,R0
   \   0001D8   2403         ADD       A,#0x3
   \   0001DA   5001         JNC       ??osal_nv_write_10
   \   0001DC   09           INC       R1
   \                     ??osal_nv_write_10:
   \   0001DD   54FC         ANL       A,#0xfc
   \   0001DF   F5..         MOV       ?V0,A
   \   0001E1   E9           MOV       A,R1
   \   0001E2   F5..         MOV       ?V1,A
   1351                  uint16 dstOff = pgOff[dstPg-OSAL_NV_PAGE_BEG] - tmp;
   \                     ??osal_nv_write_9:
   \   0001E4   A8..         MOV       R0,?V6
   \   0001E6   E8           MOV       A,R0
   \   0001E7   28           ADD       A,R0
   \   0001E8   F8           MOV       R0,A
   \   0001E9   E4           CLR       A
   \   0001EA   33           RLC       A
   \   0001EB   F9           MOV       R1,A
   \   0001EC   74..         MOV       A,#(pgOff + 14) & 0xff
   \   0001EE   28           ADD       A,R0
   \   0001EF   F8           MOV       R0,A
   \   0001F0   74..         MOV       A,#((pgOff - 242) >> 8) & 0xff
   \   0001F2   39           ADDC      A,R1
   \   0001F3   F9           MOV       R1,A
   \   0001F4   7405         MOV       A,#0x5
   \   0001F6   12....       LCALL     ?XSTACK_DISP0_8
   \   0001F9   12....       LCALL     ?Subroutine10 & 0xFFFF
   \                     ??CrossCallReturnLabel_12:
   \   0001FC   7405         MOV       A,#0x5
   \   0001FE   12....       LCALL     ?XSTACK_DISP0_8
   \   000201   12....       LCALL     ?Subroutine15 & 0xFFFF
   1352                  srcOff = origOff;
   1353          
   1354                  /* Prevent excessive re-writes to item header caused by numerous, rapid, & successive
   1355                   * OSAL_Nv interruptions caused by resets.
   1356                   */
   1357                  if ( hdr.stat == OSAL_NV_ERASED_ID )
   \                     ??CrossCallReturnLabel_22:
   \   000204   740F         MOV       A,#0xf
   \   000206   12....       LCALL     ?XSTACK_DISP0_8
   \   000209   E0           MOVX      A,@DPTR
   \   00020A   F4           CPL       A
   \   00020B   7003         JNZ       ??osal_nv_write_11
   \   00020D   A3           INC       DPTR
   \   00020E   E0           MOVX      A,@DPTR
   \   00020F   F4           CPL       A
   \                     ??osal_nv_write_11:
   \   000210   7012         JNZ       ??CrossCallReturnLabel_94
   1358                  {
   1359                    setItem( srcPg, srcOff, eNvXfer );
   \   000212                ; Setup parameters for call to function setItem
   \   000212   7C00         MOV       R4,#0x0
   \   000214   7403         MOV       A,#0x3
   \   000216   12....       LCALL     ?XSTACK_DISP0_8
   \   000219   12....       LCALL     ??Subroutine67_0 & 0xFFFF
   1360                  }
   \                     ??CrossCallReturnLabel_157:
   \   00021C   7401         MOV       A,#0x1
   \   00021E   12....       LCALL     ?XSTACK_DISP0_8
   \   000221   12....       LCALL     ??Subroutine53_0 & 0xFFFF
   1361          
   1362                  xferBuf( srcPg, srcOff, dstPg, dstOff, ndx );
   \                     ??CrossCallReturnLabel_94:
   \   000224                ; Setup parameters for call to function xferBuf
   \   000224   7407         MOV       A,#0x7
   \   000226   12....       LCALL     ?XSTACK_DISP0_8
   \   000229   12....       LCALL     ?PUSH_XSTACK8_X_TWO
   \   00022C   8E..         MOV       ?V4,R6
   \   00022E   8F..         MOV       ?V5,R7
   \   000230   78..         MOV       R0,#?V4
   \   000232   12....       LCALL     ?PUSH_XSTACK_I_TWO
   \   000235   AC..         MOV       R4,?V6
   \   000237   7407         MOV       A,#0x7
   \   000239   12....       LCALL     ?XSTACK_DISP0_8
   \   00023C   12....       LCALL     ??Subroutine67_0 & 0xFFFF
   \                     ??CrossCallReturnLabel_158:
   \   00023F   7405         MOV       A,#0x5
   \   000241   12....       LCALL     ?XSTACK_DISP0_8
   \   000244   E0           MOVX      A,@DPTR
   \   000245   F9           MOV       R1,A
   \   000246   12....       LCALL     `??xferBuf::?relay`; Banked call to: xferBuf
   \   000249   7404         MOV       A,#0x4
   \   00024B   12....       LCALL     ?DEALLOC_XSTACK8
   1363                  srcOff += ndx;
   1364                  dstOff += ndx;
   \   00024E   7407         MOV       A,#0x7
   \   000250   12....       LCALL     ?XSTACK_DISP0_8
   \   000253   E0           MOVX      A,@DPTR
   \   000254   2E           ADD       A,R6
   \   000255   FE           MOV       R6,A
   \   000256   A3           INC       DPTR
   \   000257   E0           MOVX      A,@DPTR
   \   000258   3F           ADDC      A,R7
   \   000259   FF           MOV       R7,A
   1365          
   1366                  writeBuf( dstPg, dstOff, len, buf );
   \   00025A                ; Setup parameters for call to function writeBuf
   \   00025A   7425         MOV       A,#0x25
   \   00025C   12....       LCALL     ?XSTACK_DISP0_8
   \   00025F   12....       LCALL     ?PUSH_XSTACK8_X_TWO
   \   000262   7425         MOV       A,#0x25
   \   000264   12....       LCALL     ?XSTACK_DISP0_8
   \   000267   12....       LCALL     ?Subroutine14 & 0xFFFF
   \                     ??CrossCallReturnLabel_19:
   \   00026A   12....       LCALL     `??writeBuf::?relay`; Banked call to: writeBuf
   \   00026D   7402         MOV       A,#0x2
   \   00026F   12....       LCALL     ?DEALLOC_XSTACK8
   1367                  srcOff += len;
   1368                  dstOff += len;
   1369          
   1370                  xferBuf( srcPg, srcOff, dstPg, dstOff, (hdr.len-ndx-len) );
   \   000272                ; Setup parameters for call to function xferBuf
   \   000272   740B         MOV       A,#0xb
   \   000274   12....       LCALL     ?XSTACK_DISP0_8
   \   000277   C082         PUSH      DPL
   \   000279   C083         PUSH      DPH
   \   00027B   7407         MOV       A,#0x7
   \   00027D   12....       LCALL     ?XSTACK_DISP0_8
   \   000280   12....       LCALL     ?Subroutine23 & 0xFFFF
   \                     ??CrossCallReturnLabel_46:
   \   000283   D083         POP       DPH
   \   000285   D082         POP       DPL
   \   000287   E0           MOVX      A,@DPTR
   \   000288   C3           CLR       C
   \   000289   98           SUBB      A,R0
   \   00028A   FA           MOV       R2,A
   \   00028B   A3           INC       DPTR
   \   00028C   E0           MOVX      A,@DPTR
   \   00028D   99           SUBB      A,R1
   \   00028E   FB           MOV       R3,A
   \   00028F   7423         MOV       A,#0x23
   \   000291   12....       LCALL     ?XSTACK_DISP0_8
   \   000294   12....       LCALL     ?Subroutine23 & 0xFFFF
   \                     ??CrossCallReturnLabel_47:
   \   000297   EA           MOV       A,R2
   \   000298   C3           CLR       C
   \   000299   98           SUBB      A,R0
   \   00029A   F5..         MOV       ?V4,A
   \   00029C   EB           MOV       A,R3
   \   00029D   99           SUBB      A,R1
   \   00029E   F5..         MOV       ?V5,A
   \   0002A0   78..         MOV       R0,#?V4
   \   0002A2   12....       LCALL     ?PUSH_XSTACK_I_TWO
   \   0002A5   7425         MOV       A,#0x25
   \   0002A7   12....       LCALL     ?XSTACK_DISP0_8
   \   0002AA   E0           MOVX      A,@DPTR
   \   0002AB   2E           ADD       A,R6
   \   0002AC   F5..         MOV       ?V4,A
   \   0002AE   A3           INC       DPTR
   \   0002AF   E0           MOVX      A,@DPTR
   \   0002B0   3F           ADDC      A,R7
   \   0002B1   F5..         MOV       ?V5,A
   \   0002B3   78..         MOV       R0,#?V4
   \   0002B5   12....       LCALL     ?PUSH_XSTACK_I_TWO
   \   0002B8   AC..         MOV       R4,?V6
   \   0002BA   7427         MOV       A,#0x27
   \   0002BC   12....       LCALL     ?XSTACK_DISP0_8
   \   0002BF   E0           MOVX      A,@DPTR
   \   0002C0   25..         ADD       A,?V2
   \   0002C2   FA           MOV       R2,A
   \   0002C3   A3           INC       DPTR
   \   0002C4   E0           MOVX      A,@DPTR
   \   0002C5   35..         ADDC      A,?V3
   \   0002C7   FB           MOV       R3,A
   \   0002C8   7405         MOV       A,#0x5
   \   0002CA   12....       LCALL     ?XSTACK_DISP0_8
   \   0002CD   E0           MOVX      A,@DPTR
   \   0002CE   F9           MOV       R1,A
   \   0002CF   12....       LCALL     `??xferBuf::?relay`; Banked call to: xferBuf
   \   0002D2   7404         MOV       A,#0x4
   \   0002D4   12....       LCALL     ?DEALLOC_XSTACK8
   1371          
   1372                  // Calculate and write the new checksum.
   1373                  dstOff = pgOff[dstPg-OSAL_NV_PAGE_BEG] - tmp;
   \   0002D7   7405         MOV       A,#0x5
   \   0002D9   12....       LCALL     ?XSTACK_DISP0_8
   \   0002DC   12....       LCALL     ?Subroutine15 & 0xFFFF
   1374          
   1375                  if ( hdr.chk == calcChkF( dstPg, dstOff, hdr.len ) )
   \                     ??CrossCallReturnLabel_23:
   \   0002DF                ; Setup parameters for call to function calcChkF
   \   0002DF   740B         MOV       A,#0xb
   \   0002E1   12....       LCALL     ?XSTACK_DISP0_8
   \   0002E4   12....       LCALL     ?Subroutine14 & 0xFFFF
   \                     ??CrossCallReturnLabel_20:
   \   0002E7   12....       LCALL     `??calcChkF::?relay`; Banked call to: calcChkF
   \   0002EA   740D         MOV       A,#0xd
   \   0002EC   12....       LCALL     ?XSTACK_DISP0_8
   \   0002EF   12....       LCALL     ?Subroutine20 & 0xFFFF
   \                     ??CrossCallReturnLabel_33:
   \   0002F2   7002         JNZ       ??osal_nv_write_12
   \   0002F4   EB           MOV       A,R3
   \   0002F5   6D           XRL       A,R5
   \                     ??osal_nv_write_12:
   \   0002F6   7022         JNZ       ??osal_nv_write_7
   1376                  {
   1377                    if ( hdr.chk != setChk( dstPg, dstOff, hdr.chk ) )
   \   0002F8                ; Setup parameters for call to function setChk
   \   0002F8   EE           MOV       A,R6
   \   0002F9   FA           MOV       R2,A
   \   0002FA   EF           MOV       A,R7
   \   0002FB   FB           MOV       R3,A
   \   0002FC   12....       LCALL     ?Subroutine41 & 0xFFFF
   \                     ??CrossCallReturnLabel_77:
   \   0002FF   740D         MOV       A,#0xd
   \   000301   12....       LCALL     ?XSTACK_DISP0_8
   \   000304   E0           MOVX      A,@DPTR
   \   000305   68           XRL       A,R0
   \   000306   7003         JNZ       ??osal_nv_write_13
   \   000308   A3           INC       DPTR
   \   000309   E0           MOVX      A,@DPTR
   \   00030A   69           XRL       A,R1
   \                     ??osal_nv_write_13:
   \   00030B   700D         JNZ       ??osal_nv_write_7
   1378                    {
   1379                      rtrn = NV_OPER_FAILED;
   1380                    }
   1381                    else
   1382                    {
   1383                      hotItemUpdate(dstPg, dstOff, hdr.id);
   \   00030D                ; Setup parameters for call to function hotItemUpdate
   \   00030D   7409         MOV       A,#0x9
   \   00030F   12....       LCALL     ?XSTACK_DISP0_8
   \   000312   12....       LCALL     ?Subroutine14 & 0xFFFF
   1384                    }
   1385                  }
   1386                  else
   1387                  {
   1388                    rtrn = NV_OPER_FAILED;
   1389                  }
   1390                }
   \                     ??CrossCallReturnLabel_21:
   \   000315   12....       LCALL     `??hotItemUpdate::?relay`; Banked call to: hotItemUpdate
   \   000318   8008         SJMP      ??osal_nv_write_14
   1391                else
   1392                {
   1393                  rtrn = NV_OPER_FAILED;
   \                     ??osal_nv_write_7:
   \   00031A   7402         MOV       A,#0x2
   \   00031C   12....       LCALL     ?XSTACK_DISP0_8
   \   00031F   740A         MOV       A,#0xa
   \   000321   F0           MOVX      @DPTR,A
   1394                }
   1395          
   1396                if ( comPg != OSAL_NV_PAGE_NULL )
   \                     ??osal_nv_write_14:
   \   000322   85..82       MOV       DPL,?XSP + 0
   \   000325   85..83       MOV       DPH,?XSP + 1
   \   000328   E0           MOVX      A,@DPTR
   \   000329   6030         JZ        ??osal_nv_write_15
   1397                {
   1398                  /* Even though the page compaction succeeded, if the new item is coming from the compacted
   1399                   * page and writing the new value failed, then the compaction must be aborted.
   1400                   */
   1401                  if ( (srcPg == comPg) && (rtrn == NV_OPER_FAILED) )
   \   00032B   7401         MOV       A,#0x1
   \   00032D   12....       LCALL     ?XSTACK_DISP0_8
   \   000330   12....       LCALL     ?Subroutine26 & 0xFFFF
   \                     ??CrossCallReturnLabel_48:
   \   000333   700F         JNZ       ??osal_nv_write_16
   \   000335   7402         MOV       A,#0x2
   \   000337   12....       LCALL     ?XSTACK_DISP0_8
   \   00033A   E0           MOVX      A,@DPTR
   \   00033B   640A         XRL       A,#0xa
   \   00033D   7005         JNZ       ??osal_nv_write_16
   1402                  {
   1403                    erasePage( pgRes );
   \   00033F                ; Setup parameters for call to function erasePage
   \   00033F   12....       LCALL     ?Subroutine25 & 0xFFFF
   1404                  }
   \                     ??CrossCallReturnLabel_102:
   \   000342   803C         SJMP      ??CrossCallReturnLabel_95
   1405                  else
   1406                  {
   1407                    COMPACT_PAGE_CLEANUP( comPg );
   \                     ??osal_nv_write_16:
   \   000344                ; Setup parameters for call to function setPageUse
   \   000344   12....       LCALL     ?Subroutine28 & 0xFFFF
   \                     ??CrossCallReturnLabel_56:
   \   000347                ; Setup parameters for call to function erasePage
   \   000347   85..82       MOV       DPL,?XSP + 0
   \   00034A   85..83       MOV       DPH,?XSP + 1
   \   00034D   12....       LCALL     ??Subroutine56_0 & 0xFFFF
   \                     ??CrossCallReturnLabel_103:
   \   000350   85..82       MOV       DPL,?XSP + 0
   \   000353   85..83       MOV       DPH,?XSP + 1
   \   000356   E0           MOVX      A,@DPTR
   \   000357   90....       MOV       DPTR,#pgRes
   \   00035A   F0           MOVX      @DPTR,A
   1408                  }
   1409                }
   1410          
   1411                /* Zero of the old item must wait until after compact page cleanup has finished - if the item
   1412                 * is zeroed before and cleanup is interrupted by a power-cycle, the new item can be lost.
   1413                 */
   1414                if ( (srcPg != comPg) && (rtrn != NV_OPER_FAILED) )
   \                     ??osal_nv_write_15:
   \   00035B   7401         MOV       A,#0x1
   \   00035D   12....       LCALL     ?XSTACK_DISP0_8
   \   000360   12....       LCALL     ?Subroutine26 & 0xFFFF
   \                     ??CrossCallReturnLabel_49:
   \   000363   601B         JZ        ??CrossCallReturnLabel_95
   \   000365   7402         MOV       A,#0x2
   \   000367   12....       LCALL     ?XSTACK_DISP0_8
   \   00036A   E0           MOVX      A,@DPTR
   \   00036B   640A         XRL       A,#0xa
   \   00036D   6011         JZ        ??CrossCallReturnLabel_95
   1415                {
   1416                  setItem( srcPg, origOff, eNvZero );
   \   00036F                ; Setup parameters for call to function setItem
   \   00036F   7C01         MOV       R4,#0x1
   \   000371   7403         MOV       A,#0x3
   \   000373   12....       LCALL     ?XSTACK_DISP0_8
   \   000376   12....       LCALL     ??Subroutine67_0 & 0xFFFF
   1417                }
   1418              }
   1419            }
   \                     ??CrossCallReturnLabel_159:
   \   000379   EC           MOV       A,R4
   \   00037A   12....       LCALL     ?XSTACK_DISP0_8
   \   00037D   12....       LCALL     ??Subroutine53_0 & 0xFFFF
   1420          
   1421            return rtrn;
   \                     ??CrossCallReturnLabel_95:
   \   000380   7402         MOV       A,#0x2
   \   000382   12....       LCALL     ?XSTACK_DISP0_8
   \   000385   E0           MOVX      A,@DPTR
   \   000386   F9           MOV       R1,A
   \                     ??osal_nv_write_2:
   \   000387   7413         MOV       A,#0x13
   \   000389   02....       LJMP      ??Subroutine62_0 & 0xFFFF
   1422          }

   \                                 In  segment BANKED_CODE, align 1, keep-with-next
   \                     ?Subroutine26:
   \   000000   E0           MOVX      A,@DPTR
   \   000001   F8           MOV       R0,A
   \   000002   85..82       MOV       DPL,?XSP + 0
   \   000005   85..83       MOV       DPH,?XSP + 1
   \   000008   E0           MOVX      A,@DPTR
   \   000009   68           XRL       A,R0
   \   00000A   22           RET

   \                                 In  segment BANKED_CODE, align 1, keep-with-next
   \                     ?Subroutine15:
   \   000000   12....       LCALL     ?Subroutine47 & 0xFFFF
   \                     ??CrossCallReturnLabel_140:
   \   000003   C3           CLR       C
   \   000004   95..         SUBB      A,?V0
   \   000006   FE           MOV       R6,A
   \   000007   A3           INC       DPTR
   \   000008   E0           MOVX      A,@DPTR
   \   000009   95..         SUBB      A,?V1
   \   00000B   FF           MOV       R7,A
   \   00000C   22           RET

   \                                 In  segment BANKED_CODE, align 1, keep-with-next
   \                     ?Subroutine14:
   \   000000   12....       LCALL     ?Subroutine46 & 0xFFFF
   \                     ??CrossCallReturnLabel_85:
   \   000003   EE           MOV       A,R6
   \   000004   FA           MOV       R2,A
   \   000005   EF           MOV       A,R7
   \   000006   FB           MOV       R3,A
   \   000007   A9..         MOV       R1,?V6
   \   000009   22           RET
   1423          
   1424          /*********************************************************************
   1425           * @fn      osal_nv_read
   1426           *
   1427           * @brief   Read data from NV. This function can be used to read an entire item from NV or
   1428           *          an element of an item by indexing into the item with an offset.
   1429           *          Read data is copied into *buf.
   1430           *
   1431           * @param   id  - Valid NV item Id.
   1432           * @param   ndx - Index offset into item
   1433           * @param   len - Length of data to read.
   1434           * @param  *buf - Data is read into this buffer.
   1435           *
   1436           * @return  SUCCESS if NV data was copied to the parameter 'buf'.
   1437           *          Otherwise, NV_OPER_FAILED for failure.
   1438           */

   \                                 In  segment BANKED_CODE, align 1, keep-with-next
   1439          uint8 osal_nv_read( uint16 id, uint16 ndx, uint16 len, void *buf )
   \                     osal_nv_read:
   1440          {
   \   000000                REQUIRE ?V0
   \   000000                REQUIRE ?V1
   \   000000                REQUIRE ?V2
   \   000000                REQUIRE ?V3
   \   000000                REQUIRE ?V4
   \   000000                REQUIRE ?V5
   \   000000                REQUIRE ?V6
   \   000000                REQUIRE ?V7
   \   000000   74F0         MOV       A,#-0x10
   \   000002   12....       LCALL     ?BANKED_ENTER_XDATA
   \   000005                ; Saved register size: 16
   \   000005                ; Auto size: 0
   \   000005   8A..         MOV       ?V0,R2
   \   000007   8B..         MOV       ?V1,R3
   \   000009   8C..         MOV       ?V4,R4
   \   00000B   8D..         MOV       ?V5,R5
   1441            uint16 offset;
   1442            uint8 hotIdx;
   1443          
   1444            if ((hotIdx = hotItem(id)) < OSAL_NV_MAX_HOT)
   \   00000D                ; Setup parameters for call to function hotItem
   \   00000D   12....       LCALL     `??hotItem::?relay`; Banked call to: hotItem
   \   000010   E9           MOV       A,R1
   \   000011   F8           MOV       R0,A
   \   000012   7410         MOV       A,#0x10
   \   000014   12....       LCALL     ?XSTACK_DISP0_8
   \   000017   E0           MOVX      A,@DPTR
   \   000018   FE           MOV       R6,A
   \   000019   A3           INC       DPTR
   \   00001A   E0           MOVX      A,@DPTR
   \   00001B   FF           MOV       R7,A
   \   00001C   7412         MOV       A,#0x12
   \   00001E   12....       LCALL     ?XSTACK_DISP0_8
   \   000021   E0           MOVX      A,@DPTR
   \   000022   F5..         MOV       ?V2,A
   \   000024   A3           INC       DPTR
   \   000025   E0           MOVX      A,@DPTR
   \   000026   F5..         MOV       ?V3,A
   \   000028   E9           MOV       A,R1
   \   000029   C3           CLR       C
   \   00002A   9403         SUBB      A,#0x3
   \   00002C   5029         JNC       ??osal_nv_read_0
   1445            {
   1446              HalFlashRead(hotPg[hotIdx], hotOff[hotIdx]+ndx, buf, len);
   \   00002E   E9           MOV       A,R1
   \   00002F   F5..         MOV       ?V0,A
   \   000031                ; Setup parameters for call to function HalFlashRead
   \   000031   8E..         MOV       ?V6,R6
   \   000033   8F..         MOV       ?V7,R7
   \   000035   78..         MOV       R0,#?V6
   \   000037   12....       LCALL     ?PUSH_XSTACK_I_TWO
   \   00003A   AC..         MOV       R4,?V2
   \   00003C   AD..         MOV       R5,?V3
   \   00003E   12....       LCALL     ?Subroutine48 & 0xFFFF
   1447              return SUCCESS;
   1448            }
   \                     ??CrossCallReturnLabel_90:
   \   000041   E0           MOVX      A,@DPTR
   \   000042   25..         ADD       A,?V4
   \   000044   FA           MOV       R2,A
   \   000045   A3           INC       DPTR
   \   000046   E0           MOVX      A,@DPTR
   \   000047   35..         ADDC      A,?V5
   \   000049   FB           MOV       R3,A
   \   00004A   74..         MOV       A,#hotPg & 0xff
   \   00004C   25..         ADD       A,?V0
   \   00004E   F582         MOV       DPL,A
   \   000050   E4           CLR       A
   \   000051   34..         ADDC      A,#(hotPg >> 8) & 0xff
   \   000053   F583         MOV       DPH,A
   \   000055   8025         SJMP      ??osal_nv_read_1
   1449          
   1450            if ((offset = findItem(id)) == OSAL_NV_ITEM_NULL)
   \                     ??osal_nv_read_0:
   \   000057                ; Setup parameters for call to function findItem
   \   000057   AA..         MOV       R2,?V0
   \   000059   AB..         MOV       R3,?V1
   \   00005B   12....       LCALL     ??Subroutine66_0 & 0xFFFF
   \                     ??CrossCallReturnLabel_147:
   \   00005E   7004         JNZ       ??osal_nv_read_2
   1451            {
   1452              return NV_OPER_FAILED;
   \   000060   790A         MOV       R1,#0xa
   \   000062   8020         SJMP      ??osal_nv_read_3
   1453            }
   1454            else
   1455            {
   1456              HalFlashRead(findPg, offset+ndx, buf, len);
   \                     ??osal_nv_read_2:
   \   000064                ; Setup parameters for call to function HalFlashRead
   \   000064   8E..         MOV       ?V0,R6
   \   000066   8F..         MOV       ?V1,R7
   \   000068   78..         MOV       R0,#?V0
   \   00006A   12....       LCALL     ?PUSH_XSTACK_I_TWO
   \   00006D   AC..         MOV       R4,?V2
   \   00006F   AD..         MOV       R5,?V3
   \   000071   EA           MOV       A,R2
   \   000072   25..         ADD       A,?V4
   \   000074   FA           MOV       R2,A
   \   000075   EB           MOV       A,R3
   \   000076   35..         ADDC      A,?V5
   \   000078   FB           MOV       R3,A
   \   000079   90....       MOV       DPTR,#findPg
   \                     ??osal_nv_read_1:
   \   00007C   12....       LCALL     ?Subroutine11 & 0xFFFF
   \                     ??CrossCallReturnLabel_122:
   \   00007F   12....       LCALL     ?DEALLOC_XSTACK8
   1457              return SUCCESS;
   \   000082   7900         MOV       R1,#0x0
   1458            }
   \                     ??osal_nv_read_3:
   \   000084   02....       LJMP      ??Subroutine63_0 & 0xFFFF
   1459          }
   1460          
   1461          /*********************************************************************
   1462           * @fn      osal_nv_delete
   1463           *
   1464           * @brief   Delete item from NV. This function will fail if the length
   1465           *          parameter does not match the length of the item in NV.
   1466           *
   1467           * @param   id  - Valid NV item Id.
   1468           * @param   len - Length of item to delete.
   1469           *
   1470           * @return  SUCCESS if item was deleted,
   1471           *          NV_ITEM_UNINIT if item did not exist in NV,
   1472           *          NV_BAD_ITEM_LEN if length parameter not correct,
   1473           *          NV_OPER_FAILED if attempted deletion failed.
   1474           */

   \                                 In  segment BANKED_CODE, align 1, keep-with-next
   1475          uint8 osal_nv_delete( uint16 id, uint16 len )
   \                     osal_nv_delete:
   1476          {
   \   000000                REQUIRE ?V0
   \   000000                REQUIRE ?V1
   \   000000                REQUIRE ?V2
   \   000000                REQUIRE ?V3
   \   000000                REQUIRE ?V4
   \   000000                REQUIRE ?V5
   \   000000   74F2         MOV       A,#-0xe
   \   000002   12....       LCALL     ?BANKED_ENTER_XDATA
   \   000005                ; Saved register size: 14
   \   000005                ; Auto size: 0
   \   000005   EA           MOV       A,R2
   \   000006   FE           MOV       R6,A
   \   000007   EB           MOV       A,R3
   \   000008   FF           MOV       R7,A
   \   000009   8C..         MOV       ?V2,R4
   \   00000B   8D..         MOV       ?V3,R5
   1477            uint16 length;
   1478            uint16 offset;
   1479          
   1480            offset = findItem( id );
   \   00000D                ; Setup parameters for call to function findItem
   \   00000D   12....       LCALL     `??findItem::?relay`; Banked call to: findItem
   \   000010   8A..         MOV       ?V0,R2
   \   000012   8B..         MOV       ?V1,R3
   1481            if ( offset == OSAL_NV_ITEM_NULL )
   \   000014   EA           MOV       A,R2
   \   000015   4B           ORL       A,R3
   \   000016   7004         JNZ       ??osal_nv_delete_0
   1482            {
   1483              // NV item does not exist
   1484              return NV_ITEM_UNINIT;
   \   000018   7909         MOV       R1,#0x9
   \   00001A   8029         SJMP      ??osal_nv_delete_1
   1485            }
   1486          
   1487            length = osal_nv_item_len( id );
   1488            if ( length != len )
   \                     ??osal_nv_delete_0:
   \   00001C                ; Setup parameters for call to function osal_nv_item_len
   \   00001C   EE           MOV       A,R6
   \   00001D   FA           MOV       R2,A
   \   00001E   EF           MOV       A,R7
   \   00001F   FB           MOV       R3,A
   \   000020   12....       LCALL     `??osal_nv_item_len::?relay`; Banked call to: osal_nv_item_len
   \   000023   E5..         MOV       A,?V2
   \   000025   6A           XRL       A,R2
   \   000026   7003         JNZ       ??osal_nv_delete_2
   \   000028   E5..         MOV       A,?V3
   \   00002A   6B           XRL       A,R3
   \                     ??osal_nv_delete_2:
   \   00002B   6004         JZ        ??osal_nv_delete_3
   1489            {
   1490              // NV item has different length
   1491              return NV_BAD_ITEM_LEN;
   \   00002D   790C         MOV       R1,#0xc
   \   00002F   8014         SJMP      ??osal_nv_delete_1
   1492            }
   1493          
   1494            // Set item header ID to zero to 'delete' the item
   1495            setItem( findPg, offset, eNvZero );
   \                     ??osal_nv_delete_3:
   \   000031                ; Setup parameters for call to function setItem
   \   000031   7C01         MOV       R4,#0x1
   \   000033   AA..         MOV       R2,?V0
   \   000035   AB..         MOV       R3,?V1
   \   000037   12....       LCALL     ?Subroutine24 & 0xFFFF
   1496          
   1497            // Verify that item has been removed
   1498            offset = findItem( id );
   1499            if ( offset != OSAL_NV_ITEM_NULL )
   \                     ??CrossCallReturnLabel_93:
   \   00003A                ; Setup parameters for call to function findItem
   \   00003A   12....       LCALL     ?Subroutine42 & 0xFFFF
   \                     ??CrossCallReturnLabel_145:
   \   00003D   6004         JZ        ??osal_nv_delete_4
   1500            {
   1501              // Still there
   1502              return NV_OPER_FAILED;
   \   00003F   790A         MOV       R1,#0xa
   \   000041   8002         SJMP      ??osal_nv_delete_1
   1503            }
   1504            else
   1505            {
   1506              // Yes, it's gone
   1507              return SUCCESS;
   \                     ??osal_nv_delete_4:
   \   000043   7900         MOV       R1,#0x0
   1508            }
   \                     ??osal_nv_delete_1:
   \   000045   02....       LJMP      ?Subroutine4 & 0xFFFF
   1509          }

   \                                 In  segment BANK_RELAYS, align 1
   \                     `??initNV::?relay`:
   \   000000   12....       LCALL   ?BDISPATCH
   \   000003   ......       DC24    initNV

   \                                 In  segment BANK_RELAYS, align 1
   \                     `??setPageUse::?relay`:
   \   000000   12....       LCALL   ?BDISPATCH
   \   000003   ......       DC24    setPageUse

   \                                 In  segment BANK_RELAYS, align 1
   \                     `??initPage::?relay`:
   \   000000   12....       LCALL   ?BDISPATCH
   \   000003   ......       DC24    initPage

   \                                 In  segment BANK_RELAYS, align 1
   \                     `??erasePage::?relay`:
   \   000000   12....       LCALL   ?BDISPATCH
   \   000003   ......       DC24    erasePage

   \                                 In  segment BANK_RELAYS, align 1
   \                     `??compactPage::?relay`:
   \   000000   12....       LCALL   ?BDISPATCH
   \   000003   ......       DC24    compactPage

   \                                 In  segment BANK_RELAYS, align 1
   \                     `??findItem::?relay`:
   \   000000   12....       LCALL   ?BDISPATCH
   \   000003   ......       DC24    findItem

   \                                 In  segment BANK_RELAYS, align 1
   \                     `??initItem::?relay`:
   \   000000   12....       LCALL   ?BDISPATCH
   \   000003   ......       DC24    initItem

   \                                 In  segment BANK_RELAYS, align 1
   \                     `??setItem::?relay`:
   \   000000   12....       LCALL   ?BDISPATCH
   \   000003   ......       DC24    setItem

   \                                 In  segment BANK_RELAYS, align 1
   \                     `??setChk::?relay`:
   \   000000   12....       LCALL   ?BDISPATCH
   \   000003   ......       DC24    setChk

   \                                 In  segment BANK_RELAYS, align 1
   \                     `??calcChkF::?relay`:
   \   000000   12....       LCALL   ?BDISPATCH
   \   000003   ......       DC24    calcChkF

   \                                 In  segment BANK_RELAYS, align 1
   \                     `??writeWord::?relay`:
   \   000000   12....       LCALL   ?BDISPATCH
   \   000003   ......       DC24    writeWord

   \                                 In  segment BANK_RELAYS, align 1
   \                     `??writeWordH::?relay`:
   \   000000   12....       LCALL   ?BDISPATCH
   \   000003   ......       DC24    writeWordH

   \                                 In  segment BANK_RELAYS, align 1
   \                     `??writeBuf::?relay`:
   \   000000   12....       LCALL   ?BDISPATCH
   \   000003   ......       DC24    writeBuf

   \                                 In  segment BANK_RELAYS, align 1
   \                     `??xferBuf::?relay`:
   \   000000   12....       LCALL   ?BDISPATCH
   \   000003   ......       DC24    xferBuf

   \                                 In  segment BANK_RELAYS, align 1
   \                     `??writeItem::?relay`:
   \   000000   12....       LCALL   ?BDISPATCH
   \   000003   ......       DC24    writeItem

   \                                 In  segment BANK_RELAYS, align 1
   \                     `??hotItem::?relay`:
   \   000000   12....       LCALL   ?BDISPATCH
   \   000003   ......       DC24    hotItem

   \                                 In  segment BANK_RELAYS, align 1
   \                     `??hotItemUpdate::?relay`:
   \   000000   12....       LCALL   ?BDISPATCH
   \   000003   ......       DC24    hotItemUpdate

   \                                 In  segment BANK_RELAYS, align 1
   \                     `??osal_nv_init::?relay`:
   \   000000   12....       LCALL   ?BDISPATCH
   \   000003   ......       DC24    osal_nv_init

   \                                 In  segment BANK_RELAYS, align 1
   \                     `??osal_nv_item_init::?relay`:
   \   000000   12....       LCALL   ?BDISPATCH
   \   000003   ......       DC24    osal_nv_item_init

   \                                 In  segment BANK_RELAYS, align 1
   \                     `??osal_nv_item_len::?relay`:
   \   000000   12....       LCALL   ?BDISPATCH
   \   000003   ......       DC24    osal_nv_item_len

   \                                 In  segment BANK_RELAYS, align 1
   \                     `??osal_nv_write::?relay`:
   \   000000   12....       LCALL   ?BDISPATCH
   \   000003   ......       DC24    osal_nv_write

   \                                 In  segment BANK_RELAYS, align 1
   \                     `??osal_nv_read::?relay`:
   \   000000   12....       LCALL   ?BDISPATCH
   \   000003   ......       DC24    osal_nv_read

   \                                 In  segment BANK_RELAYS, align 1
   \                     `??osal_nv_delete::?relay`:
   \   000000   12....       LCALL   ?BDISPATCH
   \   000003   ......       DC24    osal_nv_delete
   1510          
   1511          /*********************************************************************
   1512           */

   Maximum stack usage in bytes:

   ISTACK XSTACK Function
   ------ ------ --------
      0     56   calcChkF
        0     21   -> HalFlashRead
      0     56   compactPage
        0     28   -> HalFlashRead
        0     26   -> calcChkF
        0     26   -> erasePage
        0     26   -> hotItemUpdate
        0     26   -> setChk
        0     26   -> setItem
        0     26   -> setPageUse
        0     29   -> writeItem
        0     30   -> xferBuf
      0     44   erasePage
        0      9   -> HalFlashErase
      0     47   findItem
        0     12   -> initPage
      2     18   hotItem
      1     44   hotItemUpdate
        0      9   -> hotItem
      1     66   initItem
        0     28   -> HalFlashRead
        0     26   -> compactPage
        0     26   -> erasePage
        0     26   -> setPageUse
        0     29   -> writeItem
        0     26   -> writeWordH
      0     22   initNV
        0     22   -> HalFlashRead
        0     20   -> compactPage
        0     20   -> erasePage
        0     20   -> initPage
        0     20   -> setPageUse
      0     48   initPage
        0     28   -> HalFlashRead
        0     26   -> calcChkF
        0     26   -> findItem
        0     26   -> setItem
      0     14   osal_nv_delete
        0     14   -> findItem
        0     14   -> osal_nv_item_len
        0     14   -> setItem
      2      0   osal_nv_init
        2      0   -> initNV
      0     16   osal_nv_item_init
        0     12   -> HalAdcCheckVdd
        0     12   -> findItem
        0     12   -> hotItemUpdate
        0     14   -> initItem
      0     34   osal_nv_item_len
        0     20   -> HalFlashRead
        0     18   -> findItem
        0     18   -> hotItem
      0     22   osal_nv_read
        0     18   -> HalFlashRead
        0     16   -> findItem
        0     16   -> hotItem
      2     43   osal_nv_write
        0     35   -> HalAdcCheckVdd
        0     37   -> HalFlashRead
        0     35   -> calcChkF
        0     35   -> erasePage
        0     35   -> findItem
        0     35   -> hotItemUpdate
        0     37   -> initItem
        0     35   -> setChk
        0     35   -> setItem
        0     35   -> setPageUse
        0     37   -> writeBuf
        0     39   -> xferBuf
      0     51   setChk
        0     16   -> HalFlashRead
        0     14   -> writeWordH
      0     59   setItem
        0     24   -> HalFlashRead
        0     22   -> writeWord
      0     52   setPageUse
        0     17   -> writeWord
      1     59   writeBuf
        0     22   -> HalFlashRead
        0     22   -> HalFlashWrite
        0     20   -> writeWord
      0     59   writeItem
        0     30   -> HalFlashRead
        0     28   -> calcChkF
        0     28   -> hotItemUpdate
        0     28   -> setChk
        0     30   -> writeBuf
        0     28   -> writeWord
      0     42   writeWord
        0     14   -> HalFlashWrite
      1     39   writeWordH
        0     13   -> writeWord
      1     62   xferBuf
        0     23   -> HalFlashRead
        0     21   -> writeWord


   Segment part sizes:

   Bytes  Function/Label
   -----  --------------
       3  ??Subroutine51_0
       5  ??Subroutine52_0
       6  ??Subroutine53_0
       5  ??Subroutine54_0
      15  ??Subroutine55_0
       6  ??Subroutine56_0
       8  ??Subroutine57_0
       7  ??Subroutine58_0
       7  ??Subroutine59_0
       1  ??Subroutine60_0
       6  ??Subroutine61_0
       3  ??Subroutine62_0
       5  ??Subroutine63_0
       4  ??Subroutine64_0
       1  ??Subroutine65_0
       6  ??Subroutine66_0
       6  ??Subroutine67_0
       2  ?Subroutine0
       3  ?Subroutine1
       6  ?Subroutine10
       1  ?Subroutine11
       3  ?Subroutine12
       8  ?Subroutine13
      10  ?Subroutine14
      13  ?Subroutine15
       6  ?Subroutine16
      13  ?Subroutine17
      11  ?Subroutine18
       8  ?Subroutine19
       2  ?Subroutine2
       6  ?Subroutine20
      12  ?Subroutine21
      18  ?Subroutine22
       6  ?Subroutine23
       3  ?Subroutine24
       3  ?Subroutine25
      11  ?Subroutine26
       4  ?Subroutine27
      11  ?Subroutine28
       2  ?Subroutine29
       8  ?Subroutine3
      14  ?Subroutine30
      15  ?Subroutine31
      17  ?Subroutine32
       6  ?Subroutine33
       9  ?Subroutine34
      17  ?Subroutine35
      14  ?Subroutine36
       3  ?Subroutine37
      12  ?Subroutine38
      12  ?Subroutine39
       5  ?Subroutine4
      14  ?Subroutine40
      14  ?Subroutine41
       3  ?Subroutine42
      15  ?Subroutine43
      11  ?Subroutine44
       9  ?Subroutine45
       6  ?Subroutine46
       5  ?Subroutine47
      17  ?Subroutine48
      12  ?Subroutine49
       7  ?Subroutine5
       9  ?Subroutine50
       5  ?Subroutine6
       7  ?Subroutine7
      12  ?Subroutine8
       8  ?Subroutine9
   12288  _nvBuf
     130  calcChkF
       6  calcChkF::?relay
     519  compactPage
       6  compactPage::?relay
      29  erasePage
       6  erasePage::?relay
      64  findItem
       6  findItem::?relay
       1  findPg
       6  hotIds
      39  hotItem
       6  hotItem::?relay
      36  hotItemUpdate
       6  hotItemUpdate::?relay
       6  hotOff
       3  hotPg
     360  initItem
       6  initItem::?relay
     275  initNV
       6  initNV::?relay
     405  initPage
       6  initPage::?relay
      72  osal_nv_delete
       6  osal_nv_delete::?relay
       9  osal_nv_init
       6  osal_nv_init::?relay
      80  osal_nv_item_init
       6  osal_nv_item_init::?relay
     104  osal_nv_item_len
       6  osal_nv_item_len::?relay
     135  osal_nv_read
       6  osal_nv_read::?relay
     908  osal_nv_write
       6  osal_nv_write::?relay
      12  pgLost
      12  pgOff
       1  pgRes
      82  setChk
       6  setChk::?relay
     142  setItem
       6  setItem::?relay
      53  setPageUse
       6  setPageUse::?relay
     345  writeBuf
       6  writeBuf::?relay
     518  writeItem
       6  writeItem::?relay
      56  writeWord
       6  writeWord::?relay
      66  writeWordH
       6  writeWordH::?relay
     333  xferBuf
       6  xferBuf::?relay

 
  5 302 bytes in segment BANKED_CODE
    138 bytes in segment BANK_RELAYS
      6 bytes in segment XDATA_ROM_C
     35 bytes in segment XDATA_Z
 12 288 bytes in segment ZIGNV_ADDRESS_SPACE
 
    138 bytes of CODE     memory
      6 bytes of CONST    memory
  5 302 bytes of HUGECODE memory
 12 323 bytes of XDATA    memory

Errors: none
Warnings: none
