///////////////////////////////////////////////////////////////////////////////
//
// IAR C/C++ Compiler V10.20.1.5333 for 8051              28/Apr/2026  20:22:15
// Copyright 2004-2018 IAR Systems AB.
// PC-locked license - IAR Embedded Workbench for 8051
//
//    Core               =  plain
//    Code model         =  banked
//    Data model         =  large
//    Calling convention =  xdata reentrant
//    Constant location  =  data_rom
//    Dptr setup         =  1,16
//                          
//    Source file        =  
//        E:\BaiduNetdiskDownload\´đ°¸\ĘµŃéČý ZigBee´úÂë\Z-Stack 3.0.1\Z-Stack
//        3.0.1\Components\stack\zcl\zcl.c
//    Command line       =  
//        -f C:\Users\ZH\AppData\Local\Temp\EW58D9.tmp
//        ("E:\BaiduNetdiskDownload\´đ°¸\ĘµŃéČý ZigBee´úÂë\Z-Stack
//        3.0.1\Z-Stack 3.0.1\Components\stack\zcl\zcl.c" -D SECURE=1 -D
//        TC_LINKKEY_JOIN -D NV_INIT -D NV_RESTORE -D xZTOOL_P1 -D xMT_TASK -D
//        xMT_APP_FUNC -D xMT_SYS_FUNC -D xMT_ZDO_FUNC -D xMT_ZDO_MGMT -D
//        xMT_APP_CNF_FUNC -D LCD_SUPPORTED=DEBUG -D MULTICAST_ENABLED=FALSE -D
//        ZCL_READ -D ZCL_DISCOVER -D ZCL_WRITE -D ZCL_BASIC -D ZCL_IDENTIFY -D
//        ZCL_ON_OFF -D ZCL_GROUPS -D ZCL_REPORT_DESTINATION_DEVICE -D
//        ZCL_REPORT -D HAL_LED=TRUE -D HAL_KEY=TRUE -D ISR_KEYINTERRUPT -D
//        HAL_UART=TRUE -D INT_HEAP_LEN=2300 -D HAL_LCD=TRUE -D
//        xHAL_LCD_OLED12864 -D HAL_ADC=TRUE -D HAL_UART=TRUE -D
//        INT_HEAP_LEN=2048 -lC "E:\BaiduNetdiskDownload\´đ°¸\ĘµŃéČý
//        ZigBee´úÂë\Z-Stack 3.0.1\Z-Stack
//        3.0.1\Projects\zstack\HomeAutomation\SampleSwitch\CC2530DB\CoordinatorEB\List"
//        -lA "E:\BaiduNetdiskDownload\´đ°¸\ĘµŃéČý ZigBee´úÂë\Z-Stack
//        3.0.1\Z-Stack
//        3.0.1\Projects\zstack\HomeAutomation\SampleSwitch\CC2530DB\CoordinatorEB\List"
//        --diag_suppress Pe001,Pa010 -o "E:\BaiduNetdiskDownload\´đ°¸\ĘµŃéČý
//        ZigBee´úÂë\Z-Stack 3.0.1\Z-Stack
//        3.0.1\Projects\zstack\HomeAutomation\SampleSwitch\CC2530DB\CoordinatorEB\Obj"
//        -e --debug --core=plain --dptr=16,1 --data_model=large
//        --code_model=banked --calling_convention=xdata_reentrant
//        --place_constants=data_rom --nr_virtual_regs 8 -f
//        "E:\BaiduNetdiskDownload\´đ°¸\ĘµŃéČý ZigBee´úÂë\Z-Stack 3.0.1\Z-Stack
//        3.0.1\Projects\zstack\HomeAutomation\SampleSwitch\CC2530DB\..\..\..\Tools\CC2530DB\f8wCoord.cfg"
//        (-DCPU32MHZ -DROOT=__near_func -DMAC_CFG_APP_PENDING_QUEUE=TRUE
//        -DMAC_CFG_TX_DATA_MAX=5 -DMAC_CFG_TX_MAX=8 -DMAC_CFG_RX_MAX=5
//        -DZDO_COORDINATOR -DRTR_NWK) -f "E:\BaiduNetdiskDownload\´đ°¸\ĘµŃéČý
//        ZigBee´úÂë\Z-Stack 3.0.1\Z-Stack
//        3.0.1\Projects\zstack\HomeAutomation\SampleSwitch\CC2530DB\..\..\..\Tools\CC2530DB\f8wConfig.cfg"
//        (-DZIGBEEPRO -DSECURE=1 -DZG_SECURE_DYNAMIC=0 -DREFLECTOR
//        -DDEFAULT_CHANLIST=0x00000800 -DZDAPP_CONFIG_PAN_ID=0xFFFF
//        -DNWK_START_DELAY=100 -DEXTENDED_JOINING_RANDOM_MASK=0x007F
//        -DBEACON_REQUEST_DELAY=100 -DBEACON_REQ_DELAY_MASK=0x00FF
//        -DLINK_STATUS_JITTER_MASK=0x007F -DROUTE_EXPIRY_TIME=30
//        -DAPSC_ACK_WAIT_DURATION_POLLED=3000 -DNWK_INDIRECT_MSG_TIMEOUT=7
//        -DMAX_RREQ_ENTRIES=8 -DAPSC_MAX_FRAME_RETRIES=3
//        -DNWK_MAX_DATA_RETRIES=2 -DMAX_POLL_FAILURE_RETRIES=2 -DMAX_BCAST=9
//        -DAPS_MAX_GROUPS=16 -DMAX_RTG_ENTRIES=40 -DNWK_MAX_BINDING_ENTRIES=4
//        -DMAX_BINDING_CLUSTER_IDS=4 -DDEFAULT_KEY={0}
//        -DMAC_MAX_FRAME_SIZE=116 -DZDNWKMGR_MIN_TRANSMISSIONS=20
//        "-DCONST=const __code" -DGENERIC=__generic -DRFD_RCVC_ALWAYS_ON=FALSE
//        -DPOLL_RATE=1000 -DQUEUED_POLL_RATE=100 -DRESPONSE_POLL_RATE=100
//        -DREJOIN_POLL_RATE=440 -DREJOIN_BACKOFF=900000 -DREJOIN_SCAN=900000
//        -DENABLE_LED4_DISABLE_S1) -f "E:\BaiduNetdiskDownload\´đ°¸\ĘµŃéČý
//        ZigBee´úÂë\Z-Stack 3.0.1\Z-Stack
//        3.0.1\Projects\zstack\HomeAutomation\SampleSwitch\CC2530DB\..\..\..\Tools\CC2530DB\f8wZCL.cfg"
//        -I "E:\BaiduNetdiskDownload\´đ°¸\ĘµŃéČý ZigBee´úÂë\Z-Stack
//        3.0.1\Z-Stack
//        3.0.1\Projects\zstack\HomeAutomation\SampleSwitch\CC2530DB\" -I
//        "E:\BaiduNetdiskDownload\´đ°¸\ĘµŃéČý ZigBee´úÂë\Z-Stack 3.0.1\Z-Stack
//        3.0.1\Projects\zstack\HomeAutomation\SampleSwitch\CC2530DB\..\Source\"
//        -I "E:\BaiduNetdiskDownload\´đ°¸\ĘµŃéČý ZigBee´úÂë\Z-Stack
//        3.0.1\Z-Stack
//        3.0.1\Projects\zstack\HomeAutomation\SampleSwitch\CC2530DB\..\..\Source\"
//        -I "E:\BaiduNetdiskDownload\´đ°¸\ĘµŃéČý ZigBee´úÂë\Z-Stack
//        3.0.1\Z-Stack
//        3.0.1\Projects\zstack\HomeAutomation\SampleSwitch\CC2530DB\..\..\..\ZMain\TI2530DB\"
//        -I "E:\BaiduNetdiskDownload\´đ°¸\ĘµŃéČý ZigBee´úÂë\Z-Stack
//        3.0.1\Z-Stack
//        3.0.1\Projects\zstack\HomeAutomation\SampleSwitch\CC2530DB\..\..\..\..\..\Components\hal\include\"
//        -I "E:\BaiduNetdiskDownload\´đ°¸\ĘµŃéČý ZigBee´úÂë\Z-Stack
//        3.0.1\Z-Stack
//        3.0.1\Projects\zstack\HomeAutomation\SampleSwitch\CC2530DB\..\..\..\..\..\Components\hal\target\CC2530EB\"
//        -I "E:\BaiduNetdiskDownload\´đ°¸\ĘµŃéČý ZigBee´úÂë\Z-Stack
//        3.0.1\Z-Stack
//        3.0.1\Projects\zstack\HomeAutomation\SampleSwitch\CC2530DB\..\..\..\..\..\Components\mac\include\"
//        -I "E:\BaiduNetdiskDownload\´đ°¸\ĘµŃéČý ZigBee´úÂë\Z-Stack
//        3.0.1\Z-Stack
//        3.0.1\Projects\zstack\HomeAutomation\SampleSwitch\CC2530DB\..\..\..\..\..\Components\mac\high_level\"
//        -I "E:\BaiduNetdiskDownload\´đ°¸\ĘµŃéČý ZigBee´úÂë\Z-Stack
//        3.0.1\Z-Stack
//        3.0.1\Projects\zstack\HomeAutomation\SampleSwitch\CC2530DB\..\..\..\..\..\Components\mac\low_level\srf04\"
//        -I "E:\BaiduNetdiskDownload\´đ°¸\ĘµŃéČý ZigBee´úÂë\Z-Stack
//        3.0.1\Z-Stack
//        3.0.1\Projects\zstack\HomeAutomation\SampleSwitch\CC2530DB\..\..\..\..\..\Components\mac\low_level\srf04\single_chip\"
//        -I "E:\BaiduNetdiskDownload\´đ°¸\ĘµŃéČý ZigBee´úÂë\Z-Stack
//        3.0.1\Z-Stack
//        3.0.1\Projects\zstack\HomeAutomation\SampleSwitch\CC2530DB\..\..\..\..\..\Components\mt\"
//        -I "E:\BaiduNetdiskDownload\´đ°¸\ĘµŃéČý ZigBee´úÂë\Z-Stack
//        3.0.1\Z-Stack
//        3.0.1\Projects\zstack\HomeAutomation\SampleSwitch\CC2530DB\..\..\..\..\..\Components\osal\include\"
//        -I "E:\BaiduNetdiskDownload\´đ°¸\ĘµŃéČý ZigBee´úÂë\Z-Stack
//        3.0.1\Z-Stack
//        3.0.1\Projects\zstack\HomeAutomation\SampleSwitch\CC2530DB\..\..\..\..\..\Components\services\saddr\"
//        -I "E:\BaiduNetdiskDownload\´đ°¸\ĘµŃéČý ZigBee´úÂë\Z-Stack
//        3.0.1\Z-Stack
//        3.0.1\Projects\zstack\HomeAutomation\SampleSwitch\CC2530DB\..\..\..\..\..\Components\services\sdata\"
//        -I "E:\BaiduNetdiskDownload\´đ°¸\ĘµŃéČý ZigBee´úÂë\Z-Stack
//        3.0.1\Z-Stack
//        3.0.1\Projects\zstack\HomeAutomation\SampleSwitch\CC2530DB\..\..\..\..\..\Components\stack\af\"
//        -I "E:\BaiduNetdiskDownload\´đ°¸\ĘµŃéČý ZigBee´úÂë\Z-Stack
//        3.0.1\Z-Stack
//        3.0.1\Projects\zstack\HomeAutomation\SampleSwitch\CC2530DB\..\..\..\..\..\Components\stack\bdb\"
//        -I "E:\BaiduNetdiskDownload\´đ°¸\ĘµŃéČý ZigBee´úÂë\Z-Stack
//        3.0.1\Z-Stack
//        3.0.1\Projects\zstack\HomeAutomation\SampleSwitch\CC2530DB\..\..\..\..\..\Components\stack\gp\"
//        -I "E:\BaiduNetdiskDownload\´đ°¸\ĘµŃéČý ZigBee´úÂë\Z-Stack
//        3.0.1\Z-Stack
//        3.0.1\Projects\zstack\HomeAutomation\SampleSwitch\CC2530DB\..\..\..\..\..\Components\stack\nwk\"
//        -I "E:\BaiduNetdiskDownload\´đ°¸\ĘµŃéČý ZigBee´úÂë\Z-Stack
//        3.0.1\Z-Stack
//        3.0.1\Projects\zstack\HomeAutomation\SampleSwitch\CC2530DB\..\..\..\..\..\Components\stack\sapi\"
//        -I "E:\BaiduNetdiskDownload\´đ°¸\ĘµŃéČý ZigBee´úÂë\Z-Stack
//        3.0.1\Z-Stack
//        3.0.1\Projects\zstack\HomeAutomation\SampleSwitch\CC2530DB\..\..\..\..\..\Components\stack\sec\"
//        -I "E:\BaiduNetdiskDownload\´đ°¸\ĘµŃéČý ZigBee´úÂë\Z-Stack
//        3.0.1\Z-Stack
//        3.0.1\Projects\zstack\HomeAutomation\SampleSwitch\CC2530DB\..\..\..\..\..\Components\stack\sys\"
//        -I "E:\BaiduNetdiskDownload\´đ°¸\ĘµŃéČý ZigBee´úÂë\Z-Stack
//        3.0.1\Z-Stack
//        3.0.1\Projects\zstack\HomeAutomation\SampleSwitch\CC2530DB\..\..\..\..\..\Components\stack\zcl\"
//        -I "E:\BaiduNetdiskDownload\´đ°¸\ĘµŃéČý ZigBee´úÂë\Z-Stack
//        3.0.1\Z-Stack
//        3.0.1\Projects\zstack\HomeAutomation\SampleSwitch\CC2530DB\..\..\..\..\..\Components\stack\zdo\"
//        -I "E:\BaiduNetdiskDownload\´đ°¸\ĘµŃéČý ZigBee´úÂë\Z-Stack
//        3.0.1\Z-Stack
//        3.0.1\Projects\zstack\HomeAutomation\SampleSwitch\CC2530DB\..\..\..\..\..\Components\zmac\"
//        -I "E:\BaiduNetdiskDownload\´đ°¸\ĘµŃéČý ZigBee´úÂë\Z-Stack
//        3.0.1\Z-Stack
//        3.0.1\Projects\zstack\HomeAutomation\SampleSwitch\CC2530DB\..\..\..\..\..\Components\zmac\f8w\"
//        -I "E:\BaiduNetdiskDownload\´đ°¸\ĘµŃéČý ZigBee´úÂë\Z-Stack
//        3.0.1\Z-Stack
//        3.0.1\Projects\zstack\HomeAutomation\SampleSwitch\CC2530DB\..\..\..\..\..\Components\hal\target\CC2530EB\Common\"
//        -I "E:\BaiduNetdiskDownload\´đ°¸\ĘµŃéČý ZigBee´úÂë\Z-Stack
//        3.0.1\Z-Stack
//        3.0.1\Projects\zstack\HomeAutomation\SampleSwitch\CC2530DB\..\..\..\..\..\Components\hal\target\CC2530EB\SPI\"
//        -I "E:\BaiduNetdiskDownload\´đ°¸\ĘµŃéČý ZigBee´úÂë\Z-Stack
//        3.0.1\Z-Stack
//        3.0.1\Projects\zstack\HomeAutomation\SampleSwitch\CC2530DB\..\..\..\..\..\Components\hal\target\CC2530EB\HW_LCD\Font\"
//        -I "E:\BaiduNetdiskDownload\´đ°¸\ĘµŃéČý ZigBee´úÂë\Z-Stack
//        3.0.1\Z-Stack
//        3.0.1\Projects\zstack\HomeAutomation\SampleSwitch\CC2530DB\..\..\..\..\..\Components\hal\target\CC2530EB\HW_LCD\HAL_LCD_SPI\"
//        -I "E:\BaiduNetdiskDownload\´đ°¸\ĘµŃéČý ZigBee´úÂë\Z-Stack
//        3.0.1\Z-Stack
//        3.0.1\Projects\zstack\HomeAutomation\SampleSwitch\CC2530DB\..\..\..\..\..\Components\hal\target\CC2530EB\HW_LCD\HAL_OLED\"
//        -I "E:\BaiduNetdiskDownload\´đ°¸\ĘµŃéČý ZigBee´úÂë\Z-Stack
//        3.0.1\Z-Stack
//        3.0.1\Projects\zstack\HomeAutomation\SampleSwitch\CC2530DB\..\..\..\..\..\Components\hal\target\CC2530EB\HW_LCD\HAL_TFT\"
//        -Ohz --require_prototypes)
//    Locale             =  Chinese (Simplified)_CHN.936
//    List file          =  
//        E:\BaiduNetdiskDownload\´đ°¸\ĘµŃéČý ZigBee´úÂë\Z-Stack 3.0.1\Z-Stack
//        3.0.1\Projects\zstack\HomeAutomation\SampleSwitch\CC2530DB\CoordinatorEB\List\zcl.s51
//
///////////////////////////////////////////////////////////////////////////////

        NAME zcl

        RTMODEL "__SystemLibrary", "CLib"
        RTMODEL "__calling_convention", "xdata_reentrant"
        RTMODEL "__code_model", "banked"
        RTMODEL "__core", "plain"
        RTMODEL "__data_model", "large"
        RTMODEL "__dptr_size", "16"
        RTMODEL "__extended_stack", "disabled"
        RTMODEL "__location_for_constants", "data"
        RTMODEL "__number_of_dptrs", "1"
        RTMODEL "__register_banks", "*"
        RTMODEL "__rt_version", "1"

        RSEG DOVERLAY:DATA:NOROOT(0)
        RSEG IOVERLAY:IDATA:NOROOT(0)
        RSEG ISTACK:IDATA:NOROOT(0)
        RSEG PSTACK:XDATA:NOROOT(0)
        RSEG XSTACK:XDATA:NOROOT(0)

        EXTERN ?V0
        EXTERN ?V1
        EXTERN ?V2
        EXTERN ?V3
        EXTERN ?V4
        EXTERN ?V5
        EXTERN ?V6
        EXTERN ?V7
        EXTERN ?ALLOC_XSTACK8
        EXTERN ?BANKED_ENTER_XDATA
        EXTERN ?BANKED_LEAVE_XDATA
        EXTERN ?BDISPATCH
        EXTERN ?BRET
        EXTERN ?CALL_IND
        EXTERN ?DEALLOC_XSTACK8
        EXTERN ?L_MOV_X
        EXTERN ?MOVE_LONG8_XDATA_CODE
        EXTERN ?MOVE_LONG8_XDATA_XDATA
        EXTERN ?PUSH_XSTACK8_X_FOUR
        EXTERN ?PUSH_XSTACK8_X_TWO
        EXTERN ?PUSH_XSTACK_I_ONE
        EXTERN ?PUSH_XSTACK_I_THREE
        EXTERN ?PUSH_XSTACK_I_TWO
        EXTERN ?S_SHL
        EXTERN ?UC_SWITCH_SPARSE
        EXTERN ?UL_SHR
        EXTERN ?US_DIV_MOD
        EXTERN ?US_SHR
        EXTERN ?VB
        EXTERN ?XSP
        EXTERN ?XSTACK_DISP0_8
        EXTERN ?XSTACK_DISP100_8
        EXTERN ?XSTACK_DISP101_8
        EXTERN ?XSTACK_DISP102_8
        EXTERN __INIT_XDATA_Z

        FUNCTION `??zclAuthorizeWrite::?relay`,0203H
        FUNCTION `??zclBuildHdr::?relay`,0203H
        PUBLIC `??zclFindAttrRec::?relay`
        FUNCTION `??zclFindAttrRec::?relay`,0203H
        PUBLIC `??zclFindAttrRecsList::?relay`
        FUNCTION `??zclFindAttrRecsList::?relay`,0203H
        FUNCTION `??zclFindClusterOption::?relay`,0203H
        PUBLIC `??zclFindCmdRec::?relay`
        FUNCTION `??zclFindCmdRec::?relay`,0203H
        FUNCTION `??zclFindCmdRecsList::?relay`,0203H
        FUNCTION `??zclFindNextAttrRec::?relay`,0203H
        FUNCTION `??zclFindNextCmdRec::?relay`,0203H
        PUBLIC `??zclGetAttrDataLength::?relay`
        FUNCTION `??zclGetAttrDataLength::?relay`,0203H
        FUNCTION `??zclGetAttrDataLengthUsingCB::?relay`,0203H
        FUNCTION `??zclGetAuthorizeCB::?relay`,0203H
        FUNCTION `??zclGetClusterOption::?relay`,0203H
        PUBLIC `??zclGetDataTypeLength::?relay`
        FUNCTION `??zclGetDataTypeLength::?relay`,0203H
        FUNCTION `??zclGetReadWriteCB::?relay`,0203H
        PUBLIC `??zclParseHdr::?relay`
        FUNCTION `??zclParseHdr::?relay`,0203H
        FUNCTION `??zclParseInDefaultRspCmd::?relay`,0203H
        PUBLIC `??zclParseInDiscAttrsCmd::?relay`
        FUNCTION `??zclParseInDiscAttrsCmd::?relay`,0203H
        FUNCTION `??zclParseInDiscAttrsExtRspCmd::?relay`,0203H
        FUNCTION `??zclParseInDiscAttrsRspCmd::?relay`,0203H
        PUBLIC `??zclParseInDiscCmdsCmd::?relay`
        FUNCTION `??zclParseInDiscCmdsCmd::?relay`,0203H
        FUNCTION `??zclParseInDiscCmdsRspCmd::?relay`,0203H
        PUBLIC `??zclParseInReadCmd::?relay`
        FUNCTION `??zclParseInReadCmd::?relay`,0203H
        FUNCTION `??zclParseInReadRspCmd::?relay`,0203H
        PUBLIC `??zclParseInReportCmd::?relay`
        FUNCTION `??zclParseInReportCmd::?relay`,0203H
        PUBLIC `??zclParseInWriteCmd::?relay`
        FUNCTION `??zclParseInWriteCmd::?relay`,0203H
        FUNCTION `??zclParseInWriteRspCmd::?relay`,0203H
        FUNCTION `??zclProcessInDiscAttrs::?relay`,0203H
        FUNCTION `??zclProcessInDiscAttrsCmd::?relay`,0203H
        FUNCTION `??zclProcessInDiscAttrsExtCmd::?relay`,0203H
        FUNCTION `??zclProcessInDiscCmd::?relay`,0203H
        FUNCTION `??zclProcessInReadCmd::?relay`,0203H
        FUNCTION `??zclProcessInWriteCmd::?relay`,0203H
        FUNCTION `??zclProcessInWriteUndividedCmd::?relay`,0203H
        PUBLIC `??zclReadAttrData::?relay`
        FUNCTION `??zclReadAttrData::?relay`,0203H
        FUNCTION `??zclReadAttrDataUsingCB::?relay`,0203H
        FUNCTION `??zclRevertWriteUndividedCmd::?relay`,0203H
        PUBLIC `??zclSerializeData::?relay`
        FUNCTION `??zclSerializeData::?relay`,0203H
        FUNCTION `??zclSetSecurityOption::?relay`,0203H
        FUNCTION `??zclWriteAttrData::?relay`,0203H
        FUNCTION `??zclWriteAttrDataUsingCB::?relay`,0203H
        FUNCTION `??zcl_DeviceOperational::?relay`,0203H
        PUBLIC `??zcl_HandleExternal::?relay`
        FUNCTION `??zcl_HandleExternal::?relay`,0203H
        PUBLIC `??zcl_Init::?relay`
        FUNCTION `??zcl_Init::?relay`,0203H
        PUBLIC `??zcl_ProcessMessageMSG::?relay`
        FUNCTION `??zcl_ProcessMessageMSG::?relay`,0203H
        PUBLIC `??zcl_ReadAttrData::?relay`
        FUNCTION `??zcl_ReadAttrData::?relay`,0203H
        PUBLIC `??zcl_SendCommand::?relay`
        FUNCTION `??zcl_SendCommand::?relay`,0203H
        PUBLIC `??zcl_SendDefaultRspCmd::?relay`
        FUNCTION `??zcl_SendDefaultRspCmd::?relay`,0203H
        PUBLIC `??zcl_SendDiscoverAttrsCmd::?relay`
        FUNCTION `??zcl_SendDiscoverAttrsCmd::?relay`,0203H
        PUBLIC `??zcl_SendDiscoverAttrsExt::?relay`
        FUNCTION `??zcl_SendDiscoverAttrsExt::?relay`,0203H
        PUBLIC `??zcl_SendDiscoverAttrsExtRsp::?relay`
        FUNCTION `??zcl_SendDiscoverAttrsExtRsp::?relay`,0203H
        PUBLIC `??zcl_SendDiscoverAttrsRspCmd::?relay`
        FUNCTION `??zcl_SendDiscoverAttrsRspCmd::?relay`,0203H
        PUBLIC `??zcl_SendDiscoverCmdsCmd::?relay`
        FUNCTION `??zcl_SendDiscoverCmdsCmd::?relay`,0203H
        PUBLIC `??zcl_SendDiscoverCmdsRspCmd::?relay`
        FUNCTION `??zcl_SendDiscoverCmdsRspCmd::?relay`,0203H
        PUBLIC `??zcl_SendRead::?relay`
        FUNCTION `??zcl_SendRead::?relay`,0203H
        PUBLIC `??zcl_SendReadRsp::?relay`
        FUNCTION `??zcl_SendReadRsp::?relay`,0203H
        PUBLIC `??zcl_SendWriteRequest::?relay`
        FUNCTION `??zcl_SendWriteRequest::?relay`,0203H
        PUBLIC `??zcl_SendWriteRsp::?relay`
        FUNCTION `??zcl_SendWriteRsp::?relay`,0203H
        FUNCTION `??zcl_addExternalFoundationHandler::?relay`,0203H
        PUBLIC `??zcl_event_loop::?relay`
        FUNCTION `??zcl_event_loop::?relay`,0203H
        FUNCTION `??zcl_getExternalFoundationHandler::?relay`,0203H
        PUBLIC `??zcl_getParsedTransSeqNum::?relay`
        FUNCTION `??zcl_getParsedTransSeqNum::?relay`,0203H
        PUBLIC `??zcl_getRawAFMsg::?relay`
        FUNCTION `??zcl_getRawAFMsg::?relay`,0203H
        PUBLIC `??zcl_registerAttrList::?relay`
        FUNCTION `??zcl_registerAttrList::?relay`,0203H
        PUBLIC `??zcl_registerClusterOptionList::?relay`
        FUNCTION `??zcl_registerClusterOptionList::?relay`,0203H
        PUBLIC `??zcl_registerCmdList::?relay`
        FUNCTION `??zcl_registerCmdList::?relay`,0203H
        PUBLIC `??zcl_registerForMsg::?relay`
        FUNCTION `??zcl_registerForMsg::?relay`,0203H
        PUBLIC `??zcl_registerForMsgExt::?relay`
        FUNCTION `??zcl_registerForMsgExt::?relay`,0203H
        PUBLIC `??zcl_registerPlugin::?relay`
        FUNCTION `??zcl_registerPlugin::?relay`,0203H
        PUBLIC `??zcl_registerReadWriteCB::?relay`
        FUNCTION `??zcl_registerReadWriteCB::?relay`,0203H
        PUBLIC `??zcl_registerValidateAttrData::?relay`
        FUNCTION `??zcl_registerValidateAttrData::?relay`,0203H
        PUBWEAK __Constant_32
        FUNCTION zclAuthorizeWrite,0a1203H
        ARGFRAME XSTACK, 15, STACK
        ARGFRAME IOVERLAY, 0, STATIC
        ARGFRAME DOVERLAY, 0, STATIC
        LOCFRAME XSTACK, 14, STACK
        FUNCTION zclBuildHdr,0203H
        ARGFRAME XSTACK, 27, STACK
        ARGFRAME IOVERLAY, 0, STATIC
        ARGFRAME DOVERLAY, 0, STATIC
        LOCFRAME ISTACK, 1, STACK
        LOCFRAME XSTACK, 9, STACK
        PUBLIC zclFindAttrRec
        FUNCTION zclFindAttrRec,0a1203H
        ARGFRAME XSTACK, 38, STACK
        ARGFRAME IOVERLAY, 0, STATIC
        ARGFRAME DOVERLAY, 0, STATIC
        LOCFRAME ISTACK, 2, STACK
        LOCFRAME XSTACK, 14, STACK
        PUBLIC zclFindAttrRecsList
        FUNCTION zclFindAttrRecsList,0203H
        ARGFRAME XSTACK, 16, STACK
        ARGFRAME IOVERLAY, 0, STATIC
        ARGFRAME DOVERLAY, 0, STATIC
        LOCFRAME ISTACK, 2, STACK
        FUNCTION zclFindClusterOption,080203H
        ARGFRAME XSTACK, 10, STACK
        ARGFRAME IOVERLAY, 0, STATIC
        ARGFRAME DOVERLAY, 0, STATIC
        LOCFRAME XSTACK, 9, STACK
        PUBLIC zclFindCmdRec
        FUNCTION zclFindCmdRec,0a1203H
        ARGFRAME XSTACK, 2, STACK
        LOCFRAME ISTACK, 2, STACK
        LOCFRAME XSTACK, 12, STACK
        FUNCTION zclFindCmdRecsList,0203H
        ARGFRAME XSTACK, 14, STACK
        ARGFRAME IOVERLAY, 0, STATIC
        ARGFRAME DOVERLAY, 0, STATIC
        LOCFRAME ISTACK, 2, STACK
        FUNCTION zclFindNextAttrRec,0a1203H
        ARGFRAME XSTACK, 33, STACK
        ARGFRAME IOVERLAY, 0, STATIC
        ARGFRAME DOVERLAY, 0, STATIC
        LOCFRAME XSTACK, 16, STACK
        FUNCTION zclFindNextCmdRec,0a1203H
        ARGFRAME XSTACK, 31, STACK
        ARGFRAME IOVERLAY, 0, STATIC
        ARGFRAME DOVERLAY, 0, STATIC
        LOCFRAME ISTACK, 1, STACK
        LOCFRAME XSTACK, 14, STACK
        PUBLIC zclGetAttrDataLength
        FUNCTION zclGetAttrDataLength,021203H
        ARGFRAME XSTACK, 36, STACK
        ARGFRAME IOVERLAY, 0, STATIC
        ARGFRAME DOVERLAY, 0, STATIC
        LOCFRAME XSTACK, 9, STACK
        FUNCTION zclGetAttrDataLengthUsingCB,0a1203H
        ARGFRAME XSTACK, 36, STACK
        ARGFRAME IOVERLAY, 0, STATIC
        ARGFRAME DOVERLAY, 0, STATIC
        LOCFRAME XSTACK, 22, STACK
        FUNCTION zclGetAuthorizeCB,0a1203H
        ARGFRAME XSTACK, 30, STACK
        ARGFRAME IOVERLAY, 0, STATIC
        ARGFRAME DOVERLAY, 0, STATIC
        LOCFRAME XSTACK, 10, STACK
        FUNCTION zclGetClusterOption,0a1203H
        ARGFRAME XSTACK, 37, STACK
        ARGFRAME IOVERLAY, 0, STATIC
        ARGFRAME DOVERLAY, 0, STATIC
        LOCFRAME XSTACK, 10, STACK
        PUBLIC zclGetDataTypeLength
        FUNCTION zclGetDataTypeLength,0203H
        ARGFRAME XSTACK, 9, STACK
        ARGFRAME IOVERLAY, 0, STATIC
        ARGFRAME DOVERLAY, 0, STATIC
        FUNCTION zclGetReadWriteCB,0a1203H
        ARGFRAME XSTACK, 18, STACK
        ARGFRAME IOVERLAY, 0, STATIC
        ARGFRAME DOVERLAY, 0, STATIC
        LOCFRAME XSTACK, 10, STACK
        PUBLIC zclParseHdr
        FUNCTION zclParseHdr,0a1203H
        ARGFRAME XSTACK, 37, STACK
        ARGFRAME IOVERLAY, 0, STATIC
        ARGFRAME DOVERLAY, 0, STATIC
        LOCFRAME ISTACK, 1, STACK
        LOCFRAME XSTACK, 12, STACK
        FUNCTION zclParseInDefaultRspCmd,0a1603H
        ARGFRAME XSTACK, 0, STACK
        LOCFRAME ISTACK, 1, STACK
        LOCFRAME XSTACK, 10, STACK
        PUBLIC zclParseInDiscAttrsCmd
        FUNCTION zclParseInDiscAttrsCmd,0a1603H
        ARGFRAME XSTACK, 0, STACK
        LOCFRAME ISTACK, 1, STACK
        LOCFRAME XSTACK, 10, STACK
        FUNCTION zclParseInDiscAttrsExtRspCmd,0a1603H
        ARGFRAME XSTACK, 0, STACK
        LOCFRAME ISTACK, 1, STACK
        LOCFRAME XSTACK, 14, STACK
        FUNCTION zclParseInDiscAttrsRspCmd,0a1603H
        ARGFRAME XSTACK, 0, STACK
        LOCFRAME ISTACK, 1, STACK
        LOCFRAME XSTACK, 14, STACK
        PUBLIC zclParseInDiscCmdsCmd
        FUNCTION zclParseInDiscCmdsCmd,0a1603H
        ARGFRAME XSTACK, 0, STACK
        LOCFRAME ISTACK, 1, STACK
        LOCFRAME XSTACK, 10, STACK
        FUNCTION zclParseInDiscCmdsRspCmd,0a1603H
        ARGFRAME XSTACK, 0, STACK
        LOCFRAME ISTACK, 1, STACK
        LOCFRAME XSTACK, 12, STACK
        PUBLIC zclParseInReadCmd
        FUNCTION zclParseInReadCmd,0a1603H
        ARGFRAME XSTACK, 0, STACK
        LOCFRAME ISTACK, 1, STACK
        LOCFRAME XSTACK, 12, STACK
        FUNCTION zclParseInReadRspCmd,0a1603H
        ARGFRAME XSTACK, 0, STACK
        LOCFRAME ISTACK, 1, STACK
        LOCFRAME XSTACK, 25, STACK
        PUBLIC zclParseInReportCmd
        FUNCTION zclParseInReportCmd,0a1603H
        ARGFRAME XSTACK, 0, STACK
        LOCFRAME ISTACK, 1, STACK
        LOCFRAME XSTACK, 25, STACK
        PUBLIC zclParseInWriteCmd
        FUNCTION zclParseInWriteCmd,0a1603H
        ARGFRAME XSTACK, 0, STACK
        LOCFRAME ISTACK, 1, STACK
        LOCFRAME XSTACK, 25, STACK
        FUNCTION zclParseInWriteRspCmd,0a1603H
        ARGFRAME XSTACK, 0, STACK
        LOCFRAME ISTACK, 1, STACK
        LOCFRAME XSTACK, 16, STACK
        FUNCTION zclProcessInDiscAttrs,0a1603H
        ARGFRAME XSTACK, 0, STACK
        LOCFRAME XSTACK, 30, STACK
        FUNCTION zclProcessInDiscAttrsCmd,0a1203H
        ARGFRAME XSTACK, 26, STACK
        ARGFRAME IOVERLAY, 0, STATIC
        ARGFRAME DOVERLAY, 0, STATIC
        LOCFRAME ISTACK, 1, STACK
        LOCFRAME XSTACK, 34, STACK
        FUNCTION zclProcessInDiscAttrsExtCmd,0a1203H
        ARGFRAME XSTACK, 26, STACK
        ARGFRAME IOVERLAY, 0, STATIC
        ARGFRAME DOVERLAY, 0, STATIC
        LOCFRAME ISTACK, 1, STACK
        LOCFRAME XSTACK, 34, STACK
        FUNCTION zclProcessInDiscCmd,0a1603H
        ARGFRAME XSTACK, 0, STACK
        LOCFRAME ISTACK, 1, STACK
        LOCFRAME XSTACK, 32, STACK
        FUNCTION zclProcessInReadCmd,0a1603H
        ARGFRAME XSTACK, 0, STACK
        LOCFRAME ISTACK, 1, STACK
        LOCFRAME XSTACK, 35, STACK
        FUNCTION zclProcessInWriteCmd,0a1603H
        ARGFRAME XSTACK, 0, STACK
        LOCFRAME ISTACK, 1, STACK
        LOCFRAME XSTACK, 37, STACK
        FUNCTION zclProcessInWriteUndividedCmd,0a1603H
        ARGFRAME XSTACK, 0, STACK
        LOCFRAME ISTACK, 1, STACK
        LOCFRAME XSTACK, 41, STACK
        PUBLIC zclReadAttrData
        FUNCTION zclReadAttrData,0a1203H
        ARGFRAME XSTACK, 38, STACK
        ARGFRAME IOVERLAY, 0, STATIC
        ARGFRAME DOVERLAY, 0, STATIC
        LOCFRAME XSTACK, 17, STACK
        FUNCTION zclReadAttrDataUsingCB,0a1203H
        ARGFRAME XSTACK, 40, STACK
        ARGFRAME IOVERLAY, 0, STATIC
        ARGFRAME DOVERLAY, 0, STATIC
        LOCFRAME XSTACK, 20, STACK
        FUNCTION zclRevertWriteUndividedCmd,0a1203H
        ARGFRAME XSTACK, 38, STACK
        ARGFRAME IOVERLAY, 0, STATIC
        ARGFRAME DOVERLAY, 0, STATIC
        LOCFRAME XSTACK, 30, STACK
        PUBLIC zclSerializeData
        FUNCTION zclSerializeData,0a1203H
        ARGFRAME XSTACK, 22, STACK
        ARGFRAME IOVERLAY, 0, STATIC
        ARGFRAME DOVERLAY, 0, STATIC
        LOCFRAME ISTACK, 1, STACK
        LOCFRAME XSTACK, 19, STACK
        FUNCTION zclSetSecurityOption,0a1203H
        ARGFRAME XSTACK, 37, STACK
        ARGFRAME IOVERLAY, 0, STATIC
        ARGFRAME DOVERLAY, 0, STATIC
        LOCFRAME XSTACK, 10, STACK
        FUNCTION zclWriteAttrData,0a1203H
        ARGFRAME XSTACK, 38, STACK
        ARGFRAME IOVERLAY, 0, STATIC
        ARGFRAME DOVERLAY, 0, STATIC
        LOCFRAME XSTACK, 18, STACK
        FUNCTION zclWriteAttrDataUsingCB,0a1203H
        ARGFRAME XSTACK, 38, STACK
        ARGFRAME IOVERLAY, 0, STATIC
        ARGFRAME DOVERLAY, 0, STATIC
        LOCFRAME XSTACK, 18, STACK
        FUNCTION zcl_DeviceOperational,0a1203H
        ARGFRAME XSTACK, 39, STACK
        ARGFRAME IOVERLAY, 0, STATIC
        ARGFRAME DOVERLAY, 0, STATIC
        LOCFRAME XSTACK, 23, STACK
        PUBLIC zcl_HandleExternal
        FUNCTION zcl_HandleExternal,0a1603H
        ARGFRAME XSTACK, 0, STACK
        LOCFRAME ISTACK, 1, STACK
        LOCFRAME XSTACK, 12, STACK
        PUBLIC zcl_InSeqNum
        PUBLIC zcl_Init
        FUNCTION zcl_Init,0203H
        ARGFRAME XSTACK, 0, STACK
        LOCFRAME ISTACK, 2, STACK
        PUBLIC zcl_ProcessMessageMSG
        FUNCTION zcl_ProcessMessageMSG,0a1203H
        ARGFRAME XSTACK, 18, STACK
        ARGFRAME IOVERLAY, 0, STATIC
        ARGFRAME DOVERLAY, 0, STATIC
        LOCFRAME ISTACK, 1, STACK
        LOCFRAME XSTACK, 44, STACK
        PUBLIC zcl_ReadAttrData
        FUNCTION zcl_ReadAttrData,0a1203H
        ARGFRAME XSTACK, 4, STACK
        LOCFRAME XSTACK, 26, STACK
        PUBLIC zcl_SendCommand
        FUNCTION zcl_SendCommand,0a1203H
        ARGFRAME XSTACK, 33, STACK
        ARGFRAME IOVERLAY, 0, STATIC
        ARGFRAME DOVERLAY, 0, STATIC
        LOCFRAME ISTACK, 1, STACK
        LOCFRAME XSTACK, 36, STACK
        PUBLIC zcl_SendDefaultRspCmd
        FUNCTION zcl_SendDefaultRspCmd,0a1203H
        ARGFRAME XSTACK, 44, STACK
        ARGFRAME IOVERLAY, 0, STATIC
        ARGFRAME DOVERLAY, 0, STATIC
        LOCFRAME ISTACK, 1, STACK
        LOCFRAME XSTACK, 23, STACK
        PUBLIC zcl_SendDiscoverAttrsCmd
        FUNCTION zcl_SendDiscoverAttrsCmd,0a1203H
        ARGFRAME XSTACK, 5, STACK
        LOCFRAME ISTACK, 1, STACK
        LOCFRAME XSTACK, 27, STACK
        PUBLIC zcl_SendDiscoverAttrsExt
        FUNCTION zcl_SendDiscoverAttrsExt,0a1203H
        ARGFRAME XSTACK, 5, STACK
        LOCFRAME ISTACK, 1, STACK
        LOCFRAME XSTACK, 24, STACK
        PUBLIC zcl_SendDiscoverAttrsExtRsp
        FUNCTION zcl_SendDiscoverAttrsExtRsp,0a1203H
        ARGFRAME XSTACK, 34, STACK
        ARGFRAME IOVERLAY, 0, STATIC
        ARGFRAME DOVERLAY, 0, STATIC
        LOCFRAME ISTACK, 1, STACK
        LOCFRAME XSTACK, 32, STACK
        PUBLIC zcl_SendDiscoverAttrsRspCmd
        FUNCTION zcl_SendDiscoverAttrsRspCmd,0a1203H
        ARGFRAME XSTACK, 34, STACK
        ARGFRAME IOVERLAY, 0, STATIC
        ARGFRAME DOVERLAY, 0, STATIC
        LOCFRAME ISTACK, 1, STACK
        LOCFRAME XSTACK, 32, STACK
        PUBLIC zcl_SendDiscoverCmdsCmd
        FUNCTION zcl_SendDiscoverCmdsCmd,0a1203H
        ARGFRAME XSTACK, 6, STACK
        LOCFRAME ISTACK, 1, STACK
        LOCFRAME XSTACK, 27, STACK
        PUBLIC zcl_SendDiscoverCmdsRspCmd
        FUNCTION zcl_SendDiscoverCmdsRspCmd,0a1203H
        ARGFRAME XSTACK, 32, STACK
        ARGFRAME IOVERLAY, 0, STATIC
        ARGFRAME DOVERLAY, 0, STATIC
        LOCFRAME ISTACK, 1, STACK
        LOCFRAME XSTACK, 31, STACK
        PUBLIC zcl_SendRead
        FUNCTION zcl_SendRead,0a1203H
        ARGFRAME XSTACK, 5, STACK
        LOCFRAME ISTACK, 1, STACK
        LOCFRAME XSTACK, 30, STACK
        PUBLIC zcl_SendReadRsp
        FUNCTION zcl_SendReadRsp,0a1203H
        ARGFRAME XSTACK, 35, STACK
        ARGFRAME IOVERLAY, 0, STATIC
        ARGFRAME DOVERLAY, 0, STATIC
        LOCFRAME ISTACK, 1, STACK
        LOCFRAME XSTACK, 33, STACK
        PUBLIC zcl_SendWriteRequest
        FUNCTION zcl_SendWriteRequest,0a1203H
        ARGFRAME XSTACK, 6, STACK
        LOCFRAME ISTACK, 1, STACK
        LOCFRAME XSTACK, 32, STACK
        PUBLIC zcl_SendWriteRsp
        FUNCTION zcl_SendWriteRsp,0a1203H
        ARGFRAME XSTACK, 41, STACK
        ARGFRAME IOVERLAY, 0, STATIC
        ARGFRAME DOVERLAY, 0, STATIC
        LOCFRAME ISTACK, 1, STACK
        LOCFRAME XSTACK, 30, STACK
        PUBLIC zcl_TaskID
        PUBLIC zcl_TransID
        PUBLIC zcl_ValidateAttrDataCB
        FUNCTION zcl_addExternalFoundationHandler,0a1203H
        ARGFRAME XSTACK, 9, STACK
        ARGFRAME IOVERLAY, 0, STATIC
        ARGFRAME DOVERLAY, 0, STATIC
        LOCFRAME ISTACK, 1, STACK
        LOCFRAME XSTACK, 10, STACK
        PUBLIC zcl_event_loop
        FUNCTION zcl_event_loop,0a1203H
        ARGFRAME XSTACK, 0, STACK
        LOCFRAME XSTACK, 29, STACK
        FUNCTION zcl_getExternalFoundationHandler,0203H
        ARGFRAME XSTACK, 18, STACK
        ARGFRAME IOVERLAY, 0, STATIC
        ARGFRAME DOVERLAY, 0, STATIC
        LOCFRAME ISTACK, 2, STACK
        PUBLIC zcl_getParsedTransSeqNum
        FUNCTION zcl_getParsedTransSeqNum,0203H
        ARGFRAME XSTACK, 0, STACK
        LOCFRAME ISTACK, 2, STACK
        PUBLIC zcl_getRawAFMsg
        FUNCTION zcl_getRawAFMsg,0203H
        ARGFRAME XSTACK, 0, STACK
        LOCFRAME ISTACK, 2, STACK
        PUBLIC zcl_registerAttrList
        FUNCTION zcl_registerAttrList,0a1203H
        ARGFRAME XSTACK, 0, STACK
        LOCFRAME ISTACK, 1, STACK
        LOCFRAME XSTACK, 12, STACK
        PUBLIC zcl_registerClusterOptionList
        FUNCTION zcl_registerClusterOptionList,0a1203H
        ARGFRAME XSTACK, 0, STACK
        LOCFRAME ISTACK, 1, STACK
        LOCFRAME XSTACK, 12, STACK
        PUBLIC zcl_registerCmdList
        FUNCTION zcl_registerCmdList,0a1203H
        ARGFRAME XSTACK, 0, STACK
        LOCFRAME ISTACK, 1, STACK
        LOCFRAME XSTACK, 12, STACK
        PUBLIC zcl_registerForMsg
        FUNCTION zcl_registerForMsg,021203H
        ARGFRAME XSTACK, 0, STACK
        LOCFRAME XSTACK, 9, STACK
        PUBLIC zcl_registerForMsgExt
        FUNCTION zcl_registerForMsgExt,021203H
        ARGFRAME XSTACK, 0, STACK
        LOCFRAME XSTACK, 9, STACK
        PUBLIC zcl_registerPlugin
        FUNCTION zcl_registerPlugin,0a1203H
        ARGFRAME XSTACK, 2, STACK
        LOCFRAME XSTACK, 12, STACK
        PUBLIC zcl_registerReadWriteCB
        FUNCTION zcl_registerReadWriteCB,0a1203H
        ARGFRAME XSTACK, 0, STACK
        LOCFRAME XSTACK, 14, STACK
        PUBLIC zcl_registerValidateAttrData
        FUNCTION zcl_registerValidateAttrData,0203H
        ARGFRAME XSTACK, 0, STACK
        LOCFRAME ISTACK, 2, STACK
        
          CFI Names cfiNames0
          CFI StackFrame CFA_SP SP IDATA
          CFI StackFrame CFA_PSP16 PSP16 XDATA
          CFI StackFrame CFA_XSP16 XSP16 XDATA
          CFI StaticOverlayFrame CFA_IOVERLAY IOVERLAY
          CFI StaticOverlayFrame CFA_DOVERLAY DOVERLAY
          CFI Resource `PSW.CY`:1, `B.BR0`:1, `B.BR1`:1, `B.BR2`:1, `B.BR3`:1
          CFI Resource `B.BR4`:1, `B.BR5`:1, `B.BR6`:1, `B.BR7`:1, `VB.BR8`:1
          CFI Resource `VB.BR9`:1, `VB.BR10`:1, `VB.BR11`:1, `VB.BR12`:1
          CFI Resource `VB.BR13`:1, `VB.BR14`:1, `VB.BR15`:1, VB:8, B:8, A:8
          CFI Resource PSW:8, DPL0:8, DPH0:8, R0:8, R1:8, R2:8, R3:8, R4:8, R5:8
          CFI Resource R6:8, R7:8, V0:8, V1:8, V2:8, V3:8, V4:8, V5:8, V6:8, V7:8
          CFI Resource SP:8, PSPH:8, PSPL:8, PSP16:16, XSPH:8, XSPL:8, XSP16:16
          CFI VirtualResource ?RET:24
          CFI Resource ?BRET_EXT:8
          CFI VirtualResource ?RET_HIGH:8, ?RET_LOW:8
          CFI ResourceParts PSP16 PSPH, PSPL
          CFI ResourceParts XSP16 XSPH, XSPL
          CFI ResourceParts ?RET ?BRET_EXT, ?RET_HIGH, ?RET_LOW
          CFI EndNames cfiNames0
        
          CFI Common cfiCommon0 Using cfiNames0
          CFI CodeAlign 1
          CFI DataAlign -1
          CFI ReturnAddress ?RET CODE
          CFI CFA_DOVERLAY Used
          CFI CFA_IOVERLAY Used
          CFI CFA_SP SP+-3
          CFI CFA_PSP16 PSP16+0
          CFI CFA_XSP16 XSP16+0
          CFI `PSW.CY` SameValue
          CFI `B.BR0` SameValue
          CFI `B.BR1` SameValue
          CFI `B.BR2` SameValue
          CFI `B.BR3` SameValue
          CFI `B.BR4` SameValue
          CFI `B.BR5` SameValue
          CFI `B.BR6` SameValue
          CFI `B.BR7` SameValue
          CFI `VB.BR8` SameValue
          CFI `VB.BR9` SameValue
          CFI `VB.BR10` SameValue
          CFI `VB.BR11` SameValue
          CFI `VB.BR12` SameValue
          CFI `VB.BR13` SameValue
          CFI `VB.BR14` SameValue
          CFI `VB.BR15` SameValue
          CFI VB SameValue
          CFI B Undefined
          CFI A Undefined
          CFI PSW SameValue
          CFI DPL0 SameValue
          CFI DPH0 SameValue
          CFI R0 Undefined
          CFI R1 Undefined
          CFI R2 Undefined
          CFI R3 Undefined
          CFI R4 Undefined
          CFI R5 Undefined
          CFI R6 SameValue
          CFI R7 SameValue
          CFI V0 SameValue
          CFI V1 SameValue
          CFI V2 SameValue
          CFI V3 SameValue
          CFI V4 SameValue
          CFI V5 SameValue
          CFI V6 SameValue
          CFI V7 SameValue
          CFI PSPH Undefined
          CFI PSPL Undefined
          CFI XSPH Undefined
          CFI XSPL Undefined
          CFI ?RET Concat
          CFI ?BRET_EXT Frame(CFA_SP, 3)
          CFI ?RET_HIGH Frame(CFA_SP, 2)
          CFI ?RET_LOW Frame(CFA_SP, 1)
          CFI EndCommon cfiCommon0
        
        
          CFI Common cfiCommon1 Using cfiNames0
          CFI CodeAlign 1
          CFI DataAlign -1
          CFI ReturnAddress ?RET CODE
          CFI CFA_DOVERLAY Used
          CFI CFA_IOVERLAY Used
          CFI CFA_SP SP+-2
          CFI CFA_PSP16 PSP16+0
          CFI CFA_XSP16 XSP16+0
          CFI `PSW.CY` SameValue
          CFI `B.BR0` SameValue
          CFI `B.BR1` SameValue
          CFI `B.BR2` SameValue
          CFI `B.BR3` SameValue
          CFI `B.BR4` SameValue
          CFI `B.BR5` SameValue
          CFI `B.BR6` SameValue
          CFI `B.BR7` SameValue
          CFI `VB.BR8` SameValue
          CFI `VB.BR9` SameValue
          CFI `VB.BR10` SameValue
          CFI `VB.BR11` SameValue
          CFI `VB.BR12` SameValue
          CFI `VB.BR13` SameValue
          CFI `VB.BR14` SameValue
          CFI `VB.BR15` SameValue
          CFI VB SameValue
          CFI B SameValue
          CFI A SameValue
          CFI PSW SameValue
          CFI DPL0 SameValue
          CFI DPH0 SameValue
          CFI R0 SameValue
          CFI R1 SameValue
          CFI R2 SameValue
          CFI R3 SameValue
          CFI R4 SameValue
          CFI R5 SameValue
          CFI R6 SameValue
          CFI R7 SameValue
          CFI V0 SameValue
          CFI V1 SameValue
          CFI V2 SameValue
          CFI V3 SameValue
          CFI V4 SameValue
          CFI V5 SameValue
          CFI V6 SameValue
          CFI V7 SameValue
          CFI PSPH Undefined
          CFI PSPL Undefined
          CFI XSPH Undefined
          CFI XSPL Undefined
          CFI ?RET Concat
          CFI ?BRET_EXT SameValue
          CFI ?RET_HIGH Frame(CFA_SP, 2)
          CFI ?RET_LOW Frame(CFA_SP, 1)
          CFI EndCommon cfiCommon1
        
AF_DataRequest      SYMBOL "AF_DataRequest"
`??AF_DataRequest::?relay` SYMBOL "?relay", AF_DataRequest
afFindEndPointDesc  SYMBOL "afFindEndPointDesc"
`??afFindEndPointDesc::?relay` SYMBOL "?relay", afFindEndPointDesc
bdb_ZclIdentifyCmdInd SYMBOL "bdb_ZclIdentifyCmdInd"
`??bdb_ZclIdentifyCmdInd::?relay` SYMBOL "?relay", bdb_ZclIdentifyCmdInd
bdb_getZCLFrameCounter SYMBOL "bdb_getZCLFrameCounter"
`??bdb_getZCLFrameCounter::?relay` SYMBOL "?relay", bdb_getZCLFrameCounter
gp_GetHeadNotificationMsg SYMBOL "gp_GetHeadNotificationMsg"
`??gp_GetHeadNotificationMsg::?relay` SYMBOL "?relay", gp_GetHeadNotificationMsg
gp_GetPHeadNotification SYMBOL "gp_GetPHeadNotification"
`??gp_GetPHeadNotification::?relay` SYMBOL "?relay", gp_GetPHeadNotification
gp_NotificationMsgClean SYMBOL "gp_NotificationMsgClean"
`??gp_NotificationMsgClean::?relay` SYMBOL "?relay", gp_NotificationMsgClean
osal_buffer_uint32  SYMBOL "osal_buffer_uint32"
`??osal_buffer_uint32::?relay` SYMBOL "?relay", osal_buffer_uint32
osal_mem_alloc      SYMBOL "osal_mem_alloc"
`??osal_mem_alloc::?relay` SYMBOL "?relay", osal_mem_alloc
osal_mem_free       SYMBOL "osal_mem_free"
`??osal_mem_free::?relay` SYMBOL "?relay", osal_mem_free
osal_memcpy         SYMBOL "osal_memcpy"
`??osal_memcpy::?relay` SYMBOL "?relay", osal_memcpy
osal_memset         SYMBOL "osal_memset"
`??osal_memset::?relay` SYMBOL "?relay", osal_memset
osal_msg_allocate   SYMBOL "osal_msg_allocate"
`??osal_msg_allocate::?relay` SYMBOL "?relay", osal_msg_allocate
osal_msg_deallocate SYMBOL "osal_msg_deallocate"
`??osal_msg_deallocate::?relay` SYMBOL "?relay", osal_msg_deallocate
osal_msg_receive    SYMBOL "osal_msg_receive"
`??osal_msg_receive::?relay` SYMBOL "?relay", osal_msg_receive
osal_msg_send       SYMBOL "osal_msg_send"
`??osal_msg_send::?relay` SYMBOL "?relay", osal_msg_send
osal_revmemcpy      SYMBOL "osal_revmemcpy"
`??osal_revmemcpy::?relay` SYMBOL "?relay", osal_revmemcpy
osal_start_timerEx  SYMBOL "osal_start_timerEx"
`??osal_start_timerEx::?relay` SYMBOL "?relay", osal_start_timerEx
zclFindAttrRec      SYMBOL "zclFindAttrRec"
`??zclFindAttrRec::?relay` SYMBOL "?relay", zclFindAttrRec
zclFindAttrRecsList SYMBOL "zclFindAttrRecsList"
`??zclFindAttrRecsList::?relay` SYMBOL "?relay", zclFindAttrRecsList
zclFindCmdRec       SYMBOL "zclFindCmdRec"
`??zclFindCmdRec::?relay` SYMBOL "?relay", zclFindCmdRec
zclGetAttrDataLength SYMBOL "zclGetAttrDataLength"
`??zclGetAttrDataLength::?relay` SYMBOL "?relay", zclGetAttrDataLength
zclGetDataTypeLength SYMBOL "zclGetDataTypeLength"
`??zclGetDataTypeLength::?relay` SYMBOL "?relay", zclGetDataTypeLength
zclParseHdr         SYMBOL "zclParseHdr"
`??zclParseHdr::?relay` SYMBOL "?relay", zclParseHdr
zclParseInDiscAttrsCmd SYMBOL "zclParseInDiscAttrsCmd"
`??zclParseInDiscAttrsCmd::?relay` SYMBOL "?relay", zclParseInDiscAttrsCmd
zclParseInDiscCmdsCmd SYMBOL "zclParseInDiscCmdsCmd"
`??zclParseInDiscCmdsCmd::?relay` SYMBOL "?relay", zclParseInDiscCmdsCmd
zclParseInReadCmd   SYMBOL "zclParseInReadCmd"
`??zclParseInReadCmd::?relay` SYMBOL "?relay", zclParseInReadCmd
zclParseInReportCmd SYMBOL "zclParseInReportCmd"
`??zclParseInReportCmd::?relay` SYMBOL "?relay", zclParseInReportCmd
zclParseInWriteCmd  SYMBOL "zclParseInWriteCmd"
`??zclParseInWriteCmd::?relay` SYMBOL "?relay", zclParseInWriteCmd
zclReadAttrData     SYMBOL "zclReadAttrData"
`??zclReadAttrData::?relay` SYMBOL "?relay", zclReadAttrData
zclSerializeData    SYMBOL "zclSerializeData"
`??zclSerializeData::?relay` SYMBOL "?relay", zclSerializeData
zcl_HandleExternal  SYMBOL "zcl_HandleExternal"
`??zcl_HandleExternal::?relay` SYMBOL "?relay", zcl_HandleExternal
zcl_Init            SYMBOL "zcl_Init"
`??zcl_Init::?relay` SYMBOL "?relay", zcl_Init
zcl_ProcessMessageMSG SYMBOL "zcl_ProcessMessageMSG"
`??zcl_ProcessMessageMSG::?relay` SYMBOL "?relay", zcl_ProcessMessageMSG
zcl_ReadAttrData    SYMBOL "zcl_ReadAttrData"
`??zcl_ReadAttrData::?relay` SYMBOL "?relay", zcl_ReadAttrData
zcl_SendCommand     SYMBOL "zcl_SendCommand"
`??zcl_SendCommand::?relay` SYMBOL "?relay", zcl_SendCommand
zcl_SendDefaultRspCmd SYMBOL "zcl_SendDefaultRspCmd"
`??zcl_SendDefaultRspCmd::?relay` SYMBOL "?relay", zcl_SendDefaultRspCmd
zcl_SendDiscoverAttrsCmd SYMBOL "zcl_SendDiscoverAttrsCmd"
`??zcl_SendDiscoverAttrsCmd::?relay` SYMBOL "?relay", zcl_SendDiscoverAttrsCmd
zcl_SendDiscoverAttrsExt SYMBOL "zcl_SendDiscoverAttrsExt"
`??zcl_SendDiscoverAttrsExt::?relay` SYMBOL "?relay", zcl_SendDiscoverAttrsExt
zcl_SendDiscoverAttrsExtRsp SYMBOL "zcl_SendDiscoverAttrsExtRsp"
`??zcl_SendDiscoverAttrsExtRsp::?relay` SYMBOL "?relay", zcl_SendDiscoverAttrsExtRsp
zcl_SendDiscoverAttrsRspCmd SYMBOL "zcl_SendDiscoverAttrsRspCmd"
`??zcl_SendDiscoverAttrsRspCmd::?relay` SYMBOL "?relay", zcl_SendDiscoverAttrsRspCmd
zcl_SendDiscoverCmdsCmd SYMBOL "zcl_SendDiscoverCmdsCmd"
`??zcl_SendDiscoverCmdsCmd::?relay` SYMBOL "?relay", zcl_SendDiscoverCmdsCmd
zcl_SendDiscoverCmdsRspCmd SYMBOL "zcl_SendDiscoverCmdsRspCmd"
`??zcl_SendDiscoverCmdsRspCmd::?relay` SYMBOL "?relay", zcl_SendDiscoverCmdsRspCmd
zcl_SendRead        SYMBOL "zcl_SendRead"
`??zcl_SendRead::?relay` SYMBOL "?relay", zcl_SendRead
zcl_SendReadRsp     SYMBOL "zcl_SendReadRsp"
`??zcl_SendReadRsp::?relay` SYMBOL "?relay", zcl_SendReadRsp
zcl_SendWriteRequest SYMBOL "zcl_SendWriteRequest"
`??zcl_SendWriteRequest::?relay` SYMBOL "?relay", zcl_SendWriteRequest
zcl_SendWriteRsp    SYMBOL "zcl_SendWriteRsp"
`??zcl_SendWriteRsp::?relay` SYMBOL "?relay", zcl_SendWriteRsp
zcl_event_loop      SYMBOL "zcl_event_loop"
`??zcl_event_loop::?relay` SYMBOL "?relay", zcl_event_loop
zcl_getParsedTransSeqNum SYMBOL "zcl_getParsedTransSeqNum"
`??zcl_getParsedTransSeqNum::?relay` SYMBOL "?relay", zcl_getParsedTransSeqNum
zcl_getRawAFMsg     SYMBOL "zcl_getRawAFMsg"
`??zcl_getRawAFMsg::?relay` SYMBOL "?relay", zcl_getRawAFMsg
zcl_registerAttrList SYMBOL "zcl_registerAttrList"
`??zcl_registerAttrList::?relay` SYMBOL "?relay", zcl_registerAttrList
zcl_registerClusterOptionList SYMBOL "zcl_registerClusterOptionList"
`??zcl_registerClusterOptionList::?relay` SYMBOL "?relay", zcl_registerClusterOptionList
zcl_registerCmdList SYMBOL "zcl_registerCmdList"
`??zcl_registerCmdList::?relay` SYMBOL "?relay", zcl_registerCmdList
zcl_registerForMsg  SYMBOL "zcl_registerForMsg"
`??zcl_registerForMsg::?relay` SYMBOL "?relay", zcl_registerForMsg
zcl_registerForMsgExt SYMBOL "zcl_registerForMsgExt"
`??zcl_registerForMsgExt::?relay` SYMBOL "?relay", zcl_registerForMsgExt
zcl_registerPlugin  SYMBOL "zcl_registerPlugin"
`??zcl_registerPlugin::?relay` SYMBOL "?relay", zcl_registerPlugin
zcl_registerReadWriteCB SYMBOL "zcl_registerReadWriteCB"
`??zcl_registerReadWriteCB::?relay` SYMBOL "?relay", zcl_registerReadWriteCB
zcl_registerValidateAttrData SYMBOL "zcl_registerValidateAttrData"
`??zcl_registerValidateAttrData::?relay` SYMBOL "?relay", zcl_registerValidateAttrData

        EXTERN `??AF_DataRequest::?relay`
        FUNCTION `??AF_DataRequest::?relay`,00H
        EXTERN `??afFindEndPointDesc::?relay`
        FUNCTION `??afFindEndPointDesc::?relay`,00H
        EXTERN `??bdb_ZclIdentifyCmdInd::?relay`
        FUNCTION `??bdb_ZclIdentifyCmdInd::?relay`,00H
        EXTERN `??bdb_getZCLFrameCounter::?relay`
        FUNCTION `??bdb_getZCLFrameCounter::?relay`,00H
        EXTERN `??gp_GetHeadNotificationMsg::?relay`
        FUNCTION `??gp_GetHeadNotificationMsg::?relay`,00H
        EXTERN `??gp_GetPHeadNotification::?relay`
        FUNCTION `??gp_GetPHeadNotification::?relay`,00H
        EXTERN `??gp_NotificationMsgClean::?relay`
        FUNCTION `??gp_NotificationMsgClean::?relay`,00H
        EXTERN `??osal_buffer_uint32::?relay`
        FUNCTION `??osal_buffer_uint32::?relay`,00H
        EXTERN `??osal_mem_alloc::?relay`
        FUNCTION `??osal_mem_alloc::?relay`,00H
        EXTERN `??osal_mem_free::?relay`
        FUNCTION `??osal_mem_free::?relay`,00H
        EXTERN `??osal_memcpy::?relay`
        FUNCTION `??osal_memcpy::?relay`,00H
        EXTERN `??osal_memset::?relay`
        FUNCTION `??osal_memset::?relay`,00H
        EXTERN `??osal_msg_allocate::?relay`
        FUNCTION `??osal_msg_allocate::?relay`,00H
        EXTERN `??osal_msg_deallocate::?relay`
        FUNCTION `??osal_msg_deallocate::?relay`,00H
        EXTERN `??osal_msg_receive::?relay`
        FUNCTION `??osal_msg_receive::?relay`,00H
        EXTERN `??osal_msg_send::?relay`
        FUNCTION `??osal_msg_send::?relay`,00H
        EXTERN `??osal_revmemcpy::?relay`
        FUNCTION `??osal_revmemcpy::?relay`,00H
        EXTERN `??osal_start_timerEx::?relay`
        FUNCTION `??osal_start_timerEx::?relay`,00H
        EXTERN AF_DataRequest
        FUNCTION AF_DataRequest,0202H
        ARGFRAME ISTACK, 0, STACK
        ARGFRAME PSTACK, 0, STACK
        ARGFRAME XSTACK, 36, STACK
        ARGFRAME IOVERLAY, 0, STATIC
        ARGFRAME DOVERLAY, 0, STATIC
        EXTERN _NIB
        EXTERN afFindEndPointDesc
        FUNCTION afFindEndPointDesc,0202H
        ARGFRAME ISTACK, 0, STACK
        ARGFRAME PSTACK, 0, STACK
        ARGFRAME XSTACK, 37, STACK
        ARGFRAME IOVERLAY, 0, STATIC
        ARGFRAME DOVERLAY, 0, STATIC
        EXTERN bdb_ZclIdentifyCmdInd
        FUNCTION bdb_ZclIdentifyCmdInd,0202H
        ARGFRAME ISTACK, 0, STACK
        ARGFRAME PSTACK, 0, STACK
        ARGFRAME XSTACK, 32, STACK
        ARGFRAME IOVERLAY, 0, STATIC
        ARGFRAME DOVERLAY, 0, STATIC
        EXTERN bdb_getZCLFrameCounter
        FUNCTION bdb_getZCLFrameCounter,0202H
        ARGFRAME ISTACK, 0, STACK
        ARGFRAME PSTACK, 0, STACK
        ARGFRAME XSTACK, 18, STACK
        ARGFRAME IOVERLAY, 0, STATIC
        ARGFRAME DOVERLAY, 0, STATIC
        EXTERN gp_GetHeadNotificationMsg
        FUNCTION gp_GetHeadNotificationMsg,0202H
        ARGFRAME ISTACK, 0, STACK
        ARGFRAME PSTACK, 0, STACK
        ARGFRAME XSTACK, 18, STACK
        ARGFRAME IOVERLAY, 0, STATIC
        ARGFRAME DOVERLAY, 0, STATIC
        EXTERN gp_GetPHeadNotification
        FUNCTION gp_GetPHeadNotification,0202H
        ARGFRAME ISTACK, 0, STACK
        ARGFRAME PSTACK, 0, STACK
        ARGFRAME XSTACK, 18, STACK
        ARGFRAME IOVERLAY, 0, STATIC
        ARGFRAME DOVERLAY, 0, STATIC
        EXTERN gp_NotificationMsgClean
        FUNCTION gp_NotificationMsgClean,0202H
        ARGFRAME ISTACK, 0, STACK
        ARGFRAME PSTACK, 0, STACK
        ARGFRAME XSTACK, 18, STACK
        ARGFRAME IOVERLAY, 0, STATIC
        ARGFRAME DOVERLAY, 0, STATIC
        EXTERN osal_buffer_uint32
        FUNCTION osal_buffer_uint32,0202H
        ARGFRAME ISTACK, 0, STACK
        ARGFRAME PSTACK, 0, STACK
        ARGFRAME XSTACK, 19, STACK
        ARGFRAME IOVERLAY, 0, STATIC
        ARGFRAME DOVERLAY, 0, STATIC
        EXTERN osal_mem_alloc
        FUNCTION osal_mem_alloc,0202H
        ARGFRAME ISTACK, 0, STACK
        ARGFRAME PSTACK, 0, STACK
        ARGFRAME XSTACK, 36, STACK
        ARGFRAME IOVERLAY, 0, STATIC
        ARGFRAME DOVERLAY, 0, STATIC
        EXTERN osal_mem_free
        FUNCTION osal_mem_free,0202H
        ARGFRAME ISTACK, 0, STACK
        ARGFRAME PSTACK, 0, STACK
        ARGFRAME XSTACK, 37, STACK
        ARGFRAME IOVERLAY, 0, STATIC
        ARGFRAME DOVERLAY, 0, STATIC
        EXTERN osal_memcpy
        FUNCTION osal_memcpy,0202H
        ARGFRAME ISTACK, 0, STACK
        ARGFRAME PSTACK, 0, STACK
        ARGFRAME XSTACK, 35, STACK
        ARGFRAME IOVERLAY, 0, STATIC
        ARGFRAME DOVERLAY, 0, STATIC
        EXTERN osal_memset
        FUNCTION osal_memset,0202H
        ARGFRAME ISTACK, 0, STACK
        ARGFRAME PSTACK, 0, STACK
        ARGFRAME XSTACK, 27, STACK
        ARGFRAME IOVERLAY, 0, STATIC
        ARGFRAME DOVERLAY, 0, STATIC
        EXTERN osal_msg_allocate
        FUNCTION osal_msg_allocate,0202H
        ARGFRAME ISTACK, 0, STACK
        ARGFRAME PSTACK, 0, STACK
        ARGFRAME XSTACK, 12, STACK
        ARGFRAME IOVERLAY, 0, STATIC
        ARGFRAME DOVERLAY, 0, STATIC
        EXTERN osal_msg_deallocate
        FUNCTION osal_msg_deallocate,0202H
        ARGFRAME ISTACK, 0, STACK
        ARGFRAME PSTACK, 0, STACK
        ARGFRAME XSTACK, 18, STACK
        ARGFRAME IOVERLAY, 0, STATIC
        ARGFRAME DOVERLAY, 0, STATIC
        EXTERN osal_msg_receive
        FUNCTION osal_msg_receive,0202H
        ARGFRAME ISTACK, 0, STACK
        ARGFRAME PSTACK, 0, STACK
        ARGFRAME XSTACK, 18, STACK
        ARGFRAME IOVERLAY, 0, STATIC
        ARGFRAME DOVERLAY, 0, STATIC
        EXTERN osal_msg_send
        FUNCTION osal_msg_send,0202H
        ARGFRAME ISTACK, 0, STACK
        ARGFRAME PSTACK, 0, STACK
        ARGFRAME XSTACK, 18, STACK
        ARGFRAME IOVERLAY, 0, STATIC
        ARGFRAME DOVERLAY, 0, STATIC
        EXTERN osal_revmemcpy
        FUNCTION osal_revmemcpy,0202H
        ARGFRAME ISTACK, 0, STACK
        ARGFRAME PSTACK, 0, STACK
        ARGFRAME XSTACK, 21, STACK
        ARGFRAME IOVERLAY, 0, STATIC
        ARGFRAME DOVERLAY, 0, STATIC
        EXTERN osal_start_timerEx
        FUNCTION osal_start_timerEx,0202H
        ARGFRAME ISTACK, 0, STACK
        ARGFRAME PSTACK, 0, STACK
        ARGFRAME XSTACK, 22, STACK
        ARGFRAME IOVERLAY, 0, STATIC
        ARGFRAME DOVERLAY, 0, STATIC

// E:\BaiduNetdiskDownload\´đ°¸\ĘµŃéČý ZigBee´úÂë\Z-Stack 3.0.1\Z-Stack 3.0.1\Components\stack\zcl\zcl.c
//    1 /**************************************************************************************************
//    2   Filename:       zcl.c
//    3   Revised:        $Date: 2015-09-09 11:51:49 -0700 (Wed, 09 Sep 2015) $
//    4   Revision:       $Revision: 44489 $
//    5 
//    6   Description:    This file contains the Zigbee Cluster Library Foundation functions.
//    7 
//    8 
//    9   Copyright 2006-2015 Texas Instruments Incorporated. All rights reserved.
//   10 
//   11   IMPORTANT: Your use of this Software is limited to those specific rights
//   12   granted under the terms of a software license agreement between the user
//   13   who downloaded the software, his/her employer (which must be your employer)
//   14   and Texas Instruments Incorporated (the "License").  You may not use this
//   15   Software unless you agree to abide by the terms of the License. The License
//   16   limits your use, and you acknowledge, that the Software may not be modified,
//   17   copied or distributed unless embedded on a Texas Instruments microcontroller
//   18   or used solely and exclusively in conjunction with a Texas Instruments radio
//   19   frequency transceiver, which is integrated into your product.  Other than for
//   20   the foregoing purpose, you may not use, reproduce, copy, prepare derivative
//   21   works of, modify, distribute, perform, display or sell this Software and/or
//   22   its documentation for any purpose.
//   23 
//   24   YOU FURTHER ACKNOWLEDGE AND AGREE THAT THE SOFTWARE AND DOCUMENTATION ARE
//   25   PROVIDED "AS IS" WITHOUT WARRANTY OF ANY KIND, EITHER EXPRESS OR IMPLIED,
//   26   INCLUDING WITHOUT LIMITATION, ANY WARRANTY OF MERCHANTABILITY, TITLE,
//   27   NON-INFRINGEMENT AND FITNESS FOR A PARTICULAR PURPOSE. IN NO EVENT SHALL
//   28   TEXAS INSTRUMENTS OR ITS LICENSORS BE LIABLE OR OBLIGATED UNDER CONTRACT,
//   29   NEGLIGENCE, STRICT LIABILITY, CONTRIBUTION, BREACH OF WARRANTY, OR OTHER
//   30   LEGAL EQUITABLE THEORY ANY DIRECT OR INDIRECT DAMAGES OR EXPENSES
//   31   INCLUDING BUT NOT LIMITED TO ANY INCIDENTAL, SPECIAL, INDIRECT, PUNITIVE
//   32   OR CONSEQUENTIAL DAMAGES, LOST PROFITS OR LOST DATA, COST OF PROCUREMENT
//   33   OF SUBSTITUTE GOODS, TECHNOLOGY, SERVICES, OR ANY CLAIMS BY THIRD PARTIES
//   34   (INCLUDING BUT NOT LIMITED TO ANY DEFENSE THEREOF), OR OTHER SIMILAR COSTS.
//   35 
//   36   Should you have any questions regarding your right to use this Software,
//   37   contact Texas Instruments Incorporated at www.TI.com.
//   38 **************************************************************************************************/
//   39 
//   40 /*********************************************************************
//   41  * INCLUDES
//   42  */
//   43 #include "ZComDef.h"
//   44 #include "AF.h"
//   45 
//   46 #include "zcl.h"
//   47 #include "zcl_general.h"
//   48 
//   49 #if defined ( INTER_PAN )
//   50   #include "stub_aps.h"
//   51 #endif
//   52    
//   53 #ifdef BDB_REPORTING
//   54   #include "bdb_Reporting.h"
//   55 #endif
//   56 #include "bdb_interface.h"
//   57 
//   58 #include "zcl_green_power.h"
//   59 
//   60    
//   61 /*********************************************************************
//   62  * MACROS
//   63  */
//   64 /*** Frame Control ***/
//   65 #define zcl_FCType( a )               ( (a) & ZCL_FRAME_CONTROL_TYPE )
//   66 #define zcl_FCManuSpecific( a )       ( (a) & ZCL_FRAME_CONTROL_MANU_SPECIFIC )
//   67 #define zcl_FCDirection( a )          ( (a) & ZCL_FRAME_CONTROL_DIRECTION )
//   68 #define zcl_FCDisableDefaultRsp( a )  ( (a) & ZCL_FRAME_CONTROL_DISABLE_DEFAULT_RSP )
//   69 
//   70 /*** Attribute Access Control ***/
//   71 #define zcl_AccessCtrlRead( a )       ( (a) & ACCESS_CONTROL_READ )
//   72 #define zcl_AccessCtrlWrite( a )      ( (a) & ACCESS_CONTROL_WRITE )
//   73 #define zcl_AccessCtrlCmd( a )        ( (a) & ACCESS_CONTROL_CMD )
//   74 #define zcl_AccessCtrlAuthRead( a )   ( (a) & ACCESS_CONTROL_AUTH_READ )
//   75 #define zcl_AccessCtrlAuthWrite( a )  ( (a) & ACCESS_CONTROL_AUTH_WRITE )
//   76 #define zcl_AccessClient( a )         ( (a) & ACCESS_CLIENT )
//   77 
//   78 #define zclParseCmd( a, b )           zclCmdTable[(a)].pfnParseInProfile( (b) )
//   79 #define zclProcessCmd( a, b )         zclCmdTable[(a)].pfnProcessInProfile( (b) )
//   80 
//   81 #define zcl_DefaultRspCmd( zclHdr )   ( zcl_ProfileCmd( (zclHdr).fc.type )     && \ 
//   82                                         (zclHdr).fc.manuSpecific == 0          && \ 
//   83                                         (zclHdr).commandID == ZCL_CMD_DEFAULT_RSP )
//   84 
//   85 // Commands that have corresponding responses (ZCL_CMD_WRITE_NO_RSP, does not have response, but must not send default response)
//   86 #define CMD_HAS_RSP( cmd )            ( (cmd) == ZCL_CMD_READ                   || \ 
//   87                                         (cmd) == ZCL_CMD_WRITE                  || \ 
//   88                                         (cmd) == ZCL_CMD_WRITE_UNDIVIDED        || \ 
//   89                                         (cmd) == ZCL_CMD_WRITE_NO_RSP           || \ 
//   90                                         (cmd) == ZCL_CMD_CONFIG_REPORT          || \ 
//   91                                         (cmd) == ZCL_CMD_READ_REPORT_CFG        || \ 
//   92                                         (cmd) == ZCL_CMD_DISCOVER_ATTRS         || \ 
//   93                                         (cmd) == ZCL_CMD_DISCOVER_CMDS_RECEIVED || \ 
//   94                                         (cmd) == ZCL_CMD_DISCOVER_CMDS_GEN      || \ 
//   95                                         (cmd) == ZCL_CMD_DISCOVER_ATTRS_EXT     || \ 
//   96                                         (cmd) == ZCL_CMD_DEFAULT_RSP ) // exception
//   97 #define  ZCL_VALID_MIN_HEADER_LEN  3
//   98 
//   99 /*********************************************************************
//  100  * CONSTANTS
//  101  */
//  102 
//  103 /*********************************************************************
//  104  * TYPEDEFS
//  105  */
//  106 typedef struct zclLibPlugin
//  107 {
//  108   struct zclLibPlugin *next;
//  109   uint16              startClusterID;    // starting cluster ID
//  110   uint16              endClusterID;      // ending cluster ID
//  111   zclInHdlr_t         pfnIncomingHdlr;    // function to handle incoming message
//  112 } zclLibPlugin_t;
//  113 
//  114 // Command record list
//  115 typedef struct zclCmdRecsList
//  116 {
//  117   struct zclCmdRecsList *pNext;
//  118   uint8                 endpoint;
//  119   uint8                 numCommands;
//  120   CONST zclCommandRec_t *pCmdRecs;
//  121 } zclCmdRecsList_t;
//  122 
//  123 
//  124 // Cluster option list item
//  125 typedef struct zclClusterOptionList
//  126 {
//  127   struct zclClusterOptionList *next;
//  128   uint8                       endpoint;   // Used to link it into the endpoint descriptor
//  129   uint8                       numOptions; // Number of the following records
//  130   zclOptionRec_t              *options;   // option records
//  131 } zclClusterOptionList;
//  132 
//  133 typedef void *(*zclParseInProfileCmd_t)( zclParseCmd_t *pCmd );
//  134 typedef uint8 (*zclProcessInProfileCmd_t)( zclIncoming_t *pInMsg );
//  135 
//  136 typedef struct
//  137 {
//  138   zclParseInProfileCmd_t   pfnParseInProfile;
//  139   zclProcessInProfileCmd_t pfnProcessInProfile;
//  140 } zclCmdItems_t;
//  141 
//  142 
//  143 // List record for external handler for unhandled ZCL Foundation commands/rsps
//  144 typedef struct zclExternalFoundationHandlerList
//  145 {
//  146     struct zclExternalFoundationHandlerList *next;
//  147     uint8 zcl_ExternalTaskID;
//  148     uint8 zcl_ExternalEndPoint;
//  149 } zclExternalFoundationHandlerList;
//  150 
//  151 
//  152 /*********************************************************************
//  153  * GLOBAL VARIABLES
//  154  */
//  155 
//  156 #if !defined ( ZCL_STANDALONE )

        RSEG XDATA_Z:XDATA:NOROOT(0)
        DATA8
//  157   uint8 zcl_TaskID;
zcl_TaskID:
        DS 1
        REQUIRE __INIT_XDATA_Z
//  158 #endif
//  159 
//  160 // The Application should register its attribute data validation function

        RSEG XDATA_Z:XDATA:NOROOT(0)
        DATA16
//  161 zclValidateAttrData_t zcl_ValidateAttrDataCB = (zclValidateAttrData_t)NULL;
zcl_ValidateAttrDataCB:
        DS 2
        REQUIRE __INIT_XDATA_Z
//  162 
//  163 // ZCL Sequence number
//  164 //uint8 zcl_SeqNum = 0x00;  //Not longer used, refer to bdb_getZCLFrameCounter() in bdb_interface.h

        RSEG XDATA_Z:XDATA:NOROOT(0)
        DATA8
//  165 uint8 zcl_InSeqNum = 0x00;
zcl_InSeqNum:
        DS 1
        REQUIRE __INIT_XDATA_Z
//  166 

        RSEG XDATA_Z:XDATA:NOROOT(0)
        DATA8
//  167 uint8 zcl_TransID = 0;  // This is the unique message ID (counter)
zcl_TransID:
        DS 1
        REQUIRE __INIT_XDATA_Z
//  168 

        RSEG XDATA_Z:XDATA:NOROOT(0)
        DATA8
//  169 static uint8 savedZCLTransSeqNum = 0;
savedZCLTransSeqNum:
        DS 1
        REQUIRE __INIT_XDATA_Z
//  170 
//  171 /*********************************************************************
//  172  * EXTERNAL VARIABLES
//  173  */
//  174 
//  175 /*********************************************************************
//  176  * EXTERNAL FUNCTIONS
//  177  */
//  178 
//  179 /*********************************************************************
//  180  * LOCAL VARIABLES
//  181  */

        RSEG XDATA_Z:XDATA:NOROOT(0)
        DATA16
//  182 static zclLibPlugin_t *plugins = (zclLibPlugin_t *)NULL;
plugins:
        DS 2
        REQUIRE __INIT_XDATA_Z
//  183 
//  184 #if defined ( ZCL_DISCOVER )

        RSEG XDATA_Z:XDATA:NOROOT(0)
        DATA16
//  185   static zclCmdRecsList_t *gpCmdList = (zclCmdRecsList_t *)NULL;
gpCmdList:
        DS 2
        REQUIRE __INIT_XDATA_Z
//  186 #endif
//  187 

        RSEG XDATA_Z:XDATA:NOROOT(0)
        DATA16
//  188 static zclAttrRecsList *attrList = (zclAttrRecsList *)NULL;
attrList:
        DS 2
        REQUIRE __INIT_XDATA_Z

        RSEG XDATA_Z:XDATA:NOROOT(0)
        DATA16
//  189 static zclClusterOptionList *clusterOptionList = (zclClusterOptionList *)NULL;
clusterOptionList:
        DS 2
        REQUIRE __INIT_XDATA_Z
//  190 

        RSEG XDATA_Z:XDATA:NOROOT(0)
        DATA16
//  191 static afIncomingMSGPacket_t *rawAFMsg = (afIncomingMSGPacket_t *)NULL;
rawAFMsg:
        DS 2
        REQUIRE __INIT_XDATA_Z
//  192 
//  193 #if !defined ( ZCL_STANDALONE )

        RSEG XDATA_Z:XDATA:NOROOT(0)
        DATA16
//  194 static zclExternalFoundationHandlerList *externalEndPointHandlerList = (zclExternalFoundationHandlerList *)NULL;
externalEndPointHandlerList:
        DS 2
        REQUIRE __INIT_XDATA_Z
//  195 #endif
//  196 
//  197 /*********************************************************************
//  198  * LOCAL FUNCTIONS
//  199  */
//  200 static uint8 *zclBuildHdr( zclFrameHdr_t *hdr, uint8 *pData );
//  201 static uint8 zclCalcHdrSize( zclFrameHdr_t *hdr );
//  202 static zclLibPlugin_t *zclFindPlugin( uint16 clusterID, uint16 profileID );
//  203 
//  204 #if !defined ( ZCL_STANDALONE )
//  205 static uint8 zcl_addExternalFoundationHandler( uint8 taskId, uint8 endPointId );
//  206 static uint8 zcl_getExternalFoundationHandler( afIncomingMSGPacket_t *pInMsg );
//  207 #endif // !defined ( ZCL_STANDALONE )
//  208 
//  209 #if defined ( ZCL_DISCOVER )
//  210   static zclCmdRecsList_t *zclFindCmdRecsList( uint8 endpoint );
//  211 #endif
//  212 
//  213 zclAttrRecsList *zclFindAttrRecsList( uint8 endpoint );
//  214 static zclOptionRec_t *zclFindClusterOption( uint8 endpoint, uint16 clusterID );
//  215 static uint8 zclGetClusterOption( uint8 endpoint, uint16 clusterID );
//  216 static void zclSetSecurityOption( uint8 endpoint, uint16 clusterID, uint8 enable );
//  217 
//  218 static uint8 zcl_DeviceOperational( uint8 srcEP, uint16 clusterID, uint8 frameType, uint8 cmd, uint16 profileID );
//  219 
//  220 #if defined ( ZCL_READ ) || defined ( ZCL_WRITE )
//  221 static zclReadWriteCB_t zclGetReadWriteCB( uint8 endpoint );
//  222 static zclAuthorizeCB_t zclGetAuthorizeCB( uint8 endpoint );
//  223 #endif // ZCL_READ || ZCL_WRITE
//  224 
//  225 #ifdef ZCL_READ
//  226 ZStatus_t zclReadAttrData( uint8 *pAttrData, zclAttrRec_t *pAttr, uint16 *pDataLen );
//  227 static uint16 zclGetAttrDataLengthUsingCB( uint8 endpoint, uint16 clusterID, uint16 attrId );
//  228 static ZStatus_t zclReadAttrDataUsingCB( uint8 endpoint, uint16 clusterId, uint16 attrId,
//  229                                          uint8 *pAttrData, uint16 *pDataLen );
//  230 static ZStatus_t zclAuthorizeRead( uint8 endpoint, afAddrType_t *srcAddr, zclAttrRec_t *pAttr );
//  231 static void *zclParseInReadRspCmd( zclParseCmd_t *pCmd );
//  232 static uint8 zclProcessInReadCmd( zclIncoming_t *pInMsg );
//  233 #endif // ZCL_READ
//  234 
//  235 #ifdef ZCL_WRITE
//  236 static ZStatus_t zclWriteAttrData( uint8 endpoint, afAddrType_t *srcAddr,
//  237                                    zclAttrRec_t *pAttr, zclWriteRec_t *pWriteRec );
//  238 static ZStatus_t zclWriteAttrDataUsingCB( uint8 endpoint, afAddrType_t *srcAddr,
//  239                                           zclAttrRec_t *pAttr, uint8 *pAttrData );
//  240 static ZStatus_t zclAuthorizeWrite( uint8 endpoint, afAddrType_t *srcAddr, zclAttrRec_t *pAttr );
//  241 static void *zclParseInWriteRspCmd( zclParseCmd_t *pCmd );
//  242 static uint8 zclProcessInWriteCmd( zclIncoming_t *pInMsg );
//  243 static uint8 zclProcessInWriteUndividedCmd( zclIncoming_t *pInMsg );
//  244 #endif // ZCL_WRITE
//  245 
//  246 #ifdef ZCL_REPORT_CONFIGURING_DEVICE
//  247 static void *zclParseInConfigReportRspCmd( zclParseCmd_t *pCmd );
//  248 static void *zclParseInReadReportCfgRspCmd( zclParseCmd_t *pCmd );
//  249 #endif
//  250 
//  251 static void *zclParseInDefaultRspCmd( zclParseCmd_t *pCmd );
//  252 
//  253 #ifdef ZCL_DISCOVER
//  254 static uint8 zclFindNextCmdRec( uint8 endpoint, uint16 clusterID, uint8 commandID, uint8 direction, uint8 *pCmdID, zclCommandRec_t *pCmd );
//  255 static uint8 zclFindNextAttrRec( uint8 endpoint, uint16 clusterID, uint8 direction, uint16 *attrId, zclAttrRec_t *pAttr );
//  256 static void *zclParseInDiscCmdsRspCmd( zclParseCmd_t *pCmd );
//  257 static void *zclParseInDiscAttrsRspCmd( zclParseCmd_t *pCmd );
//  258 static void *zclParseInDiscAttrsExtRspCmd( zclParseCmd_t *pCmd );
//  259 static uint8 zclProcessInDiscCmd( zclIncoming_t *pInMsg );
//  260 static uint8 zclProcessInDiscAttrs( zclIncoming_t *pInMsg );
//  261 static void zclProcessInDiscAttrsCmd( zclIncoming_t *pInMsg, zclDiscoverAttrsCmd_t *pDiscoverCmd, uint8 attrLenBuf );
//  262 static void zclProcessInDiscAttrsExtCmd( zclIncoming_t *pInMsg, zclDiscoverAttrsCmd_t *pDiscoverCmd, uint8 attrLenBuf );
//  263 #endif // ZCL_DISCOVER
//  264 
//  265 /*********************************************************************
//  266  * Parse Profile Command Function Table
//  267  */
//  268 

        RSEG CODE_C:CODE:REORDER:NOROOT(0)
        DATA8
//  269 static CONST zclCmdItems_t zclCmdTable[] =
zclCmdTable:
        DATA16
        DW `??zclParseInReadCmd::?relay`
        DW `??zclProcessInReadCmd::?relay`
        DW `??zclParseInReadRspCmd::?relay`
        DW `??zcl_HandleExternal::?relay`
        DW `??zclParseInWriteCmd::?relay`
        DW `??zclProcessInWriteCmd::?relay`
        DW `??zclParseInWriteCmd::?relay`
        DW `??zclProcessInWriteUndividedCmd::?relay`
        DW `??zclParseInWriteRspCmd::?relay`
        DW `??zcl_HandleExternal::?relay`
        DW `??zclParseInWriteCmd::?relay`
        DW `??zclProcessInWriteCmd::?relay`
        DW 0H
        DW 0H
        DW 0H
        DW 0H
        DW 0H
        DW 0H
        DW 0H
        DW 0H
        DW `??zclParseInReportCmd::?relay`
        DW `??zcl_HandleExternal::?relay`
        DW `??zclParseInDefaultRspCmd::?relay`
        DW `??zcl_HandleExternal::?relay`
        DW `??zclParseInDiscAttrsCmd::?relay`
        DW `??zclProcessInDiscAttrs::?relay`
        DW `??zclParseInDiscAttrsRspCmd::?relay`
        DW `??zcl_HandleExternal::?relay`
        DW 0H
        DW 0H
        DW 0H
        DW 0H
        DW 0H
        DW 0H
        DW `??zclParseInDiscCmdsCmd::?relay`
        DW `??zclProcessInDiscCmd::?relay`
        DW `??zclParseInDiscCmdsRspCmd::?relay`
        DW `??zcl_HandleExternal::?relay`
        DW `??zclParseInDiscCmdsCmd::?relay`
        DW `??zclProcessInDiscCmd::?relay`
        DW `??zclParseInDiscCmdsRspCmd::?relay`
        DW `??zcl_HandleExternal::?relay`
        DW `??zclParseInDiscAttrsCmd::?relay`
        DW `??zclProcessInDiscAttrs::?relay`
        DW `??zclParseInDiscAttrsExtRspCmd::?relay`
        DW `??zcl_HandleExternal::?relay`
//  270 {
//  271 #ifdef ZCL_READ
//  272   /* ZCL_CMD_READ */                { zclParseInReadCmd,             zclProcessInReadCmd             },
//  273   /* ZCL_CMD_READ_RSP */            { zclParseInReadRspCmd,          zcl_HandleExternal              },
//  274 #else
//  275   /* ZCL_CMD_READ */                { (zclParseInProfileCmd_t)NULL,  (zclProcessInProfileCmd_t)NULL  },
//  276   /* ZCL_CMD_READ_RSP */            { (zclParseInProfileCmd_t)NULL,  (zclProcessInProfileCmd_t)NULL  },
//  277 #endif // ZCL_READ
//  278 
//  279 #ifdef ZCL_WRITE
//  280   /* ZCL_CMD_WRITE */               { zclParseInWriteCmd,            zclProcessInWriteCmd            },
//  281   /* ZCL_CMD_WRITE_UNDIVIDED */     { zclParseInWriteCmd,            zclProcessInWriteUndividedCmd   },
//  282   /* ZCL_CMD_WRITE_RSP */           { zclParseInWriteRspCmd,         zcl_HandleExternal              },
//  283   /* ZCL_CMD_WRITE_NO_RSP */        { zclParseInWriteCmd,            zclProcessInWriteCmd            },
//  284 #else
//  285   /* ZCL_CMD_WRITE */               { (zclParseInProfileCmd_t)NULL,  (zclProcessInProfileCmd_t)NULL  },
//  286   /* ZCL_CMD_WRITE_UNDIVIDED */     { (zclParseInProfileCmd_t)NULL,  (zclProcessInProfileCmd_t)NULL  },
//  287   /* ZCL_CMD_WRITE_RSP */           { (zclParseInProfileCmd_t)NULL,  (zclProcessInProfileCmd_t)NULL  },
//  288   /* ZCL_CMD_WRITE_NO_RSP */        { (zclParseInProfileCmd_t)NULL,  (zclProcessInProfileCmd_t)NULL  },
//  289 #endif // ZCL_WRITE
//  290 
//  291 #ifdef ZCL_REPORTING_DEVICE
//  292     /* ZCL_CMD_CONFIG_REPORT */       { zclParseInConfigReportCmd,     zcl_HandleExternal              },
//  293 #else
//  294     /* ZCL_CMD_CONFIG_REPORT */       { (zclParseInProfileCmd_t)NULL,  (zclProcessInProfileCmd_t)NULL  },
//  295 #endif
//  296 
//  297 #ifdef ZCL_REPORT_CONFIGURING_DEVICE
//  298     /* ZCL_CMD_CONFIG_REPORT_RSP */   { zclParseInConfigReportRspCmd,  zcl_HandleExternal              },
//  299 #else
//  300     /* ZCL_CMD_CONFIG_REPORT_RSP */   { (zclParseInProfileCmd_t)NULL,  (zclProcessInProfileCmd_t)NULL  },
//  301 #endif
//  302 
//  303 #ifdef ZCL_REPORTING_DEVICE
//  304     /* ZCL_CMD_READ_REPORT_CFG */     { zclParseInReadReportCfgCmd,    zcl_HandleExternal              },
//  305 #else
//  306     /* ZCL_CMD_READ_REPORT_CFG */     { (zclParseInProfileCmd_t)NULL,  (zclProcessInProfileCmd_t)NULL  },
//  307 #endif
//  308 
//  309 #ifdef ZCL_REPORT_CONFIGURING_DEVICE
//  310     /* ZCL_CMD_READ_REPORT_CFG_RSP */ { zclParseInReadReportCfgRspCmd, zcl_HandleExternal              },
//  311 #else
//  312     /* ZCL_CMD_READ_REPORT_CFG_RSP */ { (zclParseInProfileCmd_t)NULL,  (zclProcessInProfileCmd_t)NULL  },
//  313 #endif
//  314 
//  315 #ifdef ZCL_REPORT_DESTINATION_DEVICE
//  316     /* ZCL_CMD_REPORT */              { zclParseInReportCmd,           zcl_HandleExternal              },
//  317 #else
//  318     /* ZCL_CMD_REPORT */              { (zclParseInProfileCmd_t)NULL,  (zclProcessInProfileCmd_t)NULL  },
//  319 #endif
//  320 
//  321   /* ZCL_CMD_DEFAULT_RSP */         { zclParseInDefaultRspCmd,       zcl_HandleExternal              },
//  322 
//  323 #ifdef ZCL_DISCOVER
//  324   /* ZCL_CMD_DISCOVER_ATTRS */                { zclParseInDiscAttrsCmd,         zclProcessInDiscAttrs           },
//  325   /* ZCL_CMD_DISCOVER_ATTRS_RSP */            { zclParseInDiscAttrsRspCmd,      zcl_HandleExternal              },
//  326   /* *not supported* READ_ATTRS_STRCT */      { NULL,                           (zclProcessInProfileCmd_t)NULL  },
//  327   /* *not supported* WRITE_ATTRS_STRCT */     { NULL,                           (zclProcessInProfileCmd_t)NULL  },
//  328   /* *not supported* WRITE_ATTRS_STRCT_RSP */ { NULL,                           (zclProcessInProfileCmd_t)NULL  },
//  329   /* ZCL_CMD_DISCOVER_CMDS_RECEIVED */        { zclParseInDiscCmdsCmd,          zclProcessInDiscCmd             },
//  330   /* ZCL_CMD_DISCOVER_CMDS_RECEIVED_RSP */    { zclParseInDiscCmdsRspCmd,       zcl_HandleExternal              },
//  331   /* ZCL_CMD_DISCOVER_CMDS_GEN */             { zclParseInDiscCmdsCmd,          zclProcessInDiscCmd             },
//  332   /* ZCL_CMD_DISCOVER_CMDS_GEN_RSP */         { zclParseInDiscCmdsRspCmd,       zcl_HandleExternal              },
//  333   /* ZCL_CMD_DISCOVER_ATTRS_EXT */            { zclParseInDiscAttrsCmd,         zclProcessInDiscAttrs           },
//  334   /* ZCL_CMD_DISCOVER_ATTRS_EXT_RSP */        { zclParseInDiscAttrsExtRspCmd,   zcl_HandleExternal              },
//  335 #else
//  336   /* ZCL_CMD_DISCOVER_ATTRS */                { (zclParseInProfileCmd_t)NULL,    (zclProcessInProfileCmd_t)NULL  },
//  337   /* ZCL_CMD_DISCOVER_ATTRS_RSP */            { (zclParseInProfileCmd_t)NULL,   (zclProcessInProfileCmd_t)NULL  },
//  338   /* *not supported* READ_ATTRS_STRCT */      { (zclParseInProfileCmd_t)NULL,   (zclProcessInProfileCmd_t)NULL  },
//  339   /* *not supported* WRITE_ATTRS_STRCT */     { (zclParseInProfileCmd_t)NULL,   (zclProcessInProfileCmd_t)NULL  },
//  340   /* *not supported* WRITE_ATTRS_STRCT_RSP */ { (zclParseInProfileCmd_t)NULL,   (zclProcessInProfileCmd_t)NULL  },
//  341   /* ZCL_CMD_DISCOVER_CMDS_RECEIVED */        { (zclParseInProfileCmd_t)NULL,   (zclProcessInProfileCmd_t)NULL  },
//  342   /* ZCL_CMD_DISCOVER_CMDS_RECEIVED_RSP */    { (zclParseInProfileCmd_t)NULL,   (zclProcessInProfileCmd_t)NULL  },
//  343   /* ZCL_CMD_DISCOVER_CMDS_GEN */             { (zclParseInProfileCmd_t)NULL,   (zclProcessInProfileCmd_t)NULL  },
//  344   /* ZCL_CMD_DISCOVER_CMDS_GEN_RSP */         { (zclParseInProfileCmd_t)NULL,   (zclProcessInProfileCmd_t)NULL  },
//  345   /* ZCL_CMD_DISCOVER_ATTRS_EXT */            { (zclParseInProfileCmd_t)NULL,   (zclProcessInProfileCmd_t)NULL  },
//  346   /* ZCL_CMD_DISCOVER_ATTRS_EXT_RSP */        { (zclParseInProfileCmd_t)NULL,   (zclProcessInProfileCmd_t)NULL  },
//  347 #endif // ZCL_DISCOVER
//  348 };
//  349 
//  350 /*********************************************************************
//  351  * PUBLIC FUNCTIONS
//  352  *********************************************************************/
//  353 
//  354 #if !defined ( ZCL_STANDALONE )
//  355 /*********************************************************************
//  356  * @fn          zcl_Init
//  357  *
//  358  * @brief       Initialization function for the zcl layer.
//  359  *
//  360  * @param       task_id - ZCL task id
//  361  *
//  362  * @return      none
//  363  */

        RSEG BANKED_CODE:HUGECODE:NOROOT(0)
//  364 void zcl_Init( uint8 task_id )
zcl_Init:
          CFI Block cfiBlock0 Using cfiCommon0
          CFI Function zcl_Init
        CODE
//  365 {
        PUSH      DPL
          CFI DPL0 Frame(CFA_SP, 4)
          CFI CFA_SP SP+-4
        PUSH      DPH
          CFI DPH0 Frame(CFA_SP, 5)
          CFI CFA_SP SP+-5
        ; Saved register size: 2
        ; Auto size: 0
//  366   zcl_TaskID = task_id;
        MOV       A,R1
        MOV       DPTR,#zcl_TaskID
        MOVX      @DPTR,A
//  367 }
        LJMP      ?Subroutine0 & 0xFFFF
          CFI EndBlock cfiBlock0
//  368 #endif
//  369 
//  370 #if !defined ( ZCL_STANDALONE )
//  371 /*********************************************************************
//  372  * @fn          zcl_event_loop
//  373  *
//  374  * @brief       Event Loop Processor for zcl.
//  375  *
//  376  * @param       task_id - task id
//  377  * @param       events - event bitmap
//  378  *
//  379  * @return      unprocessed events
//  380  */

        RSEG BANKED_CODE:HUGECODE:NOROOT(0)
//  381 uint16 zcl_event_loop( uint8 task_id, uint16 events )
zcl_event_loop:
          CFI Block cfiBlock1 Using cfiCommon0
          CFI Function zcl_event_loop
        CODE
//  382 {
        FUNCALL zcl_event_loop, osal_msg_receive
        LOCFRAME ISTACK, 0, STACK
        LOCFRAME PSTACK, 0, STACK
        LOCFRAME XSTACK, 18, STACK
        LOCFRAME IOVERLAY, 0, STATIC
        LOCFRAME DOVERLAY, 0, STATIC
        ARGFRAME ISTACK, 0, STACK
        ARGFRAME PSTACK, 0, STACK
        ARGFRAME XSTACK, 18, STACK
        ARGFRAME IOVERLAY, 0, STATIC
        ARGFRAME DOVERLAY, 0, STATIC
        FUNCALL zcl_event_loop, zcl_ProcessMessageMSG
        LOCFRAME ISTACK, 0, STACK
        LOCFRAME PSTACK, 0, STACK
        LOCFRAME XSTACK, 18, STACK
        LOCFRAME IOVERLAY, 0, STATIC
        LOCFRAME DOVERLAY, 0, STATIC
        ARGFRAME ISTACK, 0, STACK
        ARGFRAME PSTACK, 0, STACK
        ARGFRAME XSTACK, 18, STACK
        ARGFRAME IOVERLAY, 0, STATIC
        ARGFRAME DOVERLAY, 0, STATIC
        FUNCALL zcl_event_loop, osal_msg_deallocate
        LOCFRAME ISTACK, 0, STACK
        LOCFRAME PSTACK, 0, STACK
        LOCFRAME XSTACK, 18, STACK
        LOCFRAME IOVERLAY, 0, STATIC
        LOCFRAME DOVERLAY, 0, STATIC
        ARGFRAME ISTACK, 0, STACK
        ARGFRAME PSTACK, 0, STACK
        ARGFRAME XSTACK, 18, STACK
        ARGFRAME IOVERLAY, 0, STATIC
        ARGFRAME DOVERLAY, 0, STATIC
        FUNCALL zcl_event_loop, osal_msg_receive
        LOCFRAME ISTACK, 0, STACK
        LOCFRAME PSTACK, 0, STACK
        LOCFRAME XSTACK, 18, STACK
        LOCFRAME IOVERLAY, 0, STATIC
        LOCFRAME DOVERLAY, 0, STATIC
        ARGFRAME ISTACK, 0, STACK
        ARGFRAME PSTACK, 0, STACK
        ARGFRAME XSTACK, 18, STACK
        ARGFRAME IOVERLAY, 0, STATIC
        ARGFRAME DOVERLAY, 0, STATIC
        FUNCALL zcl_event_loop, zcl_getExternalFoundationHandler
        LOCFRAME ISTACK, 0, STACK
        LOCFRAME PSTACK, 0, STACK
        LOCFRAME XSTACK, 18, STACK
        LOCFRAME IOVERLAY, 0, STATIC
        LOCFRAME DOVERLAY, 0, STATIC
        ARGFRAME ISTACK, 0, STACK
        ARGFRAME PSTACK, 0, STACK
        ARGFRAME XSTACK, 18, STACK
        ARGFRAME IOVERLAY, 0, STATIC
        ARGFRAME DOVERLAY, 0, STATIC
        FUNCALL zcl_event_loop, osal_msg_send
        LOCFRAME ISTACK, 0, STACK
        LOCFRAME PSTACK, 0, STACK
        LOCFRAME XSTACK, 18, STACK
        LOCFRAME IOVERLAY, 0, STATIC
        LOCFRAME DOVERLAY, 0, STATIC
        ARGFRAME ISTACK, 0, STACK
        ARGFRAME PSTACK, 0, STACK
        ARGFRAME XSTACK, 18, STACK
        ARGFRAME IOVERLAY, 0, STATIC
        ARGFRAME DOVERLAY, 0, STATIC
        FUNCALL zcl_event_loop, gp_GetHeadNotificationMsg
        LOCFRAME ISTACK, 0, STACK
        LOCFRAME PSTACK, 0, STACK
        LOCFRAME XSTACK, 18, STACK
        LOCFRAME IOVERLAY, 0, STATIC
        LOCFRAME DOVERLAY, 0, STATIC
        ARGFRAME ISTACK, 0, STACK
        ARGFRAME PSTACK, 0, STACK
        ARGFRAME XSTACK, 18, STACK
        ARGFRAME IOVERLAY, 0, STATIC
        ARGFRAME DOVERLAY, 0, STATIC
        FUNCALL zcl_event_loop, osal_memcpy
        LOCFRAME ISTACK, 0, STACK
        LOCFRAME PSTACK, 0, STACK
        LOCFRAME XSTACK, 21, STACK
        LOCFRAME IOVERLAY, 0, STATIC
        LOCFRAME DOVERLAY, 0, STATIC
        ARGFRAME ISTACK, 0, STACK
        ARGFRAME PSTACK, 0, STACK
        ARGFRAME XSTACK, 21, STACK
        ARGFRAME IOVERLAY, 0, STATIC
        ARGFRAME DOVERLAY, 0, STATIC
        FUNCALL zcl_event_loop, osal_revmemcpy
        LOCFRAME ISTACK, 0, STACK
        LOCFRAME PSTACK, 0, STACK
        LOCFRAME XSTACK, 21, STACK
        LOCFRAME IOVERLAY, 0, STATIC
        LOCFRAME DOVERLAY, 0, STATIC
        ARGFRAME ISTACK, 0, STACK
        ARGFRAME PSTACK, 0, STACK
        ARGFRAME XSTACK, 21, STACK
        ARGFRAME IOVERLAY, 0, STATIC
        ARGFRAME DOVERLAY, 0, STATIC
        FUNCALL zcl_event_loop, bdb_getZCLFrameCounter
        LOCFRAME ISTACK, 0, STACK
        LOCFRAME PSTACK, 0, STACK
        LOCFRAME XSTACK, 18, STACK
        LOCFRAME IOVERLAY, 0, STATIC
        LOCFRAME DOVERLAY, 0, STATIC
        ARGFRAME ISTACK, 0, STACK
        ARGFRAME PSTACK, 0, STACK
        ARGFRAME XSTACK, 18, STACK
        ARGFRAME IOVERLAY, 0, STATIC
        ARGFRAME DOVERLAY, 0, STATIC
        FUNCALL zcl_event_loop, zcl_SendCommand
        LOCFRAME ISTACK, 0, STACK
        LOCFRAME PSTACK, 0, STACK
        LOCFRAME XSTACK, 29, STACK
        LOCFRAME IOVERLAY, 0, STATIC
        LOCFRAME DOVERLAY, 0, STATIC
        ARGFRAME ISTACK, 0, STACK
        ARGFRAME PSTACK, 0, STACK
        ARGFRAME XSTACK, 29, STACK
        ARGFRAME IOVERLAY, 0, STATIC
        ARGFRAME DOVERLAY, 0, STATIC
        FUNCALL zcl_event_loop, gp_GetPHeadNotification
        LOCFRAME ISTACK, 0, STACK
        LOCFRAME PSTACK, 0, STACK
        LOCFRAME XSTACK, 18, STACK
        LOCFRAME IOVERLAY, 0, STATIC
        LOCFRAME DOVERLAY, 0, STATIC
        ARGFRAME ISTACK, 0, STACK
        ARGFRAME PSTACK, 0, STACK
        ARGFRAME XSTACK, 18, STACK
        ARGFRAME IOVERLAY, 0, STATIC
        ARGFRAME DOVERLAY, 0, STATIC
        FUNCALL zcl_event_loop, gp_NotificationMsgClean
        LOCFRAME ISTACK, 0, STACK
        LOCFRAME PSTACK, 0, STACK
        LOCFRAME XSTACK, 18, STACK
        LOCFRAME IOVERLAY, 0, STATIC
        LOCFRAME DOVERLAY, 0, STATIC
        ARGFRAME ISTACK, 0, STACK
        ARGFRAME PSTACK, 0, STACK
        ARGFRAME XSTACK, 18, STACK
        ARGFRAME IOVERLAY, 0, STATIC
        ARGFRAME DOVERLAY, 0, STATIC
        FUNCALL zcl_event_loop, gp_GetHeadNotificationMsg
        LOCFRAME ISTACK, 0, STACK
        LOCFRAME PSTACK, 0, STACK
        LOCFRAME XSTACK, 18, STACK
        LOCFRAME IOVERLAY, 0, STATIC
        LOCFRAME DOVERLAY, 0, STATIC
        ARGFRAME ISTACK, 0, STACK
        ARGFRAME PSTACK, 0, STACK
        ARGFRAME XSTACK, 18, STACK
        ARGFRAME IOVERLAY, 0, STATIC
        ARGFRAME DOVERLAY, 0, STATIC
        FUNCALL zcl_event_loop, osal_start_timerEx
        LOCFRAME ISTACK, 0, STACK
        LOCFRAME PSTACK, 0, STACK
        LOCFRAME XSTACK, 22, STACK
        LOCFRAME IOVERLAY, 0, STATIC
        LOCFRAME DOVERLAY, 0, STATIC
        ARGFRAME ISTACK, 0, STACK
        ARGFRAME PSTACK, 0, STACK
        ARGFRAME XSTACK, 22, STACK
        ARGFRAME IOVERLAY, 0, STATIC
        ARGFRAME DOVERLAY, 0, STATIC
        REQUIRE ?V0
        REQUIRE ?V1
        REQUIRE ?V2
        REQUIRE ?V3
        REQUIRE ?V4
        REQUIRE ?V5
        REQUIRE ?V6
        REQUIRE ?V7
        MOV       A,#-0x10
        LCALL     ?BANKED_ENTER_XDATA
          CFI DPH0 load(1, XDATA, add(CFA_XSP16, literal(-1)))
          CFI DPL0 load(1, XDATA, add(CFA_XSP16, literal(-2)))
          CFI ?BRET_EXT load(1, XDATA, add(CFA_XSP16, literal(-3)))
          CFI ?RET_HIGH load(1, XDATA, add(CFA_XSP16, literal(-4)))
          CFI ?RET_LOW load(1, XDATA, add(CFA_XSP16, literal(-5)))
          CFI R7 load(1, XDATA, add(CFA_XSP16, literal(-6)))
          CFI V7 load(1, XDATA, add(CFA_XSP16, literal(-7)))
          CFI V6 load(1, XDATA, add(CFA_XSP16, literal(-8)))
          CFI V5 load(1, XDATA, add(CFA_XSP16, literal(-9)))
          CFI V4 load(1, XDATA, add(CFA_XSP16, literal(-10)))
          CFI V3 load(1, XDATA, add(CFA_XSP16, literal(-11)))
          CFI V2 load(1, XDATA, add(CFA_XSP16, literal(-12)))
          CFI V1 load(1, XDATA, add(CFA_XSP16, literal(-13)))
          CFI V0 load(1, XDATA, add(CFA_XSP16, literal(-14)))
          CFI VB load(1, XDATA, add(CFA_XSP16, literal(-15)))
          CFI R6 load(1, XDATA, add(CFA_XSP16, literal(-16)))
          CFI CFA_SP SP+0
          CFI CFA_XSP16 add(XSP16, 16)
        ; Saved register size: 16
        ; Auto size: 2
        MOV       A,#-0x2
        LCALL     ?ALLOC_XSTACK8
          CFI CFA_XSP16 add(XSP16, 18)
        MOV       A,R2
        MOV       R6,A
        MOV       A,R3
        MOV       R7,A
//  383   uint8 *msgPtr;
//  384 
//  385   (void)task_id;  // Intentionally unreferenced parameter
//  386 
//  387   if ( events & SYS_EVENT_MSG )
        ANL       A,#0x80
        JZ        ??zcl_event_loop_0
//  388   {
//  389     msgPtr = osal_msg_receive( zcl_TaskID );
        ; Setup parameters for call to function osal_msg_receive
        SJMP      ??zcl_event_loop_1
//  390     while ( msgPtr != NULL )
//  391     {
//  392       uint8 dealloc = TRUE;
//  393 
//  394       if ( *msgPtr == AF_INCOMING_MSG_CMD )
//  395       {
//  396         zcl_ProcessMessageMSG( (afIncomingMSGPacket_t *)msgPtr );
??zcl_event_loop_2:
        ; Setup parameters for call to function zcl_ProcessMessageMSG
        LCALL     `??zcl_ProcessMessageMSG::?relay`; Banked call to: zcl_ProcessMessageMSG
//  397       }
//  398       else
//  399       {
//  400         uint8 taskID;
//  401         taskID = zcl_getExternalFoundationHandler( (afIncomingMSGPacket_t *)msgPtr );
//  402 
//  403         if ( taskID != TASK_NO_TASK )
//  404         {
//  405           // send it to another task to process.
//  406           osal_msg_send( taskID, msgPtr );
//  407           dealloc = FALSE;
//  408         }
//  409       }
//  410 
//  411       // Release the memory
//  412       if ( dealloc )
//  413       {
//  414         osal_msg_deallocate( msgPtr );
??zcl_event_loop_3:
        ; Setup parameters for call to function osal_msg_deallocate
        MOV       R2,?V0
        MOV       R3,?V1
        LCALL     `??osal_msg_deallocate::?relay`; Banked call to: osal_msg_deallocate
//  415       }
//  416 
//  417       // Next
//  418       msgPtr = osal_msg_receive( zcl_TaskID );
??zcl_event_loop_1:
        ; Setup parameters for call to function osal_msg_receive
        MOV       DPTR,#zcl_TaskID
        MOVX      A,@DPTR
        MOV       R1,A
        LCALL     `??osal_msg_receive::?relay`; Banked call to: osal_msg_receive
        MOV       ?V0,R2
        MOV       ?V1,R3
        MOV       A,?V0
        ORL       A,?V1
        JZ        ??zcl_event_loop_4
        MOV       DPL,?V0
        MOV       DPH,?V1
        MOVX      A,@DPTR
        XRL       A,#0x1a
        MOV       R2,?V0
        MOV       R3,?V1
        JZ        ??zcl_event_loop_2
        ; Setup parameters for call to function zcl_getExternalFoundationHandler
        LCALL     `??zcl_getExternalFoundationHandler::?relay`; Banked call to: zcl_getExternalFoundationHandler
        MOV       A,R1
        MOV       R1,A
        MOV       A,#-0x1
        XRL       A,R1
        JZ        ??zcl_event_loop_3
        ; Setup parameters for call to function osal_msg_send
        MOV       R2,?V0
        MOV       R3,?V1
        LCALL     `??osal_msg_send::?relay`; Banked call to: osal_msg_send
        SJMP      ??zcl_event_loop_1
//  419     }
//  420 
//  421     // return unprocessed events
//  422     return (events ^ SYS_EVENT_MSG);
??zcl_event_loop_4:
        MOV       A,R6
        MOV       R2,A
        MOV       A,R7
        XRL       A,#0x80
        MOV       R3,A
        LJMP      ??zcl_event_loop_5 & 0xFFFF
//  423   }
//  424 
//  425 #if !defined (DISABLE_GREENPOWER_BASIC_PROXY) && (ZG_BUILD_RTR_TYPE)
//  426   if ( events & ZCL_DATABUF_SEND )
??zcl_event_loop_0:
        MOV       A,R2
        ANL       A,#0x20
        JNZ       $+5
        LJMP      ??zcl_event_loop_6 & 0xFFFF
//  427   {
//  428     gpNotificationMsg_t *gpNotification = NULL;
//  429     gpCmdPayloadMsg_t *pCmdPayloadMsgCurr = NULL;
//  430     uint8 appId;
//  431     uint8 nwkSeqNum;
//  432     uint16 nwkAddr;
//  433     
//  434     gpNotification = gp_GetHeadNotificationMsg( );
        ; Setup parameters for call to function gp_GetHeadNotificationMsg
        LCALL     `??gp_GetHeadNotificationMsg::?relay`; Banked call to: gp_GetHeadNotificationMsg
        MOV       ?V6,R2
        MOV       ?V7,R3
//  435     
//  436     if ( gpNotification == NULL )
        MOV       A,R2
        ORL       A,R3
        JNZ       $+5
        LJMP      ??zcl_event_loop_6 & 0xFFFF
//  437     {
//  438       return 0;
//  439     }
//  440     
//  441     pCmdPayloadMsgCurr = ( gpCmdPayloadMsg_t* ) gpNotification->pMsg ;
        MOV       A,R2
        ADD       A,#0xd
        MOV       DPL,A
        CLR       A
        ADDC      A,?V7
        MOV       DPH,A
        LCALL     ??Subroutine262_0 & 0xFFFF
//  442     appId = PROXY_TBL_GET_APPLICTION_ID((uint16)*pCmdPayloadMsgCurr->pMsg);
??CrossCallReturnLabel_576:
        MOV       A,R6
        ADD       A,#0x2
        MOV       ?V4,A
        CLR       A
        ADDC      A,R7
        MOV       ?V5,A
        MOV       DPL,?V4
        MOV       DPH,A
        LCALL     ??Subroutine285_0 & 0xFFFF
??CrossCallReturnLabel_701:
        ANL       A,#0x7
        MOV       R0,A
//  443     
//  444     // To save the NIB nwk sequense number and use the GP alias nwk sequence number
//  445     // for the GP notification
//  446     nwkSeqNum = _NIB.SequenceNum;
        MOV       DPTR,#_NIB
        MOVX      A,@DPTR
        MOV       ?V3,A
//  447     _NIB.SequenceNum = pCmdPayloadMsgCurr->secNum;
        MOV       DPL,R6
        MOV       DPH,R7
        MOVX      A,@DPTR
        MOV       DPTR,#_NIB
        MOVX      @DPTR,A
//  448     
//  449     // To save the NIB nwk address and use the GP alias nwk address for the GP notification
//  450     nwkAddr = _NIB.nwkDevAddress;
        MOV       DPTR,#_NIB + 20
        LCALL     ??Subroutine259_0 & 0xFFFF
??CrossCallReturnLabel_520:
        LCALL     ?Subroutine37 & 0xFFFF
//  451     
//  452     if( appId == GP_OPT_APP_ID_GPD )
??CrossCallReturnLabel_486:
        MOV       A,R0
        JNZ       ??zcl_event_loop_7
//  453     {
//  454       osal_memcpy( &_NIB.nwkDevAddress,( pCmdPayloadMsgCurr->pMsg + sizeof( uint16 ) ), sizeof(uint16) );
        ; Setup parameters for call to function osal_memcpy
        MOV       DPL,?V4
        MOV       DPH,?V5
        MOVX      A,@DPTR
        ADD       A,#0x2
        LCALL     ?Subroutine120 & 0xFFFF
//  455     }
??CrossCallReturnLabel_232:
        LCALL     ?PUSH_XSTACK_I_THREE
          CFI CFA_XSP16 add(XSP16, 21)
        MOV       R4,#0x2
        MOV       R5,#0x0
        MOV       R2,#(_NIB + 20) & 0xff
        MOV       R3,#((_NIB + 20) >> 8) & 0xff
        LCALL     `??osal_memcpy::?relay`; Banked call to: osal_memcpy
        SJMP      ??zcl_event_loop_8
          CFI CFA_XSP16 add(XSP16, 18)
//  456     else if( appId == GP_OPT_APP_ID_IEEE )
??zcl_event_loop_7:
        MOV       A,#0x2
        XRL       A,R0
        JNZ       ??zcl_event_loop_9
//  457     {
//  458       osal_revmemcpy( &_NIB.nwkDevAddress,(pCmdPayloadMsgCurr->pMsg + Z_EXTADDR_LEN), sizeof(uint16) );
        ; Setup parameters for call to function osal_revmemcpy
        MOV       DPL,?V4
        MOV       DPH,?V5
        MOVX      A,@DPTR
        ADD       A,#0x8
        LCALL     ?Subroutine120 & 0xFFFF
//  459     }
??CrossCallReturnLabel_233:
        LCALL     ?PUSH_XSTACK_I_THREE
          CFI CFA_XSP16 add(XSP16, 21)
        MOV       R4,#0x2
        MOV       R5,#0x0
        MOV       R2,#(_NIB + 20) & 0xff
        MOV       R3,#((_NIB + 20) >> 8) & 0xff
        LCALL     `??osal_revmemcpy::?relay`; Banked call to: osal_revmemcpy
??zcl_event_loop_8:
        MOV       A,#0x3
        LCALL     ?DEALLOC_XSTACK8
          CFI CFA_XSP16 add(XSP16, 18)
//  460     
//  461     zcl_SendCommand( GREEN_POWER_INTERNAL_ENDPOINT, &gpNotification->addr, ZCL_CLUSTER_ID_GREEN_POWER,
//  462                           COMMAND_GP_NOTIFICATION, TRUE, ZCL_FRAME_CLIENT_SERVER_DIR,
//  463                           TRUE, 0,  bdb_getZCLFrameCounter(), pCmdPayloadMsgCurr->lenght, pCmdPayloadMsgCurr->pMsg );
??zcl_event_loop_9:
        ; Setup parameters for call to function bdb_getZCLFrameCounter
        LCALL     `??bdb_getZCLFrameCounter::?relay`; Banked call to: bdb_getZCLFrameCounter
        MOV       A,R1
        MOV       R1,A
        ; Setup parameters for call to function zcl_SendCommand
        MOV       DPL,?V4
        MOV       DPH,?V5
        LCALL     ?PUSH_XSTACK8_X_TWO
          CFI CFA_XSP16 add(XSP16, 20)
        MOV       DPL,R6
        MOV       DPH,R7
        INC       DPTR
        MOVX      A,@DPTR
        MOV       ?V0,A
        MOV       ?V1,#0x0
        MOV       R0,#?V0
        LCALL     ?PUSH_XSTACK_I_TWO
          CFI CFA_XSP16 add(XSP16, 22)
        MOV       A,R1
        MOV       ?V0,A
        MOV       R0,#?V0
        LCALL     ?PUSH_XSTACK_I_ONE
          CFI CFA_XSP16 add(XSP16, 23)
        CLR       A
        MOV       ?V0,A
        MOV       R0,#?V0
        LCALL     ?PUSH_XSTACK_I_TWO
          CFI CFA_XSP16 add(XSP16, 25)
        MOV       ?V0,#0x1
        MOV       R0,#?V0
        LCALL     ?PUSH_XSTACK_I_ONE
          CFI CFA_XSP16 add(XSP16, 26)
        MOV       ?V0,#0x0
        MOV       R0,#?V0
        LCALL     ?PUSH_XSTACK_I_ONE
          CFI CFA_XSP16 add(XSP16, 27)
        MOV       ?V0,#0x1
        MOV       R0,#?V0
        LCALL     ?PUSH_XSTACK_I_ONE
          CFI CFA_XSP16 add(XSP16, 28)
        MOV       ?V0,#0x0
        MOV       R0,#?V0
        LCALL     ?PUSH_XSTACK_I_ONE
          CFI CFA_XSP16 add(XSP16, 29)
        MOV       R4,#0x21
        MOV       R5,#0x0
        MOV       R2,?V6
        MOV       R3,?V7
        MOV       R1,#-0xe
        LCALL     ??Subroutine239_0 & 0xFFFF
??CrossCallReturnLabel_448:
        LCALL     ?DEALLOC_XSTACK8
          CFI CFA_XSP16 add(XSP16, 18)
//  464     
//  465     // Restore the NIB nwk sequence number
//  466     _NIB.SequenceNum = nwkSeqNum;
        MOV       A,?V3
        MOV       DPTR,#_NIB
        LCALL     ??Subroutine277_0 & 0xFFFF
//  467     
//  468     // Restore the NIB nwk address
//  469     _NIB.nwkDevAddress = nwkAddr;
??CrossCallReturnLabel_656:
        MOV       R1,A
        MOV       DPTR,#_NIB + 20
        LCALL     ??Subroutine271_0 & 0xFFFF
//  470     
//  471     gp_NotificationMsgClean( gp_GetPHeadNotification ( ) );
??CrossCallReturnLabel_617:
        ; Setup parameters for call to function gp_GetPHeadNotification
        LCALL     `??gp_GetPHeadNotification::?relay`; Banked call to: gp_GetPHeadNotification
        ; Setup parameters for call to function gp_NotificationMsgClean
        LCALL     `??gp_NotificationMsgClean::?relay`; Banked call to: gp_NotificationMsgClean
//  472     
//  473     if ( gp_GetHeadNotificationMsg ( ) != NULL )
        ; Setup parameters for call to function gp_GetHeadNotificationMsg
        LCALL     `??gp_GetHeadNotificationMsg::?relay`; Banked call to: gp_GetHeadNotificationMsg
        MOV       A,R2
        ORL       A,R3
        JZ        ??zcl_event_loop_6
//  474     {
//  475       osal_start_timerEx( zcl_TaskID, ZCL_DATABUF_SEND, 50 );
        ; Setup parameters for call to function osal_start_timerEx
        MOV       DPTR,#__Constant_32
        LCALL     ?PUSH_XSTACK8_X_FOUR
          CFI CFA_XSP16 add(XSP16, 22)
        MOV       R2,#0x20
        MOV       R3,#0x0
        MOV       DPTR,#zcl_TaskID
        MOVX      A,@DPTR
        MOV       R1,A
        LCALL     `??osal_start_timerEx::?relay`; Banked call to: osal_start_timerEx
        MOV       A,#0x4
        LCALL     ?DEALLOC_XSTACK8
          CFI CFA_XSP16 add(XSP16, 18)
//  476     }
//  477   }
//  478 #endif
//  479 
//  480   // Discard unknown events
//  481   return 0;
??zcl_event_loop_6:
        MOV       R2,#0x0
        MOV       R3,#0x0
??zcl_event_loop_5:
          CFI EndBlock cfiBlock1
        REQUIRE ?Subroutine8
        ; // Fall through to label ?Subroutine8
//  482 }

        RSEG BANKED_CODE:HUGECODE:NOROOT(0)
?Subroutine8:
          CFI Block cfiBlock2 Using cfiCommon0
          CFI NoFunction
          CFI CFA_SP SP+0
          CFI CFA_XSP16 add(XSP16, 18)
          CFI VB load(1, XDATA, add(CFA_XSP16, literal(-15)))
          CFI DPL0 load(1, XDATA, add(CFA_XSP16, literal(-2)))
          CFI DPH0 load(1, XDATA, add(CFA_XSP16, literal(-1)))
          CFI R6 load(1, XDATA, add(CFA_XSP16, literal(-16)))
          CFI R7 load(1, XDATA, add(CFA_XSP16, literal(-6)))
          CFI V0 load(1, XDATA, add(CFA_XSP16, literal(-14)))
          CFI V1 load(1, XDATA, add(CFA_XSP16, literal(-13)))
          CFI V2 load(1, XDATA, add(CFA_XSP16, literal(-12)))
          CFI V3 load(1, XDATA, add(CFA_XSP16, literal(-11)))
          CFI V4 load(1, XDATA, add(CFA_XSP16, literal(-10)))
          CFI V5 load(1, XDATA, add(CFA_XSP16, literal(-9)))
          CFI V6 load(1, XDATA, add(CFA_XSP16, literal(-8)))
          CFI V7 load(1, XDATA, add(CFA_XSP16, literal(-7)))
          CFI ?BRET_EXT load(1, XDATA, add(CFA_XSP16, literal(-3)))
          CFI ?RET_HIGH load(1, XDATA, add(CFA_XSP16, literal(-4)))
          CFI ?RET_LOW load(1, XDATA, add(CFA_XSP16, literal(-5)))
        MOV       A,#0x2
        LJMP      ??Subroutine245_0 & 0xFFFF
          CFI EndBlock cfiBlock2

        RSEG BANKED_CODE:HUGECODE:NOROOT(0)
?Subroutine120:
          CFI Block cfiCond3 Using cfiCommon0
          CFI Function zcl_event_loop
          CFI Conditional ??CrossCallReturnLabel_232
          CFI R6 load(1, XDATA, add(CFA_XSP16, literal(-16)))
          CFI VB load(1, XDATA, add(CFA_XSP16, literal(-15)))
          CFI V0 load(1, XDATA, add(CFA_XSP16, literal(-14)))
          CFI V1 load(1, XDATA, add(CFA_XSP16, literal(-13)))
          CFI V2 load(1, XDATA, add(CFA_XSP16, literal(-12)))
          CFI V3 load(1, XDATA, add(CFA_XSP16, literal(-11)))
          CFI V4 load(1, XDATA, add(CFA_XSP16, literal(-10)))
          CFI V5 load(1, XDATA, add(CFA_XSP16, literal(-9)))
          CFI V6 load(1, XDATA, add(CFA_XSP16, literal(-8)))
          CFI V7 load(1, XDATA, add(CFA_XSP16, literal(-7)))
          CFI R7 load(1, XDATA, add(CFA_XSP16, literal(-6)))
          CFI ?RET_LOW load(1, XDATA, add(CFA_XSP16, literal(-5)))
          CFI ?RET_HIGH load(1, XDATA, add(CFA_XSP16, literal(-4)))
          CFI ?BRET_EXT load(1, XDATA, add(CFA_XSP16, literal(-3)))
          CFI DPL0 load(1, XDATA, add(CFA_XSP16, literal(-2)))
          CFI DPH0 load(1, XDATA, add(CFA_XSP16, literal(-1)))
          CFI CFA_SP SP+-2
          CFI CFA_XSP16 add(XSP16, 18)
          CFI Block cfiCond4 Using cfiCommon0
          CFI (cfiCond4) Function zcl_event_loop
          CFI (cfiCond4) Conditional ??CrossCallReturnLabel_233
          CFI (cfiCond4) R6 load(1, XDATA, add(CFA_XSP16, literal(-16)))
          CFI (cfiCond4) VB load(1, XDATA, add(CFA_XSP16, literal(-15)))
          CFI (cfiCond4) V0 load(1, XDATA, add(CFA_XSP16, literal(-14)))
          CFI (cfiCond4) V1 load(1, XDATA, add(CFA_XSP16, literal(-13)))
          CFI (cfiCond4) V2 load(1, XDATA, add(CFA_XSP16, literal(-12)))
          CFI (cfiCond4) V3 load(1, XDATA, add(CFA_XSP16, literal(-11)))
          CFI (cfiCond4) V4 load(1, XDATA, add(CFA_XSP16, literal(-10)))
          CFI (cfiCond4) V5 load(1, XDATA, add(CFA_XSP16, literal(-9)))
          CFI (cfiCond4) V6 load(1, XDATA, add(CFA_XSP16, literal(-8)))
          CFI (cfiCond4) V7 load(1, XDATA, add(CFA_XSP16, literal(-7)))
          CFI (cfiCond4) R7 load(1, XDATA, add(CFA_XSP16, literal(-6)))
          CFI (cfiCond4) ?RET_LOW load(1, XDATA, add(CFA_XSP16, literal(-5)))
          CFI (cfiCond4) ?RET_HIGH load(1, XDATA, add(CFA_XSP16, literal(-4)))
          CFI (cfiCond4) ?BRET_EXT load(1, XDATA, add(CFA_XSP16, literal(-3)))
          CFI (cfiCond4) DPL0 load(1, XDATA, add(CFA_XSP16, literal(-2)))
          CFI (cfiCond4) DPH0 load(1, XDATA, add(CFA_XSP16, literal(-1)))
          CFI (cfiCond4) CFA_SP SP+-2
          CFI (cfiCond4) CFA_XSP16 add(XSP16, 18)
          CFI Block cfiPicker5 Using cfiCommon1
          CFI (cfiPicker5) NoFunction
          CFI (cfiPicker5) Picker
        MOV       ?V0,A
        INC       DPTR
        MOVX      A,@DPTR
        ADDC      A,#0x0
        MOV       ?V1,A
        MOV       ?V2,#0x0
        MOV       R0,#?V0
        RET
          CFI EndBlock cfiCond3
          CFI EndBlock cfiCond4
          CFI EndBlock cfiPicker5
//  483 #endif
//  484 
//  485 #if !defined ( ZCL_STANDALONE )
//  486 /*********************************************************************
//  487  * @fn      zcl_registerForMsg
//  488  *
//  489  * @brief   The ZCL is setup to send all incoming Foundation Command/Response
//  490  *          messages that aren't processed to one task (if a task is
//  491  *          registered).
//  492  *
//  493  * @param   taskId - task Id of the Application where commands will be sent to
//  494  *
//  495  * @return  TRUE if task registeration successful, FALSE otherwise
//  496  *********************************************************************/

        RSEG BANKED_CODE:HUGECODE:NOROOT(0)
//  497 uint8 zcl_registerForMsg( uint8 taskId )
zcl_registerForMsg:
          CFI Block cfiBlock6 Using cfiCommon0
          CFI Function zcl_registerForMsg
        CODE
//  498 {
        FUNCALL zcl_registerForMsg, zcl_addExternalFoundationHandler
        LOCFRAME ISTACK, 0, STACK
        LOCFRAME PSTACK, 0, STACK
        LOCFRAME XSTACK, 9, STACK
        LOCFRAME IOVERLAY, 0, STATIC
        LOCFRAME DOVERLAY, 0, STATIC
        ARGFRAME ISTACK, 0, STACK
        ARGFRAME PSTACK, 0, STACK
        ARGFRAME XSTACK, 9, STACK
        ARGFRAME IOVERLAY, 0, STATIC
        ARGFRAME DOVERLAY, 0, STATIC
        MOV       A,#-0x9
        LCALL     ?BANKED_ENTER_XDATA
          CFI DPH0 load(1, XDATA, add(CFA_XSP16, literal(-1)))
          CFI DPL0 load(1, XDATA, add(CFA_XSP16, literal(-2)))
          CFI ?BRET_EXT load(1, XDATA, add(CFA_XSP16, literal(-3)))
          CFI ?RET_HIGH load(1, XDATA, add(CFA_XSP16, literal(-4)))
          CFI ?RET_LOW load(1, XDATA, add(CFA_XSP16, literal(-5)))
          CFI R7 load(1, XDATA, add(CFA_XSP16, literal(-6)))
          CFI V0 load(1, XDATA, add(CFA_XSP16, literal(-7)))
          CFI VB load(1, XDATA, add(CFA_XSP16, literal(-8)))
          CFI R6 load(1, XDATA, add(CFA_XSP16, literal(-9)))
          CFI CFA_SP SP+0
          CFI CFA_XSP16 add(XSP16, 9)
        ; Saved register size: 9
        ; Auto size: 0
//  499   return zcl_addExternalFoundationHandler( taskId, AF_BROADCAST_ENDPOINT );
        ; Setup parameters for call to function zcl_addExternalFoundationHandler
        MOV       R2,#-0x1
        LJMP      ?Subroutine2 & 0xFFFF
//  500 }
          CFI EndBlock cfiBlock6
//  501 
//  502 /*********************************************************************
//  503  * @fn      zcl_registerForMsgExt
//  504  *
//  505  * @brief   This function enables a Task to register to recieve all
//  506  *          incoming Foundation Command/Response messages, for a particular
//  507  *          End Point, that aren't processed by ZCL.
//  508  *
//  509  *          NOTE: Any Task registered for a unique end point will take
//  510  *          priority over any Task registered with the AF_BROADCAST_ENDPOINT
//  511  *          value.  ie. If task A registers for End Point 1, task B registers
//  512  *          for AF_BROADCAST_ENDPOINT,  commands addressed to End Point 1 will be
//  513  *          sent to Task A and NOT Task B.
//  514  *
//  515  * @param   taskId - task Id of the Application where commands will be sent to
//  516  * @param   endPointId - end point Id of interest
//  517  *
//  518  * @return  TRUE if task registeration successful, FALSE otherwise
//  519  *********************************************************************/

        RSEG BANKED_CODE:HUGECODE:NOROOT(0)
//  520 uint8 zcl_registerForMsgExt( uint8 taskId, uint8 endPointId  )
zcl_registerForMsgExt:
          CFI Block cfiBlock7 Using cfiCommon0
          CFI Function zcl_registerForMsgExt
        CODE
//  521 {
        FUNCALL zcl_registerForMsgExt, zcl_addExternalFoundationHandler
        LOCFRAME ISTACK, 0, STACK
        LOCFRAME PSTACK, 0, STACK
        LOCFRAME XSTACK, 9, STACK
        LOCFRAME IOVERLAY, 0, STATIC
        LOCFRAME DOVERLAY, 0, STATIC
        ARGFRAME ISTACK, 0, STACK
        ARGFRAME PSTACK, 0, STACK
        ARGFRAME XSTACK, 9, STACK
        ARGFRAME IOVERLAY, 0, STATIC
        ARGFRAME DOVERLAY, 0, STATIC
        MOV       A,#-0x9
        LCALL     ?BANKED_ENTER_XDATA
          CFI DPH0 load(1, XDATA, add(CFA_XSP16, literal(-1)))
          CFI DPL0 load(1, XDATA, add(CFA_XSP16, literal(-2)))
          CFI ?BRET_EXT load(1, XDATA, add(CFA_XSP16, literal(-3)))
          CFI ?RET_HIGH load(1, XDATA, add(CFA_XSP16, literal(-4)))
          CFI ?RET_LOW load(1, XDATA, add(CFA_XSP16, literal(-5)))
          CFI R7 load(1, XDATA, add(CFA_XSP16, literal(-6)))
          CFI V0 load(1, XDATA, add(CFA_XSP16, literal(-7)))
          CFI VB load(1, XDATA, add(CFA_XSP16, literal(-8)))
          CFI R6 load(1, XDATA, add(CFA_XSP16, literal(-9)))
          CFI CFA_SP SP+0
          CFI CFA_XSP16 add(XSP16, 9)
        ; Saved register size: 9
        ; Auto size: 0
//  522   return ( zcl_addExternalFoundationHandler( taskId, endPointId  ) );
        ; Setup parameters for call to function zcl_addExternalFoundationHandler
        LJMP      ?Subroutine2 & 0xFFFF
//  523 }
          CFI EndBlock cfiBlock7
//  524 
//  525 /*********************************************************************
//  526  * @fn      zcl_addExternalFoundationHandler
//  527  *
//  528  * @brief   This function adds a record to the internal list of external
//  529  *          handlers of unhandled incoming Foundation Command/Response messages.
//  530  *
//  531  * @param   taskId - task Id of the Application where commands will be sent to
//  532  * @param   endPointId - end point Id of interest
//  533  *
//  534  * @return  TRUE if task registeration successful, FALSE otherwise
//  535  *********************************************************************/

        RSEG BANKED_CODE:HUGECODE:NOROOT(0)
//  536 uint8 zcl_addExternalFoundationHandler( uint8 taskId, uint8 endPointId  )
zcl_addExternalFoundationHandler:
          CFI Block cfiBlock8 Using cfiCommon0
          CFI Function zcl_addExternalFoundationHandler
        CODE
//  537 {
        FUNCALL zcl_addExternalFoundationHandler, osal_mem_alloc
        LOCFRAME ISTACK, 0, STACK
        LOCFRAME PSTACK, 0, STACK
        LOCFRAME XSTACK, 10, STACK
        LOCFRAME IOVERLAY, 0, STATIC
        LOCFRAME DOVERLAY, 0, STATIC
        ARGFRAME ISTACK, 0, STACK
        ARGFRAME PSTACK, 0, STACK
        ARGFRAME XSTACK, 10, STACK
        ARGFRAME IOVERLAY, 0, STATIC
        ARGFRAME DOVERLAY, 0, STATIC
        FUNCALL zcl_addExternalFoundationHandler, osal_mem_free
        LOCFRAME ISTACK, 0, STACK
        LOCFRAME PSTACK, 0, STACK
        LOCFRAME XSTACK, 10, STACK
        LOCFRAME IOVERLAY, 0, STATIC
        LOCFRAME DOVERLAY, 0, STATIC
        ARGFRAME ISTACK, 0, STACK
        ARGFRAME PSTACK, 0, STACK
        ARGFRAME XSTACK, 10, STACK
        ARGFRAME IOVERLAY, 0, STATIC
        ARGFRAME DOVERLAY, 0, STATIC
        REQUIRE ?V0
        REQUIRE ?V1
        MOV       A,#-0xa
        LCALL     ?BANKED_ENTER_XDATA
          CFI DPH0 load(1, XDATA, add(CFA_XSP16, literal(-1)))
          CFI DPL0 load(1, XDATA, add(CFA_XSP16, literal(-2)))
          CFI ?BRET_EXT load(1, XDATA, add(CFA_XSP16, literal(-3)))
          CFI ?RET_HIGH load(1, XDATA, add(CFA_XSP16, literal(-4)))
          CFI ?RET_LOW load(1, XDATA, add(CFA_XSP16, literal(-5)))
          CFI R7 load(1, XDATA, add(CFA_XSP16, literal(-6)))
          CFI V1 load(1, XDATA, add(CFA_XSP16, literal(-7)))
          CFI V0 load(1, XDATA, add(CFA_XSP16, literal(-8)))
          CFI VB load(1, XDATA, add(CFA_XSP16, literal(-9)))
          CFI R6 load(1, XDATA, add(CFA_XSP16, literal(-10)))
          CFI CFA_SP SP+0
          CFI CFA_XSP16 add(XSP16, 10)
        ; Saved register size: 10
        ; Auto size: 0
        MOV       A,R1
        MOV       R6,A
        MOV       A,R2
        MOV       R7,A
//  538   zclExternalFoundationHandlerList *pNewItem;
//  539   zclExternalFoundationHandlerList *pLoop;
//  540   zclExternalFoundationHandlerList *pLoopPrev;
//  541 
//  542   // Fill in the new endpoint registrant list
//  543   pNewItem = zcl_mem_alloc( sizeof( zclExternalFoundationHandlerList ) );
        ; Setup parameters for call to function osal_mem_alloc
        MOV       R2,#0x4
        MOV       R3,#0x0
        LCALL     ?Subroutine213 & 0xFFFF
??CrossCallReturnLabel_395:
        MOV       R0,?V0
        MOV       R1,?V1
//  544   if ( pNewItem == NULL )
        MOV       A,R2
        ORL       A,R1
        JZ        ??zcl_addExternalFoundationHandler_0
//  545   {
//  546     return ( false );
//  547   }
//  548 
//  549   pNewItem->zcl_ExternalEndPoint = endPointId;
        MOV       A,R7
        MOV       DPL,R2
        MOV       DPH,R3
        INC       DPTR
        INC       DPTR
        INC       DPTR
        MOVX      @DPTR,A
//  550   pNewItem->zcl_ExternalTaskID = taskId;
        MOV       A,R6
        MOV       DPL,R2
        MOV       DPH,R3
        INC       DPTR
        LCALL     ?Subroutine177 & 0xFFFF
//  551   pNewItem->next = NULL;
??CrossCallReturnLabel_493:
        CLR       A
        MOVX      @DPTR,A
        INC       DPTR
        MOVX      @DPTR,A
//  552 
//  553   // Add to the list
//  554   if ( externalEndPointHandlerList == NULL )
        MOV       DPTR,#externalEndPointHandlerList
        LCALL     ??Subroutine235_0 & 0xFFFF
??CrossCallReturnLabel_408:
        JNZ       ??zcl_addExternalFoundationHandler_1
//  555   {
//  556     externalEndPointHandlerList = pNewItem;
        MOV       DPTR,#externalEndPointHandlerList
        MOV       A,R0
        MOVX      @DPTR,A
        INC       DPTR
        MOV       A,R1
        SJMP      ??zcl_addExternalFoundationHandler_2
//  557   }
//  558   else
//  559   {
//  560     // make sure no one else tried to register for this endpoint
//  561     pLoop = externalEndPointHandlerList;
??zcl_addExternalFoundationHandler_1:
        MOVX      A,@DPTR
        MOV       R3,A
//  562     pLoopPrev = externalEndPointHandlerList;
//  563 
//  564     while ( pLoop != NULL )
//  565     {
//  566       if ( ( pLoop->zcl_ExternalEndPoint ) == endPointId )
??zcl_addExternalFoundationHandler_3:
        MOV       DPL,R2
        MOV       DPH,R3
        INC       DPTR
        INC       DPTR
        INC       DPTR
        MOVX      A,@DPTR
        XRL       A,R7
        JNZ       ??zcl_addExternalFoundationHandler_4
//  567       {
//  568         zcl_mem_free(pNewItem);
        ; Setup parameters for call to function osal_mem_free
        MOV       A,R0
        MOV       R2,A
        MOV       A,R1
        MOV       R3,A
        LCALL     `??osal_mem_free::?relay`; Banked call to: osal_mem_free
//  569         return ( false );
??zcl_addExternalFoundationHandler_0:
        MOV       R1,#0x0
        SJMP      ??zcl_addExternalFoundationHandler_5
//  570       }
//  571       pLoopPrev = pLoop;
??zcl_addExternalFoundationHandler_4:
        MOV       A,R2
        MOV       R4,A
        MOV       A,R3
        MOV       R5,A
//  572       pLoop = pLoop->next;
        MOV       DPL,R2
        MOV       DPH,R3
        LCALL     ??Subroutine235_0 & 0xFFFF
//  573     }
??CrossCallReturnLabel_405:
        JNZ       ??zcl_addExternalFoundationHandler_3
//  574 
//  575     if ( endPointId == AF_BROADCAST_ENDPOINT )
        MOV       A,#-0x1
        XRL       A,R7
        JNZ       ??zcl_addExternalFoundationHandler_6
//  576     {
//  577       // put new registration at the end of the list
//  578       pLoopPrev->next = pNewItem;
        MOV       DPL,R4
        MOV       DPH,R5
        LCALL     ?Subroutine40 & 0xFFFF
//  579       pNewItem->next = NULL;
//  580     }
??CrossCallReturnLabel_55:
        CLR       A
        MOVX      @DPTR,A
        INC       DPTR
        SJMP      ??zcl_addExternalFoundationHandler_2
//  581     else
//  582     {
//  583       // put new registration at the front of the list
//  584       zclExternalFoundationHandlerList *temp = externalEndPointHandlerList;
??zcl_addExternalFoundationHandler_6:
        MOV       DPTR,#externalEndPointHandlerList
        LCALL     ??Subroutine259_0 & 0xFFFF
//  585       externalEndPointHandlerList = pNewItem;
??CrossCallReturnLabel_521:
        MOV       DPTR,#externalEndPointHandlerList
        LCALL     ?Subroutine40 & 0xFFFF
//  586       pNewItem->next = temp;
//  587     }
//  588   }
??CrossCallReturnLabel_56:
        MOV       A,R2
        MOVX      @DPTR,A
        INC       DPTR
        MOV       A,R3
??zcl_addExternalFoundationHandler_2:
        MOVX      @DPTR,A
//  589 
//  590   return ( true );
        MOV       R1,#0x1
??zcl_addExternalFoundationHandler_5:
        LJMP      ??Subroutine251_0 & 0xFFFF
//  591 
//  592 }
          CFI EndBlock cfiBlock8

        RSEG BANKED_CODE:HUGECODE:NOROOT(0)
?Subroutine177:
          CFI Block cfiCond9 Using cfiCommon0
          CFI Function zcl_addExternalFoundationHandler
          CFI Conditional ??CrossCallReturnLabel_493
          CFI R6 load(1, XDATA, add(CFA_XSP16, literal(-10)))
          CFI VB load(1, XDATA, add(CFA_XSP16, literal(-9)))
          CFI V0 load(1, XDATA, add(CFA_XSP16, literal(-8)))
          CFI V1 load(1, XDATA, add(CFA_XSP16, literal(-7)))
          CFI R7 load(1, XDATA, add(CFA_XSP16, literal(-6)))
          CFI ?RET_LOW load(1, XDATA, add(CFA_XSP16, literal(-5)))
          CFI ?RET_HIGH load(1, XDATA, add(CFA_XSP16, literal(-4)))
          CFI ?BRET_EXT load(1, XDATA, add(CFA_XSP16, literal(-3)))
          CFI DPL0 load(1, XDATA, add(CFA_XSP16, literal(-2)))
          CFI DPH0 load(1, XDATA, add(CFA_XSP16, literal(-1)))
          CFI CFA_SP SP+-2
          CFI CFA_XSP16 add(XSP16, 10)
          CFI Block cfiCond10 Using cfiCommon0
          CFI (cfiCond10) Function zcl_registerPlugin
          CFI (cfiCond10) Conditional ??CrossCallReturnLabel_494
          CFI (cfiCond10) R6 load(1, XDATA, add(CFA_XSP16, literal(-12)))
          CFI (cfiCond10) VB load(1, XDATA, add(CFA_XSP16, literal(-11)))
          CFI (cfiCond10) V0 load(1, XDATA, add(CFA_XSP16, literal(-10)))
          CFI (cfiCond10) V1 load(1, XDATA, add(CFA_XSP16, literal(-9)))
          CFI (cfiCond10) V2 load(1, XDATA, add(CFA_XSP16, literal(-8)))
          CFI (cfiCond10) V3 load(1, XDATA, add(CFA_XSP16, literal(-7)))
          CFI (cfiCond10) R7 load(1, XDATA, add(CFA_XSP16, literal(-6)))
          CFI (cfiCond10) ?RET_LOW load(1, XDATA, add(CFA_XSP16, literal(-5)))
          CFI (cfiCond10) ?RET_HIGH load(1, XDATA, add(CFA_XSP16, literal(-4)))
          CFI (cfiCond10) ?BRET_EXT load(1, XDATA, add(CFA_XSP16, literal(-3)))
          CFI (cfiCond10) DPL0 load(1, XDATA, add(CFA_XSP16, literal(-2)))
          CFI (cfiCond10) DPH0 load(1, XDATA, add(CFA_XSP16, literal(-1)))
          CFI (cfiCond10) CFA_SP SP+-2
          CFI (cfiCond10) CFA_XSP16 add(XSP16, 12)
          CFI Block cfiPicker11 Using cfiCommon1
          CFI (cfiPicker11) NoFunction
          CFI (cfiPicker11) Picker
        INC       DPTR
          CFI EndBlock cfiCond9
          CFI EndBlock cfiCond10
          CFI EndBlock cfiPicker11
        REQUIRE ??Subroutine227_0
        ; // Fall through to label ??Subroutine227_0

        RSEG BANKED_CODE:HUGECODE:NOROOT(0)
??Subroutine227_0:
          CFI Block cfiCond12 Using cfiCommon0
          CFI Function zcl_registerAttrList
          CFI Conditional ??CrossCallReturnLabel_495, ??CrossCallReturnLabel_59
          CFI R6 load(1, XDATA, add(CFA_XSP16, literal(-12)))
          CFI VB load(1, XDATA, add(CFA_XSP16, literal(-11)))
          CFI V0 load(1, XDATA, add(CFA_XSP16, literal(-10)))
          CFI V1 load(1, XDATA, add(CFA_XSP16, literal(-9)))
          CFI V2 load(1, XDATA, add(CFA_XSP16, literal(-8)))
          CFI V3 load(1, XDATA, add(CFA_XSP16, literal(-7)))
          CFI R7 load(1, XDATA, add(CFA_XSP16, literal(-6)))
          CFI ?RET_LOW load(1, XDATA, add(CFA_XSP16, literal(-5)))
          CFI ?RET_HIGH load(1, XDATA, add(CFA_XSP16, literal(-4)))
          CFI ?BRET_EXT load(1, XDATA, add(CFA_XSP16, literal(-3)))
          CFI DPL0 load(1, XDATA, add(CFA_XSP16, literal(-2)))
          CFI DPH0 load(1, XDATA, add(CFA_XSP16, literal(-1)))
          CFI CFA_SP SP+-4
          CFI CFA_XSP16 add(XSP16, 12)
          CFI Block cfiCond13 Using cfiCommon0
          CFI (cfiCond13) Function zcl_SendRead
          CFI (cfiCond13) Conditional ??CrossCallReturnLabel_495, ??CrossCallReturnLabel_60
          CFI (cfiCond13) R6 load(1, XDATA, add(CFA_XSP16, literal(-15)))
          CFI (cfiCond13) VB load(1, XDATA, add(CFA_XSP16, literal(-14)))
          CFI (cfiCond13) V0 load(1, XDATA, add(CFA_XSP16, literal(-13)))
          CFI (cfiCond13) V1 load(1, XDATA, add(CFA_XSP16, literal(-12)))
          CFI (cfiCond13) V2 load(1, XDATA, add(CFA_XSP16, literal(-11)))
          CFI (cfiCond13) V3 load(1, XDATA, add(CFA_XSP16, literal(-10)))
          CFI (cfiCond13) V4 load(1, XDATA, add(CFA_XSP16, literal(-9)))
          CFI (cfiCond13) V5 load(1, XDATA, add(CFA_XSP16, literal(-8)))
          CFI (cfiCond13) V6 load(1, XDATA, add(CFA_XSP16, literal(-7)))
          CFI (cfiCond13) R7 load(1, XDATA, add(CFA_XSP16, literal(-6)))
          CFI (cfiCond13) ?RET_LOW load(1, XDATA, add(CFA_XSP16, literal(-5)))
          CFI (cfiCond13) ?RET_HIGH load(1, XDATA, add(CFA_XSP16, literal(-4)))
          CFI (cfiCond13) ?BRET_EXT load(1, XDATA, add(CFA_XSP16, literal(-3)))
          CFI (cfiCond13) DPL0 load(1, XDATA, add(CFA_XSP16, literal(-2)))
          CFI (cfiCond13) DPH0 load(1, XDATA, add(CFA_XSP16, literal(-1)))
          CFI (cfiCond13) CFA_SP SP+-4
          CFI (cfiCond13) CFA_XSP16 add(XSP16, 19)
          CFI Block cfiCond14 Using cfiCommon0
          CFI (cfiCond14) Function zcl_SendReadRsp
          CFI (cfiCond14) Conditional ??CrossCallReturnLabel_495, ??CrossCallReturnLabel_61
          CFI (cfiCond14) R6 load(1, XDATA, add(CFA_XSP16, literal(-16)))
          CFI (cfiCond14) VB load(1, XDATA, add(CFA_XSP16, literal(-15)))
          CFI (cfiCond14) V0 load(1, XDATA, add(CFA_XSP16, literal(-14)))
          CFI (cfiCond14) V1 load(1, XDATA, add(CFA_XSP16, literal(-13)))
          CFI (cfiCond14) V2 load(1, XDATA, add(CFA_XSP16, literal(-12)))
          CFI (cfiCond14) V3 load(1, XDATA, add(CFA_XSP16, literal(-11)))
          CFI (cfiCond14) V4 load(1, XDATA, add(CFA_XSP16, literal(-10)))
          CFI (cfiCond14) V5 load(1, XDATA, add(CFA_XSP16, literal(-9)))
          CFI (cfiCond14) V6 load(1, XDATA, add(CFA_XSP16, literal(-8)))
          CFI (cfiCond14) V7 load(1, XDATA, add(CFA_XSP16, literal(-7)))
          CFI (cfiCond14) R7 load(1, XDATA, add(CFA_XSP16, literal(-6)))
          CFI (cfiCond14) ?RET_LOW load(1, XDATA, add(CFA_XSP16, literal(-5)))
          CFI (cfiCond14) ?RET_HIGH load(1, XDATA, add(CFA_XSP16, literal(-4)))
          CFI (cfiCond14) ?BRET_EXT load(1, XDATA, add(CFA_XSP16, literal(-3)))
          CFI (cfiCond14) DPL0 load(1, XDATA, add(CFA_XSP16, literal(-2)))
          CFI (cfiCond14) DPH0 load(1, XDATA, add(CFA_XSP16, literal(-1)))
          CFI (cfiCond14) CFA_SP SP+-4
          CFI (cfiCond14) CFA_XSP16 add(XSP16, 22)
          CFI Block cfiCond15 Using cfiCommon0
          CFI (cfiCond15) Function zclBuildHdr
          CFI (cfiCond15) Conditional ??CrossCallReturnLabel_496, ??CrossCallReturnLabel_490
          CFI (cfiCond15) R6 load(1, XDATA, add(CFA_XSP16, literal(-9)))
          CFI (cfiCond15) VB load(1, XDATA, add(CFA_XSP16, literal(-8)))
          CFI (cfiCond15) V0 load(1, XDATA, add(CFA_XSP16, literal(-7)))
          CFI (cfiCond15) R7 load(1, XDATA, add(CFA_XSP16, literal(-6)))
          CFI (cfiCond15) ?RET_LOW load(1, XDATA, add(CFA_XSP16, literal(-5)))
          CFI (cfiCond15) ?RET_HIGH load(1, XDATA, add(CFA_XSP16, literal(-4)))
          CFI (cfiCond15) ?BRET_EXT load(1, XDATA, add(CFA_XSP16, literal(-3)))
          CFI (cfiCond15) DPL0 load(1, XDATA, add(CFA_XSP16, literal(-2)))
          CFI (cfiCond15) DPH0 load(1, XDATA, add(CFA_XSP16, literal(-1)))
          CFI (cfiCond15) CFA_SP SP+-4
          CFI (cfiCond15) CFA_XSP16 add(XSP16, 9)
          CFI Block cfiCond16 Using cfiCommon0
          CFI (cfiCond16) Function zclBuildHdr
          CFI (cfiCond16) Conditional ??CrossCallReturnLabel_496, ??CrossCallReturnLabel_491
          CFI (cfiCond16) R6 load(1, XDATA, add(CFA_XSP16, literal(-9)))
          CFI (cfiCond16) VB load(1, XDATA, add(CFA_XSP16, literal(-8)))
          CFI (cfiCond16) V0 load(1, XDATA, add(CFA_XSP16, literal(-7)))
          CFI (cfiCond16) R7 load(1, XDATA, add(CFA_XSP16, literal(-6)))
          CFI (cfiCond16) ?RET_LOW load(1, XDATA, add(CFA_XSP16, literal(-5)))
          CFI (cfiCond16) ?RET_HIGH load(1, XDATA, add(CFA_XSP16, literal(-4)))
          CFI (cfiCond16) ?BRET_EXT load(1, XDATA, add(CFA_XSP16, literal(-3)))
          CFI (cfiCond16) DPL0 load(1, XDATA, add(CFA_XSP16, literal(-2)))
          CFI (cfiCond16) DPH0 load(1, XDATA, add(CFA_XSP16, literal(-1)))
          CFI (cfiCond16) CFA_SP SP+-4
          CFI (cfiCond16) CFA_XSP16 add(XSP16, 9)
          CFI Block cfiCond17 Using cfiCommon0
          CFI (cfiCond17) Function zclBuildHdr
          CFI (cfiCond17) Conditional ??CrossCallReturnLabel_496, ??CrossCallReturnLabel_492
          CFI (cfiCond17) R6 load(1, XDATA, add(CFA_XSP16, literal(-9)))
          CFI (cfiCond17) VB load(1, XDATA, add(CFA_XSP16, literal(-8)))
          CFI (cfiCond17) V0 load(1, XDATA, add(CFA_XSP16, literal(-7)))
          CFI (cfiCond17) R7 load(1, XDATA, add(CFA_XSP16, literal(-6)))
          CFI (cfiCond17) ?RET_LOW load(1, XDATA, add(CFA_XSP16, literal(-5)))
          CFI (cfiCond17) ?RET_HIGH load(1, XDATA, add(CFA_XSP16, literal(-4)))
          CFI (cfiCond17) ?BRET_EXT load(1, XDATA, add(CFA_XSP16, literal(-3)))
          CFI (cfiCond17) DPL0 load(1, XDATA, add(CFA_XSP16, literal(-2)))
          CFI (cfiCond17) DPH0 load(1, XDATA, add(CFA_XSP16, literal(-1)))
          CFI (cfiCond17) CFA_SP SP+-4
          CFI (cfiCond17) CFA_XSP16 add(XSP16, 9)
          CFI Block cfiCond18 Using cfiCommon0
          CFI (cfiCond18) Function zcl_addExternalFoundationHandler
          CFI (cfiCond18) Conditional ??CrossCallReturnLabel_493
          CFI (cfiCond18) R6 load(1, XDATA, add(CFA_XSP16, literal(-10)))
          CFI (cfiCond18) VB load(1, XDATA, add(CFA_XSP16, literal(-9)))
          CFI (cfiCond18) V0 load(1, XDATA, add(CFA_XSP16, literal(-8)))
          CFI (cfiCond18) V1 load(1, XDATA, add(CFA_XSP16, literal(-7)))
          CFI (cfiCond18) R7 load(1, XDATA, add(CFA_XSP16, literal(-6)))
          CFI (cfiCond18) ?RET_LOW load(1, XDATA, add(CFA_XSP16, literal(-5)))
          CFI (cfiCond18) ?RET_HIGH load(1, XDATA, add(CFA_XSP16, literal(-4)))
          CFI (cfiCond18) ?BRET_EXT load(1, XDATA, add(CFA_XSP16, literal(-3)))
          CFI (cfiCond18) DPL0 load(1, XDATA, add(CFA_XSP16, literal(-2)))
          CFI (cfiCond18) DPH0 load(1, XDATA, add(CFA_XSP16, literal(-1)))
          CFI (cfiCond18) CFA_SP SP+-2
          CFI (cfiCond18) CFA_XSP16 add(XSP16, 10)
          CFI Block cfiCond19 Using cfiCommon0
          CFI (cfiCond19) Function zcl_registerPlugin
          CFI (cfiCond19) Conditional ??CrossCallReturnLabel_494
          CFI (cfiCond19) R6 load(1, XDATA, add(CFA_XSP16, literal(-12)))
          CFI (cfiCond19) VB load(1, XDATA, add(CFA_XSP16, literal(-11)))
          CFI (cfiCond19) V0 load(1, XDATA, add(CFA_XSP16, literal(-10)))
          CFI (cfiCond19) V1 load(1, XDATA, add(CFA_XSP16, literal(-9)))
          CFI (cfiCond19) V2 load(1, XDATA, add(CFA_XSP16, literal(-8)))
          CFI (cfiCond19) V3 load(1, XDATA, add(CFA_XSP16, literal(-7)))
          CFI (cfiCond19) R7 load(1, XDATA, add(CFA_XSP16, literal(-6)))
          CFI (cfiCond19) ?RET_LOW load(1, XDATA, add(CFA_XSP16, literal(-5)))
          CFI (cfiCond19) ?RET_HIGH load(1, XDATA, add(CFA_XSP16, literal(-4)))
          CFI (cfiCond19) ?BRET_EXT load(1, XDATA, add(CFA_XSP16, literal(-3)))
          CFI (cfiCond19) DPL0 load(1, XDATA, add(CFA_XSP16, literal(-2)))
          CFI (cfiCond19) DPH0 load(1, XDATA, add(CFA_XSP16, literal(-1)))
          CFI (cfiCond19) CFA_SP SP+-2
          CFI (cfiCond19) CFA_XSP16 add(XSP16, 12)
          CFI Block cfiPicker20 Using cfiCommon1
          CFI (cfiPicker20) NoFunction
          CFI (cfiPicker20) Picker
        MOVX      @DPTR,A
        MOV       DPL,R2
        MOV       DPH,R3
        RET
          CFI EndBlock cfiCond12
          CFI EndBlock cfiCond13
          CFI EndBlock cfiCond14
          CFI EndBlock cfiCond15
          CFI EndBlock cfiCond16
          CFI EndBlock cfiCond17
          CFI EndBlock cfiCond18
          CFI EndBlock cfiCond19
          CFI EndBlock cfiPicker20

        RSEG BANKED_CODE:HUGECODE:NOROOT(0)
?Subroutine40:
          CFI Block cfiCond21 Using cfiCommon0
          CFI Function zcl_addExternalFoundationHandler
          CFI Conditional ??CrossCallReturnLabel_55
          CFI R6 load(1, XDATA, add(CFA_XSP16, literal(-10)))
          CFI VB load(1, XDATA, add(CFA_XSP16, literal(-9)))
          CFI V0 load(1, XDATA, add(CFA_XSP16, literal(-8)))
          CFI V1 load(1, XDATA, add(CFA_XSP16, literal(-7)))
          CFI R7 load(1, XDATA, add(CFA_XSP16, literal(-6)))
          CFI ?RET_LOW load(1, XDATA, add(CFA_XSP16, literal(-5)))
          CFI ?RET_HIGH load(1, XDATA, add(CFA_XSP16, literal(-4)))
          CFI ?BRET_EXT load(1, XDATA, add(CFA_XSP16, literal(-3)))
          CFI DPL0 load(1, XDATA, add(CFA_XSP16, literal(-2)))
          CFI DPH0 load(1, XDATA, add(CFA_XSP16, literal(-1)))
          CFI CFA_SP SP+-2
          CFI CFA_XSP16 add(XSP16, 10)
          CFI Block cfiCond22 Using cfiCommon0
          CFI (cfiCond22) Function zcl_addExternalFoundationHandler
          CFI (cfiCond22) Conditional ??CrossCallReturnLabel_56
          CFI (cfiCond22) R6 load(1, XDATA, add(CFA_XSP16, literal(-10)))
          CFI (cfiCond22) VB load(1, XDATA, add(CFA_XSP16, literal(-9)))
          CFI (cfiCond22) V0 load(1, XDATA, add(CFA_XSP16, literal(-8)))
          CFI (cfiCond22) V1 load(1, XDATA, add(CFA_XSP16, literal(-7)))
          CFI (cfiCond22) R7 load(1, XDATA, add(CFA_XSP16, literal(-6)))
          CFI (cfiCond22) ?RET_LOW load(1, XDATA, add(CFA_XSP16, literal(-5)))
          CFI (cfiCond22) ?RET_HIGH load(1, XDATA, add(CFA_XSP16, literal(-4)))
          CFI (cfiCond22) ?BRET_EXT load(1, XDATA, add(CFA_XSP16, literal(-3)))
          CFI (cfiCond22) DPL0 load(1, XDATA, add(CFA_XSP16, literal(-2)))
          CFI (cfiCond22) DPH0 load(1, XDATA, add(CFA_XSP16, literal(-1)))
          CFI (cfiCond22) CFA_SP SP+-2
          CFI (cfiCond22) CFA_XSP16 add(XSP16, 10)
          CFI Block cfiPicker23 Using cfiCommon1
          CFI (cfiPicker23) NoFunction
          CFI (cfiPicker23) Picker
        MOV       A,R0
        MOVX      @DPTR,A
        INC       DPTR
        MOV       A,R1
        LCALL     ?Subroutine178 & 0xFFFF
??CrossCallReturnLabel_421:
        RET
          CFI EndBlock cfiCond21
          CFI EndBlock cfiCond22
          CFI EndBlock cfiPicker23
//  593 
//  594 /*********************************************************************
//  595  * @fn      zcl_getExternalFoundationHandler
//  596  *
//  597  * @brief   This function retrieves the Task ID of the task registered
//  598  *          to received unhandled incoming Foundation Command/Response messages
//  599  *          for a particular End Point ID.
//  600  *
//  601  * @param   pInMsg - recevied ZCL command
//  602  *
//  603  * @return  TASK ID of registered task.  If no task is reigistered, it returns
//  604  *          TASK_NO_TASK.
//  605  *********************************************************************/

        RSEG BANKED_CODE:HUGECODE:NOROOT(0)
//  606 static uint8 zcl_getExternalFoundationHandler( afIncomingMSGPacket_t *pInMsg )
zcl_getExternalFoundationHandler:
          CFI Block cfiBlock24 Using cfiCommon0
          CFI Function zcl_getExternalFoundationHandler
        CODE
//  607 {
        PUSH      DPL
          CFI DPL0 Frame(CFA_SP, 4)
          CFI CFA_SP SP+-4
        PUSH      DPH
          CFI DPH0 Frame(CFA_SP, 5)
          CFI CFA_SP SP+-5
        ; Saved register size: 2
        ; Auto size: 0
//  608   zclExternalFoundationHandlerList *pLoop;
//  609   uint8 addressedEndPointId = pInMsg->endPoint;
        MOV       A,R2
        LCALL     ?Subroutine157 & 0xFFFF
??CrossCallReturnLabel_291:
        ADDC      A,R3
        MOV       DPH,A
        MOVX      A,@DPTR
        MOV       R2,A
//  610 
//  611   // make sure no one else tried to register for this endpoint
//  612   pLoop = externalEndPointHandlerList;
        MOV       DPTR,#externalEndPointHandlerList
        SJMP      ??zcl_getExternalFoundationHandler_0
//  613 
//  614   while ( pLoop != NULL )
//  615   {
//  616     if ( ( ( pLoop->zcl_ExternalEndPoint ) == addressedEndPointId ) ||
//  617          ( ( pLoop->zcl_ExternalEndPoint ) == AF_BROADCAST_ENDPOINT ) )
//  618     {
//  619       return ( pLoop->zcl_ExternalTaskID );
//  620     }
//  621     pLoop = pLoop->next;
??zcl_getExternalFoundationHandler_1:
        MOV       DPL,R0
        MOV       DPH,R1
??zcl_getExternalFoundationHandler_0:
        LCALL     ??Subroutine261_0 & 0xFFFF
??CrossCallReturnLabel_557:
        JZ        ??zcl_getExternalFoundationHandler_2
        MOV       DPL,R0
        MOV       DPH,R1
        INC       DPTR
        INC       DPTR
        INC       DPTR
        MOVX      A,@DPTR
        MOV       R3,A
        MOV       A,R2
        XRL       A,R3
        JZ        ??zcl_getExternalFoundationHandler_3
        MOV       A,#-0x1
        XRL       A,R3
        JNZ       ??zcl_getExternalFoundationHandler_1
??zcl_getExternalFoundationHandler_3:
        MOV       DPL,R0
        MOV       DPH,R1
        INC       DPTR
        INC       DPTR
        MOVX      A,@DPTR
        MOV       R1,A
        SJMP      ??zcl_getExternalFoundationHandler_4
//  622   }
//  623 
//  624   return ( TASK_NO_TASK );
??zcl_getExternalFoundationHandler_2:
        MOV       R1,#-0x1
??zcl_getExternalFoundationHandler_4:
        LJMP      ?Subroutine0 & 0xFFFF
//  625 }
          CFI EndBlock cfiBlock24
//  626 #endif
//  627 
//  628 #if !defined ( ZCL_STANDALONE )
//  629 /*********************************************************************
//  630  * @fn      zcl_HandleExternal
//  631  *
//  632  * @brief
//  633  *
//  634  * @param   pInMsg - incoming message to process
//  635  *
//  636  * @return  TRUE
//  637  */

        RSEG BANKED_CODE:HUGECODE:NOROOT(0)
//  638 uint8 zcl_HandleExternal( zclIncoming_t *pInMsg )
zcl_HandleExternal:
          CFI Block cfiBlock25 Using cfiCommon0
          CFI Function zcl_HandleExternal
        CODE
//  639 {
        FUNCALL zcl_HandleExternal, zcl_getExternalFoundationHandler
        LOCFRAME ISTACK, 0, STACK
        LOCFRAME PSTACK, 0, STACK
        LOCFRAME XSTACK, 12, STACK
        LOCFRAME IOVERLAY, 0, STATIC
        LOCFRAME DOVERLAY, 0, STATIC
        ARGFRAME ISTACK, 0, STACK
        ARGFRAME PSTACK, 0, STACK
        ARGFRAME XSTACK, 12, STACK
        ARGFRAME IOVERLAY, 0, STATIC
        ARGFRAME DOVERLAY, 0, STATIC
        FUNCALL zcl_HandleExternal, osal_msg_allocate
        LOCFRAME ISTACK, 0, STACK
        LOCFRAME PSTACK, 0, STACK
        LOCFRAME XSTACK, 12, STACK
        LOCFRAME IOVERLAY, 0, STATIC
        LOCFRAME DOVERLAY, 0, STATIC
        ARGFRAME ISTACK, 0, STACK
        ARGFRAME PSTACK, 0, STACK
        ARGFRAME XSTACK, 12, STACK
        ARGFRAME IOVERLAY, 0, STATIC
        ARGFRAME DOVERLAY, 0, STATIC
        FUNCALL zcl_HandleExternal, osal_msg_send
        LOCFRAME ISTACK, 0, STACK
        LOCFRAME PSTACK, 0, STACK
        LOCFRAME XSTACK, 12, STACK
        LOCFRAME IOVERLAY, 0, STATIC
        LOCFRAME DOVERLAY, 0, STATIC
        ARGFRAME ISTACK, 0, STACK
        ARGFRAME PSTACK, 0, STACK
        ARGFRAME XSTACK, 12, STACK
        ARGFRAME IOVERLAY, 0, STATIC
        ARGFRAME DOVERLAY, 0, STATIC
        REQUIRE ?V0
        REQUIRE ?V1
        REQUIRE ?V2
        REQUIRE ?V3
        MOV       A,#-0xc
        LCALL     ?BANKED_ENTER_XDATA
          CFI DPH0 load(1, XDATA, add(CFA_XSP16, literal(-1)))
          CFI DPL0 load(1, XDATA, add(CFA_XSP16, literal(-2)))
          CFI ?BRET_EXT load(1, XDATA, add(CFA_XSP16, literal(-3)))
          CFI ?RET_HIGH load(1, XDATA, add(CFA_XSP16, literal(-4)))
          CFI ?RET_LOW load(1, XDATA, add(CFA_XSP16, literal(-5)))
          CFI R7 load(1, XDATA, add(CFA_XSP16, literal(-6)))
          CFI V3 load(1, XDATA, add(CFA_XSP16, literal(-7)))
          CFI V2 load(1, XDATA, add(CFA_XSP16, literal(-8)))
          CFI V1 load(1, XDATA, add(CFA_XSP16, literal(-9)))
          CFI V0 load(1, XDATA, add(CFA_XSP16, literal(-10)))
          CFI VB load(1, XDATA, add(CFA_XSP16, literal(-11)))
          CFI R6 load(1, XDATA, add(CFA_XSP16, literal(-12)))
          CFI CFA_SP SP+0
          CFI CFA_XSP16 add(XSP16, 12)
        ; Saved register size: 12
        ; Auto size: 0
        MOV       A,R2
        MOV       R6,A
        MOV       A,R3
        MOV       R7,A
//  640   zclIncomingMsg_t *pCmd;
//  641   uint8 taskID;
//  642 
//  643   taskID = zcl_getExternalFoundationHandler( pInMsg->msg );
        ; Setup parameters for call to function zcl_getExternalFoundationHandler
        MOV       DPL,R2
        MOV       DPH,A
        LCALL     ??Subroutine259_0 & 0xFFFF
??CrossCallReturnLabel_522:
        LCALL     `??zcl_getExternalFoundationHandler::?relay`; Banked call to: zcl_getExternalFoundationHandler
        MOV       A,R1
        MOV       ?V0,A
//  644 
//  645   if ( taskID == TASK_NO_TASK )
        MOV       A,#-0x1
        XRL       A,R1
        JNZ       $+5
        LJMP      ??zcl_HandleExternal_0 & 0xFFFF
//  646   {
//  647     return ( TRUE );
//  648   }
//  649 
//  650   pCmd = (zclIncomingMsg_t *)osal_msg_allocate( sizeof ( zclIncomingMsg_t ) );
        ; Setup parameters for call to function osal_msg_allocate
        MOV       R2,#0x19
        MOV       R3,#0x0
        LCALL     `??osal_msg_allocate::?relay`; Banked call to: osal_msg_allocate
//  651   if ( pCmd != NULL )
        MOV       A,R2
        ORL       A,R3
        JZ        ??zcl_HandleExternal_0
//  652   {
//  653     // fill in the message
//  654     pCmd->hdr.event = ZCL_INCOMING_MSG;
        MOV       DPL,R2
        MOV       DPH,R3
        MOV       A,#0x34
        LCALL     ?Subroutine48 & 0xFFFF
//  655     pCmd->zclHdr    = pInMsg->hdr;
??CrossCallReturnLabel_68:
        INC       DPTR
        MOV       A,R2
        ADD       A,#0x2
        MOV       R4,A
        CLR       A
        ADDC      A,R3
        MOV       R5,A
        MOV       A,#0x6
        LCALL     ?MOVE_LONG8_XDATA_XDATA
//  656     pCmd->clusterId = pInMsg->msg->clusterId;
        MOV       DPL,R6
        MOV       DPH,R7
        LCALL     ?Subroutine126 & 0xFFFF
??CrossCallReturnLabel_245:
        LCALL     ?Subroutine129 & 0xFFFF
??CrossCallReturnLabel_436:
        MOV       DPL,R2
        MOV       DPH,R3
        INC       DPTR
        INC       DPTR
        INC       DPTR
        INC       DPTR
        INC       DPTR
        INC       DPTR
        INC       DPTR
        INC       DPTR
        LCALL     ?Subroutine44 & 0xFFFF
//  657     pCmd->srcAddr   = pInMsg->msg->srcAddr;
??CrossCallReturnLabel_62:
        INC       DPTR
        INC       DPTR
        INC       DPTR
        INC       DPTR
        INC       DPTR
        INC       DPTR
        MOV       A,R2
        ADD       A,#0xa
        MOV       R4,A
        CLR       A
        ADDC      A,R3
        MOV       R5,A
        MOV       A,#0xc
        LCALL     ?MOVE_LONG8_XDATA_XDATA
//  658     pCmd->endPoint  = pInMsg->msg->endPoint;
        MOV       DPL,R6
        MOV       DPH,R7
        LCALL     ?Subroutine93 & 0xFFFF
??CrossCallReturnLabel_185:
        PUSH      A
          CFI CFA_SP SP+-1
        MOV       A,R2
        ADD       A,#0x16
        MOV       DPL,A
        CLR       A
        ADDC      A,R3
        MOV       DPH,A
        POP       A
          CFI CFA_SP SP+0
        MOVX      @DPTR,A
//  659     pCmd->attrCmd   = pInMsg->attrCmd;
        MOV       A,R6
        ADD       A,#0xc
        MOV       R0,A
        CLR       A
        ADDC      A,R7
        MOV       R1,A
        MOV       DPL,R0
        MOV       DPH,A
        LCALL     ??Subroutine238_0 & 0xFFFF
??CrossCallReturnLabel_425:
        MOV       A,R2
        ADD       A,#0x17
        MOV       DPL,A
        CLR       A
        ADDC      A,R3
        MOV       DPH,A
        LCALL     ?Subroutine44 & 0xFFFF
//  660     
//  661 #ifdef BDB_REPORTING
//  662     if(pCmd->zclHdr.commandID == ZCL_CMD_CONFIG_REPORT)
//  663     {
//  664       bdb_ProcessInConfigReportCmd(pCmd);
//  665       return TRUE;          
//  666     }
//  667     if(pCmd->zclHdr.commandID == ZCL_CMD_READ_REPORT_CFG)
//  668     {
//  669       bdb_ProcessInReadReportCfgCmd(pCmd);
//  670       return TRUE;
//  671     }
//  672 #endif
//  673     // Application will free the attrCmd buffer
//  674     pInMsg->attrCmd = NULL;
??CrossCallReturnLabel_63:
        CLR       A
        MOVX      @DPTR,A
        INC       DPTR
        MOVX      @DPTR,A
//  675 
//  676     /* send message through task message */
//  677     osal_msg_send( taskID, (uint8 *)pCmd );
        ; Setup parameters for call to function osal_msg_send
        MOV       R1,?V0
        LCALL     `??osal_msg_send::?relay`; Banked call to: osal_msg_send
//  678   }
//  679 
//  680   return ( TRUE );
??zcl_HandleExternal_0:
        MOV       R1,#0x1
        LJMP      ?Subroutine4 & 0xFFFF
//  681 }
          CFI EndBlock cfiBlock25

        RSEG BANKED_CODE:HUGECODE:NOROOT(0)
?Subroutine44:
          CFI Block cfiCond26 Using cfiCommon0
          CFI Function zcl_HandleExternal
          CFI Conditional ??CrossCallReturnLabel_62
          CFI R6 load(1, XDATA, add(CFA_XSP16, literal(-12)))
          CFI VB load(1, XDATA, add(CFA_XSP16, literal(-11)))
          CFI V0 load(1, XDATA, add(CFA_XSP16, literal(-10)))
          CFI V1 load(1, XDATA, add(CFA_XSP16, literal(-9)))
          CFI V2 load(1, XDATA, add(CFA_XSP16, literal(-8)))
          CFI V3 load(1, XDATA, add(CFA_XSP16, literal(-7)))
          CFI R7 load(1, XDATA, add(CFA_XSP16, literal(-6)))
          CFI ?RET_LOW load(1, XDATA, add(CFA_XSP16, literal(-5)))
          CFI ?RET_HIGH load(1, XDATA, add(CFA_XSP16, literal(-4)))
          CFI ?BRET_EXT load(1, XDATA, add(CFA_XSP16, literal(-3)))
          CFI DPL0 load(1, XDATA, add(CFA_XSP16, literal(-2)))
          CFI DPH0 load(1, XDATA, add(CFA_XSP16, literal(-1)))
          CFI CFA_SP SP+-2
          CFI CFA_XSP16 add(XSP16, 12)
          CFI Block cfiCond27 Using cfiCommon0
          CFI (cfiCond27) Function zcl_HandleExternal
          CFI (cfiCond27) Conditional ??CrossCallReturnLabel_63
          CFI (cfiCond27) R6 load(1, XDATA, add(CFA_XSP16, literal(-12)))
          CFI (cfiCond27) VB load(1, XDATA, add(CFA_XSP16, literal(-11)))
          CFI (cfiCond27) V0 load(1, XDATA, add(CFA_XSP16, literal(-10)))
          CFI (cfiCond27) V1 load(1, XDATA, add(CFA_XSP16, literal(-9)))
          CFI (cfiCond27) V2 load(1, XDATA, add(CFA_XSP16, literal(-8)))
          CFI (cfiCond27) V3 load(1, XDATA, add(CFA_XSP16, literal(-7)))
          CFI (cfiCond27) R7 load(1, XDATA, add(CFA_XSP16, literal(-6)))
          CFI (cfiCond27) ?RET_LOW load(1, XDATA, add(CFA_XSP16, literal(-5)))
          CFI (cfiCond27) ?RET_HIGH load(1, XDATA, add(CFA_XSP16, literal(-4)))
          CFI (cfiCond27) ?BRET_EXT load(1, XDATA, add(CFA_XSP16, literal(-3)))
          CFI (cfiCond27) DPL0 load(1, XDATA, add(CFA_XSP16, literal(-2)))
          CFI (cfiCond27) DPH0 load(1, XDATA, add(CFA_XSP16, literal(-1)))
          CFI (cfiCond27) CFA_SP SP+-2
          CFI (cfiCond27) CFA_XSP16 add(XSP16, 12)
          CFI Block cfiPicker28 Using cfiCommon1
          CFI (cfiPicker28) NoFunction
          CFI (cfiPicker28) Picker
        MOV       A,R4
        MOVX      @DPTR,A
        INC       DPTR
        MOV       A,R5
        LCALL     ?Subroutine178 & 0xFFFF
??CrossCallReturnLabel_422:
        RET
          CFI EndBlock cfiCond26
          CFI EndBlock cfiCond27
          CFI EndBlock cfiPicker28

        RSEG BANKED_CODE:HUGECODE:NOROOT(0)
?Subroutine178:
          CFI Block cfiCond29 Using cfiCommon0
          CFI Function zcl_addExternalFoundationHandler
          CFI Conditional ??CrossCallReturnLabel_421, ??CrossCallReturnLabel_55
          CFI R6 load(1, XDATA, add(CFA_XSP16, literal(-10)))
          CFI VB load(1, XDATA, add(CFA_XSP16, literal(-9)))
          CFI V0 load(1, XDATA, add(CFA_XSP16, literal(-8)))
          CFI V1 load(1, XDATA, add(CFA_XSP16, literal(-7)))
          CFI R7 load(1, XDATA, add(CFA_XSP16, literal(-6)))
          CFI ?RET_LOW load(1, XDATA, add(CFA_XSP16, literal(-5)))
          CFI ?RET_HIGH load(1, XDATA, add(CFA_XSP16, literal(-4)))
          CFI ?BRET_EXT load(1, XDATA, add(CFA_XSP16, literal(-3)))
          CFI DPL0 load(1, XDATA, add(CFA_XSP16, literal(-2)))
          CFI DPH0 load(1, XDATA, add(CFA_XSP16, literal(-1)))
          CFI CFA_SP SP+-4
          CFI CFA_XSP16 add(XSP16, 10)
          CFI Block cfiCond30 Using cfiCommon0
          CFI (cfiCond30) Function zcl_addExternalFoundationHandler
          CFI (cfiCond30) Conditional ??CrossCallReturnLabel_421, ??CrossCallReturnLabel_56
          CFI (cfiCond30) R6 load(1, XDATA, add(CFA_XSP16, literal(-10)))
          CFI (cfiCond30) VB load(1, XDATA, add(CFA_XSP16, literal(-9)))
          CFI (cfiCond30) V0 load(1, XDATA, add(CFA_XSP16, literal(-8)))
          CFI (cfiCond30) V1 load(1, XDATA, add(CFA_XSP16, literal(-7)))
          CFI (cfiCond30) R7 load(1, XDATA, add(CFA_XSP16, literal(-6)))
          CFI (cfiCond30) ?RET_LOW load(1, XDATA, add(CFA_XSP16, literal(-5)))
          CFI (cfiCond30) ?RET_HIGH load(1, XDATA, add(CFA_XSP16, literal(-4)))
          CFI (cfiCond30) ?BRET_EXT load(1, XDATA, add(CFA_XSP16, literal(-3)))
          CFI (cfiCond30) DPL0 load(1, XDATA, add(CFA_XSP16, literal(-2)))
          CFI (cfiCond30) DPH0 load(1, XDATA, add(CFA_XSP16, literal(-1)))
          CFI (cfiCond30) CFA_SP SP+-4
          CFI (cfiCond30) CFA_XSP16 add(XSP16, 10)
          CFI Block cfiCond31 Using cfiCommon0
          CFI (cfiCond31) Function zcl_HandleExternal
          CFI (cfiCond31) Conditional ??CrossCallReturnLabel_422, ??CrossCallReturnLabel_62
          CFI (cfiCond31) R6 load(1, XDATA, add(CFA_XSP16, literal(-12)))
          CFI (cfiCond31) VB load(1, XDATA, add(CFA_XSP16, literal(-11)))
          CFI (cfiCond31) V0 load(1, XDATA, add(CFA_XSP16, literal(-10)))
          CFI (cfiCond31) V1 load(1, XDATA, add(CFA_XSP16, literal(-9)))
          CFI (cfiCond31) V2 load(1, XDATA, add(CFA_XSP16, literal(-8)))
          CFI (cfiCond31) V3 load(1, XDATA, add(CFA_XSP16, literal(-7)))
          CFI (cfiCond31) R7 load(1, XDATA, add(CFA_XSP16, literal(-6)))
          CFI (cfiCond31) ?RET_LOW load(1, XDATA, add(CFA_XSP16, literal(-5)))
          CFI (cfiCond31) ?RET_HIGH load(1, XDATA, add(CFA_XSP16, literal(-4)))
          CFI (cfiCond31) ?BRET_EXT load(1, XDATA, add(CFA_XSP16, literal(-3)))
          CFI (cfiCond31) DPL0 load(1, XDATA, add(CFA_XSP16, literal(-2)))
          CFI (cfiCond31) DPH0 load(1, XDATA, add(CFA_XSP16, literal(-1)))
          CFI (cfiCond31) CFA_SP SP+-4
          CFI (cfiCond31) CFA_XSP16 add(XSP16, 12)
          CFI Block cfiCond32 Using cfiCommon0
          CFI (cfiCond32) Function zcl_HandleExternal
          CFI (cfiCond32) Conditional ??CrossCallReturnLabel_422, ??CrossCallReturnLabel_63
          CFI (cfiCond32) R6 load(1, XDATA, add(CFA_XSP16, literal(-12)))
          CFI (cfiCond32) VB load(1, XDATA, add(CFA_XSP16, literal(-11)))
          CFI (cfiCond32) V0 load(1, XDATA, add(CFA_XSP16, literal(-10)))
          CFI (cfiCond32) V1 load(1, XDATA, add(CFA_XSP16, literal(-9)))
          CFI (cfiCond32) V2 load(1, XDATA, add(CFA_XSP16, literal(-8)))
          CFI (cfiCond32) V3 load(1, XDATA, add(CFA_XSP16, literal(-7)))
          CFI (cfiCond32) R7 load(1, XDATA, add(CFA_XSP16, literal(-6)))
          CFI (cfiCond32) ?RET_LOW load(1, XDATA, add(CFA_XSP16, literal(-5)))
          CFI (cfiCond32) ?RET_HIGH load(1, XDATA, add(CFA_XSP16, literal(-4)))
          CFI (cfiCond32) ?BRET_EXT load(1, XDATA, add(CFA_XSP16, literal(-3)))
          CFI (cfiCond32) DPL0 load(1, XDATA, add(CFA_XSP16, literal(-2)))
          CFI (cfiCond32) DPH0 load(1, XDATA, add(CFA_XSP16, literal(-1)))
          CFI (cfiCond32) CFA_SP SP+-4
          CFI (cfiCond32) CFA_XSP16 add(XSP16, 12)
          CFI Block cfiCond33 Using cfiCommon0
          CFI (cfiCond33) Function zcl_SendDefaultRspCmd
          CFI (cfiCond33) Conditional ??CrossCallReturnLabel_423, ??CrossCallReturnLabel_416
          CFI (cfiCond33) R6 load(1, XDATA, add(CFA_XSP16, literal(-10)))
          CFI (cfiCond33) VB load(1, XDATA, add(CFA_XSP16, literal(-9)))
          CFI (cfiCond33) V0 load(1, XDATA, add(CFA_XSP16, literal(-8)))
          CFI (cfiCond33) V1 load(1, XDATA, add(CFA_XSP16, literal(-7)))
          CFI (cfiCond33) R7 load(1, XDATA, add(CFA_XSP16, literal(-6)))
          CFI (cfiCond33) ?RET_LOW load(1, XDATA, add(CFA_XSP16, literal(-5)))
          CFI (cfiCond33) ?RET_HIGH load(1, XDATA, add(CFA_XSP16, literal(-4)))
          CFI (cfiCond33) ?BRET_EXT load(1, XDATA, add(CFA_XSP16, literal(-3)))
          CFI (cfiCond33) DPL0 load(1, XDATA, add(CFA_XSP16, literal(-2)))
          CFI (cfiCond33) DPH0 load(1, XDATA, add(CFA_XSP16, literal(-1)))
          CFI (cfiCond33) CFA_SP SP+-4
          CFI (cfiCond33) CFA_XSP16 add(XSP16, 12)
          CFI Block cfiCond34 Using cfiCommon0
          CFI (cfiCond34) Function zcl_SendDiscoverCmdsCmd
          CFI (cfiCond34) Conditional ??CrossCallReturnLabel_423, ??CrossCallReturnLabel_417
          CFI (cfiCond34) R6 load(1, XDATA, add(CFA_XSP16, literal(-14)))
          CFI (cfiCond34) VB load(1, XDATA, add(CFA_XSP16, literal(-13)))
          CFI (cfiCond34) V0 load(1, XDATA, add(CFA_XSP16, literal(-12)))
          CFI (cfiCond34) V1 load(1, XDATA, add(CFA_XSP16, literal(-11)))
          CFI (cfiCond34) V2 load(1, XDATA, add(CFA_XSP16, literal(-10)))
          CFI (cfiCond34) V3 load(1, XDATA, add(CFA_XSP16, literal(-9)))
          CFI (cfiCond34) V4 load(1, XDATA, add(CFA_XSP16, literal(-8)))
          CFI (cfiCond34) V5 load(1, XDATA, add(CFA_XSP16, literal(-7)))
          CFI (cfiCond34) R7 load(1, XDATA, add(CFA_XSP16, literal(-6)))
          CFI (cfiCond34) ?RET_LOW load(1, XDATA, add(CFA_XSP16, literal(-5)))
          CFI (cfiCond34) ?RET_HIGH load(1, XDATA, add(CFA_XSP16, literal(-4)))
          CFI (cfiCond34) ?BRET_EXT load(1, XDATA, add(CFA_XSP16, literal(-3)))
          CFI (cfiCond34) DPL0 load(1, XDATA, add(CFA_XSP16, literal(-2)))
          CFI (cfiCond34) DPH0 load(1, XDATA, add(CFA_XSP16, literal(-1)))
          CFI (cfiCond34) CFA_SP SP+-4
          CFI (cfiCond34) CFA_XSP16 add(XSP16, 16)
          CFI Block cfiCond35 Using cfiCommon0
          CFI (cfiCond35) Function zcl_SendDiscoverAttrsExt
          CFI (cfiCond35) Conditional ??CrossCallReturnLabel_423, ??CrossCallReturnLabel_418
          CFI (cfiCond35) R6 load(1, XDATA, add(CFA_XSP16, literal(-10)))
          CFI (cfiCond35) VB load(1, XDATA, add(CFA_XSP16, literal(-9)))
          CFI (cfiCond35) V0 load(1, XDATA, add(CFA_XSP16, literal(-8)))
          CFI (cfiCond35) V1 load(1, XDATA, add(CFA_XSP16, literal(-7)))
          CFI (cfiCond35) R7 load(1, XDATA, add(CFA_XSP16, literal(-6)))
          CFI (cfiCond35) ?RET_LOW load(1, XDATA, add(CFA_XSP16, literal(-5)))
          CFI (cfiCond35) ?RET_HIGH load(1, XDATA, add(CFA_XSP16, literal(-4)))
          CFI (cfiCond35) ?BRET_EXT load(1, XDATA, add(CFA_XSP16, literal(-3)))
          CFI (cfiCond35) DPL0 load(1, XDATA, add(CFA_XSP16, literal(-2)))
          CFI (cfiCond35) DPH0 load(1, XDATA, add(CFA_XSP16, literal(-1)))
          CFI (cfiCond35) CFA_SP SP+-4
          CFI (cfiCond35) CFA_XSP16 add(XSP16, 13)
          CFI Block cfiCond36 Using cfiCommon0
          CFI (cfiCond36) Function zcl_SendDiscoverAttrsCmd
          CFI (cfiCond36) Conditional ??CrossCallReturnLabel_423, ??CrossCallReturnLabel_419
          CFI (cfiCond36) R6 load(1, XDATA, add(CFA_XSP16, literal(-16)))
          CFI (cfiCond36) VB load(1, XDATA, add(CFA_XSP16, literal(-15)))
          CFI (cfiCond36) V0 load(1, XDATA, add(CFA_XSP16, literal(-14)))
          CFI (cfiCond36) V1 load(1, XDATA, add(CFA_XSP16, literal(-13)))
          CFI (cfiCond36) V2 load(1, XDATA, add(CFA_XSP16, literal(-12)))
          CFI (cfiCond36) V3 load(1, XDATA, add(CFA_XSP16, literal(-11)))
          CFI (cfiCond36) V4 load(1, XDATA, add(CFA_XSP16, literal(-10)))
          CFI (cfiCond36) V5 load(1, XDATA, add(CFA_XSP16, literal(-9)))
          CFI (cfiCond36) V6 load(1, XDATA, add(CFA_XSP16, literal(-8)))
          CFI (cfiCond36) V7 load(1, XDATA, add(CFA_XSP16, literal(-7)))
          CFI (cfiCond36) R7 load(1, XDATA, add(CFA_XSP16, literal(-6)))
          CFI (cfiCond36) ?RET_LOW load(1, XDATA, add(CFA_XSP16, literal(-5)))
          CFI (cfiCond36) ?RET_HIGH load(1, XDATA, add(CFA_XSP16, literal(-4)))
          CFI (cfiCond36) ?BRET_EXT load(1, XDATA, add(CFA_XSP16, literal(-3)))
          CFI (cfiCond36) DPL0 load(1, XDATA, add(CFA_XSP16, literal(-2)))
          CFI (cfiCond36) DPH0 load(1, XDATA, add(CFA_XSP16, literal(-1)))
          CFI (cfiCond36) CFA_SP SP+-4
          CFI (cfiCond36) CFA_XSP16 add(XSP16, 16)
          CFI Block cfiCond37 Using cfiCommon0
          CFI (cfiCond37) Function zclBuildHdr
          CFI (cfiCond37) Conditional ??CrossCallReturnLabel_423, ??CrossCallReturnLabel_420
          CFI (cfiCond37) R6 load(1, XDATA, add(CFA_XSP16, literal(-9)))
          CFI (cfiCond37) VB load(1, XDATA, add(CFA_XSP16, literal(-8)))
          CFI (cfiCond37) V0 load(1, XDATA, add(CFA_XSP16, literal(-7)))
          CFI (cfiCond37) R7 load(1, XDATA, add(CFA_XSP16, literal(-6)))
          CFI (cfiCond37) ?RET_LOW load(1, XDATA, add(CFA_XSP16, literal(-5)))
          CFI (cfiCond37) ?RET_HIGH load(1, XDATA, add(CFA_XSP16, literal(-4)))
          CFI (cfiCond37) ?BRET_EXT load(1, XDATA, add(CFA_XSP16, literal(-3)))
          CFI (cfiCond37) DPL0 load(1, XDATA, add(CFA_XSP16, literal(-2)))
          CFI (cfiCond37) DPH0 load(1, XDATA, add(CFA_XSP16, literal(-1)))
          CFI (cfiCond37) CFA_SP SP+-4
          CFI (cfiCond37) CFA_XSP16 add(XSP16, 9)
          CFI Block cfiCond38 Using cfiCommon0
          CFI (cfiCond38) Function zcl_SendDiscoverAttrsCmd
          CFI (cfiCond38) Conditional ??CrossCallReturnLabel_424, ??CrossCallReturnLabel_71
          CFI (cfiCond38) R6 load(1, XDATA, add(CFA_XSP16, literal(-16)))
          CFI (cfiCond38) VB load(1, XDATA, add(CFA_XSP16, literal(-15)))
          CFI (cfiCond38) V0 load(1, XDATA, add(CFA_XSP16, literal(-14)))
          CFI (cfiCond38) V1 load(1, XDATA, add(CFA_XSP16, literal(-13)))
          CFI (cfiCond38) V2 load(1, XDATA, add(CFA_XSP16, literal(-12)))
          CFI (cfiCond38) V3 load(1, XDATA, add(CFA_XSP16, literal(-11)))
          CFI (cfiCond38) V4 load(1, XDATA, add(CFA_XSP16, literal(-10)))
          CFI (cfiCond38) V5 load(1, XDATA, add(CFA_XSP16, literal(-9)))
          CFI (cfiCond38) V6 load(1, XDATA, add(CFA_XSP16, literal(-8)))
          CFI (cfiCond38) V7 load(1, XDATA, add(CFA_XSP16, literal(-7)))
          CFI (cfiCond38) R7 load(1, XDATA, add(CFA_XSP16, literal(-6)))
          CFI (cfiCond38) ?RET_LOW load(1, XDATA, add(CFA_XSP16, literal(-5)))
          CFI (cfiCond38) ?RET_HIGH load(1, XDATA, add(CFA_XSP16, literal(-4)))
          CFI (cfiCond38) ?BRET_EXT load(1, XDATA, add(CFA_XSP16, literal(-3)))
          CFI (cfiCond38) DPL0 load(1, XDATA, add(CFA_XSP16, literal(-2)))
          CFI (cfiCond38) DPH0 load(1, XDATA, add(CFA_XSP16, literal(-1)))
          CFI (cfiCond38) CFA_SP SP+-4
          CFI (cfiCond38) CFA_XSP16 add(XSP16, 16)
          CFI Block cfiCond39 Using cfiCommon0
          CFI (cfiCond39) Function zcl_SendDiscoverAttrsExt
          CFI (cfiCond39) Conditional ??CrossCallReturnLabel_424, ??CrossCallReturnLabel_72
          CFI (cfiCond39) R6 load(1, XDATA, add(CFA_XSP16, literal(-10)))
          CFI (cfiCond39) VB load(1, XDATA, add(CFA_XSP16, literal(-9)))
          CFI (cfiCond39) V0 load(1, XDATA, add(CFA_XSP16, literal(-8)))
          CFI (cfiCond39) V1 load(1, XDATA, add(CFA_XSP16, literal(-7)))
          CFI (cfiCond39) R7 load(1, XDATA, add(CFA_XSP16, literal(-6)))
          CFI (cfiCond39) ?RET_LOW load(1, XDATA, add(CFA_XSP16, literal(-5)))
          CFI (cfiCond39) ?RET_HIGH load(1, XDATA, add(CFA_XSP16, literal(-4)))
          CFI (cfiCond39) ?BRET_EXT load(1, XDATA, add(CFA_XSP16, literal(-3)))
          CFI (cfiCond39) DPL0 load(1, XDATA, add(CFA_XSP16, literal(-2)))
          CFI (cfiCond39) DPH0 load(1, XDATA, add(CFA_XSP16, literal(-1)))
          CFI (cfiCond39) CFA_SP SP+-4
          CFI (cfiCond39) CFA_XSP16 add(XSP16, 13)
          CFI Block cfiPicker40 Using cfiCommon1
          CFI (cfiPicker40) NoFunction
          CFI (cfiPicker40) Picker
        MOVX      @DPTR,A
        MOV       DPL,R0
        MOV       DPH,R1
        RET
          CFI EndBlock cfiCond29
          CFI EndBlock cfiCond30
          CFI EndBlock cfiCond31
          CFI EndBlock cfiCond32
          CFI EndBlock cfiCond33
          CFI EndBlock cfiCond34
          CFI EndBlock cfiCond35
          CFI EndBlock cfiCond36
          CFI EndBlock cfiCond37
          CFI EndBlock cfiCond38
          CFI EndBlock cfiCond39
          CFI EndBlock cfiPicker40
//  682 #endif
//  683 
//  684 
//  685 /*********************************************************************
//  686  * @fn          zcl_getRawAFMsg
//  687  *
//  688  * @brief       Call to get original unprocessed AF message
//  689  *              (not parsed by ZCL).
//  690  *
//  691  *   NOTE:  This function can only be called during a ZCL callback function
//  692  *          and the calling function must NOT change any data in the message.
//  693  *
//  694  * @param       none
//  695  *
//  696  * @return      pointer to original AF message, NULL if not processing
//  697  *              AF message.
//  698  */

        RSEG BANKED_CODE:HUGECODE:NOROOT(0)
//  699 afIncomingMSGPacket_t *zcl_getRawAFMsg( void )
zcl_getRawAFMsg:
          CFI Block cfiBlock41 Using cfiCommon0
          CFI Function zcl_getRawAFMsg
        CODE
//  700 {
        PUSH      DPL
          CFI DPL0 Frame(CFA_SP, 4)
          CFI CFA_SP SP+-4
        PUSH      DPH
          CFI DPH0 Frame(CFA_SP, 5)
          CFI CFA_SP SP+-5
        ; Saved register size: 2
        ; Auto size: 0
//  701   return ( rawAFMsg );
        MOV       DPTR,#rawAFMsg
        LCALL     ??Subroutine259_0 & 0xFFFF
??CrossCallReturnLabel_523:
        SJMP      ?Subroutine0
//  702 }
          CFI EndBlock cfiBlock41
//  703 
//  704 /*********************************************************************
//  705  * @fn          zcl_getParsedTransSeqNum
//  706  *
//  707  * @brief       Call to the get the transaction sequence number from
//  708  *              the incoming message.
//  709  *
//  710  *   NOTE:  This function can only be called during a ZCL callback function
//  711  *          and the calling function must NOT change any data in the message.
//  712  *
//  713  * @param       none
//  714  *
//  715  * @return      transaction sequence number.
//  716  */

        RSEG BANKED_CODE:HUGECODE:NOROOT(0)
//  717 uint8 zcl_getParsedTransSeqNum( void )
zcl_getParsedTransSeqNum:
          CFI Block cfiBlock42 Using cfiCommon0
          CFI Function zcl_getParsedTransSeqNum
        CODE
//  718 {
        PUSH      DPL
          CFI DPL0 Frame(CFA_SP, 4)
          CFI CFA_SP SP+-4
        PUSH      DPH
          CFI DPH0 Frame(CFA_SP, 5)
          CFI CFA_SP SP+-5
        ; Saved register size: 2
        ; Auto size: 0
//  719   return ( savedZCLTransSeqNum );
        MOV       DPTR,#savedZCLTransSeqNum
        MOVX      A,@DPTR
        MOV       R1,A
          CFI EndBlock cfiBlock42
        REQUIRE ?Subroutine0
        ; // Fall through to label ?Subroutine0
//  720 }

        RSEG BANKED_CODE:HUGECODE:NOROOT(0)
?Subroutine0:
          CFI Block cfiBlock43 Using cfiCommon0
          CFI NoFunction
          CFI CFA_SP SP+-5
          CFI DPL0 Frame(CFA_SP, 4)
          CFI DPH0 Frame(CFA_SP, 5)
        POP       DPH
          CFI CFA_SP SP+-4
          CFI DPH0 SameValue
        POP       DPL
          CFI CFA_SP SP+-3
          CFI DPL0 SameValue
        LJMP      ?BRET
          CFI EndBlock cfiBlock43
//  721 
//  722 /*********************************************************************
//  723  * @fn          zcl_registerPlugin
//  724  *
//  725  * @brief       Add a Cluster Library handler
//  726  *
//  727  * @param       startClusterID - starting cluster ID
//  728  * @param       endClusterID - ending cluster ID
//  729  * @param       pfnHdlr - function pointer to incoming message handler
//  730  *
//  731  * @return      ZSuccess if OK
//  732  */

        RSEG BANKED_CODE:HUGECODE:NOROOT(0)
//  733 ZStatus_t zcl_registerPlugin( uint16 startClusterID,
zcl_registerPlugin:
          CFI Block cfiBlock44 Using cfiCommon0
          CFI Function zcl_registerPlugin
        CODE
//  734           uint16 endClusterID, zclInHdlr_t pfnIncomingHdlr )
//  735 {
        FUNCALL zcl_registerPlugin, osal_mem_alloc
        LOCFRAME ISTACK, 0, STACK
        LOCFRAME PSTACK, 0, STACK
        LOCFRAME XSTACK, 12, STACK
        LOCFRAME IOVERLAY, 0, STATIC
        LOCFRAME DOVERLAY, 0, STATIC
        ARGFRAME ISTACK, 0, STACK
        ARGFRAME PSTACK, 0, STACK
        ARGFRAME XSTACK, 12, STACK
        ARGFRAME IOVERLAY, 0, STATIC
        ARGFRAME DOVERLAY, 0, STATIC
        REQUIRE ?V0
        REQUIRE ?V1
        REQUIRE ?V2
        REQUIRE ?V3
        MOV       A,#-0xc
        LCALL     ?BANKED_ENTER_XDATA
          CFI DPH0 load(1, XDATA, add(CFA_XSP16, literal(-1)))
          CFI DPL0 load(1, XDATA, add(CFA_XSP16, literal(-2)))
          CFI ?BRET_EXT load(1, XDATA, add(CFA_XSP16, literal(-3)))
          CFI ?RET_HIGH load(1, XDATA, add(CFA_XSP16, literal(-4)))
          CFI ?RET_LOW load(1, XDATA, add(CFA_XSP16, literal(-5)))
          CFI R7 load(1, XDATA, add(CFA_XSP16, literal(-6)))
          CFI V3 load(1, XDATA, add(CFA_XSP16, literal(-7)))
          CFI V2 load(1, XDATA, add(CFA_XSP16, literal(-8)))
          CFI V1 load(1, XDATA, add(CFA_XSP16, literal(-9)))
          CFI V0 load(1, XDATA, add(CFA_XSP16, literal(-10)))
          CFI VB load(1, XDATA, add(CFA_XSP16, literal(-11)))
          CFI R6 load(1, XDATA, add(CFA_XSP16, literal(-12)))
          CFI CFA_SP SP+0
          CFI CFA_XSP16 add(XSP16, 12)
        ; Saved register size: 12
        ; Auto size: 0
        MOV       ?V0,R2
        MOV       ?V1,R3
        MOV       A,R4
        MOV       R6,A
        MOV       A,R5
        MOV       R7,A
//  736   zclLibPlugin_t *pNewItem;
//  737   zclLibPlugin_t *pLoop;
//  738 
//  739   // Fill in the new profile list
//  740   pNewItem = zcl_mem_alloc( sizeof( zclLibPlugin_t ) );
        ; Setup parameters for call to function osal_mem_alloc
        MOV       R2,#0x8
        LCALL     ??Subroutine228_0 & 0xFFFF
//  741   if ( pNewItem == NULL )
??CrossCallReturnLabel_379:
        JNZ       ??zcl_registerPlugin_0
//  742   {
//  743     return (ZMemError);
        MOV       R1,#0x10
        SJMP      ??CrossCallReturnLabel_33
//  744   }
//  745 
//  746   // Fill in the plugin record.
//  747   pNewItem->next = (zclLibPlugin_t *)NULL;
??zcl_registerPlugin_0:
        MOV       DPL,R2
        MOV       DPH,R3
        CLR       A
        MOVX      @DPTR,A
        LCALL     ?Subroutine177 & 0xFFFF
//  748   pNewItem->startClusterID = startClusterID;
??CrossCallReturnLabel_494:
        LCALL     ?Subroutine25 & 0xFFFF
//  749   pNewItem->endClusterID = endClusterID;
??CrossCallReturnLabel_29:
        MOV       A,R6
        MOVX      @DPTR,A
        INC       DPTR
        MOV       A,R7
        MOVX      @DPTR,A
//  750   pNewItem->pfnIncomingHdlr = pfnIncomingHdlr;
        MOV       A,#0xc
        LCALL     ?XSTACK_DISP0_8
        LCALL     ?Subroutine73 & 0xFFFF
??CrossCallReturnLabel_138:
        INC       DPTR
        INC       DPTR
        INC       DPTR
        INC       DPTR
        LCALL     ??Subroutine248_0 & 0xFFFF
//  751 
//  752   // Find spot in list
//  753   if (  plugins == NULL )
??CrossCallReturnLabel_471:
        MOV       DPTR,#plugins
        LCALL     ??Subroutine235_0 & 0xFFFF
??CrossCallReturnLabel_409:
        MOV       DPTR,#plugins
        JZ        ??zcl_registerPlugin_1
//  754   {
//  755     plugins = pNewItem;
//  756   }
//  757   else
//  758   {
//  759     // Look for end of list
//  760     pLoop = plugins;
        LCALL     ?Subroutine141 & 0xFFFF
??CrossCallReturnLabel_267:
        SJMP      ??zcl_registerPlugin_2
//  761     while ( pLoop->next != NULL )
//  762     {
//  763       pLoop = pLoop->next;
??zcl_registerPlugin_3:
        MOV       A,R2
        MOV       R4,A
        MOV       A,R3
//  764     }
??zcl_registerPlugin_2:
        LCALL     ?Subroutine53 & 0xFFFF
??CrossCallReturnLabel_401:
        JNZ       ??zcl_registerPlugin_3
//  765 
//  766     // Put new item at end of list
//  767     pLoop->next = pNewItem;
        MOV       DPL,R4
        MOV       DPH,R5
//  768   }
??zcl_registerPlugin_1:
        LCALL     ?Subroutine29 & 0xFFFF
//  769 
//  770   return ( ZSuccess );
??CrossCallReturnLabel_33:
        LJMP      ?Subroutine4 & 0xFFFF
//  771 }
          CFI EndBlock cfiBlock44
//  772 
//  773 #ifdef ZCL_DISCOVER
//  774 /*********************************************************************
//  775  * @fn          zcl_registerCmdList
//  776  *
//  777  * @brief       Register a Command List with ZCL Foundation
//  778  *
//  779  * @param       endpoint - endpoint the attribute list belongs to
//  780  * @param       newCmdList - array of command records
//  781  *
//  782  * @return      ZSuccess if OK
//  783  */

        RSEG BANKED_CODE:HUGECODE:NOROOT(0)
//  784 ZStatus_t zcl_registerCmdList( uint8 endpoint, CONST uint8 cmdListSize, CONST zclCommandRec_t newCmdList[] )
zcl_registerCmdList:
          CFI Block cfiBlock45 Using cfiCommon0
          CFI Function zcl_registerCmdList
        CODE
//  785 {
        FUNCALL zcl_registerCmdList, osal_mem_alloc
        LOCFRAME ISTACK, 0, STACK
        LOCFRAME PSTACK, 0, STACK
        LOCFRAME XSTACK, 12, STACK
        LOCFRAME IOVERLAY, 0, STATIC
        LOCFRAME DOVERLAY, 0, STATIC
        ARGFRAME ISTACK, 0, STACK
        ARGFRAME PSTACK, 0, STACK
        ARGFRAME XSTACK, 12, STACK
        ARGFRAME IOVERLAY, 0, STATIC
        ARGFRAME DOVERLAY, 0, STATIC
        REQUIRE ?V0
        REQUIRE ?V1
        REQUIRE ?V2
        REQUIRE ?V3
        MOV       A,#-0xc
        LCALL     ?BANKED_ENTER_XDATA
          CFI DPH0 load(1, XDATA, add(CFA_XSP16, literal(-1)))
          CFI DPL0 load(1, XDATA, add(CFA_XSP16, literal(-2)))
          CFI ?BRET_EXT load(1, XDATA, add(CFA_XSP16, literal(-3)))
          CFI ?RET_HIGH load(1, XDATA, add(CFA_XSP16, literal(-4)))
          CFI ?RET_LOW load(1, XDATA, add(CFA_XSP16, literal(-5)))
          CFI R7 load(1, XDATA, add(CFA_XSP16, literal(-6)))
          CFI V3 load(1, XDATA, add(CFA_XSP16, literal(-7)))
          CFI V2 load(1, XDATA, add(CFA_XSP16, literal(-8)))
          CFI V1 load(1, XDATA, add(CFA_XSP16, literal(-9)))
          CFI V0 load(1, XDATA, add(CFA_XSP16, literal(-10)))
          CFI VB load(1, XDATA, add(CFA_XSP16, literal(-11)))
          CFI R6 load(1, XDATA, add(CFA_XSP16, literal(-12)))
          CFI CFA_SP SP+0
          CFI CFA_XSP16 add(XSP16, 12)
        ; Saved register size: 12
        ; Auto size: 0
        LCALL     ?Subroutine150 & 0xFFFF
//  786   zclCmdRecsList_t *pNewItem;
//  787   zclCmdRecsList_t *pLoop;
//  788 
//  789   // Fill in the new profile list
//  790   pNewItem = zcl_mem_alloc( sizeof( zclCmdRecsList_t ) );
//  791   if ( pNewItem == NULL )
??CrossCallReturnLabel_377:
        JNZ       ??zcl_registerCmdList_0
//  792   {
//  793     return (ZMemError);
        MOV       R1,#0x10
        SJMP      ??CrossCallReturnLabel_34
//  794   }
//  795 
//  796   pNewItem->pNext = (zclCmdRecsList_t *)NULL;
??zcl_registerCmdList_0:
        LCALL     ?Subroutine13 & 0xFFFF
//  797   pNewItem->endpoint = endpoint;
//  798   pNewItem->numCommands = cmdListSize;
//  799   pNewItem->pCmdRecs = newCmdList;
//  800 
//  801   // Find spot in list
//  802   if ( gpCmdList == NULL )
??CrossCallReturnLabel_7:
        MOV       DPTR,#gpCmdList
        LCALL     ??Subroutine235_0 & 0xFFFF
??CrossCallReturnLabel_410:
        MOV       DPTR,#gpCmdList
        JZ        ??zcl_registerCmdList_1
//  803   {
//  804     gpCmdList = pNewItem;
//  805   }
//  806   else
//  807   {
//  808     // Look for end of list
//  809     pLoop = gpCmdList;
        LCALL     ?Subroutine141 & 0xFFFF
??CrossCallReturnLabel_268:
        SJMP      ??zcl_registerCmdList_2
//  810     while ( pLoop->pNext != NULL )
//  811     {
//  812       pLoop = pLoop->pNext;
??zcl_registerCmdList_3:
        MOV       A,R2
        MOV       R4,A
        MOV       A,R3
//  813     }
??zcl_registerCmdList_2:
        LCALL     ?Subroutine53 & 0xFFFF
??CrossCallReturnLabel_402:
        JNZ       ??zcl_registerCmdList_3
//  814 
//  815     // Put new item at end of list
//  816     pLoop->pNext = pNewItem;
        MOV       DPL,R4
        MOV       DPH,R5
//  817   }
??zcl_registerCmdList_1:
        LCALL     ?Subroutine29 & 0xFFFF
//  818 
//  819   return ( ZSuccess );
??CrossCallReturnLabel_34:
        LJMP      ?Subroutine4 & 0xFFFF
//  820 }
          CFI EndBlock cfiBlock45

        RSEG BANKED_CODE:HUGECODE:NOROOT(0)
?Subroutine150:
          CFI Block cfiCond46 Using cfiCommon0
          CFI Function zcl_registerCmdList
          CFI Conditional ??CrossCallReturnLabel_377
          CFI R6 load(1, XDATA, add(CFA_XSP16, literal(-12)))
          CFI VB load(1, XDATA, add(CFA_XSP16, literal(-11)))
          CFI V0 load(1, XDATA, add(CFA_XSP16, literal(-10)))
          CFI V1 load(1, XDATA, add(CFA_XSP16, literal(-9)))
          CFI V2 load(1, XDATA, add(CFA_XSP16, literal(-8)))
          CFI V3 load(1, XDATA, add(CFA_XSP16, literal(-7)))
          CFI R7 load(1, XDATA, add(CFA_XSP16, literal(-6)))
          CFI ?RET_LOW load(1, XDATA, add(CFA_XSP16, literal(-5)))
          CFI ?RET_HIGH load(1, XDATA, add(CFA_XSP16, literal(-4)))
          CFI ?BRET_EXT load(1, XDATA, add(CFA_XSP16, literal(-3)))
          CFI DPL0 load(1, XDATA, add(CFA_XSP16, literal(-2)))
          CFI DPH0 load(1, XDATA, add(CFA_XSP16, literal(-1)))
          CFI CFA_SP SP+-2
          CFI CFA_XSP16 add(XSP16, 12)
          CFI Block cfiCond47 Using cfiCommon0
          CFI (cfiCond47) Function zcl_registerClusterOptionList
          CFI (cfiCond47) Conditional ??CrossCallReturnLabel_378
          CFI (cfiCond47) R6 load(1, XDATA, add(CFA_XSP16, literal(-12)))
          CFI (cfiCond47) VB load(1, XDATA, add(CFA_XSP16, literal(-11)))
          CFI (cfiCond47) V0 load(1, XDATA, add(CFA_XSP16, literal(-10)))
          CFI (cfiCond47) V1 load(1, XDATA, add(CFA_XSP16, literal(-9)))
          CFI (cfiCond47) V2 load(1, XDATA, add(CFA_XSP16, literal(-8)))
          CFI (cfiCond47) V3 load(1, XDATA, add(CFA_XSP16, literal(-7)))
          CFI (cfiCond47) R7 load(1, XDATA, add(CFA_XSP16, literal(-6)))
          CFI (cfiCond47) ?RET_LOW load(1, XDATA, add(CFA_XSP16, literal(-5)))
          CFI (cfiCond47) ?RET_HIGH load(1, XDATA, add(CFA_XSP16, literal(-4)))
          CFI (cfiCond47) ?BRET_EXT load(1, XDATA, add(CFA_XSP16, literal(-3)))
          CFI (cfiCond47) DPL0 load(1, XDATA, add(CFA_XSP16, literal(-2)))
          CFI (cfiCond47) DPH0 load(1, XDATA, add(CFA_XSP16, literal(-1)))
          CFI (cfiCond47) CFA_SP SP+-2
          CFI (cfiCond47) CFA_XSP16 add(XSP16, 12)
          CFI Block cfiPicker48 Using cfiCommon1
          CFI (cfiPicker48) NoFunction
          CFI (cfiPicker48) Picker
        MOV       ?V0,R1
        MOV       ?V1,R2
        MOV       A,R4
        MOV       R6,A
        MOV       A,R5
        MOV       R7,A
        ; Setup parameters for call to function osal_mem_alloc
        ; Setup parameters for call to function osal_mem_alloc
        MOV       R2,#0x6
          CFI EndBlock cfiCond46
          CFI EndBlock cfiCond47
          CFI EndBlock cfiPicker48
        REQUIRE ??Subroutine228_0
        ; // Fall through to label ??Subroutine228_0

        RSEG BANKED_CODE:HUGECODE:NOROOT(0)
??Subroutine228_0:
          CFI Block cfiCond49 Using cfiCommon0
          CFI Function zcl_registerPlugin
          CFI Conditional ??CrossCallReturnLabel_379
          CFI R6 load(1, XDATA, add(CFA_XSP16, literal(-12)))
          CFI VB load(1, XDATA, add(CFA_XSP16, literal(-11)))
          CFI V0 load(1, XDATA, add(CFA_XSP16, literal(-10)))
          CFI V1 load(1, XDATA, add(CFA_XSP16, literal(-9)))
          CFI V2 load(1, XDATA, add(CFA_XSP16, literal(-8)))
          CFI V3 load(1, XDATA, add(CFA_XSP16, literal(-7)))
          CFI R7 load(1, XDATA, add(CFA_XSP16, literal(-6)))
          CFI ?RET_LOW load(1, XDATA, add(CFA_XSP16, literal(-5)))
          CFI ?RET_HIGH load(1, XDATA, add(CFA_XSP16, literal(-4)))
          CFI ?BRET_EXT load(1, XDATA, add(CFA_XSP16, literal(-3)))
          CFI DPL0 load(1, XDATA, add(CFA_XSP16, literal(-2)))
          CFI DPH0 load(1, XDATA, add(CFA_XSP16, literal(-1)))
          CFI CFA_SP SP+-2
          CFI CFA_XSP16 add(XSP16, 12)
          CFI Block cfiCond50 Using cfiCommon0
          CFI (cfiCond50) Function zcl_registerAttrList
          CFI (cfiCond50) Conditional ??CrossCallReturnLabel_380
          CFI (cfiCond50) R6 load(1, XDATA, add(CFA_XSP16, literal(-12)))
          CFI (cfiCond50) VB load(1, XDATA, add(CFA_XSP16, literal(-11)))
          CFI (cfiCond50) V0 load(1, XDATA, add(CFA_XSP16, literal(-10)))
          CFI (cfiCond50) V1 load(1, XDATA, add(CFA_XSP16, literal(-9)))
          CFI (cfiCond50) V2 load(1, XDATA, add(CFA_XSP16, literal(-8)))
          CFI (cfiCond50) V3 load(1, XDATA, add(CFA_XSP16, literal(-7)))
          CFI (cfiCond50) R7 load(1, XDATA, add(CFA_XSP16, literal(-6)))
          CFI (cfiCond50) ?RET_LOW load(1, XDATA, add(CFA_XSP16, literal(-5)))
          CFI (cfiCond50) ?RET_HIGH load(1, XDATA, add(CFA_XSP16, literal(-4)))
          CFI (cfiCond50) ?BRET_EXT load(1, XDATA, add(CFA_XSP16, literal(-3)))
          CFI (cfiCond50) DPL0 load(1, XDATA, add(CFA_XSP16, literal(-2)))
          CFI (cfiCond50) DPH0 load(1, XDATA, add(CFA_XSP16, literal(-1)))
          CFI (cfiCond50) CFA_SP SP+-2
          CFI (cfiCond50) CFA_XSP16 add(XSP16, 12)
          CFI Block cfiCond51 Using cfiCommon0
          CFI (cfiCond51) Function zcl_registerCmdList
          CFI (cfiCond51) Conditional ??CrossCallReturnLabel_377
          CFI (cfiCond51) R6 load(1, XDATA, add(CFA_XSP16, literal(-12)))
          CFI (cfiCond51) VB load(1, XDATA, add(CFA_XSP16, literal(-11)))
          CFI (cfiCond51) V0 load(1, XDATA, add(CFA_XSP16, literal(-10)))
          CFI (cfiCond51) V1 load(1, XDATA, add(CFA_XSP16, literal(-9)))
          CFI (cfiCond51) V2 load(1, XDATA, add(CFA_XSP16, literal(-8)))
          CFI (cfiCond51) V3 load(1, XDATA, add(CFA_XSP16, literal(-7)))
          CFI (cfiCond51) R7 load(1, XDATA, add(CFA_XSP16, literal(-6)))
          CFI (cfiCond51) ?RET_LOW load(1, XDATA, add(CFA_XSP16, literal(-5)))
          CFI (cfiCond51) ?RET_HIGH load(1, XDATA, add(CFA_XSP16, literal(-4)))
          CFI (cfiCond51) ?BRET_EXT load(1, XDATA, add(CFA_XSP16, literal(-3)))
          CFI (cfiCond51) DPL0 load(1, XDATA, add(CFA_XSP16, literal(-2)))
          CFI (cfiCond51) DPH0 load(1, XDATA, add(CFA_XSP16, literal(-1)))
          CFI (cfiCond51) CFA_SP SP+-2
          CFI (cfiCond51) CFA_XSP16 add(XSP16, 12)
          CFI Block cfiCond52 Using cfiCommon0
          CFI (cfiCond52) Function zcl_registerClusterOptionList
          CFI (cfiCond52) Conditional ??CrossCallReturnLabel_378
          CFI (cfiCond52) R6 load(1, XDATA, add(CFA_XSP16, literal(-12)))
          CFI (cfiCond52) VB load(1, XDATA, add(CFA_XSP16, literal(-11)))
          CFI (cfiCond52) V0 load(1, XDATA, add(CFA_XSP16, literal(-10)))
          CFI (cfiCond52) V1 load(1, XDATA, add(CFA_XSP16, literal(-9)))
          CFI (cfiCond52) V2 load(1, XDATA, add(CFA_XSP16, literal(-8)))
          CFI (cfiCond52) V3 load(1, XDATA, add(CFA_XSP16, literal(-7)))
          CFI (cfiCond52) R7 load(1, XDATA, add(CFA_XSP16, literal(-6)))
          CFI (cfiCond52) ?RET_LOW load(1, XDATA, add(CFA_XSP16, literal(-5)))
          CFI (cfiCond52) ?RET_HIGH load(1, XDATA, add(CFA_XSP16, literal(-4)))
          CFI (cfiCond52) ?BRET_EXT load(1, XDATA, add(CFA_XSP16, literal(-3)))
          CFI (cfiCond52) DPL0 load(1, XDATA, add(CFA_XSP16, literal(-2)))
          CFI (cfiCond52) DPH0 load(1, XDATA, add(CFA_XSP16, literal(-1)))
          CFI (cfiCond52) CFA_SP SP+-2
          CFI (cfiCond52) CFA_XSP16 add(XSP16, 12)
          CFI Block cfiPicker53 Using cfiCommon1
          CFI (cfiPicker53) NoFunction
          CFI (cfiPicker53) Picker
        MOV       R3,#0x0
        LCALL     `??osal_mem_alloc::?relay`; Banked call to: osal_mem_alloc
        MOV       ?V2,R2
        MOV       ?V3,R3
        MOV       R0,?V2
        MOV       R1,?V3
        MOV       A,R2
        ORL       A,R1
        RET
          CFI EndBlock cfiCond49
          CFI EndBlock cfiCond50
          CFI EndBlock cfiCond51
          CFI EndBlock cfiCond52
          CFI EndBlock cfiPicker53
//  821 #endif  // ZCL_DISCOVER
//  822 
//  823 /*********************************************************************
//  824  * @fn          zcl_registerAttrList
//  825  *
//  826  * @brief       Register an Attribute List with ZCL Foundation
//  827  *
//  828  * @param       endpoint - endpoint the attribute list belongs to
//  829  * @param       numAttr - number of attributes in list
//  830  * @param       newAttrList - array of Attribute records.
//  831  *                            NOTE: THE ATTRIBUTE IDs (FOR A CLUSTER) MUST BE IN
//  832  *                            ASCENDING ORDER. OTHERWISE, THE DISCOVERY RESPONSE
//  833  *                            COMMAND WILL NOT HAVE THE RIGHT ATTRIBUTE INFO
//  834  *
//  835  * @return      ZSuccess if OK
//  836  */

        RSEG BANKED_CODE:HUGECODE:NOROOT(0)
//  837 ZStatus_t zcl_registerAttrList( uint8 endpoint, uint8 numAttr, CONST zclAttrRec_t newAttrList[] )
zcl_registerAttrList:
          CFI Block cfiBlock54 Using cfiCommon0
          CFI Function zcl_registerAttrList
        CODE
//  838 {
        FUNCALL zcl_registerAttrList, osal_mem_alloc
        LOCFRAME ISTACK, 0, STACK
        LOCFRAME PSTACK, 0, STACK
        LOCFRAME XSTACK, 12, STACK
        LOCFRAME IOVERLAY, 0, STATIC
        LOCFRAME DOVERLAY, 0, STATIC
        ARGFRAME ISTACK, 0, STACK
        ARGFRAME PSTACK, 0, STACK
        ARGFRAME XSTACK, 12, STACK
        ARGFRAME IOVERLAY, 0, STATIC
        ARGFRAME DOVERLAY, 0, STATIC
        REQUIRE ?V0
        REQUIRE ?V1
        REQUIRE ?V2
        REQUIRE ?V3
        MOV       A,#-0xc
        LCALL     ?BANKED_ENTER_XDATA
          CFI DPH0 load(1, XDATA, add(CFA_XSP16, literal(-1)))
          CFI DPL0 load(1, XDATA, add(CFA_XSP16, literal(-2)))
          CFI ?BRET_EXT load(1, XDATA, add(CFA_XSP16, literal(-3)))
          CFI ?RET_HIGH load(1, XDATA, add(CFA_XSP16, literal(-4)))
          CFI ?RET_LOW load(1, XDATA, add(CFA_XSP16, literal(-5)))
          CFI R7 load(1, XDATA, add(CFA_XSP16, literal(-6)))
          CFI V3 load(1, XDATA, add(CFA_XSP16, literal(-7)))
          CFI V2 load(1, XDATA, add(CFA_XSP16, literal(-8)))
          CFI V1 load(1, XDATA, add(CFA_XSP16, literal(-9)))
          CFI V0 load(1, XDATA, add(CFA_XSP16, literal(-10)))
          CFI VB load(1, XDATA, add(CFA_XSP16, literal(-11)))
          CFI R6 load(1, XDATA, add(CFA_XSP16, literal(-12)))
          CFI CFA_SP SP+0
          CFI CFA_XSP16 add(XSP16, 12)
        ; Saved register size: 12
        ; Auto size: 0
        MOV       ?V0,R1
        MOV       ?V1,R2
        MOV       A,R4
        MOV       R6,A
        MOV       A,R5
        MOV       R7,A
//  839   zclAttrRecsList *pNewItem;
//  840   zclAttrRecsList *pLoop;
//  841 
//  842   // Fill in the new profile list
//  843   pNewItem = zcl_mem_alloc( sizeof( zclAttrRecsList ) );
        ; Setup parameters for call to function osal_mem_alloc
        MOV       R2,#0xa
        LCALL     ??Subroutine228_0 & 0xFFFF
//  844   if ( pNewItem == NULL )
??CrossCallReturnLabel_380:
        JNZ       ??zcl_registerAttrList_0
//  845   {
//  846     return (ZMemError);
        MOV       R1,#0x10
        SJMP      ??CrossCallReturnLabel_35
//  847   }
//  848 
//  849   pNewItem->next = (zclAttrRecsList *)NULL;
??zcl_registerAttrList_0:
        MOV       DPL,R2
        MOV       DPH,R3
        CLR       A
        MOVX      @DPTR,A
        INC       DPTR
        LCALL     ?Subroutine43 & 0xFFFF
//  850   pNewItem->endpoint = endpoint;
??CrossCallReturnLabel_59:
        INC       DPTR
        MOV       A,?V0
        LCALL     ?Subroutine42 & 0xFFFF
//  851   pNewItem->pfnReadWriteCB = NULL;
??CrossCallReturnLabel_57:
        CLR       A
        MOVX      @DPTR,A
        INC       DPTR
        LCALL     ?Subroutine31 & 0xFFFF
//  852   pNewItem->numAttributes = numAttr;
??CrossCallReturnLabel_41:
        MOV       A,?V1
        LCALL     ?Subroutine31 & 0xFFFF
//  853   pNewItem->attrs = newAttrList;
??CrossCallReturnLabel_42:
        INC       DPTR
        MOV       A,R6
        MOVX      @DPTR,A
        INC       DPTR
        MOV       A,R7
        MOVX      @DPTR,A
//  854 
//  855   // Find spot in list
//  856   if ( attrList == NULL )
        MOV       DPTR,#attrList
        LCALL     ??Subroutine235_0 & 0xFFFF
??CrossCallReturnLabel_411:
        MOV       DPTR,#attrList
        JZ        ??zcl_registerAttrList_1
//  857   {
//  858     attrList = pNewItem;
//  859   }
//  860   else
//  861   {
//  862     // Look for end of list
//  863     pLoop = attrList;
        LCALL     ?Subroutine141 & 0xFFFF
??CrossCallReturnLabel_269:
        SJMP      ??zcl_registerAttrList_2
//  864     while ( pLoop->next != NULL )
//  865     {
//  866       pLoop = pLoop->next;
??zcl_registerAttrList_3:
        MOV       A,R2
        MOV       R4,A
        MOV       A,R3
//  867     }
??zcl_registerAttrList_2:
        LCALL     ?Subroutine53 & 0xFFFF
??CrossCallReturnLabel_403:
        JNZ       ??zcl_registerAttrList_3
//  868 
//  869     // Put new item at end of list
//  870     pLoop->next = pNewItem;
        MOV       DPL,R4
        MOV       DPH,R5
//  871   }
??zcl_registerAttrList_1:
        LCALL     ?Subroutine29 & 0xFFFF
//  872 
//  873   return ( ZSuccess );
??CrossCallReturnLabel_35:
        LJMP      ?Subroutine4 & 0xFFFF
//  874 }
          CFI EndBlock cfiBlock54

        RSEG BANKED_CODE:HUGECODE:NOROOT(0)
?Subroutine31:
          CFI Block cfiCond55 Using cfiCommon0
          CFI Function zcl_registerAttrList
          CFI Conditional ??CrossCallReturnLabel_41
          CFI R6 load(1, XDATA, add(CFA_XSP16, literal(-12)))
          CFI VB load(1, XDATA, add(CFA_XSP16, literal(-11)))
          CFI V0 load(1, XDATA, add(CFA_XSP16, literal(-10)))
          CFI V1 load(1, XDATA, add(CFA_XSP16, literal(-9)))
          CFI V2 load(1, XDATA, add(CFA_XSP16, literal(-8)))
          CFI V3 load(1, XDATA, add(CFA_XSP16, literal(-7)))
          CFI R7 load(1, XDATA, add(CFA_XSP16, literal(-6)))
          CFI ?RET_LOW load(1, XDATA, add(CFA_XSP16, literal(-5)))
          CFI ?RET_HIGH load(1, XDATA, add(CFA_XSP16, literal(-4)))
          CFI ?BRET_EXT load(1, XDATA, add(CFA_XSP16, literal(-3)))
          CFI DPL0 load(1, XDATA, add(CFA_XSP16, literal(-2)))
          CFI DPH0 load(1, XDATA, add(CFA_XSP16, literal(-1)))
          CFI CFA_SP SP+-2
          CFI CFA_XSP16 add(XSP16, 12)
          CFI Block cfiCond56 Using cfiCommon0
          CFI (cfiCond56) Function zcl_registerAttrList
          CFI (cfiCond56) Conditional ??CrossCallReturnLabel_42
          CFI (cfiCond56) R6 load(1, XDATA, add(CFA_XSP16, literal(-12)))
          CFI (cfiCond56) VB load(1, XDATA, add(CFA_XSP16, literal(-11)))
          CFI (cfiCond56) V0 load(1, XDATA, add(CFA_XSP16, literal(-10)))
          CFI (cfiCond56) V1 load(1, XDATA, add(CFA_XSP16, literal(-9)))
          CFI (cfiCond56) V2 load(1, XDATA, add(CFA_XSP16, literal(-8)))
          CFI (cfiCond56) V3 load(1, XDATA, add(CFA_XSP16, literal(-7)))
          CFI (cfiCond56) R7 load(1, XDATA, add(CFA_XSP16, literal(-6)))
          CFI (cfiCond56) ?RET_LOW load(1, XDATA, add(CFA_XSP16, literal(-5)))
          CFI (cfiCond56) ?RET_HIGH load(1, XDATA, add(CFA_XSP16, literal(-4)))
          CFI (cfiCond56) ?BRET_EXT load(1, XDATA, add(CFA_XSP16, literal(-3)))
          CFI (cfiCond56) DPL0 load(1, XDATA, add(CFA_XSP16, literal(-2)))
          CFI (cfiCond56) DPH0 load(1, XDATA, add(CFA_XSP16, literal(-1)))
          CFI (cfiCond56) CFA_SP SP+-2
          CFI (cfiCond56) CFA_XSP16 add(XSP16, 12)
          CFI Block cfiPicker57 Using cfiCommon1
          CFI (cfiPicker57) NoFunction
          CFI (cfiPicker57) Picker
        LCALL     ??Subroutine229_0 & 0xFFFF
??CrossCallReturnLabel_383:
        INC       DPTR
        INC       DPTR
        INC       DPTR
        RET
          CFI EndBlock cfiCond55
          CFI EndBlock cfiCond56
          CFI EndBlock cfiPicker57

        RSEG BANKED_CODE:HUGECODE:NOROOT(0)
?Subroutine29:
          CFI Block cfiCond58 Using cfiCommon0
          CFI Function zcl_registerPlugin
          CFI Conditional ??CrossCallReturnLabel_33
          CFI R6 load(1, XDATA, add(CFA_XSP16, literal(-12)))
          CFI VB load(1, XDATA, add(CFA_XSP16, literal(-11)))
          CFI V0 load(1, XDATA, add(CFA_XSP16, literal(-10)))
          CFI V1 load(1, XDATA, add(CFA_XSP16, literal(-9)))
          CFI V2 load(1, XDATA, add(CFA_XSP16, literal(-8)))
          CFI V3 load(1, XDATA, add(CFA_XSP16, literal(-7)))
          CFI R7 load(1, XDATA, add(CFA_XSP16, literal(-6)))
          CFI ?RET_LOW load(1, XDATA, add(CFA_XSP16, literal(-5)))
          CFI ?RET_HIGH load(1, XDATA, add(CFA_XSP16, literal(-4)))
          CFI ?BRET_EXT load(1, XDATA, add(CFA_XSP16, literal(-3)))
          CFI DPL0 load(1, XDATA, add(CFA_XSP16, literal(-2)))
          CFI DPH0 load(1, XDATA, add(CFA_XSP16, literal(-1)))
          CFI CFA_SP SP+-2
          CFI CFA_XSP16 add(XSP16, 12)
          CFI Block cfiCond59 Using cfiCommon0
          CFI (cfiCond59) Function zcl_registerCmdList
          CFI (cfiCond59) Conditional ??CrossCallReturnLabel_34
          CFI (cfiCond59) R6 load(1, XDATA, add(CFA_XSP16, literal(-12)))
          CFI (cfiCond59) VB load(1, XDATA, add(CFA_XSP16, literal(-11)))
          CFI (cfiCond59) V0 load(1, XDATA, add(CFA_XSP16, literal(-10)))
          CFI (cfiCond59) V1 load(1, XDATA, add(CFA_XSP16, literal(-9)))
          CFI (cfiCond59) V2 load(1, XDATA, add(CFA_XSP16, literal(-8)))
          CFI (cfiCond59) V3 load(1, XDATA, add(CFA_XSP16, literal(-7)))
          CFI (cfiCond59) R7 load(1, XDATA, add(CFA_XSP16, literal(-6)))
          CFI (cfiCond59) ?RET_LOW load(1, XDATA, add(CFA_XSP16, literal(-5)))
          CFI (cfiCond59) ?RET_HIGH load(1, XDATA, add(CFA_XSP16, literal(-4)))
          CFI (cfiCond59) ?BRET_EXT load(1, XDATA, add(CFA_XSP16, literal(-3)))
          CFI (cfiCond59) DPL0 load(1, XDATA, add(CFA_XSP16, literal(-2)))
          CFI (cfiCond59) DPH0 load(1, XDATA, add(CFA_XSP16, literal(-1)))
          CFI (cfiCond59) CFA_SP SP+-2
          CFI (cfiCond59) CFA_XSP16 add(XSP16, 12)
          CFI Block cfiCond60 Using cfiCommon0
          CFI (cfiCond60) Function zcl_registerAttrList
          CFI (cfiCond60) Conditional ??CrossCallReturnLabel_35
          CFI (cfiCond60) R6 load(1, XDATA, add(CFA_XSP16, literal(-12)))
          CFI (cfiCond60) VB load(1, XDATA, add(CFA_XSP16, literal(-11)))
          CFI (cfiCond60) V0 load(1, XDATA, add(CFA_XSP16, literal(-10)))
          CFI (cfiCond60) V1 load(1, XDATA, add(CFA_XSP16, literal(-9)))
          CFI (cfiCond60) V2 load(1, XDATA, add(CFA_XSP16, literal(-8)))
          CFI (cfiCond60) V3 load(1, XDATA, add(CFA_XSP16, literal(-7)))
          CFI (cfiCond60) R7 load(1, XDATA, add(CFA_XSP16, literal(-6)))
          CFI (cfiCond60) ?RET_LOW load(1, XDATA, add(CFA_XSP16, literal(-5)))
          CFI (cfiCond60) ?RET_HIGH load(1, XDATA, add(CFA_XSP16, literal(-4)))
          CFI (cfiCond60) ?BRET_EXT load(1, XDATA, add(CFA_XSP16, literal(-3)))
          CFI (cfiCond60) DPL0 load(1, XDATA, add(CFA_XSP16, literal(-2)))
          CFI (cfiCond60) DPH0 load(1, XDATA, add(CFA_XSP16, literal(-1)))
          CFI (cfiCond60) CFA_SP SP+-2
          CFI (cfiCond60) CFA_XSP16 add(XSP16, 12)
          CFI Block cfiCond61 Using cfiCommon0
          CFI (cfiCond61) Function zcl_registerClusterOptionList
          CFI (cfiCond61) Conditional ??CrossCallReturnLabel_36
          CFI (cfiCond61) R6 load(1, XDATA, add(CFA_XSP16, literal(-12)))
          CFI (cfiCond61) VB load(1, XDATA, add(CFA_XSP16, literal(-11)))
          CFI (cfiCond61) V0 load(1, XDATA, add(CFA_XSP16, literal(-10)))
          CFI (cfiCond61) V1 load(1, XDATA, add(CFA_XSP16, literal(-9)))
          CFI (cfiCond61) V2 load(1, XDATA, add(CFA_XSP16, literal(-8)))
          CFI (cfiCond61) V3 load(1, XDATA, add(CFA_XSP16, literal(-7)))
          CFI (cfiCond61) R7 load(1, XDATA, add(CFA_XSP16, literal(-6)))
          CFI (cfiCond61) ?RET_LOW load(1, XDATA, add(CFA_XSP16, literal(-5)))
          CFI (cfiCond61) ?RET_HIGH load(1, XDATA, add(CFA_XSP16, literal(-4)))
          CFI (cfiCond61) ?BRET_EXT load(1, XDATA, add(CFA_XSP16, literal(-3)))
          CFI (cfiCond61) DPL0 load(1, XDATA, add(CFA_XSP16, literal(-2)))
          CFI (cfiCond61) DPH0 load(1, XDATA, add(CFA_XSP16, literal(-1)))
          CFI (cfiCond61) CFA_SP SP+-2
          CFI (cfiCond61) CFA_XSP16 add(XSP16, 12)
          CFI Block cfiPicker62 Using cfiCommon1
          CFI (cfiPicker62) NoFunction
          CFI (cfiPicker62) Picker
        MOV       A,R0
        MOVX      @DPTR,A
        INC       DPTR
        MOV       A,R1
        MOVX      @DPTR,A
        MOV       R1,#0x0
        RET
          CFI EndBlock cfiCond58
          CFI EndBlock cfiCond59
          CFI EndBlock cfiCond60
          CFI EndBlock cfiCond61
          CFI EndBlock cfiPicker62
//  875 
//  876 /*********************************************************************
//  877  * @fn          zcl_registerClusterOptionList
//  878  *
//  879  * @brief       Register a Cluster Option List with ZCL Foundation
//  880  *
//  881  * @param       endpoint - endpoint the option list belongs to
//  882  * @param       numOption - number of options in list
//  883  * @param       optionList - array of cluster option records.
//  884  *
//  885  *              NOTE: This API should be called to enable 'Application
//  886  *                    Link Key' security and/or 'APS ACK' for a specific
//  887  *                    Cluster. The 'Application Link Key' is discarded
//  888  *                    if security isn't enabled on the device.
//  889  *                    The default behavior is 'Network Key' when security
//  890  *                    is enabled and no 'APS ACK' for the ZCL messages.
//  891  *
//  892  * @return      ZSuccess if OK
//  893  */

        RSEG BANKED_CODE:HUGECODE:NOROOT(0)
//  894 ZStatus_t zcl_registerClusterOptionList( uint8 endpoint, uint8 numOption, zclOptionRec_t optionList[] )
zcl_registerClusterOptionList:
          CFI Block cfiBlock63 Using cfiCommon0
          CFI Function zcl_registerClusterOptionList
        CODE
//  895 {
        FUNCALL zcl_registerClusterOptionList, osal_mem_alloc
        LOCFRAME ISTACK, 0, STACK
        LOCFRAME PSTACK, 0, STACK
        LOCFRAME XSTACK, 12, STACK
        LOCFRAME IOVERLAY, 0, STATIC
        LOCFRAME DOVERLAY, 0, STATIC
        ARGFRAME ISTACK, 0, STACK
        ARGFRAME PSTACK, 0, STACK
        ARGFRAME XSTACK, 12, STACK
        ARGFRAME IOVERLAY, 0, STATIC
        ARGFRAME DOVERLAY, 0, STATIC
        REQUIRE ?V0
        REQUIRE ?V1
        REQUIRE ?V2
        REQUIRE ?V3
        MOV       A,#-0xc
        LCALL     ?BANKED_ENTER_XDATA
          CFI DPH0 load(1, XDATA, add(CFA_XSP16, literal(-1)))
          CFI DPL0 load(1, XDATA, add(CFA_XSP16, literal(-2)))
          CFI ?BRET_EXT load(1, XDATA, add(CFA_XSP16, literal(-3)))
          CFI ?RET_HIGH load(1, XDATA, add(CFA_XSP16, literal(-4)))
          CFI ?RET_LOW load(1, XDATA, add(CFA_XSP16, literal(-5)))
          CFI R7 load(1, XDATA, add(CFA_XSP16, literal(-6)))
          CFI V3 load(1, XDATA, add(CFA_XSP16, literal(-7)))
          CFI V2 load(1, XDATA, add(CFA_XSP16, literal(-8)))
          CFI V1 load(1, XDATA, add(CFA_XSP16, literal(-9)))
          CFI V0 load(1, XDATA, add(CFA_XSP16, literal(-10)))
          CFI VB load(1, XDATA, add(CFA_XSP16, literal(-11)))
          CFI R6 load(1, XDATA, add(CFA_XSP16, literal(-12)))
          CFI CFA_SP SP+0
          CFI CFA_XSP16 add(XSP16, 12)
        ; Saved register size: 12
        ; Auto size: 0
        LCALL     ?Subroutine150 & 0xFFFF
//  896   zclClusterOptionList *pNewItem;
//  897   zclClusterOptionList *pLoop;
//  898 
//  899   // Fill in the new profile list
//  900   pNewItem = zcl_mem_alloc( sizeof( zclClusterOptionList ) );
//  901   if ( pNewItem == NULL )
??CrossCallReturnLabel_378:
        JNZ       ??zcl_registerClusterOptionList_0
//  902   {
//  903     return (ZMemError);
        MOV       R1,#0x10
        SJMP      ??CrossCallReturnLabel_36
//  904   }
//  905 
//  906   pNewItem->next = (zclClusterOptionList *)NULL;
??zcl_registerClusterOptionList_0:
        LCALL     ?Subroutine13 & 0xFFFF
//  907   pNewItem->endpoint = endpoint;
//  908   pNewItem->numOptions = numOption;
//  909   pNewItem->options = optionList;
//  910 
//  911   // Find spot in list
//  912   if ( clusterOptionList == NULL )
??CrossCallReturnLabel_8:
        MOV       DPTR,#clusterOptionList
        LCALL     ??Subroutine235_0 & 0xFFFF
??CrossCallReturnLabel_412:
        MOV       DPTR,#clusterOptionList
        JZ        ??zcl_registerClusterOptionList_1
//  913   {
//  914     clusterOptionList = pNewItem;
//  915   }
//  916   else
//  917   {
//  918     // Look for end of list
//  919     pLoop = clusterOptionList;
        LCALL     ?Subroutine141 & 0xFFFF
??CrossCallReturnLabel_270:
        SJMP      ??zcl_registerClusterOptionList_2
//  920     while ( pLoop->next != NULL )
//  921     {
//  922       pLoop = pLoop->next;
??zcl_registerClusterOptionList_3:
        MOV       A,R2
        MOV       R4,A
        MOV       A,R3
//  923     }
??zcl_registerClusterOptionList_2:
        LCALL     ?Subroutine53 & 0xFFFF
??CrossCallReturnLabel_404:
        JNZ       ??zcl_registerClusterOptionList_3
//  924 
//  925     // Put new item at end of list
//  926     pLoop->next = pNewItem;
        MOV       DPL,R4
        MOV       DPH,R5
//  927   }
??zcl_registerClusterOptionList_1:
        LCALL     ?Subroutine29 & 0xFFFF
//  928 
//  929   return ( ZSuccess );
??CrossCallReturnLabel_36:
        LJMP      ?Subroutine4 & 0xFFFF
//  930 }
          CFI EndBlock cfiBlock63

        RSEG BANKED_CODE:HUGECODE:NOROOT(0)
?Subroutine141:
          CFI Block cfiCond64 Using cfiCommon0
          CFI Function zcl_registerPlugin
          CFI Conditional ??CrossCallReturnLabel_267
          CFI R6 load(1, XDATA, add(CFA_XSP16, literal(-12)))
          CFI VB load(1, XDATA, add(CFA_XSP16, literal(-11)))
          CFI V0 load(1, XDATA, add(CFA_XSP16, literal(-10)))
          CFI V1 load(1, XDATA, add(CFA_XSP16, literal(-9)))
          CFI V2 load(1, XDATA, add(CFA_XSP16, literal(-8)))
          CFI V3 load(1, XDATA, add(CFA_XSP16, literal(-7)))
          CFI R7 load(1, XDATA, add(CFA_XSP16, literal(-6)))
          CFI ?RET_LOW load(1, XDATA, add(CFA_XSP16, literal(-5)))
          CFI ?RET_HIGH load(1, XDATA, add(CFA_XSP16, literal(-4)))
          CFI ?BRET_EXT load(1, XDATA, add(CFA_XSP16, literal(-3)))
          CFI DPL0 load(1, XDATA, add(CFA_XSP16, literal(-2)))
          CFI DPH0 load(1, XDATA, add(CFA_XSP16, literal(-1)))
          CFI CFA_SP SP+-2
          CFI CFA_XSP16 add(XSP16, 12)
          CFI Block cfiCond65 Using cfiCommon0
          CFI (cfiCond65) Function zcl_registerCmdList
          CFI (cfiCond65) Conditional ??CrossCallReturnLabel_268
          CFI (cfiCond65) R6 load(1, XDATA, add(CFA_XSP16, literal(-12)))
          CFI (cfiCond65) VB load(1, XDATA, add(CFA_XSP16, literal(-11)))
          CFI (cfiCond65) V0 load(1, XDATA, add(CFA_XSP16, literal(-10)))
          CFI (cfiCond65) V1 load(1, XDATA, add(CFA_XSP16, literal(-9)))
          CFI (cfiCond65) V2 load(1, XDATA, add(CFA_XSP16, literal(-8)))
          CFI (cfiCond65) V3 load(1, XDATA, add(CFA_XSP16, literal(-7)))
          CFI (cfiCond65) R7 load(1, XDATA, add(CFA_XSP16, literal(-6)))
          CFI (cfiCond65) ?RET_LOW load(1, XDATA, add(CFA_XSP16, literal(-5)))
          CFI (cfiCond65) ?RET_HIGH load(1, XDATA, add(CFA_XSP16, literal(-4)))
          CFI (cfiCond65) ?BRET_EXT load(1, XDATA, add(CFA_XSP16, literal(-3)))
          CFI (cfiCond65) DPL0 load(1, XDATA, add(CFA_XSP16, literal(-2)))
          CFI (cfiCond65) DPH0 load(1, XDATA, add(CFA_XSP16, literal(-1)))
          CFI (cfiCond65) CFA_SP SP+-2
          CFI (cfiCond65) CFA_XSP16 add(XSP16, 12)
          CFI Block cfiCond66 Using cfiCommon0
          CFI (cfiCond66) Function zcl_registerAttrList
          CFI (cfiCond66) Conditional ??CrossCallReturnLabel_269
          CFI (cfiCond66) R6 load(1, XDATA, add(CFA_XSP16, literal(-12)))
          CFI (cfiCond66) VB load(1, XDATA, add(CFA_XSP16, literal(-11)))
          CFI (cfiCond66) V0 load(1, XDATA, add(CFA_XSP16, literal(-10)))
          CFI (cfiCond66) V1 load(1, XDATA, add(CFA_XSP16, literal(-9)))
          CFI (cfiCond66) V2 load(1, XDATA, add(CFA_XSP16, literal(-8)))
          CFI (cfiCond66) V3 load(1, XDATA, add(CFA_XSP16, literal(-7)))
          CFI (cfiCond66) R7 load(1, XDATA, add(CFA_XSP16, literal(-6)))
          CFI (cfiCond66) ?RET_LOW load(1, XDATA, add(CFA_XSP16, literal(-5)))
          CFI (cfiCond66) ?RET_HIGH load(1, XDATA, add(CFA_XSP16, literal(-4)))
          CFI (cfiCond66) ?BRET_EXT load(1, XDATA, add(CFA_XSP16, literal(-3)))
          CFI (cfiCond66) DPL0 load(1, XDATA, add(CFA_XSP16, literal(-2)))
          CFI (cfiCond66) DPH0 load(1, XDATA, add(CFA_XSP16, literal(-1)))
          CFI (cfiCond66) CFA_SP SP+-2
          CFI (cfiCond66) CFA_XSP16 add(XSP16, 12)
          CFI Block cfiCond67 Using cfiCommon0
          CFI (cfiCond67) Function zcl_registerClusterOptionList
          CFI (cfiCond67) Conditional ??CrossCallReturnLabel_270
          CFI (cfiCond67) R6 load(1, XDATA, add(CFA_XSP16, literal(-12)))
          CFI (cfiCond67) VB load(1, XDATA, add(CFA_XSP16, literal(-11)))
          CFI (cfiCond67) V0 load(1, XDATA, add(CFA_XSP16, literal(-10)))
          CFI (cfiCond67) V1 load(1, XDATA, add(CFA_XSP16, literal(-9)))
          CFI (cfiCond67) V2 load(1, XDATA, add(CFA_XSP16, literal(-8)))
          CFI (cfiCond67) V3 load(1, XDATA, add(CFA_XSP16, literal(-7)))
          CFI (cfiCond67) R7 load(1, XDATA, add(CFA_XSP16, literal(-6)))
          CFI (cfiCond67) ?RET_LOW load(1, XDATA, add(CFA_XSP16, literal(-5)))
          CFI (cfiCond67) ?RET_HIGH load(1, XDATA, add(CFA_XSP16, literal(-4)))
          CFI (cfiCond67) ?BRET_EXT load(1, XDATA, add(CFA_XSP16, literal(-3)))
          CFI (cfiCond67) DPL0 load(1, XDATA, add(CFA_XSP16, literal(-2)))
          CFI (cfiCond67) DPH0 load(1, XDATA, add(CFA_XSP16, literal(-1)))
          CFI (cfiCond67) CFA_SP SP+-2
          CFI (cfiCond67) CFA_XSP16 add(XSP16, 12)
          CFI Block cfiCond68 Using cfiCommon0
          CFI (cfiCond68) Function zcl_SendReadRsp
          CFI (cfiCond68) Conditional ??CrossCallReturnLabel_271
          CFI (cfiCond68) R6 load(1, XDATA, add(CFA_XSP16, literal(-16)))
          CFI (cfiCond68) VB load(1, XDATA, add(CFA_XSP16, literal(-15)))
          CFI (cfiCond68) V0 load(1, XDATA, add(CFA_XSP16, literal(-14)))
          CFI (cfiCond68) V1 load(1, XDATA, add(CFA_XSP16, literal(-13)))
          CFI (cfiCond68) V2 load(1, XDATA, add(CFA_XSP16, literal(-12)))
          CFI (cfiCond68) V3 load(1, XDATA, add(CFA_XSP16, literal(-11)))
          CFI (cfiCond68) V4 load(1, XDATA, add(CFA_XSP16, literal(-10)))
          CFI (cfiCond68) V5 load(1, XDATA, add(CFA_XSP16, literal(-9)))
          CFI (cfiCond68) V6 load(1, XDATA, add(CFA_XSP16, literal(-8)))
          CFI (cfiCond68) V7 load(1, XDATA, add(CFA_XSP16, literal(-7)))
          CFI (cfiCond68) R7 load(1, XDATA, add(CFA_XSP16, literal(-6)))
          CFI (cfiCond68) ?RET_LOW load(1, XDATA, add(CFA_XSP16, literal(-5)))
          CFI (cfiCond68) ?RET_HIGH load(1, XDATA, add(CFA_XSP16, literal(-4)))
          CFI (cfiCond68) ?BRET_EXT load(1, XDATA, add(CFA_XSP16, literal(-3)))
          CFI (cfiCond68) DPL0 load(1, XDATA, add(CFA_XSP16, literal(-2)))
          CFI (cfiCond68) DPH0 load(1, XDATA, add(CFA_XSP16, literal(-1)))
          CFI (cfiCond68) CFA_SP SP+-2
          CFI (cfiCond68) CFA_XSP16 add(XSP16, 22)
          CFI Block cfiCond69 Using cfiCommon0
          CFI (cfiCond69) Function zclParseInDiscAttrsCmd
          CFI (cfiCond69) Conditional ??CrossCallReturnLabel_272
          CFI (cfiCond69) R6 load(1, XDATA, add(CFA_XSP16, literal(-10)))
          CFI (cfiCond69) VB load(1, XDATA, add(CFA_XSP16, literal(-9)))
          CFI (cfiCond69) V0 load(1, XDATA, add(CFA_XSP16, literal(-8)))
          CFI (cfiCond69) V1 load(1, XDATA, add(CFA_XSP16, literal(-7)))
          CFI (cfiCond69) R7 load(1, XDATA, add(CFA_XSP16, literal(-6)))
          CFI (cfiCond69) ?RET_LOW load(1, XDATA, add(CFA_XSP16, literal(-5)))
          CFI (cfiCond69) ?RET_HIGH load(1, XDATA, add(CFA_XSP16, literal(-4)))
          CFI (cfiCond69) ?BRET_EXT load(1, XDATA, add(CFA_XSP16, literal(-3)))
          CFI (cfiCond69) DPL0 load(1, XDATA, add(CFA_XSP16, literal(-2)))
          CFI (cfiCond69) DPH0 load(1, XDATA, add(CFA_XSP16, literal(-1)))
          CFI (cfiCond69) CFA_SP SP+-2
          CFI (cfiCond69) CFA_XSP16 add(XSP16, 10)
          CFI Block cfiPicker70 Using cfiCommon1
          CFI (cfiPicker70) NoFunction
          CFI (cfiPicker70) Picker
        MOVX      A,@DPTR
        MOV       R4,A
        INC       DPTR
        MOVX      A,@DPTR
        RET
          CFI EndBlock cfiCond64
          CFI EndBlock cfiCond65
          CFI EndBlock cfiCond66
          CFI EndBlock cfiCond67
          CFI EndBlock cfiCond68
          CFI EndBlock cfiCond69
          CFI EndBlock cfiPicker70

        RSEG BANKED_CODE:HUGECODE:NOROOT(0)
?Subroutine13:
          CFI Block cfiCond71 Using cfiCommon0
          CFI Function zcl_registerCmdList
          CFI Conditional ??CrossCallReturnLabel_7
          CFI R6 load(1, XDATA, add(CFA_XSP16, literal(-12)))
          CFI VB load(1, XDATA, add(CFA_XSP16, literal(-11)))
          CFI V0 load(1, XDATA, add(CFA_XSP16, literal(-10)))
          CFI V1 load(1, XDATA, add(CFA_XSP16, literal(-9)))
          CFI V2 load(1, XDATA, add(CFA_XSP16, literal(-8)))
          CFI V3 load(1, XDATA, add(CFA_XSP16, literal(-7)))
          CFI R7 load(1, XDATA, add(CFA_XSP16, literal(-6)))
          CFI ?RET_LOW load(1, XDATA, add(CFA_XSP16, literal(-5)))
          CFI ?RET_HIGH load(1, XDATA, add(CFA_XSP16, literal(-4)))
          CFI ?BRET_EXT load(1, XDATA, add(CFA_XSP16, literal(-3)))
          CFI DPL0 load(1, XDATA, add(CFA_XSP16, literal(-2)))
          CFI DPH0 load(1, XDATA, add(CFA_XSP16, literal(-1)))
          CFI CFA_SP SP+-2
          CFI CFA_XSP16 add(XSP16, 12)
          CFI Block cfiCond72 Using cfiCommon0
          CFI (cfiCond72) Function zcl_registerClusterOptionList
          CFI (cfiCond72) Conditional ??CrossCallReturnLabel_8
          CFI (cfiCond72) R6 load(1, XDATA, add(CFA_XSP16, literal(-12)))
          CFI (cfiCond72) VB load(1, XDATA, add(CFA_XSP16, literal(-11)))
          CFI (cfiCond72) V0 load(1, XDATA, add(CFA_XSP16, literal(-10)))
          CFI (cfiCond72) V1 load(1, XDATA, add(CFA_XSP16, literal(-9)))
          CFI (cfiCond72) V2 load(1, XDATA, add(CFA_XSP16, literal(-8)))
          CFI (cfiCond72) V3 load(1, XDATA, add(CFA_XSP16, literal(-7)))
          CFI (cfiCond72) R7 load(1, XDATA, add(CFA_XSP16, literal(-6)))
          CFI (cfiCond72) ?RET_LOW load(1, XDATA, add(CFA_XSP16, literal(-5)))
          CFI (cfiCond72) ?RET_HIGH load(1, XDATA, add(CFA_XSP16, literal(-4)))
          CFI (cfiCond72) ?BRET_EXT load(1, XDATA, add(CFA_XSP16, literal(-3)))
          CFI (cfiCond72) DPL0 load(1, XDATA, add(CFA_XSP16, literal(-2)))
          CFI (cfiCond72) DPH0 load(1, XDATA, add(CFA_XSP16, literal(-1)))
          CFI (cfiCond72) CFA_SP SP+-2
          CFI (cfiCond72) CFA_XSP16 add(XSP16, 12)
          CFI Block cfiPicker73 Using cfiCommon1
          CFI (cfiPicker73) NoFunction
          CFI (cfiPicker73) Picker
        MOV       DPL,R2
        MOV       DPH,R3
        CLR       A
        MOVX      @DPTR,A
        INC       DPTR
        LCALL     ?Subroutine173 & 0xFFFF
??CrossCallReturnLabel_320:
        MOV       A,?V0
        LCALL     ?Subroutine173 & 0xFFFF
??CrossCallReturnLabel_321:
        LCALL     ?Subroutine171 & 0xFFFF
??CrossCallReturnLabel_381:
        MOV       A,R6
        MOVX      @DPTR,A
        INC       DPTR
        MOV       A,R7
        MOVX      @DPTR,A
        RET
          CFI EndBlock cfiCond71
          CFI EndBlock cfiCond72
          CFI EndBlock cfiPicker73
//  931 
//  932 /*********************************************************************
//  933  * @fn          zcl_registerValidateAttrData
//  934  *
//  935  * @brief       Add a validation function for attribute data
//  936  *
//  937  * @param       pfnValidateAttrData - function pointer to validate routine
//  938  *
//  939  * @return      ZSuccess if OK
//  940  */

        RSEG BANKED_CODE:HUGECODE:NOROOT(0)
//  941 ZStatus_t zcl_registerValidateAttrData( zclValidateAttrData_t pfnValidateAttrData )
zcl_registerValidateAttrData:
          CFI Block cfiBlock74 Using cfiCommon0
          CFI Function zcl_registerValidateAttrData
        CODE
//  942 {
        PUSH      DPL
          CFI DPL0 Frame(CFA_SP, 4)
          CFI CFA_SP SP+-4
        PUSH      DPH
          CFI DPH0 Frame(CFA_SP, 5)
          CFI CFA_SP SP+-5
        ; Saved register size: 2
        ; Auto size: 0
//  943   zcl_ValidateAttrDataCB = pfnValidateAttrData;
        MOV       DPTR,#zcl_ValidateAttrDataCB
        LCALL     ??Subroutine248_0 & 0xFFFF
//  944 
//  945   return ( ZSuccess );
??CrossCallReturnLabel_472:
        MOV       R1,#0x0
        LJMP      ?Subroutine0 & 0xFFFF
//  946 }
          CFI EndBlock cfiBlock74
//  947 
//  948 /*********************************************************************
//  949  * @fn          zcl_registerReadWriteCB
//  950  *
//  951  * @brief       Register the application's callback function to read/write
//  952  *              attribute data, and authorize read/write operation.
//  953  *
//  954  *              Note: The pfnReadWriteCB callback function is only required
//  955  *                    when the attribute data format is unknown to ZCL. The
//  956  *                    callback function gets called when the pointer 'dataPtr'
//  957  *                    to the attribute value is NULL in the attribute database
//  958  *                    registered with the ZCL.
//  959  *
//  960  *              Note: The pfnAuthorizeCB callback function is only required
//  961  *                    when the Read/Write operation on an attribute requires
//  962  *                    authorization (i.e., attributes with ACCESS_CONTROL_AUTH_READ
//  963  *                    or ACCESS_CONTROL_AUTH_WRITE access permissions).
//  964  *
//  965  * @param       endpoint - application's endpoint
//  966  * @param       pfnReadWriteCB - function pointer to read/write routine
//  967  * @param       pfnAuthorizeCB - function pointer to authorize read/write operation
//  968  *
//  969  * @return      ZSuccess if successful. ZFailure, otherwise.
//  970  */

        RSEG BANKED_CODE:HUGECODE:NOROOT(0)
//  971 ZStatus_t zcl_registerReadWriteCB( uint8 endpoint, zclReadWriteCB_t pfnReadWriteCB,
zcl_registerReadWriteCB:
          CFI Block cfiBlock75 Using cfiCommon0
          CFI Function zcl_registerReadWriteCB
        CODE
//  972                                    zclAuthorizeCB_t pfnAuthorizeCB )
//  973 {
        FUNCALL zcl_registerReadWriteCB, zclFindAttrRecsList
        LOCFRAME ISTACK, 0, STACK
        LOCFRAME PSTACK, 0, STACK
        LOCFRAME XSTACK, 14, STACK
        LOCFRAME IOVERLAY, 0, STATIC
        LOCFRAME DOVERLAY, 0, STATIC
        ARGFRAME ISTACK, 0, STACK
        ARGFRAME PSTACK, 0, STACK
        ARGFRAME XSTACK, 14, STACK
        ARGFRAME IOVERLAY, 0, STATIC
        ARGFRAME DOVERLAY, 0, STATIC
        REQUIRE ?V0
        REQUIRE ?V1
        REQUIRE ?V2
        REQUIRE ?V4
        REQUIRE ?V5
        MOV       A,#-0xe
        LCALL     ?BANKED_ENTER_XDATA
          CFI DPH0 load(1, XDATA, add(CFA_XSP16, literal(-1)))
          CFI DPL0 load(1, XDATA, add(CFA_XSP16, literal(-2)))
          CFI ?BRET_EXT load(1, XDATA, add(CFA_XSP16, literal(-3)))
          CFI ?RET_HIGH load(1, XDATA, add(CFA_XSP16, literal(-4)))
          CFI ?RET_LOW load(1, XDATA, add(CFA_XSP16, literal(-5)))
          CFI R7 load(1, XDATA, add(CFA_XSP16, literal(-6)))
          CFI V5 load(1, XDATA, add(CFA_XSP16, literal(-7)))
          CFI V4 load(1, XDATA, add(CFA_XSP16, literal(-8)))
          CFI V3 load(1, XDATA, add(CFA_XSP16, literal(-9)))
          CFI V2 load(1, XDATA, add(CFA_XSP16, literal(-10)))
          CFI V1 load(1, XDATA, add(CFA_XSP16, literal(-11)))
          CFI V0 load(1, XDATA, add(CFA_XSP16, literal(-12)))
          CFI VB load(1, XDATA, add(CFA_XSP16, literal(-13)))
          CFI R6 load(1, XDATA, add(CFA_XSP16, literal(-14)))
          CFI CFA_SP SP+0
          CFI CFA_XSP16 add(XSP16, 14)
        ; Saved register size: 14
        ; Auto size: 0
        MOV       ?V0,R2
        MOV       ?V1,R3
        MOV       A,R4
        MOV       R6,A
        MOV       A,R5
        MOV       R7,A
//  974   zclAttrRecsList *pRec = zclFindAttrRecsList( endpoint );
        ; Setup parameters for call to function zclFindAttrRecsList
        LCALL     `??zclFindAttrRecsList::?relay`; Banked call to: zclFindAttrRecsList
        MOV       ?V5,R3
        MOV       R1,?V5
//  975 
//  976   if ( pRec != NULL )
        MOV       A,R2
        ORL       A,R1
        JZ        ??zcl_registerReadWriteCB_0
//  977   {
//  978     pRec->pfnReadWriteCB = pfnReadWriteCB;
        MOV       DPL,R2
        MOV       DPH,R3
        INC       DPTR
        LCALL     ?Subroutine25 & 0xFFFF
//  979     pRec->pfnAuthorizeCB = pfnAuthorizeCB;
??CrossCallReturnLabel_30:
        INC       DPTR
        MOV       A,R6
        MOVX      @DPTR,A
        INC       DPTR
        MOV       A,R7
        MOVX      @DPTR,A
//  980 
//  981     return ( ZSuccess );
        MOV       R1,#0x0
        SJMP      ??zcl_registerReadWriteCB_1
//  982   }
//  983 
//  984   return ( ZFailure );
??zcl_registerReadWriteCB_0:
        MOV       R1,#0x1
??zcl_registerReadWriteCB_1:
        LJMP      ??Subroutine256_0 & 0xFFFF
//  985 }
          CFI EndBlock cfiBlock75

        RSEG BANKED_CODE:HUGECODE:NOROOT(0)
?Subroutine25:
          CFI Block cfiCond76 Using cfiCommon0
          CFI Function zcl_registerPlugin
          CFI Conditional ??CrossCallReturnLabel_29
          CFI R6 load(1, XDATA, add(CFA_XSP16, literal(-12)))
          CFI VB load(1, XDATA, add(CFA_XSP16, literal(-11)))
          CFI V0 load(1, XDATA, add(CFA_XSP16, literal(-10)))
          CFI V1 load(1, XDATA, add(CFA_XSP16, literal(-9)))
          CFI V2 load(1, XDATA, add(CFA_XSP16, literal(-8)))
          CFI V3 load(1, XDATA, add(CFA_XSP16, literal(-7)))
          CFI R7 load(1, XDATA, add(CFA_XSP16, literal(-6)))
          CFI ?RET_LOW load(1, XDATA, add(CFA_XSP16, literal(-5)))
          CFI ?RET_HIGH load(1, XDATA, add(CFA_XSP16, literal(-4)))
          CFI ?BRET_EXT load(1, XDATA, add(CFA_XSP16, literal(-3)))
          CFI DPL0 load(1, XDATA, add(CFA_XSP16, literal(-2)))
          CFI DPH0 load(1, XDATA, add(CFA_XSP16, literal(-1)))
          CFI CFA_SP SP+-2
          CFI CFA_XSP16 add(XSP16, 12)
          CFI Block cfiCond77 Using cfiCommon0
          CFI (cfiCond77) Function zcl_registerReadWriteCB
          CFI (cfiCond77) Conditional ??CrossCallReturnLabel_30
          CFI (cfiCond77) R6 load(1, XDATA, add(CFA_XSP16, literal(-14)))
          CFI (cfiCond77) VB load(1, XDATA, add(CFA_XSP16, literal(-13)))
          CFI (cfiCond77) V0 load(1, XDATA, add(CFA_XSP16, literal(-12)))
          CFI (cfiCond77) V1 load(1, XDATA, add(CFA_XSP16, literal(-11)))
          CFI (cfiCond77) V2 load(1, XDATA, add(CFA_XSP16, literal(-10)))
          CFI (cfiCond77) V3 load(1, XDATA, add(CFA_XSP16, literal(-9)))
          CFI (cfiCond77) V4 load(1, XDATA, add(CFA_XSP16, literal(-8)))
          CFI (cfiCond77) V5 load(1, XDATA, add(CFA_XSP16, literal(-7)))
          CFI (cfiCond77) R7 load(1, XDATA, add(CFA_XSP16, literal(-6)))
          CFI (cfiCond77) ?RET_LOW load(1, XDATA, add(CFA_XSP16, literal(-5)))
          CFI (cfiCond77) ?RET_HIGH load(1, XDATA, add(CFA_XSP16, literal(-4)))
          CFI (cfiCond77) ?BRET_EXT load(1, XDATA, add(CFA_XSP16, literal(-3)))
          CFI (cfiCond77) DPL0 load(1, XDATA, add(CFA_XSP16, literal(-2)))
          CFI (cfiCond77) DPH0 load(1, XDATA, add(CFA_XSP16, literal(-1)))
          CFI (cfiCond77) CFA_SP SP+-2
          CFI (cfiCond77) CFA_XSP16 add(XSP16, 14)
          CFI Block cfiPicker78 Using cfiCommon1
          CFI (cfiPicker78) NoFunction
          CFI (cfiPicker78) Picker
        INC       DPTR
        INC       DPTR
        MOV       A,?V0
        MOVX      @DPTR,A
        LCALL     ?Subroutine171 & 0xFFFF
??CrossCallReturnLabel_382:
        RET
          CFI EndBlock cfiCond76
          CFI EndBlock cfiCond77
          CFI EndBlock cfiPicker78

        RSEG BANKED_CODE:HUGECODE:NOROOT(0)
?Subroutine171:
          CFI Block cfiCond79 Using cfiCommon0
          CFI Function zcl_registerCmdList
          CFI Conditional ??CrossCallReturnLabel_381, ??CrossCallReturnLabel_7
          CFI R6 load(1, XDATA, add(CFA_XSP16, literal(-12)))
          CFI VB load(1, XDATA, add(CFA_XSP16, literal(-11)))
          CFI V0 load(1, XDATA, add(CFA_XSP16, literal(-10)))
          CFI V1 load(1, XDATA, add(CFA_XSP16, literal(-9)))
          CFI V2 load(1, XDATA, add(CFA_XSP16, literal(-8)))
          CFI V3 load(1, XDATA, add(CFA_XSP16, literal(-7)))
          CFI R7 load(1, XDATA, add(CFA_XSP16, literal(-6)))
          CFI ?RET_LOW load(1, XDATA, add(CFA_XSP16, literal(-5)))
          CFI ?RET_HIGH load(1, XDATA, add(CFA_XSP16, literal(-4)))
          CFI ?BRET_EXT load(1, XDATA, add(CFA_XSP16, literal(-3)))
          CFI DPL0 load(1, XDATA, add(CFA_XSP16, literal(-2)))
          CFI DPH0 load(1, XDATA, add(CFA_XSP16, literal(-1)))
          CFI CFA_SP SP+-4
          CFI CFA_XSP16 add(XSP16, 12)
          CFI Block cfiCond80 Using cfiCommon0
          CFI (cfiCond80) Function zcl_registerClusterOptionList
          CFI (cfiCond80) Conditional ??CrossCallReturnLabel_381, ??CrossCallReturnLabel_8
          CFI (cfiCond80) R6 load(1, XDATA, add(CFA_XSP16, literal(-12)))
          CFI (cfiCond80) VB load(1, XDATA, add(CFA_XSP16, literal(-11)))
          CFI (cfiCond80) V0 load(1, XDATA, add(CFA_XSP16, literal(-10)))
          CFI (cfiCond80) V1 load(1, XDATA, add(CFA_XSP16, literal(-9)))
          CFI (cfiCond80) V2 load(1, XDATA, add(CFA_XSP16, literal(-8)))
          CFI (cfiCond80) V3 load(1, XDATA, add(CFA_XSP16, literal(-7)))
          CFI (cfiCond80) R7 load(1, XDATA, add(CFA_XSP16, literal(-6)))
          CFI (cfiCond80) ?RET_LOW load(1, XDATA, add(CFA_XSP16, literal(-5)))
          CFI (cfiCond80) ?RET_HIGH load(1, XDATA, add(CFA_XSP16, literal(-4)))
          CFI (cfiCond80) ?BRET_EXT load(1, XDATA, add(CFA_XSP16, literal(-3)))
          CFI (cfiCond80) DPL0 load(1, XDATA, add(CFA_XSP16, literal(-2)))
          CFI (cfiCond80) DPH0 load(1, XDATA, add(CFA_XSP16, literal(-1)))
          CFI (cfiCond80) CFA_SP SP+-4
          CFI (cfiCond80) CFA_XSP16 add(XSP16, 12)
          CFI Block cfiCond81 Using cfiCommon0
          CFI (cfiCond81) Function zcl_registerPlugin
          CFI (cfiCond81) Conditional ??CrossCallReturnLabel_382, ??CrossCallReturnLabel_29
          CFI (cfiCond81) R6 load(1, XDATA, add(CFA_XSP16, literal(-12)))
          CFI (cfiCond81) VB load(1, XDATA, add(CFA_XSP16, literal(-11)))
          CFI (cfiCond81) V0 load(1, XDATA, add(CFA_XSP16, literal(-10)))
          CFI (cfiCond81) V1 load(1, XDATA, add(CFA_XSP16, literal(-9)))
          CFI (cfiCond81) V2 load(1, XDATA, add(CFA_XSP16, literal(-8)))
          CFI (cfiCond81) V3 load(1, XDATA, add(CFA_XSP16, literal(-7)))
          CFI (cfiCond81) R7 load(1, XDATA, add(CFA_XSP16, literal(-6)))
          CFI (cfiCond81) ?RET_LOW load(1, XDATA, add(CFA_XSP16, literal(-5)))
          CFI (cfiCond81) ?RET_HIGH load(1, XDATA, add(CFA_XSP16, literal(-4)))
          CFI (cfiCond81) ?BRET_EXT load(1, XDATA, add(CFA_XSP16, literal(-3)))
          CFI (cfiCond81) DPL0 load(1, XDATA, add(CFA_XSP16, literal(-2)))
          CFI (cfiCond81) DPH0 load(1, XDATA, add(CFA_XSP16, literal(-1)))
          CFI (cfiCond81) CFA_SP SP+-4
          CFI (cfiCond81) CFA_XSP16 add(XSP16, 12)
          CFI Block cfiCond82 Using cfiCommon0
          CFI (cfiCond82) Function zcl_registerReadWriteCB
          CFI (cfiCond82) Conditional ??CrossCallReturnLabel_382, ??CrossCallReturnLabel_30
          CFI (cfiCond82) R6 load(1, XDATA, add(CFA_XSP16, literal(-14)))
          CFI (cfiCond82) VB load(1, XDATA, add(CFA_XSP16, literal(-13)))
          CFI (cfiCond82) V0 load(1, XDATA, add(CFA_XSP16, literal(-12)))
          CFI (cfiCond82) V1 load(1, XDATA, add(CFA_XSP16, literal(-11)))
          CFI (cfiCond82) V2 load(1, XDATA, add(CFA_XSP16, literal(-10)))
          CFI (cfiCond82) V3 load(1, XDATA, add(CFA_XSP16, literal(-9)))
          CFI (cfiCond82) V4 load(1, XDATA, add(CFA_XSP16, literal(-8)))
          CFI (cfiCond82) V5 load(1, XDATA, add(CFA_XSP16, literal(-7)))
          CFI (cfiCond82) R7 load(1, XDATA, add(CFA_XSP16, literal(-6)))
          CFI (cfiCond82) ?RET_LOW load(1, XDATA, add(CFA_XSP16, literal(-5)))
          CFI (cfiCond82) ?RET_HIGH load(1, XDATA, add(CFA_XSP16, literal(-4)))
          CFI (cfiCond82) ?BRET_EXT load(1, XDATA, add(CFA_XSP16, literal(-3)))
          CFI (cfiCond82) DPL0 load(1, XDATA, add(CFA_XSP16, literal(-2)))
          CFI (cfiCond82) DPH0 load(1, XDATA, add(CFA_XSP16, literal(-1)))
          CFI (cfiCond82) CFA_SP SP+-4
          CFI (cfiCond82) CFA_XSP16 add(XSP16, 14)
          CFI Block cfiPicker83 Using cfiCommon1
          CFI (cfiPicker83) NoFunction
          CFI (cfiPicker83) Picker
        INC       DPTR
        MOV       A,?V1
          CFI EndBlock cfiCond79
          CFI EndBlock cfiCond80
          CFI EndBlock cfiCond81
          CFI EndBlock cfiCond82
          CFI EndBlock cfiPicker83
        REQUIRE ??Subroutine229_0
        ; // Fall through to label ??Subroutine229_0

        RSEG BANKED_CODE:HUGECODE:NOROOT(0)
??Subroutine229_0:
          CFI Block cfiCond84 Using cfiCommon0
          CFI Function zcl_registerAttrList
          CFI Conditional ??CrossCallReturnLabel_383, ??CrossCallReturnLabel_41
          CFI R6 load(1, XDATA, add(CFA_XSP16, literal(-12)))
          CFI VB load(1, XDATA, add(CFA_XSP16, literal(-11)))
          CFI V0 load(1, XDATA, add(CFA_XSP16, literal(-10)))
          CFI V1 load(1, XDATA, add(CFA_XSP16, literal(-9)))
          CFI V2 load(1, XDATA, add(CFA_XSP16, literal(-8)))
          CFI V3 load(1, XDATA, add(CFA_XSP16, literal(-7)))
          CFI R7 load(1, XDATA, add(CFA_XSP16, literal(-6)))
          CFI ?RET_LOW load(1, XDATA, add(CFA_XSP16, literal(-5)))
          CFI ?RET_HIGH load(1, XDATA, add(CFA_XSP16, literal(-4)))
          CFI ?BRET_EXT load(1, XDATA, add(CFA_XSP16, literal(-3)))
          CFI DPL0 load(1, XDATA, add(CFA_XSP16, literal(-2)))
          CFI DPH0 load(1, XDATA, add(CFA_XSP16, literal(-1)))
          CFI CFA_SP SP+-4
          CFI CFA_XSP16 add(XSP16, 12)
          CFI Block cfiCond85 Using cfiCommon0
          CFI (cfiCond85) Function zcl_registerAttrList
          CFI (cfiCond85) Conditional ??CrossCallReturnLabel_383, ??CrossCallReturnLabel_42
          CFI (cfiCond85) R6 load(1, XDATA, add(CFA_XSP16, literal(-12)))
          CFI (cfiCond85) VB load(1, XDATA, add(CFA_XSP16, literal(-11)))
          CFI (cfiCond85) V0 load(1, XDATA, add(CFA_XSP16, literal(-10)))
          CFI (cfiCond85) V1 load(1, XDATA, add(CFA_XSP16, literal(-9)))
          CFI (cfiCond85) V2 load(1, XDATA, add(CFA_XSP16, literal(-8)))
          CFI (cfiCond85) V3 load(1, XDATA, add(CFA_XSP16, literal(-7)))
          CFI (cfiCond85) R7 load(1, XDATA, add(CFA_XSP16, literal(-6)))
          CFI (cfiCond85) ?RET_LOW load(1, XDATA, add(CFA_XSP16, literal(-5)))
          CFI (cfiCond85) ?RET_HIGH load(1, XDATA, add(CFA_XSP16, literal(-4)))
          CFI (cfiCond85) ?BRET_EXT load(1, XDATA, add(CFA_XSP16, literal(-3)))
          CFI (cfiCond85) DPL0 load(1, XDATA, add(CFA_XSP16, literal(-2)))
          CFI (cfiCond85) DPH0 load(1, XDATA, add(CFA_XSP16, literal(-1)))
          CFI (cfiCond85) CFA_SP SP+-4
          CFI (cfiCond85) CFA_XSP16 add(XSP16, 12)
          CFI Block cfiCond86 Using cfiCommon0
          CFI (cfiCond86) Function zcl_registerCmdList
          CFI (cfiCond86) Conditional ??CrossCallReturnLabel_381, ??CrossCallReturnLabel_7
          CFI (cfiCond86) R6 load(1, XDATA, add(CFA_XSP16, literal(-12)))
          CFI (cfiCond86) VB load(1, XDATA, add(CFA_XSP16, literal(-11)))
          CFI (cfiCond86) V0 load(1, XDATA, add(CFA_XSP16, literal(-10)))
          CFI (cfiCond86) V1 load(1, XDATA, add(CFA_XSP16, literal(-9)))
          CFI (cfiCond86) V2 load(1, XDATA, add(CFA_XSP16, literal(-8)))
          CFI (cfiCond86) V3 load(1, XDATA, add(CFA_XSP16, literal(-7)))
          CFI (cfiCond86) R7 load(1, XDATA, add(CFA_XSP16, literal(-6)))
          CFI (cfiCond86) ?RET_LOW load(1, XDATA, add(CFA_XSP16, literal(-5)))
          CFI (cfiCond86) ?RET_HIGH load(1, XDATA, add(CFA_XSP16, literal(-4)))
          CFI (cfiCond86) ?BRET_EXT load(1, XDATA, add(CFA_XSP16, literal(-3)))
          CFI (cfiCond86) DPL0 load(1, XDATA, add(CFA_XSP16, literal(-2)))
          CFI (cfiCond86) DPH0 load(1, XDATA, add(CFA_XSP16, literal(-1)))
          CFI (cfiCond86) CFA_SP SP+-4
          CFI (cfiCond86) CFA_XSP16 add(XSP16, 12)
          CFI Block cfiCond87 Using cfiCommon0
          CFI (cfiCond87) Function zcl_registerClusterOptionList
          CFI (cfiCond87) Conditional ??CrossCallReturnLabel_381, ??CrossCallReturnLabel_8
          CFI (cfiCond87) R6 load(1, XDATA, add(CFA_XSP16, literal(-12)))
          CFI (cfiCond87) VB load(1, XDATA, add(CFA_XSP16, literal(-11)))
          CFI (cfiCond87) V0 load(1, XDATA, add(CFA_XSP16, literal(-10)))
          CFI (cfiCond87) V1 load(1, XDATA, add(CFA_XSP16, literal(-9)))
          CFI (cfiCond87) V2 load(1, XDATA, add(CFA_XSP16, literal(-8)))
          CFI (cfiCond87) V3 load(1, XDATA, add(CFA_XSP16, literal(-7)))
          CFI (cfiCond87) R7 load(1, XDATA, add(CFA_XSP16, literal(-6)))
          CFI (cfiCond87) ?RET_LOW load(1, XDATA, add(CFA_XSP16, literal(-5)))
          CFI (cfiCond87) ?RET_HIGH load(1, XDATA, add(CFA_XSP16, literal(-4)))
          CFI (cfiCond87) ?BRET_EXT load(1, XDATA, add(CFA_XSP16, literal(-3)))
          CFI (cfiCond87) DPL0 load(1, XDATA, add(CFA_XSP16, literal(-2)))
          CFI (cfiCond87) DPH0 load(1, XDATA, add(CFA_XSP16, literal(-1)))
          CFI (cfiCond87) CFA_SP SP+-4
          CFI (cfiCond87) CFA_XSP16 add(XSP16, 12)
          CFI Block cfiCond88 Using cfiCommon0
          CFI (cfiCond88) Function zcl_registerPlugin
          CFI (cfiCond88) Conditional ??CrossCallReturnLabel_382, ??CrossCallReturnLabel_29
          CFI (cfiCond88) R6 load(1, XDATA, add(CFA_XSP16, literal(-12)))
          CFI (cfiCond88) VB load(1, XDATA, add(CFA_XSP16, literal(-11)))
          CFI (cfiCond88) V0 load(1, XDATA, add(CFA_XSP16, literal(-10)))
          CFI (cfiCond88) V1 load(1, XDATA, add(CFA_XSP16, literal(-9)))
          CFI (cfiCond88) V2 load(1, XDATA, add(CFA_XSP16, literal(-8)))
          CFI (cfiCond88) V3 load(1, XDATA, add(CFA_XSP16, literal(-7)))
          CFI (cfiCond88) R7 load(1, XDATA, add(CFA_XSP16, literal(-6)))
          CFI (cfiCond88) ?RET_LOW load(1, XDATA, add(CFA_XSP16, literal(-5)))
          CFI (cfiCond88) ?RET_HIGH load(1, XDATA, add(CFA_XSP16, literal(-4)))
          CFI (cfiCond88) ?BRET_EXT load(1, XDATA, add(CFA_XSP16, literal(-3)))
          CFI (cfiCond88) DPL0 load(1, XDATA, add(CFA_XSP16, literal(-2)))
          CFI (cfiCond88) DPH0 load(1, XDATA, add(CFA_XSP16, literal(-1)))
          CFI (cfiCond88) CFA_SP SP+-4
          CFI (cfiCond88) CFA_XSP16 add(XSP16, 12)
          CFI Block cfiCond89 Using cfiCommon0
          CFI (cfiCond89) Function zcl_registerReadWriteCB
          CFI (cfiCond89) Conditional ??CrossCallReturnLabel_382, ??CrossCallReturnLabel_30
          CFI (cfiCond89) R6 load(1, XDATA, add(CFA_XSP16, literal(-14)))
          CFI (cfiCond89) VB load(1, XDATA, add(CFA_XSP16, literal(-13)))
          CFI (cfiCond89) V0 load(1, XDATA, add(CFA_XSP16, literal(-12)))
          CFI (cfiCond89) V1 load(1, XDATA, add(CFA_XSP16, literal(-11)))
          CFI (cfiCond89) V2 load(1, XDATA, add(CFA_XSP16, literal(-10)))
          CFI (cfiCond89) V3 load(1, XDATA, add(CFA_XSP16, literal(-9)))
          CFI (cfiCond89) V4 load(1, XDATA, add(CFA_XSP16, literal(-8)))
          CFI (cfiCond89) V5 load(1, XDATA, add(CFA_XSP16, literal(-7)))
          CFI (cfiCond89) R7 load(1, XDATA, add(CFA_XSP16, literal(-6)))
          CFI (cfiCond89) ?RET_LOW load(1, XDATA, add(CFA_XSP16, literal(-5)))
          CFI (cfiCond89) ?RET_HIGH load(1, XDATA, add(CFA_XSP16, literal(-4)))
          CFI (cfiCond89) ?BRET_EXT load(1, XDATA, add(CFA_XSP16, literal(-3)))
          CFI (cfiCond89) DPL0 load(1, XDATA, add(CFA_XSP16, literal(-2)))
          CFI (cfiCond89) DPH0 load(1, XDATA, add(CFA_XSP16, literal(-1)))
          CFI (cfiCond89) CFA_SP SP+-4
          CFI (cfiCond89) CFA_XSP16 add(XSP16, 14)
          CFI Block cfiPicker90 Using cfiCommon1
          CFI (cfiPicker90) NoFunction
          CFI (cfiPicker90) Picker
        MOVX      @DPTR,A
        MOV       DPL,R2
        MOV       DPH,R3
        INC       DPTR
        INC       DPTR
        INC       DPTR
        INC       DPTR
        RET
          CFI EndBlock cfiCond84
          CFI EndBlock cfiCond85
          CFI EndBlock cfiCond86
          CFI EndBlock cfiCond87
          CFI EndBlock cfiCond88
          CFI EndBlock cfiCond89
          CFI EndBlock cfiPicker90
//  986 
//  987 /*********************************************************************
//  988  * @fn      zcl_DeviceOperational
//  989  *
//  990  * @brief   Used to see whether or not the device can send or respond
//  991  *          to application level commands.
//  992  *
//  993  * @param   srcEP - source endpoint
//  994  * @param   clusterID - cluster ID
//  995  * @param   frameType - command type
//  996  * @param   cmd - command ID
//  997  *
//  998  * @return  TRUE if device is operational, FALSE otherwise
//  999  */

        RSEG BANKED_CODE:HUGECODE:NOROOT(0)
// 1000 static uint8 zcl_DeviceOperational( uint8 srcEP, uint16 clusterID,
zcl_DeviceOperational:
          CFI Block cfiBlock91 Using cfiCommon0
          CFI Function zcl_DeviceOperational
        CODE
// 1001                                     uint8 frameType, uint8 cmd, uint16 profileID )
// 1002 {
        FUNCALL zcl_DeviceOperational, zclFindAttrRec
        LOCFRAME ISTACK, 0, STACK
        LOCFRAME PSTACK, 0, STACK
        LOCFRAME XSTACK, 23, STACK
        LOCFRAME IOVERLAY, 0, STATIC
        LOCFRAME DOVERLAY, 0, STATIC
        ARGFRAME ISTACK, 0, STACK
        ARGFRAME PSTACK, 0, STACK
        ARGFRAME XSTACK, 23, STACK
        ARGFRAME IOVERLAY, 0, STATIC
        ARGFRAME DOVERLAY, 0, STATIC
        FUNCALL zcl_DeviceOperational, zclReadAttrData
        LOCFRAME ISTACK, 0, STACK
        LOCFRAME PSTACK, 0, STACK
        LOCFRAME XSTACK, 23, STACK
        LOCFRAME IOVERLAY, 0, STATIC
        LOCFRAME DOVERLAY, 0, STATIC
        ARGFRAME ISTACK, 0, STACK
        ARGFRAME PSTACK, 0, STACK
        ARGFRAME XSTACK, 23, STACK
        ARGFRAME IOVERLAY, 0, STATIC
        ARGFRAME DOVERLAY, 0, STATIC
        REQUIRE ?V0
        REQUIRE ?V2
        REQUIRE ?V3
        MOV       A,#-0xc
        LCALL     ?BANKED_ENTER_XDATA
          CFI DPH0 load(1, XDATA, add(CFA_XSP16, literal(-1)))
          CFI DPL0 load(1, XDATA, add(CFA_XSP16, literal(-2)))
          CFI ?BRET_EXT load(1, XDATA, add(CFA_XSP16, literal(-3)))
          CFI ?RET_HIGH load(1, XDATA, add(CFA_XSP16, literal(-4)))
          CFI ?RET_LOW load(1, XDATA, add(CFA_XSP16, literal(-5)))
          CFI R7 load(1, XDATA, add(CFA_XSP16, literal(-6)))
          CFI V3 load(1, XDATA, add(CFA_XSP16, literal(-7)))
          CFI V2 load(1, XDATA, add(CFA_XSP16, literal(-8)))
          CFI V1 load(1, XDATA, add(CFA_XSP16, literal(-9)))
          CFI V0 load(1, XDATA, add(CFA_XSP16, literal(-10)))
          CFI VB load(1, XDATA, add(CFA_XSP16, literal(-11)))
          CFI R6 load(1, XDATA, add(CFA_XSP16, literal(-12)))
          CFI CFA_SP SP+0
          CFI CFA_XSP16 add(XSP16, 12)
        ; Saved register size: 12
        ; Auto size: 9
        MOV       A,#-0x9
        LCALL     ?ALLOC_XSTACK8
          CFI CFA_XSP16 add(XSP16, 21)
        MOV       A,R1
        MOV       R6,A
// 1003   zclAttrRec_t attrRec;
// 1004   uint8 deviceEnabled = DEVICE_ENABLED; // default value
        MOV       DPL,?XSP + 0
        MOV       DPH,?XSP + 1
        MOV       A,#0x1
        MOVX      @DPTR,A
// 1005 
// 1006   (void)profileID;  // Intentionally unreferenced parameter
// 1007 
// 1008   // If the device is Disabled (DeviceEnabled attribute is set to Disabled), it
// 1009   // cannot send or respond to application level commands, other than commands
// 1010   // to read or write attributes. Note that the Identify cluster cannot be
// 1011   // disabled, and remains functional regardless of this setting.
// 1012   if ( zcl_ProfileCmd( frameType ) && cmd <= ZCL_CMD_WRITE_NO_RSP )
        MOV       A,R4
        JNZ       ??zcl_DeviceOperational_0
        MOV       A,R5
        CLR       C
        SUBB      A,#0x6
        JC        ??zcl_DeviceOperational_1
// 1013   {
// 1014     return ( TRUE );
// 1015   }
// 1016 
// 1017   if ( clusterID == ZCL_CLUSTER_ID_GEN_IDENTIFY )
??zcl_DeviceOperational_0:
        MOV       A,#0x3
        XRL       A,R2
        ORL       A,R3
        JZ        ??zcl_DeviceOperational_1
// 1018   {
// 1019     return ( TRUE );
// 1020   }
// 1021 
// 1022   // Is device enabled?
// 1023   if ( zclFindAttrRec( srcEP, ZCL_CLUSTER_ID_GEN_BASIC,
// 1024                        ATTRID_BASIC_DEVICE_ENABLED, &attrRec ) )
        ; Setup parameters for call to function zclFindAttrRec
        MOV       A,#0x1
        LCALL     ?XSTACK_DISP100_8
        MOV       ?V2,R0
        MOV       ?V3,R1
        MOV       R0,#?V2
        LCALL     ?PUSH_XSTACK_I_TWO
          CFI CFA_XSP16 add(XSP16, 23)
        MOV       R4,#0x12
        MOV       R5,#0x0
        MOV       R2,#0x0
        MOV       R3,#0x0
        MOV       A,R6
        LCALL     ??Subroutine230_0 & 0xFFFF
??CrossCallReturnLabel_386:
        LCALL     ?DEALLOC_XSTACK8
          CFI CFA_XSP16 add(XSP16, 21)
        MOV       A,R1
        JZ        ??zcl_DeviceOperational_2
// 1025   {
// 1026 #ifdef ZCL_READ
// 1027     zclReadAttrData( &deviceEnabled, &attrRec, NULL );
        ; Setup parameters for call to function zclReadAttrData
        CLR       A
        MOV       ?V2,A
        MOV       ?V3,A
        MOV       R0,#?V2
        LCALL     ?PUSH_XSTACK_I_TWO
          CFI CFA_XSP16 add(XSP16, 23)
        MOV       A,#0x3
        LCALL     ?XSTACK_DISP102_8
        MOV       A,#0x2
        LCALL     ?XSTACK_DISP101_8
        LCALL     `??zclReadAttrData::?relay`; Banked call to: zclReadAttrData
        MOV       A,#0x2
        LCALL     ?DEALLOC_XSTACK8
          CFI CFA_XSP16 add(XSP16, 21)
// 1028 #endif
// 1029   }
// 1030 
// 1031   return ( deviceEnabled == DEVICE_ENABLED ? TRUE : FALSE );
??zcl_DeviceOperational_2:
        MOV       DPL,?XSP + 0
        MOV       DPH,?XSP + 1
        MOVX      A,@DPTR
        XRL       A,#0x1
        JNZ       ??zcl_DeviceOperational_3
??zcl_DeviceOperational_1:
        MOV       R1,#0x1
        SJMP      ??zcl_DeviceOperational_4
??zcl_DeviceOperational_3:
        MOV       R1,#0x0
??zcl_DeviceOperational_4:
        MOV       A,#0x9
        LCALL     ?DEALLOC_XSTACK8
          CFI EndBlock cfiBlock91
        REQUIRE ?Subroutine4
        ; // Fall through to label ?Subroutine4
// 1032 }

        RSEG BANKED_CODE:HUGECODE:NOROOT(0)
?Subroutine4:
          CFI Block cfiBlock92 Using cfiCommon0
          CFI NoFunction
          CFI CFA_SP SP+0
          CFI CFA_XSP16 add(XSP16, 12)
          CFI VB load(1, XDATA, add(CFA_XSP16, literal(-11)))
          CFI DPL0 load(1, XDATA, add(CFA_XSP16, literal(-2)))
          CFI DPH0 load(1, XDATA, add(CFA_XSP16, literal(-1)))
          CFI R6 load(1, XDATA, add(CFA_XSP16, literal(-12)))
          CFI R7 load(1, XDATA, add(CFA_XSP16, literal(-6)))
          CFI V0 load(1, XDATA, add(CFA_XSP16, literal(-10)))
          CFI V1 load(1, XDATA, add(CFA_XSP16, literal(-9)))
          CFI V2 load(1, XDATA, add(CFA_XSP16, literal(-8)))
          CFI V3 load(1, XDATA, add(CFA_XSP16, literal(-7)))
          CFI ?BRET_EXT load(1, XDATA, add(CFA_XSP16, literal(-3)))
          CFI ?RET_HIGH load(1, XDATA, add(CFA_XSP16, literal(-4)))
          CFI ?RET_LOW load(1, XDATA, add(CFA_XSP16, literal(-5)))
        MOV       R7,#0x4
        LJMP      ?BANKED_LEAVE_XDATA
          CFI EndBlock cfiBlock92

        RSEG BANKED_CODE:HUGECODE:NOROOT(0)
?Subroutine159:
          CFI Block cfiCond93 Using cfiCommon0
          CFI Function zclProcessInWriteCmd
          CFI Conditional ??CrossCallReturnLabel_384
          CFI R6 load(1, XDATA, add(CFA_XSP16, literal(-16)))
          CFI VB load(1, XDATA, add(CFA_XSP16, literal(-15)))
          CFI V0 load(1, XDATA, add(CFA_XSP16, literal(-14)))
          CFI V1 load(1, XDATA, add(CFA_XSP16, literal(-13)))
          CFI V2 load(1, XDATA, add(CFA_XSP16, literal(-12)))
          CFI V3 load(1, XDATA, add(CFA_XSP16, literal(-11)))
          CFI V4 load(1, XDATA, add(CFA_XSP16, literal(-10)))
          CFI V5 load(1, XDATA, add(CFA_XSP16, literal(-9)))
          CFI V6 load(1, XDATA, add(CFA_XSP16, literal(-8)))
          CFI V7 load(1, XDATA, add(CFA_XSP16, literal(-7)))
          CFI R7 load(1, XDATA, add(CFA_XSP16, literal(-6)))
          CFI ?RET_LOW load(1, XDATA, add(CFA_XSP16, literal(-5)))
          CFI ?RET_HIGH load(1, XDATA, add(CFA_XSP16, literal(-4)))
          CFI ?BRET_EXT load(1, XDATA, add(CFA_XSP16, literal(-3)))
          CFI DPL0 load(1, XDATA, add(CFA_XSP16, literal(-2)))
          CFI DPH0 load(1, XDATA, add(CFA_XSP16, literal(-1)))
          CFI CFA_SP SP+-2
          CFI CFA_XSP16 add(XSP16, 34)
          CFI Block cfiCond94 Using cfiCommon0
          CFI (cfiCond94) Function zclProcessInWriteUndividedCmd
          CFI (cfiCond94) Conditional ??CrossCallReturnLabel_385
          CFI (cfiCond94) R6 load(1, XDATA, add(CFA_XSP16, literal(-16)))
          CFI (cfiCond94) VB load(1, XDATA, add(CFA_XSP16, literal(-15)))
          CFI (cfiCond94) V0 load(1, XDATA, add(CFA_XSP16, literal(-14)))
          CFI (cfiCond94) V1 load(1, XDATA, add(CFA_XSP16, literal(-13)))
          CFI (cfiCond94) V2 load(1, XDATA, add(CFA_XSP16, literal(-12)))
          CFI (cfiCond94) V3 load(1, XDATA, add(CFA_XSP16, literal(-11)))
          CFI (cfiCond94) V4 load(1, XDATA, add(CFA_XSP16, literal(-10)))
          CFI (cfiCond94) V5 load(1, XDATA, add(CFA_XSP16, literal(-9)))
          CFI (cfiCond94) V6 load(1, XDATA, add(CFA_XSP16, literal(-8)))
          CFI (cfiCond94) V7 load(1, XDATA, add(CFA_XSP16, literal(-7)))
          CFI (cfiCond94) R7 load(1, XDATA, add(CFA_XSP16, literal(-6)))
          CFI (cfiCond94) ?RET_LOW load(1, XDATA, add(CFA_XSP16, literal(-5)))
          CFI (cfiCond94) ?RET_HIGH load(1, XDATA, add(CFA_XSP16, literal(-4)))
          CFI (cfiCond94) ?BRET_EXT load(1, XDATA, add(CFA_XSP16, literal(-3)))
          CFI (cfiCond94) DPL0 load(1, XDATA, add(CFA_XSP16, literal(-2)))
          CFI (cfiCond94) DPH0 load(1, XDATA, add(CFA_XSP16, literal(-1)))
          CFI (cfiCond94) CFA_SP SP+-2
          CFI (cfiCond94) CFA_XSP16 add(XSP16, 38)
          CFI Block cfiPicker95 Using cfiCommon1
          CFI (cfiPicker95) NoFunction
          CFI (cfiPicker95) Picker
        MOV       DPH,A
        MOVX      A,@DPTR
          CFI EndBlock cfiCond93
          CFI EndBlock cfiCond94
          CFI EndBlock cfiPicker95
        REQUIRE ??Subroutine230_0
        ; // Fall through to label ??Subroutine230_0

        RSEG BANKED_CODE:HUGECODE:NOROOT(0)
??Subroutine230_0:
          CFI Block cfiCond96 Using cfiCommon0
          CFI Function zcl_DeviceOperational
          CFI Conditional ??CrossCallReturnLabel_386
          CFI R6 load(1, XDATA, add(CFA_XSP16, literal(-12)))
          CFI VB load(1, XDATA, add(CFA_XSP16, literal(-11)))
          CFI V0 load(1, XDATA, add(CFA_XSP16, literal(-10)))
          CFI V1 load(1, XDATA, add(CFA_XSP16, literal(-9)))
          CFI V2 load(1, XDATA, add(CFA_XSP16, literal(-8)))
          CFI V3 load(1, XDATA, add(CFA_XSP16, literal(-7)))
          CFI R7 load(1, XDATA, add(CFA_XSP16, literal(-6)))
          CFI ?RET_LOW load(1, XDATA, add(CFA_XSP16, literal(-5)))
          CFI ?RET_HIGH load(1, XDATA, add(CFA_XSP16, literal(-4)))
          CFI ?BRET_EXT load(1, XDATA, add(CFA_XSP16, literal(-3)))
          CFI DPL0 load(1, XDATA, add(CFA_XSP16, literal(-2)))
          CFI DPH0 load(1, XDATA, add(CFA_XSP16, literal(-1)))
          CFI CFA_SP SP+-2
          CFI CFA_XSP16 add(XSP16, 23)
          CFI Block cfiCond97 Using cfiCommon0
          CFI (cfiCond97) Function zclProcessInWriteCmd
          CFI (cfiCond97) Conditional ??CrossCallReturnLabel_384
          CFI (cfiCond97) R6 load(1, XDATA, add(CFA_XSP16, literal(-16)))
          CFI (cfiCond97) VB load(1, XDATA, add(CFA_XSP16, literal(-15)))
          CFI (cfiCond97) V0 load(1, XDATA, add(CFA_XSP16, literal(-14)))
          CFI (cfiCond97) V1 load(1, XDATA, add(CFA_XSP16, literal(-13)))
          CFI (cfiCond97) V2 load(1, XDATA, add(CFA_XSP16, literal(-12)))
          CFI (cfiCond97) V3 load(1, XDATA, add(CFA_XSP16, literal(-11)))
          CFI (cfiCond97) V4 load(1, XDATA, add(CFA_XSP16, literal(-10)))
          CFI (cfiCond97) V5 load(1, XDATA, add(CFA_XSP16, literal(-9)))
          CFI (cfiCond97) V6 load(1, XDATA, add(CFA_XSP16, literal(-8)))
          CFI (cfiCond97) V7 load(1, XDATA, add(CFA_XSP16, literal(-7)))
          CFI (cfiCond97) R7 load(1, XDATA, add(CFA_XSP16, literal(-6)))
          CFI (cfiCond97) ?RET_LOW load(1, XDATA, add(CFA_XSP16, literal(-5)))
          CFI (cfiCond97) ?RET_HIGH load(1, XDATA, add(CFA_XSP16, literal(-4)))
          CFI (cfiCond97) ?BRET_EXT load(1, XDATA, add(CFA_XSP16, literal(-3)))
          CFI (cfiCond97) DPL0 load(1, XDATA, add(CFA_XSP16, literal(-2)))
          CFI (cfiCond97) DPH0 load(1, XDATA, add(CFA_XSP16, literal(-1)))
          CFI (cfiCond97) CFA_SP SP+-2
          CFI (cfiCond97) CFA_XSP16 add(XSP16, 34)
          CFI Block cfiCond98 Using cfiCommon0
          CFI (cfiCond98) Function zclProcessInWriteUndividedCmd
          CFI (cfiCond98) Conditional ??CrossCallReturnLabel_385
          CFI (cfiCond98) R6 load(1, XDATA, add(CFA_XSP16, literal(-16)))
          CFI (cfiCond98) VB load(1, XDATA, add(CFA_XSP16, literal(-15)))
          CFI (cfiCond98) V0 load(1, XDATA, add(CFA_XSP16, literal(-14)))
          CFI (cfiCond98) V1 load(1, XDATA, add(CFA_XSP16, literal(-13)))
          CFI (cfiCond98) V2 load(1, XDATA, add(CFA_XSP16, literal(-12)))
          CFI (cfiCond98) V3 load(1, XDATA, add(CFA_XSP16, literal(-11)))
          CFI (cfiCond98) V4 load(1, XDATA, add(CFA_XSP16, literal(-10)))
          CFI (cfiCond98) V5 load(1, XDATA, add(CFA_XSP16, literal(-9)))
          CFI (cfiCond98) V6 load(1, XDATA, add(CFA_XSP16, literal(-8)))
          CFI (cfiCond98) V7 load(1, XDATA, add(CFA_XSP16, literal(-7)))
          CFI (cfiCond98) R7 load(1, XDATA, add(CFA_XSP16, literal(-6)))
          CFI (cfiCond98) ?RET_LOW load(1, XDATA, add(CFA_XSP16, literal(-5)))
          CFI (cfiCond98) ?RET_HIGH load(1, XDATA, add(CFA_XSP16, literal(-4)))
          CFI (cfiCond98) ?BRET_EXT load(1, XDATA, add(CFA_XSP16, literal(-3)))
          CFI (cfiCond98) DPL0 load(1, XDATA, add(CFA_XSP16, literal(-2)))
          CFI (cfiCond98) DPH0 load(1, XDATA, add(CFA_XSP16, literal(-1)))
          CFI (cfiCond98) CFA_SP SP+-2
          CFI (cfiCond98) CFA_XSP16 add(XSP16, 38)
          CFI Block cfiPicker99 Using cfiCommon1
          CFI (cfiPicker99) NoFunction
          CFI (cfiPicker99) Picker
        MOV       R1,A
          CFI EndBlock cfiCond96
          CFI EndBlock cfiCond97
          CFI EndBlock cfiCond98
          CFI EndBlock cfiPicker99
        REQUIRE ??Subroutine231_0
        ; // Fall through to label ??Subroutine231_0

        RSEG BANKED_CODE:HUGECODE:NOROOT(0)
??Subroutine231_0:
          CFI Block cfiCond100 Using cfiCommon0
          CFI Function zcl_ReadAttrData
          CFI Conditional ??CrossCallReturnLabel_387
          CFI R6 load(1, XDATA, add(CFA_XSP16, literal(-14)))
          CFI VB load(1, XDATA, add(CFA_XSP16, literal(-13)))
          CFI V0 load(1, XDATA, add(CFA_XSP16, literal(-12)))
          CFI V1 load(1, XDATA, add(CFA_XSP16, literal(-11)))
          CFI V2 load(1, XDATA, add(CFA_XSP16, literal(-10)))
          CFI V3 load(1, XDATA, add(CFA_XSP16, literal(-9)))
          CFI V4 load(1, XDATA, add(CFA_XSP16, literal(-8)))
          CFI V5 load(1, XDATA, add(CFA_XSP16, literal(-7)))
          CFI R7 load(1, XDATA, add(CFA_XSP16, literal(-6)))
          CFI ?RET_LOW load(1, XDATA, add(CFA_XSP16, literal(-5)))
          CFI ?RET_HIGH load(1, XDATA, add(CFA_XSP16, literal(-4)))
          CFI ?BRET_EXT load(1, XDATA, add(CFA_XSP16, literal(-3)))
          CFI DPL0 load(1, XDATA, add(CFA_XSP16, literal(-2)))
          CFI DPH0 load(1, XDATA, add(CFA_XSP16, literal(-1)))
          CFI CFA_SP SP+-2
          CFI CFA_XSP16 add(XSP16, 24)
          CFI Block cfiCond101 Using cfiCommon0
          CFI (cfiCond101) Function zclProcessInWriteUndividedCmd
          CFI (cfiCond101) Conditional ??CrossCallReturnLabel_388
          CFI (cfiCond101) R6 load(1, XDATA, add(CFA_XSP16, literal(-16)))
          CFI (cfiCond101) VB load(1, XDATA, add(CFA_XSP16, literal(-15)))
          CFI (cfiCond101) V0 load(1, XDATA, add(CFA_XSP16, literal(-14)))
          CFI (cfiCond101) V1 load(1, XDATA, add(CFA_XSP16, literal(-13)))
          CFI (cfiCond101) V2 load(1, XDATA, add(CFA_XSP16, literal(-12)))
          CFI (cfiCond101) V3 load(1, XDATA, add(CFA_XSP16, literal(-11)))
          CFI (cfiCond101) V4 load(1, XDATA, add(CFA_XSP16, literal(-10)))
          CFI (cfiCond101) V5 load(1, XDATA, add(CFA_XSP16, literal(-9)))
          CFI (cfiCond101) V6 load(1, XDATA, add(CFA_XSP16, literal(-8)))
          CFI (cfiCond101) V7 load(1, XDATA, add(CFA_XSP16, literal(-7)))
          CFI (cfiCond101) R7 load(1, XDATA, add(CFA_XSP16, literal(-6)))
          CFI (cfiCond101) ?RET_LOW load(1, XDATA, add(CFA_XSP16, literal(-5)))
          CFI (cfiCond101) ?RET_HIGH load(1, XDATA, add(CFA_XSP16, literal(-4)))
          CFI (cfiCond101) ?BRET_EXT load(1, XDATA, add(CFA_XSP16, literal(-3)))
          CFI (cfiCond101) DPL0 load(1, XDATA, add(CFA_XSP16, literal(-2)))
          CFI (cfiCond101) DPH0 load(1, XDATA, add(CFA_XSP16, literal(-1)))
          CFI (cfiCond101) CFA_SP SP+-2
          CFI (cfiCond101) CFA_XSP16 add(XSP16, 38)
          CFI Block cfiCond102 Using cfiCommon0
          CFI (cfiCond102) Function zcl_DeviceOperational
          CFI (cfiCond102) Conditional ??CrossCallReturnLabel_386
          CFI (cfiCond102) R6 load(1, XDATA, add(CFA_XSP16, literal(-12)))
          CFI (cfiCond102) VB load(1, XDATA, add(CFA_XSP16, literal(-11)))
          CFI (cfiCond102) V0 load(1, XDATA, add(CFA_XSP16, literal(-10)))
          CFI (cfiCond102) V1 load(1, XDATA, add(CFA_XSP16, literal(-9)))
          CFI (cfiCond102) V2 load(1, XDATA, add(CFA_XSP16, literal(-8)))
          CFI (cfiCond102) V3 load(1, XDATA, add(CFA_XSP16, literal(-7)))
          CFI (cfiCond102) R7 load(1, XDATA, add(CFA_XSP16, literal(-6)))
          CFI (cfiCond102) ?RET_LOW load(1, XDATA, add(CFA_XSP16, literal(-5)))
          CFI (cfiCond102) ?RET_HIGH load(1, XDATA, add(CFA_XSP16, literal(-4)))
          CFI (cfiCond102) ?BRET_EXT load(1, XDATA, add(CFA_XSP16, literal(-3)))
          CFI (cfiCond102) DPL0 load(1, XDATA, add(CFA_XSP16, literal(-2)))
          CFI (cfiCond102) DPH0 load(1, XDATA, add(CFA_XSP16, literal(-1)))
          CFI (cfiCond102) CFA_SP SP+-2
          CFI (cfiCond102) CFA_XSP16 add(XSP16, 23)
          CFI Block cfiCond103 Using cfiCommon0
          CFI (cfiCond103) Function zclProcessInWriteCmd
          CFI (cfiCond103) Conditional ??CrossCallReturnLabel_384
          CFI (cfiCond103) R6 load(1, XDATA, add(CFA_XSP16, literal(-16)))
          CFI (cfiCond103) VB load(1, XDATA, add(CFA_XSP16, literal(-15)))
          CFI (cfiCond103) V0 load(1, XDATA, add(CFA_XSP16, literal(-14)))
          CFI (cfiCond103) V1 load(1, XDATA, add(CFA_XSP16, literal(-13)))
          CFI (cfiCond103) V2 load(1, XDATA, add(CFA_XSP16, literal(-12)))
          CFI (cfiCond103) V3 load(1, XDATA, add(CFA_XSP16, literal(-11)))
          CFI (cfiCond103) V4 load(1, XDATA, add(CFA_XSP16, literal(-10)))
          CFI (cfiCond103) V5 load(1, XDATA, add(CFA_XSP16, literal(-9)))
          CFI (cfiCond103) V6 load(1, XDATA, add(CFA_XSP16, literal(-8)))
          CFI (cfiCond103) V7 load(1, XDATA, add(CFA_XSP16, literal(-7)))
          CFI (cfiCond103) R7 load(1, XDATA, add(CFA_XSP16, literal(-6)))
          CFI (cfiCond103) ?RET_LOW load(1, XDATA, add(CFA_XSP16, literal(-5)))
          CFI (cfiCond103) ?RET_HIGH load(1, XDATA, add(CFA_XSP16, literal(-4)))
          CFI (cfiCond103) ?BRET_EXT load(1, XDATA, add(CFA_XSP16, literal(-3)))
          CFI (cfiCond103) DPL0 load(1, XDATA, add(CFA_XSP16, literal(-2)))
          CFI (cfiCond103) DPH0 load(1, XDATA, add(CFA_XSP16, literal(-1)))
          CFI (cfiCond103) CFA_SP SP+-2
          CFI (cfiCond103) CFA_XSP16 add(XSP16, 34)
          CFI Block cfiCond104 Using cfiCommon0
          CFI (cfiCond104) Function zclProcessInWriteUndividedCmd
          CFI (cfiCond104) Conditional ??CrossCallReturnLabel_385
          CFI (cfiCond104) R6 load(1, XDATA, add(CFA_XSP16, literal(-16)))
          CFI (cfiCond104) VB load(1, XDATA, add(CFA_XSP16, literal(-15)))
          CFI (cfiCond104) V0 load(1, XDATA, add(CFA_XSP16, literal(-14)))
          CFI (cfiCond104) V1 load(1, XDATA, add(CFA_XSP16, literal(-13)))
          CFI (cfiCond104) V2 load(1, XDATA, add(CFA_XSP16, literal(-12)))
          CFI (cfiCond104) V3 load(1, XDATA, add(CFA_XSP16, literal(-11)))
          CFI (cfiCond104) V4 load(1, XDATA, add(CFA_XSP16, literal(-10)))
          CFI (cfiCond104) V5 load(1, XDATA, add(CFA_XSP16, literal(-9)))
          CFI (cfiCond104) V6 load(1, XDATA, add(CFA_XSP16, literal(-8)))
          CFI (cfiCond104) V7 load(1, XDATA, add(CFA_XSP16, literal(-7)))
          CFI (cfiCond104) R7 load(1, XDATA, add(CFA_XSP16, literal(-6)))
          CFI (cfiCond104) ?RET_LOW load(1, XDATA, add(CFA_XSP16, literal(-5)))
          CFI (cfiCond104) ?RET_HIGH load(1, XDATA, add(CFA_XSP16, literal(-4)))
          CFI (cfiCond104) ?BRET_EXT load(1, XDATA, add(CFA_XSP16, literal(-3)))
          CFI (cfiCond104) DPL0 load(1, XDATA, add(CFA_XSP16, literal(-2)))
          CFI (cfiCond104) DPH0 load(1, XDATA, add(CFA_XSP16, literal(-1)))
          CFI (cfiCond104) CFA_SP SP+-2
          CFI (cfiCond104) CFA_XSP16 add(XSP16, 38)
          CFI Block cfiPicker105 Using cfiCommon1
          CFI (cfiPicker105) NoFunction
          CFI (cfiPicker105) Picker
        LCALL     `??zclFindAttrRec::?relay`; Banked call to: zclFindAttrRec
        MOV       A,#0x2
        RET
          CFI EndBlock cfiCond100
          CFI EndBlock cfiCond101
          CFI EndBlock cfiCond102
          CFI EndBlock cfiCond103
          CFI EndBlock cfiCond104
          CFI EndBlock cfiPicker105
// 1033 
// 1034 /*********************************************************************
// 1035  * @fn      zcl_SendCommand
// 1036  *
// 1037  * @brief   Used to send Profile and Cluster Specific Command messages.
// 1038  *
// 1039  *          NOTE: The calling application is responsible for incrementing
// 1040  *                the Sequence Number.
// 1041  *
// 1042  * @param   srcEp - source endpoint
// 1043  * @param   destAddr - destination address
// 1044  * @param   clusterID - cluster ID
// 1045  * @param   cmd - command ID
// 1046  * @param   specific - whether the command is Cluster Specific
// 1047  * @param   direction - client/server direction of the command
// 1048  * @param   disableDefaultRsp - disable Default Response command
// 1049  * @param   manuCode - manufacturer code for proprietary extensions to a profile
// 1050  * @param   seqNumber - identification number for the transaction
// 1051  * @param   cmdFormatLen - length of the command to be sent
// 1052  * @param   cmdFormat - command to be sent
// 1053  *
// 1054  * @return  ZSuccess if OK
// 1055  */

        RSEG BANKED_CODE:HUGECODE:NOROOT(0)
// 1056 ZStatus_t zcl_SendCommand( uint8 srcEP, afAddrType_t *destAddr,
zcl_SendCommand:
          CFI Block cfiBlock106 Using cfiCommon0
          CFI Function zcl_SendCommand
        CODE
// 1057                            uint16 clusterID, uint8 cmd, uint8 specific, uint8 direction,
// 1058                            uint8 disableDefaultRsp, uint16 manuCode, uint8 seqNum,
// 1059                            uint16 cmdFormatLen, uint8 *cmdFormat )
// 1060 {
        FUNCALL zcl_SendCommand, afFindEndPointDesc
        LOCFRAME ISTACK, 0, STACK
        LOCFRAME PSTACK, 0, STACK
        LOCFRAME XSTACK, 27, STACK
        LOCFRAME IOVERLAY, 0, STATIC
        LOCFRAME DOVERLAY, 0, STATIC
        ARGFRAME ISTACK, 0, STACK
        ARGFRAME PSTACK, 0, STACK
        ARGFRAME XSTACK, 27, STACK
        ARGFRAME IOVERLAY, 0, STATIC
        ARGFRAME DOVERLAY, 0, STATIC
        FUNCALL zcl_SendCommand, zclGetClusterOption
        LOCFRAME ISTACK, 0, STACK
        LOCFRAME PSTACK, 0, STACK
        LOCFRAME XSTACK, 27, STACK
        LOCFRAME IOVERLAY, 0, STATIC
        LOCFRAME DOVERLAY, 0, STATIC
        ARGFRAME ISTACK, 0, STACK
        ARGFRAME PSTACK, 0, STACK
        ARGFRAME XSTACK, 27, STACK
        ARGFRAME IOVERLAY, 0, STATIC
        ARGFRAME DOVERLAY, 0, STATIC
        FUNCALL zcl_SendCommand, osal_memset
        LOCFRAME ISTACK, 0, STACK
        LOCFRAME PSTACK, 0, STACK
        LOCFRAME XSTACK, 27, STACK
        LOCFRAME IOVERLAY, 0, STATIC
        LOCFRAME DOVERLAY, 0, STATIC
        ARGFRAME ISTACK, 0, STACK
        ARGFRAME PSTACK, 0, STACK
        ARGFRAME XSTACK, 27, STACK
        ARGFRAME IOVERLAY, 0, STATIC
        ARGFRAME DOVERLAY, 0, STATIC
        FUNCALL zcl_SendCommand, zcl_DeviceOperational
        LOCFRAME ISTACK, 0, STACK
        LOCFRAME PSTACK, 0, STACK
        LOCFRAME XSTACK, 29, STACK
        LOCFRAME IOVERLAY, 0, STATIC
        LOCFRAME DOVERLAY, 0, STATIC
        ARGFRAME ISTACK, 0, STACK
        ARGFRAME PSTACK, 0, STACK
        ARGFRAME XSTACK, 29, STACK
        ARGFRAME IOVERLAY, 0, STATIC
        ARGFRAME DOVERLAY, 0, STATIC
        FUNCALL zcl_SendCommand, osal_mem_alloc
        LOCFRAME ISTACK, 0, STACK
        LOCFRAME PSTACK, 0, STACK
        LOCFRAME XSTACK, 27, STACK
        LOCFRAME IOVERLAY, 0, STATIC
        LOCFRAME DOVERLAY, 0, STATIC
        ARGFRAME ISTACK, 0, STACK
        ARGFRAME PSTACK, 0, STACK
        ARGFRAME XSTACK, 27, STACK
        ARGFRAME IOVERLAY, 0, STATIC
        ARGFRAME DOVERLAY, 0, STATIC
        FUNCALL zcl_SendCommand, zclBuildHdr
        LOCFRAME ISTACK, 0, STACK
        LOCFRAME PSTACK, 0, STACK
        LOCFRAME XSTACK, 27, STACK
        LOCFRAME IOVERLAY, 0, STATIC
        LOCFRAME DOVERLAY, 0, STATIC
        ARGFRAME ISTACK, 0, STACK
        ARGFRAME PSTACK, 0, STACK
        ARGFRAME XSTACK, 27, STACK
        ARGFRAME IOVERLAY, 0, STATIC
        ARGFRAME DOVERLAY, 0, STATIC
        FUNCALL zcl_SendCommand, osal_memcpy
        LOCFRAME ISTACK, 0, STACK
        LOCFRAME PSTACK, 0, STACK
        LOCFRAME XSTACK, 30, STACK
        LOCFRAME IOVERLAY, 0, STATIC
        LOCFRAME DOVERLAY, 0, STATIC
        ARGFRAME ISTACK, 0, STACK
        ARGFRAME PSTACK, 0, STACK
        ARGFRAME XSTACK, 30, STACK
        ARGFRAME IOVERLAY, 0, STATIC
        ARGFRAME DOVERLAY, 0, STATIC
        FUNCALL zcl_SendCommand, AF_DataRequest
        LOCFRAME ISTACK, 0, STACK
        LOCFRAME PSTACK, 0, STACK
        LOCFRAME XSTACK, 36, STACK
        LOCFRAME IOVERLAY, 0, STATIC
        LOCFRAME DOVERLAY, 0, STATIC
        ARGFRAME ISTACK, 0, STACK
        ARGFRAME PSTACK, 0, STACK
        ARGFRAME XSTACK, 36, STACK
        ARGFRAME IOVERLAY, 0, STATIC
        ARGFRAME DOVERLAY, 0, STATIC
        FUNCALL zcl_SendCommand, osal_mem_free
        LOCFRAME ISTACK, 0, STACK
        LOCFRAME PSTACK, 0, STACK
        LOCFRAME XSTACK, 27, STACK
        LOCFRAME IOVERLAY, 0, STATIC
        LOCFRAME DOVERLAY, 0, STATIC
        ARGFRAME ISTACK, 0, STACK
        ARGFRAME PSTACK, 0, STACK
        ARGFRAME XSTACK, 27, STACK
        ARGFRAME IOVERLAY, 0, STATIC
        ARGFRAME DOVERLAY, 0, STATIC
        REQUIRE ?V0
        REQUIRE ?V1
        REQUIRE ?V2
        REQUIRE ?V3
        REQUIRE ?V4
        REQUIRE ?V5
        REQUIRE ?V6
        REQUIRE ?V7
        MOV       A,#-0x10
        LCALL     ?BANKED_ENTER_XDATA
          CFI DPH0 load(1, XDATA, add(CFA_XSP16, literal(-1)))
          CFI DPL0 load(1, XDATA, add(CFA_XSP16, literal(-2)))
          CFI ?BRET_EXT load(1, XDATA, add(CFA_XSP16, literal(-3)))
          CFI ?RET_HIGH load(1, XDATA, add(CFA_XSP16, literal(-4)))
          CFI ?RET_LOW load(1, XDATA, add(CFA_XSP16, literal(-5)))
          CFI R7 load(1, XDATA, add(CFA_XSP16, literal(-6)))
          CFI V7 load(1, XDATA, add(CFA_XSP16, literal(-7)))
          CFI V6 load(1, XDATA, add(CFA_XSP16, literal(-8)))
          CFI V5 load(1, XDATA, add(CFA_XSP16, literal(-9)))
          CFI V4 load(1, XDATA, add(CFA_XSP16, literal(-10)))
          CFI V3 load(1, XDATA, add(CFA_XSP16, literal(-11)))
          CFI V2 load(1, XDATA, add(CFA_XSP16, literal(-12)))
          CFI V1 load(1, XDATA, add(CFA_XSP16, literal(-13)))
          CFI V0 load(1, XDATA, add(CFA_XSP16, literal(-14)))
          CFI VB load(1, XDATA, add(CFA_XSP16, literal(-15)))
          CFI R6 load(1, XDATA, add(CFA_XSP16, literal(-16)))
          CFI CFA_SP SP+0
          CFI CFA_XSP16 add(XSP16, 16)
        ; Saved register size: 16
        ; Auto size: 11
        MOV       A,#-0xb
        LCALL     ?ALLOC_XSTACK8
          CFI CFA_XSP16 add(XSP16, 27)
        MOV       A,R1
        MOV       DPL,?XSP + 0
        MOV       DPH,?XSP + 1
        MOVX      @DPTR,A
        MOV       A,#0x9
