///////////////////////////////////////////////////////////////////////////////
//
// IAR C/C++ Compiler V10.20.1.5333 for 8051              28/Apr/2026  20:22:13
// Copyright 2004-2018 IAR Systems AB.
// PC-locked license - IAR Embedded Workbench for 8051
//
//    Core               =  plain
//    Code model         =  banked
//    Data model         =  large
//    Calling convention =  xdata reentrant
//    Constant location  =  data_rom
//    Dptr setup         =  1,16
//                          
//    Source file        =  
//        E:\BaiduNetdiskDownload\´đ°¸\ĘµŃéČý ZigBee´úÂë\Z-Stack 3.0.1\Z-Stack
//        3.0.1\Components\stack\zcl\zcl_green_power.c
//    Command line       =  
//        -f C:\Users\ZH\AppData\Local\Temp\EW593A.tmp
//        ("E:\BaiduNetdiskDownload\´đ°¸\ĘµŃéČý ZigBee´úÂë\Z-Stack
//        3.0.1\Z-Stack 3.0.1\Components\stack\zcl\zcl_green_power.c" -D
//        SECURE=1 -D TC_LINKKEY_JOIN -D NV_INIT -D NV_RESTORE -D xZTOOL_P1 -D
//        xMT_TASK -D xMT_APP_FUNC -D xMT_SYS_FUNC -D xMT_ZDO_FUNC -D
//        xMT_ZDO_MGMT -D xMT_APP_CNF_FUNC -D LCD_SUPPORTED=DEBUG -D
//        MULTICAST_ENABLED=FALSE -D ZCL_READ -D ZCL_DISCOVER -D ZCL_WRITE -D
//        ZCL_BASIC -D ZCL_IDENTIFY -D ZCL_ON_OFF -D ZCL_GROUPS -D
//        ZCL_REPORT_DESTINATION_DEVICE -D ZCL_REPORT -D HAL_LED=TRUE -D
//        HAL_KEY=TRUE -D ISR_KEYINTERRUPT -D HAL_UART=TRUE -D
//        INT_HEAP_LEN=2300 -D HAL_LCD=TRUE -D xHAL_LCD_OLED12864 -D
//        HAL_ADC=TRUE -D HAL_UART=TRUE -D INT_HEAP_LEN=2048 -lC
//        "E:\BaiduNetdiskDownload\´đ°¸\ĘµŃéČý ZigBee´úÂë\Z-Stack 3.0.1\Z-Stack
//        3.0.1\Projects\zstack\HomeAutomation\SampleSwitch\CC2530DB\CoordinatorEB\List"
//        -lA "E:\BaiduNetdiskDownload\´đ°¸\ĘµŃéČý ZigBee´úÂë\Z-Stack
//        3.0.1\Z-Stack
//        3.0.1\Projects\zstack\HomeAutomation\SampleSwitch\CC2530DB\CoordinatorEB\List"
//        --diag_suppress Pe001,Pa010 -o "E:\BaiduNetdiskDownload\´đ°¸\ĘµŃéČý
//        ZigBee´úÂë\Z-Stack 3.0.1\Z-Stack
//        3.0.1\Projects\zstack\HomeAutomation\SampleSwitch\CC2530DB\CoordinatorEB\Obj"
//        -e --debug --core=plain --dptr=16,1 --data_model=large
//        --code_model=banked --calling_convention=xdata_reentrant
//        --place_constants=data_rom --nr_virtual_regs 8 -f
//        "E:\BaiduNetdiskDownload\´đ°¸\ĘµŃéČý ZigBee´úÂë\Z-Stack 3.0.1\Z-Stack
//        3.0.1\Projects\zstack\HomeAutomation\SampleSwitch\CC2530DB\..\..\..\Tools\CC2530DB\f8wCoord.cfg"
//        (-DCPU32MHZ -DROOT=__near_func -DMAC_CFG_APP_PENDING_QUEUE=TRUE
//        -DMAC_CFG_TX_DATA_MAX=5 -DMAC_CFG_TX_MAX=8 -DMAC_CFG_RX_MAX=5
//        -DZDO_COORDINATOR -DRTR_NWK) -f "E:\BaiduNetdiskDownload\´đ°¸\ĘµŃéČý
//        ZigBee´úÂë\Z-Stack 3.0.1\Z-Stack
//        3.0.1\Projects\zstack\HomeAutomation\SampleSwitch\CC2530DB\..\..\..\Tools\CC2530DB\f8wConfig.cfg"
//        (-DZIGBEEPRO -DSECURE=1 -DZG_SECURE_DYNAMIC=0 -DREFLECTOR
//        -DDEFAULT_CHANLIST=0x00000800 -DZDAPP_CONFIG_PAN_ID=0xFFFF
//        -DNWK_START_DELAY=100 -DEXTENDED_JOINING_RANDOM_MASK=0x007F
//        -DBEACON_REQUEST_DELAY=100 -DBEACON_REQ_DELAY_MASK=0x00FF
//        -DLINK_STATUS_JITTER_MASK=0x007F -DROUTE_EXPIRY_TIME=30
//        -DAPSC_ACK_WAIT_DURATION_POLLED=3000 -DNWK_INDIRECT_MSG_TIMEOUT=7
//        -DMAX_RREQ_ENTRIES=8 -DAPSC_MAX_FRAME_RETRIES=3
//        -DNWK_MAX_DATA_RETRIES=2 -DMAX_POLL_FAILURE_RETRIES=2 -DMAX_BCAST=9
//        -DAPS_MAX_GROUPS=16 -DMAX_RTG_ENTRIES=40 -DNWK_MAX_BINDING_ENTRIES=4
//        -DMAX_BINDING_CLUSTER_IDS=4 -DDEFAULT_KEY={0}
//        -DMAC_MAX_FRAME_SIZE=116 -DZDNWKMGR_MIN_TRANSMISSIONS=20
//        "-DCONST=const __code" -DGENERIC=__generic -DRFD_RCVC_ALWAYS_ON=FALSE
//        -DPOLL_RATE=1000 -DQUEUED_POLL_RATE=100 -DRESPONSE_POLL_RATE=100
//        -DREJOIN_POLL_RATE=440 -DREJOIN_BACKOFF=900000 -DREJOIN_SCAN=900000
//        -DENABLE_LED4_DISABLE_S1) -f "E:\BaiduNetdiskDownload\´đ°¸\ĘµŃéČý
//        ZigBee´úÂë\Z-Stack 3.0.1\Z-Stack
//        3.0.1\Projects\zstack\HomeAutomation\SampleSwitch\CC2530DB\..\..\..\Tools\CC2530DB\f8wZCL.cfg"
//        -I "E:\BaiduNetdiskDownload\´đ°¸\ĘµŃéČý ZigBee´úÂë\Z-Stack
//        3.0.1\Z-Stack
//        3.0.1\Projects\zstack\HomeAutomation\SampleSwitch\CC2530DB\" -I
//        "E:\BaiduNetdiskDownload\´đ°¸\ĘµŃéČý ZigBee´úÂë\Z-Stack 3.0.1\Z-Stack
//        3.0.1\Projects\zstack\HomeAutomation\SampleSwitch\CC2530DB\..\Source\"
//        -I "E:\BaiduNetdiskDownload\´đ°¸\ĘµŃéČý ZigBee´úÂë\Z-Stack
//        3.0.1\Z-Stack
//        3.0.1\Projects\zstack\HomeAutomation\SampleSwitch\CC2530DB\..\..\Source\"
//        -I "E:\BaiduNetdiskDownload\´đ°¸\ĘµŃéČý ZigBee´úÂë\Z-Stack
//        3.0.1\Z-Stack
//        3.0.1\Projects\zstack\HomeAutomation\SampleSwitch\CC2530DB\..\..\..\ZMain\TI2530DB\"
//        -I "E:\BaiduNetdiskDownload\´đ°¸\ĘµŃéČý ZigBee´úÂë\Z-Stack
//        3.0.1\Z-Stack
//        3.0.1\Projects\zstack\HomeAutomation\SampleSwitch\CC2530DB\..\..\..\..\..\Components\hal\include\"
//        -I "E:\BaiduNetdiskDownload\´đ°¸\ĘµŃéČý ZigBee´úÂë\Z-Stack
//        3.0.1\Z-Stack
//        3.0.1\Projects\zstack\HomeAutomation\SampleSwitch\CC2530DB\..\..\..\..\..\Components\hal\target\CC2530EB\"
//        -I "E:\BaiduNetdiskDownload\´đ°¸\ĘµŃéČý ZigBee´úÂë\Z-Stack
//        3.0.1\Z-Stack
//        3.0.1\Projects\zstack\HomeAutomation\SampleSwitch\CC2530DB\..\..\..\..\..\Components\mac\include\"
//        -I "E:\BaiduNetdiskDownload\´đ°¸\ĘµŃéČý ZigBee´úÂë\Z-Stack
//        3.0.1\Z-Stack
//        3.0.1\Projects\zstack\HomeAutomation\SampleSwitch\CC2530DB\..\..\..\..\..\Components\mac\high_level\"
//        -I "E:\BaiduNetdiskDownload\´đ°¸\ĘµŃéČý ZigBee´úÂë\Z-Stack
//        3.0.1\Z-Stack
//        3.0.1\Projects\zstack\HomeAutomation\SampleSwitch\CC2530DB\..\..\..\..\..\Components\mac\low_level\srf04\"
//        -I "E:\BaiduNetdiskDownload\´đ°¸\ĘµŃéČý ZigBee´úÂë\Z-Stack
//        3.0.1\Z-Stack
//        3.0.1\Projects\zstack\HomeAutomation\SampleSwitch\CC2530DB\..\..\..\..\..\Components\mac\low_level\srf04\single_chip\"
//        -I "E:\BaiduNetdiskDownload\´đ°¸\ĘµŃéČý ZigBee´úÂë\Z-Stack
//        3.0.1\Z-Stack
//        3.0.1\Projects\zstack\HomeAutomation\SampleSwitch\CC2530DB\..\..\..\..\..\Components\mt\"
//        -I "E:\BaiduNetdiskDownload\´đ°¸\ĘµŃéČý ZigBee´úÂë\Z-Stack
//        3.0.1\Z-Stack
//        3.0.1\Projects\zstack\HomeAutomation\SampleSwitch\CC2530DB\..\..\..\..\..\Components\osal\include\"
//        -I "E:\BaiduNetdiskDownload\´đ°¸\ĘµŃéČý ZigBee´úÂë\Z-Stack
//        3.0.1\Z-Stack
//        3.0.1\Projects\zstack\HomeAutomation\SampleSwitch\CC2530DB\..\..\..\..\..\Components\services\saddr\"
//        -I "E:\BaiduNetdiskDownload\´đ°¸\ĘµŃéČý ZigBee´úÂë\Z-Stack
//        3.0.1\Z-Stack
//        3.0.1\Projects\zstack\HomeAutomation\SampleSwitch\CC2530DB\..\..\..\..\..\Components\services\sdata\"
//        -I "E:\BaiduNetdiskDownload\´đ°¸\ĘµŃéČý ZigBee´úÂë\Z-Stack
//        3.0.1\Z-Stack
//        3.0.1\Projects\zstack\HomeAutomation\SampleSwitch\CC2530DB\..\..\..\..\..\Components\stack\af\"
//        -I "E:\BaiduNetdiskDownload\´đ°¸\ĘµŃéČý ZigBee´úÂë\Z-Stack
//        3.0.1\Z-Stack
//        3.0.1\Projects\zstack\HomeAutomation\SampleSwitch\CC2530DB\..\..\..\..\..\Components\stack\bdb\"
//        -I "E:\BaiduNetdiskDownload\´đ°¸\ĘµŃéČý ZigBee´úÂë\Z-Stack
//        3.0.1\Z-Stack
//        3.0.1\Projects\zstack\HomeAutomation\SampleSwitch\CC2530DB\..\..\..\..\..\Components\stack\gp\"
//        -I "E:\BaiduNetdiskDownload\´đ°¸\ĘµŃéČý ZigBee´úÂë\Z-Stack
//        3.0.1\Z-Stack
//        3.0.1\Projects\zstack\HomeAutomation\SampleSwitch\CC2530DB\..\..\..\..\..\Components\stack\nwk\"
//        -I "E:\BaiduNetdiskDownload\´đ°¸\ĘµŃéČý ZigBee´úÂë\Z-Stack
//        3.0.1\Z-Stack
//        3.0.1\Projects\zstack\HomeAutomation\SampleSwitch\CC2530DB\..\..\..\..\..\Components\stack\sapi\"
//        -I "E:\BaiduNetdiskDownload\´đ°¸\ĘµŃéČý ZigBee´úÂë\Z-Stack
//        3.0.1\Z-Stack
//        3.0.1\Projects\zstack\HomeAutomation\SampleSwitch\CC2530DB\..\..\..\..\..\Components\stack\sec\"
//        -I "E:\BaiduNetdiskDownload\´đ°¸\ĘµŃéČý ZigBee´úÂë\Z-Stack
//        3.0.1\Z-Stack
//        3.0.1\Projects\zstack\HomeAutomation\SampleSwitch\CC2530DB\..\..\..\..\..\Components\stack\sys\"
//        -I "E:\BaiduNetdiskDownload\´đ°¸\ĘµŃéČý ZigBee´úÂë\Z-Stack
//        3.0.1\Z-Stack
//        3.0.1\Projects\zstack\HomeAutomation\SampleSwitch\CC2530DB\..\..\..\..\..\Components\stack\zcl\"
//        -I "E:\BaiduNetdiskDownload\´đ°¸\ĘµŃéČý ZigBee´úÂë\Z-Stack
//        3.0.1\Z-Stack
//        3.0.1\Projects\zstack\HomeAutomation\SampleSwitch\CC2530DB\..\..\..\..\..\Components\stack\zdo\"
//        -I "E:\BaiduNetdiskDownload\´đ°¸\ĘµŃéČý ZigBee´úÂë\Z-Stack
//        3.0.1\Z-Stack
//        3.0.1\Projects\zstack\HomeAutomation\SampleSwitch\CC2530DB\..\..\..\..\..\Components\zmac\"
//        -I "E:\BaiduNetdiskDownload\´đ°¸\ĘµŃéČý ZigBee´úÂë\Z-Stack
//        3.0.1\Z-Stack
//        3.0.1\Projects\zstack\HomeAutomation\SampleSwitch\CC2530DB\..\..\..\..\..\Components\zmac\f8w\"
//        -I "E:\BaiduNetdiskDownload\´đ°¸\ĘµŃéČý ZigBee´úÂë\Z-Stack
//        3.0.1\Z-Stack
//        3.0.1\Projects\zstack\HomeAutomation\SampleSwitch\CC2530DB\..\..\..\..\..\Components\hal\target\CC2530EB\Common\"
//        -I "E:\BaiduNetdiskDownload\´đ°¸\ĘµŃéČý ZigBee´úÂë\Z-Stack
//        3.0.1\Z-Stack
//        3.0.1\Projects\zstack\HomeAutomation\SampleSwitch\CC2530DB\..\..\..\..\..\Components\hal\target\CC2530EB\SPI\"
//        -I "E:\BaiduNetdiskDownload\´đ°¸\ĘµŃéČý ZigBee´úÂë\Z-Stack
//        3.0.1\Z-Stack
//        3.0.1\Projects\zstack\HomeAutomation\SampleSwitch\CC2530DB\..\..\..\..\..\Components\hal\target\CC2530EB\HW_LCD\Font\"
//        -I "E:\BaiduNetdiskDownload\´đ°¸\ĘµŃéČý ZigBee´úÂë\Z-Stack
//        3.0.1\Z-Stack
//        3.0.1\Projects\zstack\HomeAutomation\SampleSwitch\CC2530DB\..\..\..\..\..\Components\hal\target\CC2530EB\HW_LCD\HAL_LCD_SPI\"
//        -I "E:\BaiduNetdiskDownload\´đ°¸\ĘµŃéČý ZigBee´úÂë\Z-Stack
//        3.0.1\Z-Stack
//        3.0.1\Projects\zstack\HomeAutomation\SampleSwitch\CC2530DB\..\..\..\..\..\Components\hal\target\CC2530EB\HW_LCD\HAL_OLED\"
//        -I "E:\BaiduNetdiskDownload\´đ°¸\ĘµŃéČý ZigBee´úÂë\Z-Stack
//        3.0.1\Z-Stack
//        3.0.1\Projects\zstack\HomeAutomation\SampleSwitch\CC2530DB\..\..\..\..\..\Components\hal\target\CC2530EB\HW_LCD\HAL_TFT\"
//        -Ohz --require_prototypes)
//    Locale             =  Chinese (Simplified)_CHN.936
//    List file          =  
//        E:\BaiduNetdiskDownload\´đ°¸\ĘµŃéČý ZigBee´úÂë\Z-Stack 3.0.1\Z-Stack
//        3.0.1\Projects\zstack\HomeAutomation\SampleSwitch\CC2530DB\CoordinatorEB\List\zcl_green_power.s51
//
///////////////////////////////////////////////////////////////////////////////

        NAME zcl_green_power

        RTMODEL "__SystemLibrary", "CLib"
        RTMODEL "__calling_convention", "xdata_reentrant"
        RTMODEL "__code_model", "banked"
        RTMODEL "__core", "plain"
        RTMODEL "__data_model", "large"
        RTMODEL "__dptr_size", "16"
        RTMODEL "__extended_stack", "disabled"
        RTMODEL "__location_for_constants", "data"
        RTMODEL "__number_of_dptrs", "1"
        RTMODEL "__register_banks", "*"
        RTMODEL "__rt_version", "1"

        RSEG DOVERLAY:DATA:NOROOT(0)
        RSEG IOVERLAY:IDATA:NOROOT(0)
        RSEG ISTACK:IDATA:NOROOT(0)
        RSEG PSTACK:XDATA:NOROOT(0)
        RSEG XSTACK:XDATA:NOROOT(0)

        EXTERN ?V0
        EXTERN ?V2
        EXTERN ?V3
        EXTERN ?V1
        EXTERN ?V4
        EXTERN ?V5
        EXTERN ?V6
        EXTERN ?V7
        EXTERN ?ALLOC_XSTACK8
        EXTERN ?BANKED_ENTER_XDATA
        EXTERN ?BANKED_LEAVE_XDATA
        EXTERN ?BDISPATCH
        EXTERN ?BRET
        EXTERN ?CALL_IND
        EXTERN ?DEALLOC_XSTACK8
        EXTERN ?MOVE_LONG8_XDATA_XDATA
        EXTERN ?PUSH_XSTACK8_X_FOUR
        EXTERN ?PUSH_XSTACK8_X_TWO
        EXTERN ?PUSH_XSTACK_I_ONE
        EXTERN ?PUSH_XSTACK_I_THREE
        EXTERN ?PUSH_XSTACK_I_TWO
        EXTERN ?XSP
        EXTERN ?XSTACK_DISP0_8
        EXTERN ?XSTACK_DISP100_8
        EXTERN ?XSTACK_DISP101_8
        EXTERN ?XSTACK_DISP102_8
        EXTERN __INIT_XDATA_Z

        PUBLIC `??gp_AddCmdPayloadMsgNode::?relay`
        FUNCTION `??gp_AddCmdPayloadMsgNode::?relay`,0203H
        PUBLIC `??gp_AddNotificationMsgNode::?relay`
        FUNCTION `??gp_AddNotificationMsgNode::?relay`,0203H
        PUBLIC `??gp_CmdPayloadMsgClean::?relay`
        FUNCTION `??gp_CmdPayloadMsgClean::?relay`,0203H
        PUBLIC `??gp_CreateCmdPayloadMsgList::?relay`
        FUNCTION `??gp_CreateCmdPayloadMsgList::?relay`,0203H
        PUBLIC `??gp_CreateNotificationMsgList::?relay`
        FUNCTION `??gp_CreateNotificationMsgList::?relay`,0203H
        PUBLIC `??gp_GetHeadCmdPayloadMsg::?relay`
        FUNCTION `??gp_GetHeadCmdPayloadMsg::?relay`,0203H
        PUBLIC `??gp_GetHeadNotificationMsg::?relay`
        FUNCTION `??gp_GetHeadNotificationMsg::?relay`,0203H
        PUBLIC `??gp_GetPHeadCmdPayload::?relay`
        FUNCTION `??gp_GetPHeadCmdPayload::?relay`,0203H
        PUBLIC `??gp_GetPHeadNotification::?relay`
        FUNCTION `??gp_GetPHeadNotification::?relay`,0203H
        PUBLIC `??gp_NotificationMsgClean::?relay`
        FUNCTION `??gp_NotificationMsgClean::?relay`,0203H
        PUBLIC `??gp_ResetProxyBasicTblEntry::?relay`
        FUNCTION `??gp_ResetProxyBasicTblEntry::?relay`,0203H
        FUNCTION `??gp_addPairedSinksToMsgQueue::?relay`,0203H
        FUNCTION `??zclGp_HdlIncoming::?relay`,0203H
        FUNCTION `??zclGp_ProcessInProxyBasic::?relay`,0203H
        PUBLIC `??zclGp_RegisterCmdCallbacks::?relay`
        FUNCTION `??zclGp_RegisterCmdCallbacks::?relay`,0203H
        PUBLIC `??zclGp_SendGpCommissioningNotificationCommand:`
        FUNCTION `??zclGp_SendGpCommissioningNotificationCommand:`,0203H
        PUBLIC `??zclGp_SendGpNotificationCommand::?relay`
        FUNCTION `??zclGp_SendGpNotificationCommand::?relay`,0203H
        PUBLIC `??zclGp_SendGpProxyTableResponse::?relay`
        FUNCTION `??zclGp_SendGpProxyTableResponse::?relay`,0203H
        PUBWEAK __Constant_32
        PUBLIC gp_AddCmdPayloadMsgNode
        FUNCTION gp_AddCmdPayloadMsgNode,0a1203H
        ARGFRAME XSTACK, 22, STACK
        ARGFRAME IOVERLAY, 0, STATIC
        ARGFRAME DOVERLAY, 0, STATIC
        LOCFRAME ISTACK, 1, STACK
        LOCFRAME XSTACK, 14, STACK
        PUBLIC gp_AddNotificationMsgNode
        FUNCTION gp_AddNotificationMsgNode,0a1203H
        ARGFRAME XSTACK, 104, STACK
        ARGFRAME IOVERLAY, 0, STATIC
        ARGFRAME DOVERLAY, 0, STATIC
        LOCFRAME XSTACK, 12, STACK
        PUBLIC gp_CmdPayloadMsgClean
        FUNCTION gp_CmdPayloadMsgClean,021203H
        ARGFRAME XSTACK, 12, STACK
        ARGFRAME IOVERLAY, 0, STATIC
        ARGFRAME DOVERLAY, 0, STATIC
        LOCFRAME XSTACK, 9, STACK
        PUBLIC gp_CreateCmdPayloadMsgList
        FUNCTION gp_CreateCmdPayloadMsgList,0a1203H
        ARGFRAME XSTACK, 14, STACK
        ARGFRAME IOVERLAY, 0, STATIC
        ARGFRAME DOVERLAY, 0, STATIC
        LOCFRAME XSTACK, 10, STACK
        PUBLIC gp_CreateNotificationMsgList
        FUNCTION gp_CreateNotificationMsgList,0a1203H
        ARGFRAME XSTACK, 12, STACK
        ARGFRAME IOVERLAY, 0, STATIC
        ARGFRAME DOVERLAY, 0, STATIC
        LOCFRAME XSTACK, 10, STACK
        PUBLIC gp_GetHeadCmdPayloadMsg
        FUNCTION gp_GetHeadCmdPayloadMsg,0203H
        ARGFRAME XSTACK, 0, STACK
        LOCFRAME ISTACK, 2, STACK
        PUBLIC gp_GetHeadNotificationMsg
        FUNCTION gp_GetHeadNotificationMsg,0203H
        ARGFRAME XSTACK, 0, STACK
        LOCFRAME ISTACK, 2, STACK
        PUBLIC gp_GetPHeadCmdPayload
        FUNCTION gp_GetPHeadCmdPayload,0203H
        ARGFRAME XSTACK, 0, STACK
        PUBLIC gp_GetPHeadNotification
        FUNCTION gp_GetPHeadNotification,0203H
        ARGFRAME XSTACK, 0, STACK
        PUBLIC gp_NotificationMsgClean
        FUNCTION gp_NotificationMsgClean,0a1203H
        ARGFRAME XSTACK, 0, STACK
        LOCFRAME XSTACK, 12, STACK
        PUBLIC gp_ResetProxyBasicTblEntry
        FUNCTION gp_ResetProxyBasicTblEntry,0a1203H
        ARGFRAME XSTACK, 0, STACK
        LOCFRAME XSTACK, 79, STACK
        FUNCTION gp_addPairedSinksToMsgQueue,0a1203H
        ARGFRAME XSTACK, 22, STACK
        ARGFRAME IOVERLAY, 0, STATIC
        ARGFRAME DOVERLAY, 0, STATIC
        LOCFRAME XSTACK, 107, STACK
        FUNCTION zclGp_HdlIncoming,021603H
        ARGFRAME XSTACK, 0, STACK
        LOCFRAME XSTACK, 9, STACK
        FUNCTION zclGp_ProcessInProxyBasic,0a1203H
        ARGFRAME XSTACK, 9, STACK
        ARGFRAME IOVERLAY, 0, STATIC
        ARGFRAME DOVERLAY, 0, STATIC
        LOCFRAME ISTACK, 1, STACK
        LOCFRAME XSTACK, 50, STACK
        PUBLIC zclGp_RegisterCmdCallbacks
        FUNCTION zclGp_RegisterCmdCallbacks,0a1203H
        ARGFRAME XSTACK, 0, STACK
        LOCFRAME ISTACK, 1, STACK
        LOCFRAME XSTACK, 14, STACK
        PUBLIC zclGp_SendGpCommissioningNotificationCommand
        FUNCTION zclGp_SendGpCommissioningNotificationCommand,0a1203H
        ARGFRAME XSTACK, 0, STACK
        LOCFRAME ISTACK, 1, STACK
        LOCFRAME XSTACK, 41, STACK
        PUBLIC zclGp_SendGpNotificationCommand
        FUNCTION zclGp_SendGpNotificationCommand,0a1203H
        ARGFRAME XSTACK, 0, STACK
        LOCFRAME ISTACK, 1, STACK
        LOCFRAME XSTACK, 26, STACK
        PUBLIC zclGp_SendGpProxyTableResponse
        FUNCTION zclGp_SendGpProxyTableResponse,0a1203H
        ARGFRAME XSTACK, 0, STACK
        LOCFRAME ISTACK, 1, STACK
        LOCFRAME XSTACK, 35, STACK
        
          CFI Names cfiNames0
          CFI StackFrame CFA_SP SP IDATA
          CFI StackFrame CFA_PSP16 PSP16 XDATA
          CFI StackFrame CFA_XSP16 XSP16 XDATA
          CFI StaticOverlayFrame CFA_IOVERLAY IOVERLAY
          CFI StaticOverlayFrame CFA_DOVERLAY DOVERLAY
          CFI Resource `PSW.CY`:1, `B.BR0`:1, `B.BR1`:1, `B.BR2`:1, `B.BR3`:1
          CFI Resource `B.BR4`:1, `B.BR5`:1, `B.BR6`:1, `B.BR7`:1, `VB.BR8`:1
          CFI Resource `VB.BR9`:1, `VB.BR10`:1, `VB.BR11`:1, `VB.BR12`:1
          CFI Resource `VB.BR13`:1, `VB.BR14`:1, `VB.BR15`:1, VB:8, B:8, A:8
          CFI Resource PSW:8, DPL0:8, DPH0:8, R0:8, R1:8, R2:8, R3:8, R4:8, R5:8
          CFI Resource R6:8, R7:8, V0:8, V1:8, V2:8, V3:8, V4:8, V5:8, V6:8, V7:8
          CFI Resource SP:8, PSPH:8, PSPL:8, PSP16:16, XSPH:8, XSPL:8, XSP16:16
          CFI VirtualResource ?RET:24
          CFI Resource ?BRET_EXT:8
          CFI VirtualResource ?RET_HIGH:8, ?RET_LOW:8
          CFI ResourceParts PSP16 PSPH, PSPL
          CFI ResourceParts XSP16 XSPH, XSPL
          CFI ResourceParts ?RET ?BRET_EXT, ?RET_HIGH, ?RET_LOW
          CFI EndNames cfiNames0
        
          CFI Common cfiCommon0 Using cfiNames0
          CFI CodeAlign 1
          CFI DataAlign -1
          CFI ReturnAddress ?RET CODE
          CFI CFA_DOVERLAY Used
          CFI CFA_IOVERLAY Used
          CFI CFA_SP SP+-3
          CFI CFA_PSP16 PSP16+0
          CFI CFA_XSP16 XSP16+0
          CFI `PSW.CY` SameValue
          CFI `B.BR0` SameValue
          CFI `B.BR1` SameValue
          CFI `B.BR2` SameValue
          CFI `B.BR3` SameValue
          CFI `B.BR4` SameValue
          CFI `B.BR5` SameValue
          CFI `B.BR6` SameValue
          CFI `B.BR7` SameValue
          CFI `VB.BR8` SameValue
          CFI `VB.BR9` SameValue
          CFI `VB.BR10` SameValue
          CFI `VB.BR11` SameValue
          CFI `VB.BR12` SameValue
          CFI `VB.BR13` SameValue
          CFI `VB.BR14` SameValue
          CFI `VB.BR15` SameValue
          CFI VB SameValue
          CFI B Undefined
          CFI A Undefined
          CFI PSW SameValue
          CFI DPL0 SameValue
          CFI DPH0 SameValue
          CFI R0 Undefined
          CFI R1 Undefined
          CFI R2 Undefined
          CFI R3 Undefined
          CFI R4 Undefined
          CFI R5 Undefined
          CFI R6 SameValue
          CFI R7 SameValue
          CFI V0 SameValue
          CFI V1 SameValue
          CFI V2 SameValue
          CFI V3 SameValue
          CFI V4 SameValue
          CFI V5 SameValue
          CFI V6 SameValue
          CFI V7 SameValue
          CFI PSPH Undefined
          CFI PSPL Undefined
          CFI XSPH Undefined
          CFI XSPL Undefined
          CFI ?RET Concat
          CFI ?BRET_EXT Frame(CFA_SP, 3)
          CFI ?RET_HIGH Frame(CFA_SP, 2)
          CFI ?RET_LOW Frame(CFA_SP, 1)
          CFI EndCommon cfiCommon0
        
        
          CFI Common cfiCommon1 Using cfiNames0
          CFI CodeAlign 1
          CFI DataAlign -1
          CFI ReturnAddress ?RET CODE
          CFI CFA_DOVERLAY Used
          CFI CFA_IOVERLAY Used
          CFI CFA_SP SP+-2
          CFI CFA_PSP16 PSP16+0
          CFI CFA_XSP16 XSP16+0
          CFI `PSW.CY` SameValue
          CFI `B.BR0` SameValue
          CFI `B.BR1` SameValue
          CFI `B.BR2` SameValue
          CFI `B.BR3` SameValue
          CFI `B.BR4` SameValue
          CFI `B.BR5` SameValue
          CFI `B.BR6` SameValue
          CFI `B.BR7` SameValue
          CFI `VB.BR8` SameValue
          CFI `VB.BR9` SameValue
          CFI `VB.BR10` SameValue
          CFI `VB.BR11` SameValue
          CFI `VB.BR12` SameValue
          CFI `VB.BR13` SameValue
          CFI `VB.BR14` SameValue
          CFI `VB.BR15` SameValue
          CFI VB SameValue
          CFI B SameValue
          CFI A SameValue
          CFI PSW SameValue
          CFI DPL0 SameValue
          CFI DPH0 SameValue
          CFI R0 SameValue
          CFI R1 SameValue
          CFI R2 SameValue
          CFI R3 SameValue
          CFI R4 SameValue
          CFI R5 SameValue
          CFI R6 SameValue
          CFI R7 SameValue
          CFI V0 SameValue
          CFI V1 SameValue
          CFI V2 SameValue
          CFI V3 SameValue
          CFI V4 SameValue
          CFI V5 SameValue
          CFI V6 SameValue
          CFI V7 SameValue
          CFI PSPH Undefined
          CFI PSPL Undefined
          CFI XSPH Undefined
          CFI XSPL Undefined
          CFI ?RET Concat
          CFI ?BRET_EXT SameValue
          CFI ?RET_HIGH Frame(CFA_SP, 2)
          CFI ?RET_LOW Frame(CFA_SP, 1)
          CFI EndCommon cfiCommon1
        
bdb_getZCLFrameCounter SYMBOL "bdb_getZCLFrameCounter"
`??bdb_getZCLFrameCounter::?relay` SYMBOL "?relay", bdb_getZCLFrameCounter
gp_getProxyTableByIndex SYMBOL "gp_getProxyTableByIndex"
`??gp_getProxyTableByIndex::?relay` SYMBOL "?relay", gp_getProxyTableByIndex
osal_build_uint16   SYMBOL "osal_build_uint16"
`??osal_build_uint16::?relay` SYMBOL "?relay", osal_build_uint16
osal_mem_alloc      SYMBOL "osal_mem_alloc"
`??osal_mem_alloc::?relay` SYMBOL "?relay", osal_mem_alloc
osal_mem_free       SYMBOL "osal_mem_free"
`??osal_mem_free::?relay` SYMBOL "?relay", osal_mem_free
osal_memcmp         SYMBOL "osal_memcmp"
`??osal_memcmp::?relay` SYMBOL "?relay", osal_memcmp
osal_memcpy         SYMBOL "osal_memcpy"
`??osal_memcpy::?relay` SYMBOL "?relay", osal_memcpy
osal_start_timerEx  SYMBOL "osal_start_timerEx"
`??osal_start_timerEx::?relay` SYMBOL "?relay", osal_start_timerEx
zcl_SendCommand     SYMBOL "zcl_SendCommand"
`??zcl_SendCommand::?relay` SYMBOL "?relay", zcl_SendCommand
zcl_SendDefaultRspCmd SYMBOL "zcl_SendDefaultRspCmd"
`??zcl_SendDefaultRspCmd::?relay` SYMBOL "?relay", zcl_SendDefaultRspCmd
zcl_registerPlugin  SYMBOL "zcl_registerPlugin"
`??zcl_registerPlugin::?relay` SYMBOL "?relay", zcl_registerPlugin
gp_AddCmdPayloadMsgNode SYMBOL "gp_AddCmdPayloadMsgNode"
`??gp_AddCmdPayloadMsgNode::?relay` SYMBOL "?relay", gp_AddCmdPayloadMsgNode
gp_AddNotificationMsgNode SYMBOL "gp_AddNotificationMsgNode"
`??gp_AddNotificationMsgNode::?relay` SYMBOL "?relay", gp_AddNotificationMsgNode
gp_CmdPayloadMsgClean SYMBOL "gp_CmdPayloadMsgClean"
`??gp_CmdPayloadMsgClean::?relay` SYMBOL "?relay", gp_CmdPayloadMsgClean
gp_CreateCmdPayloadMsgList SYMBOL "gp_CreateCmdPayloadMsgList"
`??gp_CreateCmdPayloadMsgList::?relay` SYMBOL "?relay", gp_CreateCmdPayloadMsgList
gp_CreateNotificationMsgList SYMBOL "gp_CreateNotificationMsgList"
`??gp_CreateNotificationMsgList::?relay` SYMBOL "?relay", gp_CreateNotificationMsgList
gp_GetHeadCmdPayloadMsg SYMBOL "gp_GetHeadCmdPayloadMsg"
`??gp_GetHeadCmdPayloadMsg::?relay` SYMBOL "?relay", gp_GetHeadCmdPayloadMsg
gp_GetHeadNotificationMsg SYMBOL "gp_GetHeadNotificationMsg"
`??gp_GetHeadNotificationMsg::?relay` SYMBOL "?relay", gp_GetHeadNotificationMsg
gp_GetPHeadCmdPayload SYMBOL "gp_GetPHeadCmdPayload"
`??gp_GetPHeadCmdPayload::?relay` SYMBOL "?relay", gp_GetPHeadCmdPayload
gp_GetPHeadNotification SYMBOL "gp_GetPHeadNotification"
`??gp_GetPHeadNotification::?relay` SYMBOL "?relay", gp_GetPHeadNotification
gp_NotificationMsgClean SYMBOL "gp_NotificationMsgClean"
`??gp_NotificationMsgClean::?relay` SYMBOL "?relay", gp_NotificationMsgClean
gp_ResetProxyBasicTblEntry SYMBOL "gp_ResetProxyBasicTblEntry"
`??gp_ResetProxyBasicTblEntry::?relay` SYMBOL "?relay", gp_ResetProxyBasicTblEntry
zclGp_RegisterCmdCallbacks SYMBOL "zclGp_RegisterCmdCallbacks"
`??zclGp_RegisterCmdCallbacks::?relay` SYMBOL "?relay", zclGp_RegisterCmdCallbacks
zclGp_SendGpCommissioningNotificationCommand SYMBOL "zclGp_SendGpCommissioningNotificationCommand"
`??zclGp_SendGpCommissioningNotificationCommand:` SYMBOL "?relay", zclGp_SendGpCommissioningNotificationCommand
zclGp_SendGpNotificationCommand SYMBOL "zclGp_SendGpNotificationCommand"
`??zclGp_SendGpNotificationCommand::?relay` SYMBOL "?relay", zclGp_SendGpNotificationCommand
zclGp_SendGpProxyTableResponse SYMBOL "zclGp_SendGpProxyTableResponse"
`??zclGp_SendGpProxyTableResponse::?relay` SYMBOL "?relay", zclGp_SendGpProxyTableResponse

        EXTERN `??bdb_getZCLFrameCounter::?relay`
        FUNCTION `??bdb_getZCLFrameCounter::?relay`,00H
        EXTERN `??gp_getProxyTableByIndex::?relay`
        FUNCTION `??gp_getProxyTableByIndex::?relay`,00H
        EXTERN `??osal_build_uint16::?relay`
        FUNCTION `??osal_build_uint16::?relay`,00H
        EXTERN `??osal_mem_alloc::?relay`
        FUNCTION `??osal_mem_alloc::?relay`,00H
        EXTERN `??osal_mem_free::?relay`
        FUNCTION `??osal_mem_free::?relay`,00H
        EXTERN `??osal_memcmp::?relay`
        FUNCTION `??osal_memcmp::?relay`,00H
        EXTERN `??osal_memcpy::?relay`
        FUNCTION `??osal_memcpy::?relay`,00H
        EXTERN `??osal_start_timerEx::?relay`
        FUNCTION `??osal_start_timerEx::?relay`,00H
        EXTERN `??zcl_SendCommand::?relay`
        FUNCTION `??zcl_SendCommand::?relay`,00H
        EXTERN `??zcl_SendDefaultRspCmd::?relay`
        FUNCTION `??zcl_SendDefaultRspCmd::?relay`,00H
        EXTERN `??zcl_registerPlugin::?relay`
        FUNCTION `??zcl_registerPlugin::?relay`,00H
        EXTERN _NIB
        EXTERN bdb_getZCLFrameCounter
        FUNCTION bdb_getZCLFrameCounter,0202H
        ARGFRAME ISTACK, 0, STACK
        ARGFRAME PSTACK, 0, STACK
        ARGFRAME XSTACK, 30, STACK
        ARGFRAME IOVERLAY, 0, STATIC
        ARGFRAME DOVERLAY, 0, STATIC
        EXTERN gp_commissionerAddress
        EXTERN gp_getProxyTableByIndex
        FUNCTION gp_getProxyTableByIndex,0202H
        ARGFRAME ISTACK, 0, STACK
        ARGFRAME PSTACK, 0, STACK
        ARGFRAME XSTACK, 104, STACK
        ARGFRAME IOVERLAY, 0, STATIC
        ARGFRAME DOVERLAY, 0, STATIC
        EXTERN osal_build_uint16
        FUNCTION osal_build_uint16,0202H
        ARGFRAME ISTACK, 0, STACK
        ARGFRAME PSTACK, 0, STACK
        ARGFRAME XSTACK, 43, STACK
        ARGFRAME IOVERLAY, 0, STATIC
        ARGFRAME DOVERLAY, 0, STATIC
        EXTERN osal_mem_alloc
        FUNCTION osal_mem_alloc,0202H
        ARGFRAME ISTACK, 0, STACK
        ARGFRAME PSTACK, 0, STACK
        ARGFRAME XSTACK, 43, STACK
        ARGFRAME IOVERLAY, 0, STATIC
        ARGFRAME DOVERLAY, 0, STATIC
        EXTERN osal_mem_free
        FUNCTION osal_mem_free,0202H
        ARGFRAME ISTACK, 0, STACK
        ARGFRAME PSTACK, 0, STACK
        ARGFRAME XSTACK, 30, STACK
        ARGFRAME IOVERLAY, 0, STATIC
        ARGFRAME DOVERLAY, 0, STATIC
        EXTERN osal_memcmp
        FUNCTION osal_memcmp,0202H
        ARGFRAME ISTACK, 0, STACK
        ARGFRAME PSTACK, 0, STACK
        ARGFRAME XSTACK, 107, STACK
        ARGFRAME IOVERLAY, 0, STATIC
        ARGFRAME DOVERLAY, 0, STATIC
        EXTERN osal_memcpy
        FUNCTION osal_memcpy,0202H
        ARGFRAME ISTACK, 0, STACK
        ARGFRAME PSTACK, 0, STACK
        ARGFRAME XSTACK, 107, STACK
        ARGFRAME IOVERLAY, 0, STATIC
        ARGFRAME DOVERLAY, 0, STATIC
        EXTERN osal_start_timerEx
        FUNCTION osal_start_timerEx,0202H
        ARGFRAME ISTACK, 0, STACK
        ARGFRAME PSTACK, 0, STACK
        ARGFRAME XSTACK, 26, STACK
        ARGFRAME IOVERLAY, 0, STATIC
        ARGFRAME DOVERLAY, 0, STATIC
        EXTERN zcl_InSeqNum
        EXTERN zcl_SendCommand
        FUNCTION zcl_SendCommand,0202H
        ARGFRAME ISTACK, 0, STACK
        ARGFRAME PSTACK, 0, STACK
        ARGFRAME XSTACK, 41, STACK
        ARGFRAME IOVERLAY, 0, STATIC
        ARGFRAME DOVERLAY, 0, STATIC
        EXTERN zcl_SendDefaultRspCmd
        FUNCTION zcl_SendDefaultRspCmd,0202H
        ARGFRAME ISTACK, 0, STACK
        ARGFRAME PSTACK, 0, STACK
        ARGFRAME XSTACK, 50, STACK
        ARGFRAME IOVERLAY, 0, STATIC
        ARGFRAME DOVERLAY, 0, STATIC
        EXTERN zcl_TaskID
        EXTERN zcl_registerPlugin
        FUNCTION zcl_registerPlugin,0202H
        ARGFRAME ISTACK, 0, STACK
        ARGFRAME PSTACK, 0, STACK
        ARGFRAME XSTACK, 14, STACK
        ARGFRAME IOVERLAY, 0, STATIC
        ARGFRAME DOVERLAY, 0, STATIC

// E:\BaiduNetdiskDownload\´đ°¸\ĘµŃéČý ZigBee´úÂë\Z-Stack 3.0.1\Z-Stack 3.0.1\Components\stack\zcl\zcl_green_power.c
//    1 /**************************************************************************************************
//    2   Filename:       zcl_green_power.c
//    3   Revised:        $Date: 2015-09-10 09:36:48 -0700 (Thu, 10 Sep 2015) $
//    4   Revision:       $Revision: 44493 $
//    5 
//    6   Description:    Zigbee Cluster Library - General.  This application receives all
//    7                   ZCL messages and initially parses them before passing to application.
//    8 
//    9 
//   10   Copyright 2006-2015 Texas Instruments Incorporated. All rights reserved.
//   11 
//   12   IMPORTANT: Your use of this Software is limited to those specific rights
//   13   granted under the terms of a software license agreement between the user
//   14   who downloaded the software, his/her employer (which must be your employer)
//   15   and Texas Instruments Incorporated (the "License"). You may not use this
//   16   Software unless you agree to abide by the terms of the License. The License
//   17   limits your use, and you acknowledge, that the Software may not be modified,
//   18   copied or distributed unless embedded on a Texas Instruments microcontroller
//   19   or used solely and exclusively in conjunction with a Texas Instruments radio
//   20   frequency transceiver, which is integrated into your product. Other than for
//   21   the foregoing purpose, you may not use, reproduce, copy, prepare derivative
//   22   works of, modify, distribute, perform, display or sell this Software and/or
//   23   its documentation for any purpose.
//   24 
//   25   YOU FURTHER ACKNOWLEDGE AND AGREE THAT THE SOFTWARE AND DOCUMENTATION ARE
//   26   PROVIDED "AS IS" WITHOUT WARRANTY OF ANY KIND, EITHER EXPRESS OR IMPLIED,
//   27   INCLUDING WITHOUT LIMITATION, ANY WARRANTY OF MERCHANTABILITY, TITLE,
//   28   NON-INFRINGEMENT AND FITNESS FOR A PARTICULAR PURPOSE. IN NO EVENT SHALL
//   29   TEXAS INSTRUMENTS OR ITS LICENSORS BE LIABLE OR OBLIGATED UNDER CONTRACT,
//   30   NEGLIGENCE, STRICT LIABILITY, CONTRIBUTION, BREACH OF WARRANTY, OR OTHER
//   31   LEGAL EQUITABLE THEORY ANY DIRECT OR INDIRECT DAMAGES OR EXPENSES
//   32   INCLUDING BUT NOT LIMITED TO ANY INCIDENTAL, SPECIAL, INDIRECT, PUNITIVE
//   33   OR CONSEQUENTIAL DAMAGES, LOST PROFITS OR LOST DATA, COST OF PROCUREMENT
//   34   OF SUBSTITUTE GOODS, TECHNOLOGY, SERVICES, OR ANY CLAIMS BY THIRD PARTIES
//   35   (INCLUDING BUT NOT LIMITED TO ANY DEFENSE THEREOF), OR OTHER SIMILAR COSTS.
//   36 
//   37   Should you have any questions regarding your right to use this Software,
//   38   contact Texas Instruments Incorporated at www.TI.com.
//   39 **************************************************************************************************/
//   40 
//   41 
//   42 
//   43 /*********************************************************************
//   44  * INCLUDES
//   45  */
//   46 
//   47 #include "ZGlobals.h"  
//   48 #include "ZComDef.h"
//   49 #include "zcl.h"
//   50 #include "zcl_green_power.h"
//   51 #include "stub_aps.h"
//   52 #include "gp_common.h"
//   53 #include "bdb_interface.h"
//   54    
//   55 #if !defined (DISABLE_GREENPOWER_BASIC_PROXY) && (ZG_BUILD_RTR_TYPE)
//   56 
//   57 /*********************************************************************
//   58  * MACROS
//   59  */
//   60 
//   61 /*********************************************************************
//   62  * CONSTANTS
//   63  */
//   64 
//   65 /*********************************************************************
//   66  * TYPEDEFS
//   67  */
//   68 
//   69 typedef struct zclGpCBRec
//   70 {
//   71   struct zclGpCBRec        *next;
//   72   uint8                     endpoint; // Used to link it into the endpoint descriptor
//   73   zclGp_AppCallbacks_t     *CBs;      // Pointer to Callback function
//   74 } zclGpCBRec_t;
//   75 
//   76 
//   77 /*********************************************************************
//   78  * GLOBAL VARIABLES
//   79  */
//   80 
//   81 /*********************************************************************
//   82  * GLOBAL FUNCTIONS
//   83  */
//   84 
//   85 /*********************************************************************
//   86  * LOCAL VARIABLES
//   87  */

        RSEG XDATA_Z:XDATA:NOROOT(0)
        DATA16
//   88 static zclGpCBRec_t *zclGpCBs = (zclGpCBRec_t *)NULL;
zclGpCBs:
        DS 2
        REQUIRE __INIT_XDATA_Z

        RSEG XDATA_Z:XDATA:NOROOT(0)
        DATA8
//   89 static uint8 zclGpPluginRegisted = FALSE;
zclGpPluginRegisted:
        DS 1
        REQUIRE __INIT_XDATA_Z

        RSEG XDATA_Z:XDATA:NOROOT(0)
        DATA16
//   90 static gpNotificationMsg_t *pNotificationMsgHead = NULL;
pNotificationMsgHead:
        DS 2
        REQUIRE __INIT_XDATA_Z

        RSEG XDATA_Z:XDATA:NOROOT(0)
        DATA16
//   91 static gpCmdPayloadMsg_t *pCmdPayloadMsgHead = NULL;
pCmdPayloadMsgHead:
        DS 2
        REQUIRE __INIT_XDATA_Z
//   92 
//   93 //static zclGenSceneItem_t *zclGenSceneTable = (zclGenSceneItem_t *)NULL;
//   94 
//   95 
//   96 /*********************************************************************
//   97  * LOCAL FUNCTIONS
//   98  */
//   99 static ZStatus_t zclGp_HdlIncoming( zclIncoming_t *pInMsg );
//  100 static ZStatus_t zclGp_HdlInSpecificCommands( zclIncoming_t *pInMsg );
//  101 static zclGp_AppCallbacks_t *zclGp_FindCallbacks( uint8 endpoint );
//  102 static uint8 gp_addPairedSinksToMsgQueue( uint8 appId, uint8 *pId, gpCmdPayloadMsg_t* pMsg );
//  103 
//  104 static ZStatus_t zclGp_ProcessInProxyBasic( zclIncoming_t *pInMsg, zclGp_AppCallbacks_t *pCBs );
//  105 
//  106 
//  107 /*********************************************************************
//  108  * @fn      zclGp_RegisterCmdCallbacks
//  109  *
//  110  * @brief   Register an applications command callbacks
//  111  *
//  112  * @param   endpoint - application's endpoint
//  113  * @param   callbacks - pointer to the callback record.
//  114  *
//  115  * @return  ZMemError if not able to allocate
//  116  */

        RSEG BANKED_CODE:HUGECODE:NOROOT(0)
//  117 ZStatus_t zclGp_RegisterCmdCallbacks( uint8 endpoint, zclGp_AppCallbacks_t *callbacks )
zclGp_RegisterCmdCallbacks:
          CFI Block cfiBlock0 Using cfiCommon0
          CFI Function zclGp_RegisterCmdCallbacks
        CODE
//  118 {
        FUNCALL zclGp_RegisterCmdCallbacks, zcl_registerPlugin
        LOCFRAME ISTACK, 0, STACK
        LOCFRAME PSTACK, 0, STACK
        LOCFRAME XSTACK, 14, STACK
        LOCFRAME IOVERLAY, 0, STATIC
        LOCFRAME DOVERLAY, 0, STATIC
        ARGFRAME ISTACK, 0, STACK
        ARGFRAME PSTACK, 0, STACK
        ARGFRAME XSTACK, 14, STACK
        ARGFRAME IOVERLAY, 0, STATIC
        ARGFRAME DOVERLAY, 0, STATIC
        FUNCALL zclGp_RegisterCmdCallbacks, osal_mem_alloc
        LOCFRAME ISTACK, 0, STACK
        LOCFRAME PSTACK, 0, STACK
        LOCFRAME XSTACK, 12, STACK
        LOCFRAME IOVERLAY, 0, STATIC
        LOCFRAME DOVERLAY, 0, STATIC
        ARGFRAME ISTACK, 0, STACK
        ARGFRAME PSTACK, 0, STACK
        ARGFRAME XSTACK, 12, STACK
        ARGFRAME IOVERLAY, 0, STATIC
        ARGFRAME DOVERLAY, 0, STATIC
        REQUIRE ?V0
        REQUIRE ?V2
        REQUIRE ?V3
        MOV       A,#-0xc
        LCALL     ?BANKED_ENTER_XDATA
          CFI DPH0 load(1, XDATA, add(CFA_XSP16, literal(-1)))
          CFI DPL0 load(1, XDATA, add(CFA_XSP16, literal(-2)))
          CFI ?BRET_EXT load(1, XDATA, add(CFA_XSP16, literal(-3)))
          CFI ?RET_HIGH load(1, XDATA, add(CFA_XSP16, literal(-4)))
          CFI ?RET_LOW load(1, XDATA, add(CFA_XSP16, literal(-5)))
          CFI R7 load(1, XDATA, add(CFA_XSP16, literal(-6)))
          CFI V3 load(1, XDATA, add(CFA_XSP16, literal(-7)))
          CFI V2 load(1, XDATA, add(CFA_XSP16, literal(-8)))
          CFI V1 load(1, XDATA, add(CFA_XSP16, literal(-9)))
          CFI V0 load(1, XDATA, add(CFA_XSP16, literal(-10)))
          CFI VB load(1, XDATA, add(CFA_XSP16, literal(-11)))
          CFI R6 load(1, XDATA, add(CFA_XSP16, literal(-12)))
          CFI CFA_SP SP+0
          CFI CFA_XSP16 add(XSP16, 12)
        ; Saved register size: 12
        ; Auto size: 0
        MOV       ?V0,R1
        MOV       A,R2
        MOV       R6,A
        MOV       A,R3
        MOV       R7,A
//  119   zclGpCBRec_t *pNewItem;
//  120   zclGpCBRec_t *pLoop;
//  121 
//  122   // Register as a ZCL Plugin
//  123   if ( zclGpPluginRegisted == FALSE )
        MOV       DPTR,#zclGpPluginRegisted
        MOVX      A,@DPTR
        JNZ       ??zclGp_RegisterCmdCallbacks_0
//  124   {
//  125     zcl_registerPlugin( ZCL_CLUSTER_ID_GREEN_POWER,
//  126                         ZCL_CLUSTER_ID_GREEN_POWER,
//  127                         zclGp_HdlIncoming );
        ; Setup parameters for call to function zcl_registerPlugin
        MOV       ?V2,#`??zclGp_HdlIncoming::?relay` & 0xff
        MOV       ?V3,#(`??zclGp_HdlIncoming::?relay` >> 8) & 0xff
        MOV       R0,#?V2
        LCALL     ?PUSH_XSTACK_I_TWO
          CFI CFA_XSP16 add(XSP16, 14)
        MOV       R4,#0x21
        MOV       R5,#0x0
        MOV       R2,#0x21
        MOV       R3,#0x0
        LCALL     `??zcl_registerPlugin::?relay`; Banked call to: zcl_registerPlugin
        MOV       A,#0x2
        LCALL     ?DEALLOC_XSTACK8
          CFI CFA_XSP16 add(XSP16, 12)
//  128 
//  129     zclGpPluginRegisted = TRUE;
        MOV       DPTR,#zclGpPluginRegisted
        MOV       A,#0x1
        MOVX      @DPTR,A
//  130   }
//  131 
//  132   // Fill in the new profile list
//  133   pNewItem = zcl_mem_alloc( sizeof( zclGpCBRec_t ) );
??zclGp_RegisterCmdCallbacks_0:
        ; Setup parameters for call to function osal_mem_alloc
        MOV       R2,#0x5
        MOV       R3,#0x0
        LCALL     `??osal_mem_alloc::?relay`; Banked call to: osal_mem_alloc
        MOV       ?V2,R2
        MOV       ?V3,R3
        MOV       R0,?V2
        MOV       R1,?V3
//  134   if ( pNewItem == NULL )
        MOV       A,R2
        ORL       A,R1
        JNZ       ??zclGp_RegisterCmdCallbacks_1
//  135     return (ZMemError);
        MOV       R1,#0x10
        SJMP      ??zclGp_RegisterCmdCallbacks_2
//  136 
//  137   pNewItem->next = (zclGpCBRec_t *)NULL;
??zclGp_RegisterCmdCallbacks_1:
        MOV       DPL,R2
        MOV       DPH,R3
        CLR       A
        MOVX      @DPTR,A
        INC       DPTR
        LCALL     ?Subroutine33 & 0xFFFF
//  138   pNewItem->endpoint = endpoint;
??CrossCallReturnLabel_41:
        MOV       A,?V0
        LCALL     ?Subroutine33 & 0xFFFF
//  139   pNewItem->CBs = callbacks;
??CrossCallReturnLabel_42:
        INC       DPTR
        MOV       A,R6
        MOVX      @DPTR,A
        INC       DPTR
        MOV       A,R7
        MOVX      @DPTR,A
//  140 
//  141   // Find spot in list
//  142   if (  zclGpCBs == NULL )
        MOV       DPTR,#zclGpCBs
        LCALL     ??Subroutine65_0 & 0xFFFF
??CrossCallReturnLabel_135:
        MOV       DPTR,#zclGpCBs
        JZ        ??zclGp_RegisterCmdCallbacks_3
//  143   {
//  144     zclGpCBs = pNewItem;
//  145   }
//  146   else
//  147   {
//  148     // Look for end of list
//  149     pLoop = zclGpCBs;
        MOVX      A,@DPTR
        MOV       R4,A
        INC       DPTR
        MOVX      A,@DPTR
        SJMP      ??zclGp_RegisterCmdCallbacks_4
//  150     while ( pLoop->next != NULL )
//  151       pLoop = pLoop->next;
??zclGp_RegisterCmdCallbacks_5:
        MOV       A,R2
        MOV       R4,A
        MOV       A,R3
??zclGp_RegisterCmdCallbacks_4:
        MOV       R5,A
        MOV       DPL,R4
        MOV       DPH,R5
        LCALL     ??Subroutine65_0 & 0xFFFF
??CrossCallReturnLabel_136:
        JNZ       ??zclGp_RegisterCmdCallbacks_5
//  152 
//  153     // Put new item at end of list
//  154     pLoop->next = pNewItem;
        MOV       DPL,R4
        MOV       DPH,R5
//  155   }
??zclGp_RegisterCmdCallbacks_3:
        LCALL     ?Subroutine32 & 0xFFFF
//  156 
//  157   return ( ZSuccess );
??CrossCallReturnLabel_29:
        MOV       R1,#0x0
??zclGp_RegisterCmdCallbacks_2:
          CFI EndBlock cfiBlock0
        REQUIRE ?Subroutine0
        ; // Fall through to label ?Subroutine0
//  158 }

        RSEG BANKED_CODE:HUGECODE:NOROOT(0)
?Subroutine0:
          CFI Block cfiBlock1 Using cfiCommon0
          CFI NoFunction
          CFI CFA_SP SP+0
          CFI CFA_XSP16 add(XSP16, 12)
          CFI VB load(1, XDATA, add(CFA_XSP16, literal(-11)))
          CFI DPL0 load(1, XDATA, add(CFA_XSP16, literal(-2)))
          CFI DPH0 load(1, XDATA, add(CFA_XSP16, literal(-1)))
          CFI R6 load(1, XDATA, add(CFA_XSP16, literal(-12)))
          CFI R7 load(1, XDATA, add(CFA_XSP16, literal(-6)))
          CFI V0 load(1, XDATA, add(CFA_XSP16, literal(-10)))
          CFI V1 load(1, XDATA, add(CFA_XSP16, literal(-9)))
          CFI V2 load(1, XDATA, add(CFA_XSP16, literal(-8)))
          CFI V3 load(1, XDATA, add(CFA_XSP16, literal(-7)))
          CFI ?BRET_EXT load(1, XDATA, add(CFA_XSP16, literal(-3)))
          CFI ?RET_HIGH load(1, XDATA, add(CFA_XSP16, literal(-4)))
          CFI ?RET_LOW load(1, XDATA, add(CFA_XSP16, literal(-5)))
        MOV       R7,#0x4
        LJMP      ?BANKED_LEAVE_XDATA
          CFI EndBlock cfiBlock1
//  159 
//  160 /*********************************************************************
//  161  * @fn      zclGp_FindCallbacks
//  162  *
//  163  * @brief   Find the callbacks for an endpoint
//  164  *
//  165  * @param   endpoint - endpoint to find the application callbacks for
//  166  *
//  167  * @return  pointer to the callbacks
//  168  */
//  169 static zclGp_AppCallbacks_t *zclGp_FindCallbacks( uint8 endpoint )
//  170 {
//  171   zclGpCBRec_t *pCBs;
//  172 
//  173   pCBs = zclGpCBs;
//  174   while ( pCBs )
//  175   {
//  176     if ( pCBs->endpoint == endpoint )
//  177       return ( pCBs->CBs );
//  178     pCBs = pCBs->next;
//  179   }
//  180   return ( (zclGp_AppCallbacks_t *)NULL );
//  181 }
//  182 
//  183 /*********************************************************************
//  184  * @fn      zclGp_HdlIncoming
//  185  *
//  186  * @brief   Callback from ZCL to process incoming Commands specific
//  187  *          to this cluster library or Profile commands for attributes
//  188  *          that aren't in the attribute list
//  189  *
//  190  *
//  191  * @param   pInMsg - pointer to the incoming message
//  192  *
//  193  * @return  ZStatus_t
//  194  */

        RSEG BANKED_CODE:HUGECODE:NOROOT(0)
//  195 static ZStatus_t zclGp_HdlIncoming( zclIncoming_t *pInMsg )
zclGp_HdlIncoming:
          CFI Block cfiBlock2 Using cfiCommon0
          CFI Function zclGp_HdlIncoming
        CODE
//  196 {
        FUNCALL zclGp_HdlIncoming, zclGp_ProcessInProxyBasic
        LOCFRAME ISTACK, 0, STACK
        LOCFRAME PSTACK, 0, STACK
        LOCFRAME XSTACK, 9, STACK
        LOCFRAME IOVERLAY, 0, STATIC
        LOCFRAME DOVERLAY, 0, STATIC
        ARGFRAME ISTACK, 0, STACK
        ARGFRAME PSTACK, 0, STACK
        ARGFRAME XSTACK, 9, STACK
        ARGFRAME IOVERLAY, 0, STATIC
        ARGFRAME DOVERLAY, 0, STATIC
        MOV       A,#-0x9
        LCALL     ?BANKED_ENTER_XDATA
          CFI DPH0 load(1, XDATA, add(CFA_XSP16, literal(-1)))
          CFI DPL0 load(1, XDATA, add(CFA_XSP16, literal(-2)))
          CFI ?BRET_EXT load(1, XDATA, add(CFA_XSP16, literal(-3)))
          CFI ?RET_HIGH load(1, XDATA, add(CFA_XSP16, literal(-4)))
          CFI ?RET_LOW load(1, XDATA, add(CFA_XSP16, literal(-5)))
          CFI R7 load(1, XDATA, add(CFA_XSP16, literal(-6)))
          CFI V0 load(1, XDATA, add(CFA_XSP16, literal(-7)))
          CFI VB load(1, XDATA, add(CFA_XSP16, literal(-8)))
          CFI R6 load(1, XDATA, add(CFA_XSP16, literal(-9)))
          CFI CFA_SP SP+0
          CFI CFA_XSP16 add(XSP16, 9)
        ; Saved register size: 9
        ; Auto size: 0
//  197   ZStatus_t stat = ZSuccess;
//  198 
//  199 #if defined ( INTER_PAN )
//  200   if ( StubAPS_InterPan( pInMsg->msg->srcAddr.panId, pInMsg->msg->srcAddr.endPoint ) )
//  201     return ( stat ); // Cluster not supported thru Inter-PAN
//  202 #endif
//  203   if ( zcl_ClusterCmd( pInMsg->hdr.fc.type ) )
        MOV       DPL,R2
        MOV       DPH,R3
        INC       DPTR
        INC       DPTR
        MOVX      A,@DPTR
        MOV       R0,A
        ANL       A,#0x3
        XRL       A,#0x1
        JNZ       ??zclGp_HdlIncoming_0
//  204   {
//  205     // Is this a manufacturer specific command?
//  206     if ( pInMsg->hdr.fc.manuSpecific == 0 )
        MOV       A,R0
        ANL       A,#0x4
        JNZ       ??zclGp_HdlIncoming_0
//  207     {
//  208       stat = zclGp_HdlInSpecificCommands( pInMsg );
        MOV       DPL,R2
        MOV       DPH,R3
        LCALL     ??Subroutine56_0 & 0xFFFF
//  209     }
//  210     else
//  211     {
//  212       // We don't support any manufacturer specific command.
//  213       stat = ZFailure;
//  214     }
//  215   }
??CrossCallReturnLabel_79:
        MOV       A,R0
        MOV       R6,A
        MOV       A,R1
        MOV       R7,A
        MOV       A,R0
        ADD       A,#0x14
        MOV       DPL,A
        CLR       A
        ADDC      A,R7
        MOV       DPH,A
        MOVX      A,@DPTR
        MOV       R4,A
        MOV       DPTR,#zclGpCBs
??zclGp_HdlIncoming_1:
        LCALL     ??Subroutine68_0 & 0xFFFF
??CrossCallReturnLabel_142:
        JZ        ??zclGp_HdlIncoming_0
        MOV       DPL,R0
        MOV       DPH,R1
        INC       DPTR
        INC       DPTR
        MOVX      A,@DPTR
        XRL       A,R4
        MOV       DPL,R0
        MOV       DPH,R1
        JNZ       ??zclGp_HdlIncoming_1
        LCALL     ?Subroutine21 & 0xFFFF
??CrossCallReturnLabel_126:
        MOV       A,R4
        ORL       A,R5
        JNZ       ??zclGp_HdlIncoming_2
??zclGp_HdlIncoming_0:
        MOV       R1,#0x1
        SJMP      ??zclGp_HdlIncoming_3
??zclGp_HdlIncoming_2:
        MOV       DPL,R6
        MOV       DPH,R7
        INC       DPTR
        INC       DPTR
        INC       DPTR
        INC       DPTR
        MOVX      A,@DPTR
        XRL       A,#0x21
        JNZ       ??zclGp_HdlIncoming_4
        INC       DPTR
        MOVX      A,@DPTR
??zclGp_HdlIncoming_4:
        JNZ       ??zclGp_HdlIncoming_5
        ; Setup parameters for call to function zclGp_ProcessInProxyBasic
        LCALL     `??zclGp_ProcessInProxyBasic::?relay`; Banked call to: zclGp_ProcessInProxyBasic
        MOV       A,R1
        SJMP      ??zclGp_HdlIncoming_6
??zclGp_HdlIncoming_5:
        MOV       A,#0x1
??zclGp_HdlIncoming_6:
        MOV       R1,A
//  216   else
//  217   {
//  218     // Handle all the normal (Read, Write...) commands -- should never get here
//  219     stat = ZFailure;
//  220   }
//  221   return ( stat );
??zclGp_HdlIncoming_3:
          CFI EndBlock cfiBlock2
        REQUIRE ?Subroutine1
        ; // Fall through to label ?Subroutine1
//  222 }

        RSEG BANKED_CODE:HUGECODE:NOROOT(0)
?Subroutine1:
          CFI Block cfiBlock3 Using cfiCommon0
          CFI NoFunction
          CFI CFA_SP SP+0
          CFI CFA_XSP16 add(XSP16, 9)
          CFI VB load(1, XDATA, add(CFA_XSP16, literal(-8)))
          CFI DPL0 load(1, XDATA, add(CFA_XSP16, literal(-2)))
          CFI DPH0 load(1, XDATA, add(CFA_XSP16, literal(-1)))
          CFI R6 load(1, XDATA, add(CFA_XSP16, literal(-9)))
          CFI R7 load(1, XDATA, add(CFA_XSP16, literal(-6)))
          CFI V0 load(1, XDATA, add(CFA_XSP16, literal(-7)))
          CFI ?BRET_EXT load(1, XDATA, add(CFA_XSP16, literal(-3)))
          CFI ?RET_HIGH load(1, XDATA, add(CFA_XSP16, literal(-4)))
          CFI ?RET_LOW load(1, XDATA, add(CFA_XSP16, literal(-5)))
        MOV       R7,#0x1
        LJMP      ?BANKED_LEAVE_XDATA
          CFI EndBlock cfiBlock3
//  223 
//  224 /*********************************************************************
//  225  * @fn      zclGp_HdlInSpecificCommands
//  226  *
//  227  * @brief   Callback from ZCL to process incoming Commands specific
//  228  *          to this cluster library
//  229 
//  230  * @param   pInMsg - pointer to the incoming message
//  231  *
//  232  * @return  ZStatus_t
//  233  */
//  234 static ZStatus_t zclGp_HdlInSpecificCommands( zclIncoming_t *pInMsg )
//  235 {
//  236   ZStatus_t stat;
//  237   zclGp_AppCallbacks_t *pCBs;
//  238 
//  239   // make sure endpoint exists
//  240   pCBs = zclGp_FindCallbacks( pInMsg->msg->endPoint );
//  241   if ( pCBs == NULL )
//  242     return ( ZFailure );
//  243 
//  244   switch ( pInMsg->msg->clusterId )
//  245   {
//  246     case ZCL_CLUSTER_ID_GREEN_POWER:
//  247       // Proxy Basic handler
//  248       stat = zclGp_ProcessInProxyBasic( pInMsg, pCBs );
//  249       break;
//  250 
//  251     default:
//  252       stat = ZFailure;
//  253       break;
//  254   }
//  255 
//  256   return ( stat );
//  257 }
//  258 
//  259 /*********************************************************************
//  260  * @fn      zclGp_ProcessInProxyBasic
//  261  *
//  262  * @brief   Process in the received client commands for the Proxy Basic.
//  263  *
//  264  * @param   pInMsg - pointer to the incoming message
//  265  *
//  266  * @return  ZStatus_t
//  267  */

        RSEG BANKED_CODE:HUGECODE:NOROOT(0)
//  268 static ZStatus_t zclGp_ProcessInProxyBasic( zclIncoming_t *pInMsg,
zclGp_ProcessInProxyBasic:
          CFI Block cfiBlock4 Using cfiCommon0
          CFI Function zclGp_ProcessInProxyBasic
        CODE
//  269                                           zclGp_AppCallbacks_t *pCBs )
//  270 {
        FUNCALL zclGp_ProcessInProxyBasic, zcl_SendDefaultRspCmd
        LOCFRAME ISTACK, 0, STACK
        LOCFRAME PSTACK, 0, STACK
        LOCFRAME XSTACK, 50, STACK
        LOCFRAME IOVERLAY, 0, STATIC
        LOCFRAME DOVERLAY, 0, STATIC
        ARGFRAME ISTACK, 0, STACK
        ARGFRAME PSTACK, 0, STACK
        ARGFRAME XSTACK, 50, STACK
        ARGFRAME IOVERLAY, 0, STATIC
        ARGFRAME DOVERLAY, 0, STATIC
        FUNCALL zclGp_ProcessInProxyBasic, osal_memcpy
        LOCFRAME ISTACK, 0, STACK
        LOCFRAME PSTACK, 0, STACK
        LOCFRAME XSTACK, 46, STACK
        LOCFRAME IOVERLAY, 0, STATIC
        LOCFRAME DOVERLAY, 0, STATIC
        ARGFRAME ISTACK, 0, STACK
        ARGFRAME PSTACK, 0, STACK
        ARGFRAME XSTACK, 46, STACK
        ARGFRAME IOVERLAY, 0, STATIC
        ARGFRAME DOVERLAY, 0, STATIC
        FUNCALL zclGp_ProcessInProxyBasic, osal_memcpy
        LOCFRAME ISTACK, 0, STACK
        LOCFRAME PSTACK, 0, STACK
        LOCFRAME XSTACK, 46, STACK
        LOCFRAME IOVERLAY, 0, STATIC
        LOCFRAME DOVERLAY, 0, STATIC
        ARGFRAME ISTACK, 0, STACK
        ARGFRAME PSTACK, 0, STACK
        ARGFRAME XSTACK, 46, STACK
        ARGFRAME IOVERLAY, 0, STATIC
        ARGFRAME DOVERLAY, 0, STATIC
        FUNCALL zclGp_ProcessInProxyBasic, osal_memcpy
        LOCFRAME ISTACK, 0, STACK
        LOCFRAME PSTACK, 0, STACK
        LOCFRAME XSTACK, 46, STACK
        LOCFRAME IOVERLAY, 0, STATIC
        LOCFRAME DOVERLAY, 0, STATIC
        ARGFRAME ISTACK, 0, STACK
        ARGFRAME PSTACK, 0, STACK
        ARGFRAME XSTACK, 46, STACK
        ARGFRAME IOVERLAY, 0, STATIC
        ARGFRAME DOVERLAY, 0, STATIC
        FUNCALL zclGp_ProcessInProxyBasic, osal_mem_alloc
        LOCFRAME ISTACK, 0, STACK
        LOCFRAME PSTACK, 0, STACK
        LOCFRAME XSTACK, 43, STACK
        LOCFRAME IOVERLAY, 0, STATIC
        LOCFRAME DOVERLAY, 0, STATIC
        ARGFRAME ISTACK, 0, STACK
        ARGFRAME PSTACK, 0, STACK
        ARGFRAME XSTACK, 43, STACK
        ARGFRAME IOVERLAY, 0, STATIC
        ARGFRAME DOVERLAY, 0, STATIC
        FUNCALL zclGp_ProcessInProxyBasic, osal_memcpy
        LOCFRAME ISTACK, 0, STACK
        LOCFRAME PSTACK, 0, STACK
        LOCFRAME XSTACK, 46, STACK
        LOCFRAME IOVERLAY, 0, STATIC
        LOCFRAME DOVERLAY, 0, STATIC
        ARGFRAME ISTACK, 0, STACK
        ARGFRAME PSTACK, 0, STACK
        ARGFRAME XSTACK, 46, STACK
        ARGFRAME IOVERLAY, 0, STATIC
        ARGFRAME DOVERLAY, 0, STATIC
        FUNCALL zclGp_ProcessInProxyBasic, osal_memcpy
        LOCFRAME ISTACK, 0, STACK
        LOCFRAME PSTACK, 0, STACK
        LOCFRAME XSTACK, 46, STACK
        LOCFRAME IOVERLAY, 0, STATIC
        LOCFRAME DOVERLAY, 0, STATIC
        ARGFRAME ISTACK, 0, STACK
        ARGFRAME PSTACK, 0, STACK
        ARGFRAME XSTACK, 46, STACK
        ARGFRAME IOVERLAY, 0, STATIC
        ARGFRAME DOVERLAY, 0, STATIC
        FUNCALL zclGp_ProcessInProxyBasic, osal_build_uint16
        LOCFRAME ISTACK, 0, STACK
        LOCFRAME PSTACK, 0, STACK
        LOCFRAME XSTACK, 43, STACK
        LOCFRAME IOVERLAY, 0, STATIC
        LOCFRAME DOVERLAY, 0, STATIC
        ARGFRAME ISTACK, 0, STACK
        ARGFRAME PSTACK, 0, STACK
        ARGFRAME XSTACK, 43, STACK
        ARGFRAME IOVERLAY, 0, STATIC
        ARGFRAME DOVERLAY, 0, STATIC
        FUNCALL zclGp_ProcessInProxyBasic, osal_memcpy
        LOCFRAME ISTACK, 0, STACK
        LOCFRAME PSTACK, 0, STACK
        LOCFRAME XSTACK, 46, STACK
        LOCFRAME IOVERLAY, 0, STATIC
        LOCFRAME DOVERLAY, 0, STATIC
        ARGFRAME ISTACK, 0, STACK
        ARGFRAME PSTACK, 0, STACK
        ARGFRAME XSTACK, 46, STACK
        ARGFRAME IOVERLAY, 0, STATIC
        ARGFRAME DOVERLAY, 0, STATIC
        FUNCALL zclGp_ProcessInProxyBasic, osal_mem_alloc
        LOCFRAME ISTACK, 0, STACK
        LOCFRAME PSTACK, 0, STACK
        LOCFRAME XSTACK, 43, STACK
        LOCFRAME IOVERLAY, 0, STATIC
        LOCFRAME DOVERLAY, 0, STATIC
        ARGFRAME ISTACK, 0, STACK
        ARGFRAME PSTACK, 0, STACK
        ARGFRAME XSTACK, 43, STACK
        ARGFRAME IOVERLAY, 0, STATIC
        ARGFRAME DOVERLAY, 0, STATIC
        FUNCALL zclGp_ProcessInProxyBasic, osal_memcpy
        LOCFRAME ISTACK, 0, STACK
        LOCFRAME PSTACK, 0, STACK
        LOCFRAME XSTACK, 46, STACK
        LOCFRAME IOVERLAY, 0, STATIC
        LOCFRAME DOVERLAY, 0, STATIC
        ARGFRAME ISTACK, 0, STACK
        ARGFRAME PSTACK, 0, STACK
        ARGFRAME XSTACK, 46, STACK
        ARGFRAME IOVERLAY, 0, STATIC
        ARGFRAME DOVERLAY, 0, STATIC
        REQUIRE ?V0
        REQUIRE ?V1
        REQUIRE ?V2
        REQUIRE ?V3
        REQUIRE ?V4
        REQUIRE ?V5
        REQUIRE ?V6
        MOV       A,#-0xf
        LCALL     ?BANKED_ENTER_XDATA
          CFI DPH0 load(1, XDATA, add(CFA_XSP16, literal(-1)))
          CFI DPL0 load(1, XDATA, add(CFA_XSP16, literal(-2)))
          CFI ?BRET_EXT load(1, XDATA, add(CFA_XSP16, literal(-3)))
          CFI ?RET_HIGH load(1, XDATA, add(CFA_XSP16, literal(-4)))
          CFI ?RET_LOW load(1, XDATA, add(CFA_XSP16, literal(-5)))
          CFI R7 load(1, XDATA, add(CFA_XSP16, literal(-6)))
          CFI V6 load(1, XDATA, add(CFA_XSP16, literal(-7)))
          CFI V5 load(1, XDATA, add(CFA_XSP16, literal(-8)))
          CFI V4 load(1, XDATA, add(CFA_XSP16, literal(-9)))
          CFI V3 load(1, XDATA, add(CFA_XSP16, literal(-10)))
          CFI V2 load(1, XDATA, add(CFA_XSP16, literal(-11)))
          CFI V1 load(1, XDATA, add(CFA_XSP16, literal(-12)))
          CFI V0 load(1, XDATA, add(CFA_XSP16, literal(-13)))
          CFI VB load(1, XDATA, add(CFA_XSP16, literal(-14)))
          CFI R6 load(1, XDATA, add(CFA_XSP16, literal(-15)))
          CFI CFA_SP SP+0
          CFI CFA_XSP16 add(XSP16, 15)
        ; Saved register size: 15
        ; Auto size: 28
        MOV       A,#-0x1c
        LCALL     ?ALLOC_XSTACK8
          CFI CFA_XSP16 add(XSP16, 43)
        MOV       DPL,?XSP + 0
        MOV       DPH,?XSP + 1
        LCALL     ??Subroutine64_0 & 0xFFFF
??CrossCallReturnLabel_128:
        MOV       A,#0x2
        LCALL     ?XSTACK_DISP0_8
        MOV       A,R4
        MOVX      @DPTR,A
        INC       DPTR
        MOV       A,R5
        LCALL     ??Subroutine57_0 & 0xFFFF
//  271   // Server side command handler
//  272   if ( zcl_ServerCmd( pInMsg->hdr.fc.direction ) )
??CrossCallReturnLabel_85:
        ADD       A,#0x6
        MOV       R6,A
        INC       DPTR
        MOVX      A,@DPTR
        ADDC      A,#0x0
        MOV       R7,A
        MOV       DPL,?XSP + 0
        MOV       DPH,?XSP + 1
        MOVX      A,@DPTR
        ADD       A,#0x7
        MOV       R0,A
        INC       DPTR
        MOVX      A,@DPTR
        ADDC      A,#0x0
        MOV       R1,A
        MOV       A,#0xb
        LCALL     ?XSTACK_DISP0_8
        LCALL     ?Subroutine31 & 0xFFFF
??CrossCallReturnLabel_87:
        ADD       A,#0x2
        MOV       ?V0,A
        INC       DPTR
        MOVX      A,@DPTR
        ADDC      A,#0x0
        MOV       ?V1,A
        MOV       DPL,?V0
        MOV       DPH,A
        MOVX      A,@DPTR
        ANL       A,#0x8
        JNZ       ??zclGp_ProcessInProxyBasic_0
//  273   {
//  274     // Server side command handling is not supported
//  275     zclDefaultRspCmd_t defaultRspCmd;
//  276 
//  277     defaultRspCmd.commandID = pInMsg->hdr.commandID;
        MOV       A,#0xb
        LCALL     ?XSTACK_DISP0_8
        LCALL     ??Subroutine61_0 & 0xFFFF
??CrossCallReturnLabel_108:
        PUSH      A
          CFI CFA_SP SP+-1
        MOV       A,#0x4
        LCALL     ?XSTACK_DISP0_8
        POP       A
          CFI CFA_SP SP+0
        MOVX      @DPTR,A
//  278     defaultRspCmd.statusCode = ZCL_STATUS_UNSUP_CLUSTER_COMMAND;
        MOV       A,#0x5
        LCALL     ?XSTACK_DISP0_8
        MOV       A,#-0x7f
        MOVX      @DPTR,A
//  279     zcl_SendDefaultRspCmd( pInMsg->msg->endPoint, &(pInMsg->msg->srcAddr),
//  280                            pInMsg->msg->clusterId, &defaultRspCmd,
//  281                            ZCL_FRAME_SERVER_CLIENT_DIR, true, 0, pInMsg->hdr.transSeqNum );
        LCALL     ?Subroutine15 & 0xFFFF
//  282   }
??CrossCallReturnLabel_112:
        MOV       ?V2,A
        INC       DPTR
        MOVX      A,@DPTR
        MOV       ?V3,A
        ; Setup parameters for call to function zcl_SendDefaultRspCmd
        MOV       DPL,R6
        MOV       DPH,R7
        MOVX      A,@DPTR
        MOV       ?V4,A
        MOV       R0,#?V4
        LCALL     ?PUSH_XSTACK_I_ONE
          CFI CFA_XSP16 add(XSP16, 44)
        CLR       A
        MOV       ?V4,A
        MOV       ?V5,A
        MOV       R0,#?V4
        LCALL     ?PUSH_XSTACK_I_TWO
          CFI CFA_XSP16 add(XSP16, 46)
        MOV       ?V4,#0x1
        MOV       R0,#?V4
        LCALL     ?PUSH_XSTACK_I_ONE
          CFI CFA_XSP16 add(XSP16, 47)
        MOV       R0,#?V4
        LCALL     ?PUSH_XSTACK_I_ONE
          CFI CFA_XSP16 add(XSP16, 48)
        MOV       A,#0x9
        LCALL     ?XSTACK_DISP100_8
        MOV       ?V4,R0
        MOV       ?V5,R1
        MOV       R0,#?V4
        LCALL     ?PUSH_XSTACK_I_TWO
          CFI CFA_XSP16 add(XSP16, 50)
        MOV       DPL,?V2
        MOV       DPH,?V3
        INC       DPTR
        LCALL     ?Subroutine21 & 0xFFFF
??CrossCallReturnLabel_127:
        MOV       A,?V2
        ADD       A,#0x6
        MOV       R2,A
        CLR       A
        ADDC      A,?V3
        MOV       R3,A
        MOV       A,?V2
        ADD       A,#0x14
        MOV       DPL,A
        CLR       A
        ADDC      A,?V3
        MOV       DPH,A
        MOVX      A,@DPTR
        MOV       R1,A
        LCALL     `??zcl_SendDefaultRspCmd::?relay`; Banked call to: zcl_SendDefaultRspCmd
        MOV       A,#0x7
        LCALL     ?DEALLOC_XSTACK8
          CFI CFA_XSP16 add(XSP16, 43)
//  283   // Client side command handler
//  284   if ( zcl_ClientCmd( pInMsg->hdr.fc.direction ) )
??zclGp_ProcessInProxyBasic_0:
        MOV       DPL,?V0
        MOV       DPH,?V1
        MOVX      A,@DPTR
        ANL       A,#0x8
        JNZ       $+5
        LJMP      ??zclGp_ProcessInProxyBasic_1 & 0xFFFF
//  285   {
//  286     switch ( pInMsg->hdr.commandID )
        MOV       DPL,?XSP + 0
        MOV       DPH,?XSP + 1
        MOVX      A,@DPTR
        ADD       A,#0xa
        MOV       R0,A
        INC       DPTR
        MOVX      A,@DPTR
        ADDC      A,#0x0
        MOV       R1,A
        MOV       A,#0x4
        LCALL     ?XSTACK_DISP0_8
        LCALL     ?Subroutine31 & 0xFFFF
??CrossCallReturnLabel_88:
        ADD       A,#0x8
        MOV       ?V0,A
        INC       DPTR
        MOVX      A,@DPTR
        ADDC      A,#0x0
        MOV       ?V1,A
        MOV       A,#0xb
        LCALL     ?XSTACK_DISP0_8
        LCALL     ??Subroutine61_0 & 0xFFFF
??CrossCallReturnLabel_109:
        DEC       A
        JZ        ??zclGp_ProcessInProxyBasic_2
        DEC       A
        JNZ       $+5
        LJMP      ??zclGp_ProcessInProxyBasic_3 & 0xFFFF
        ADD       A,#-0x4
        JNZ       $+5
        LJMP      ??zclGp_ProcessInProxyBasic_4 & 0xFFFF
        ADD       A,#-0x5
        JZ        ??zclGp_ProcessInProxyBasic_5
        LJMP      ??zclGp_ProcessInProxyBasic_1 & 0xFFFF
//  287     {
//  288       case COMMAND_GP_PAIRING:
//  289         if ( pCBs->pfnGpPairingCmd )
??zclGp_ProcessInProxyBasic_2:
        MOV       A,#0x2
        LCALL     ?XSTACK_DISP0_8
        LCALL     ??Subroutine59_0 & 0xFFFF
??CrossCallReturnLabel_98:
        LCALL     ??Subroutine68_0 & 0xFFFF
??CrossCallReturnLabel_143:
        JNZ       $+5
        LJMP      ??zclGp_ProcessInProxyBasic_1 & 0xFFFF
//  290         {
//  291           zclGpPairing_t cmd;
//  292           
//  293           zcl_InSeqNum = pInMsg->hdr.transSeqNum;
        LCALL     ?Subroutine11 & 0xFFFF
//  294           
//  295           cmd.srcAddr = &(pInMsg->msg->srcAddr);
??CrossCallReturnLabel_5:
        MOV       A,#0x15
        LCALL     ?XSTACK_DISP0_8
        LCALL     ?Subroutine10 & 0xFFFF
//  296           osal_memcpy( cmd.options, (void*)pInMsg->pData, sizeof(cmd.options) );
??CrossCallReturnLabel_62:
        LCALL     ?PUSH_XSTACK_I_THREE
          CFI CFA_XSP16 add(XSP16, 46)
        MOV       R4,#0x3
        MOV       R5,#0x0
        MOV       A,#0x1a
        LCALL     ?XSTACK_DISP0_8
        MOV       R2,DPL
        MOV       R3,DPH
        LCALL     ??Subroutine72_0 & 0xFFFF
??CrossCallReturnLabel_185:
        LCALL     ?DEALLOC_XSTACK8
          CFI CFA_XSP16 add(XSP16, 43)
//  297           pInMsg->pData += sizeof(cmd.options);  // Move data pointer after options field
        MOV       DPL,?V0
        MOV       DPH,?V1
        MOVX      A,@DPTR
        ADD       A,#0x3
        LCALL     ??Subroutine54_0 & 0xFFFF
//  298                     
//  299           if ( cmd.pData == NULL )
??CrossCallReturnLabel_66:
        MOV       A,#0x1a
        LCALL     ?XSTACK_DISP0_8
        LCALL     ??Subroutine65_0 & 0xFFFF
??CrossCallReturnLabel_137:
        JNZ       ??zclGp_ProcessInProxyBasic_6
//  300           {
//  301             return ZFailure;
        MOV       R1,#0x1
        LJMP      ??zclGp_ProcessInProxyBasic_7 & 0xFFFF
//  302           }
//  303           
//  304           cmd.pData = pInMsg->pData;
??zclGp_ProcessInProxyBasic_6:
        MOV       A,#0x1a
        LCALL     ?XSTACK_DISP0_8
        LCALL     ?Subroutine32 & 0xFFFF
//  305           pCBs->pfnGpPairingCmd( &cmd );
??CrossCallReturnLabel_30:
        ; Setup parameters for indirect call
        MOV       A,#0x15
        LCALL     ?XSTACK_DISP101_8
        MOV       A,#0x2
        LCALL     ?XSTACK_DISP0_8
        LCALL     ??Subroutine59_0 & 0xFFFF
//  306 
//  307         }
??CrossCallReturnLabel_99:
        LJMP      ??zclGp_ProcessInProxyBasic_8 & 0xFFFF
//  308         break;
//  309         
//  310       case COMMAND_GP_PROXY_TABLE_REQUEST:
//  311         if ( pCBs->pfnGpProxyTableReqCmd )
??zclGp_ProcessInProxyBasic_5:
        MOV       A,#0x2
        LCALL     ?XSTACK_DISP0_8
        MOVX      A,@DPTR
        ADD       A,#0x2
        MOV       ?V2,A
        INC       DPTR
        MOVX      A,@DPTR
        ADDC      A,#0x0
        MOV       ?V3,A
        MOV       DPL,?V2
        LCALL     ??Subroutine67_0 & 0xFFFF
??CrossCallReturnLabel_152:
        JNZ       $+5
        LJMP      ??zclGp_ProcessInProxyBasic_1 & 0xFFFF
//  312         {
//  313           zclGpProxyTableRequest_t cmd;
//  314           
//  315           zcl_InSeqNum = pInMsg->hdr.transSeqNum;
        LCALL     ?Subroutine11 & 0xFFFF
//  316           
//  317           cmd.srcAddr = &(pInMsg->msg->srcAddr);
??CrossCallReturnLabel_6:
        MOV       A,#0x6
        LCALL     ?XSTACK_DISP0_8
        LCALL     ?Subroutine10 & 0xFFFF
//  318           osal_memcpy( &cmd.options, (void*)pInMsg->pData, sizeof(cmd.options) );
??CrossCallReturnLabel_63:
        LCALL     ?PUSH_XSTACK_I_THREE
          CFI CFA_XSP16 add(XSP16, 46)
        MOV       R4,#0x1
        MOV       R5,#0x0
        MOV       A,#0xb
        LCALL     ?XSTACK_DISP0_8
        MOV       R2,DPL
        MOV       R3,DPH
        LCALL     ??Subroutine72_0 & 0xFFFF
??CrossCallReturnLabel_186:
        LCALL     ?DEALLOC_XSTACK8
          CFI CFA_XSP16 add(XSP16, 43)
//  319           pInMsg->pData += sizeof(cmd.options);  // Move data pointer after options field
        LCALL     ?Subroutine7 & 0xFFFF
//  320           
//  321           
//  322           cmd.pData = (void*)pInMsg->pData;
??CrossCallReturnLabel_68:
        MOV       A,#0x9
        LCALL     ?XSTACK_DISP0_8
        LCALL     ?Subroutine32 & 0xFFFF
//  323           pCBs->pfnGpProxyTableReqCmd( &cmd );
??CrossCallReturnLabel_31:
        ; Setup parameters for indirect call
        MOV       A,#0x6
        LCALL     ?XSTACK_DISP101_8
        MOV       DPL,?V2
        MOV       DPH,?V3
        LJMP      ??zclGp_ProcessInProxyBasic_8 & 0xFFFF
//  324 
//  325         }
??zclGp_ProcessInProxyBasic_3:
        MOV       A,#0x2
        LCALL     ?XSTACK_DISP0_8
        LCALL     ?Subroutine18 & 0xFFFF
??CrossCallReturnLabel_13:
        LCALL     ??Subroutine68_0 & 0xFFFF
??CrossCallReturnLabel_144:
        JNZ       $+5
        LJMP      ??zclGp_ProcessInProxyBasic_1 & 0xFFFF
//  326         break;
//  327       case COMMAND_GP_PROXY_COMMISSIONING_MODE:
//  328         if(pCBs->pfnGpProxyCommissioningModeCmd)
//  329         {
//  330           zclGpProxyCommissioningMode_t cmd;
//  331 
//  332           osal_memcpy( &cmd.options, (void*)pInMsg->pData, sizeof(cmd.options) );
        ; Setup parameters for call to function osal_memcpy
        LCALL     ??Subroutine53_0 & 0xFFFF
??CrossCallReturnLabel_64:
        LCALL     ?PUSH_XSTACK_I_THREE
          CFI CFA_XSP16 add(XSP16, 46)
        MOV       R4,#0x1
        MOV       R5,#0x0
        MOV       A,#0xb
        LCALL     ?XSTACK_DISP0_8
        MOV       R2,DPL
        MOV       R3,DPH
        LCALL     ??Subroutine72_0 & 0xFFFF
??CrossCallReturnLabel_187:
        LCALL     ?DEALLOC_XSTACK8
          CFI CFA_XSP16 add(XSP16, 43)
//  333           pInMsg->pData += sizeof(cmd.options);  // Move data pointer after options field
        LCALL     ?Subroutine7 & 0xFFFF
//  334 
//  335           // alloc for data after options field
//  336           uint8 responseLen = pInMsg->pDataLen - sizeof(cmd.options); 
??CrossCallReturnLabel_69:
        MOV       A,#0x4
        LCALL     ?XSTACK_DISP0_8
        LCALL     ??Subroutine61_0 & 0xFFFF
??CrossCallReturnLabel_110:
        DEC       A
//  337          
//  338           cmd.pData = osal_mem_alloc( responseLen );
        MOV       R6,A
        ; Setup parameters for call to function osal_mem_alloc
        MOV       R2,A
        MOV       R3,#0x0
        LCALL     `??osal_mem_alloc::?relay`; Banked call to: osal_mem_alloc
        MOV       A,#0x9
        LCALL     ?XSTACK_DISP0_8
        LCALL     ?Subroutine19 & 0xFFFF
//  339           osal_memcpy(cmd.pData, (void*)pInMsg->pData, responseLen );
??CrossCallReturnLabel_15:
        LCALL     ?PUSH_XSTACK_I_THREE
          CFI CFA_XSP16 add(XSP16, 46)
        MOV       A,R6
        MOV       R4,A
        MOV       R5,#0x0
        LCALL     ??Subroutine72_0 & 0xFFFF
??CrossCallReturnLabel_188:
        LCALL     ?DEALLOC_XSTACK8
          CFI CFA_XSP16 add(XSP16, 43)
//  340 
//  341           if(pInMsg->msg->srcAddr.addrMode == afAddr16Bit)
        LCALL     ?Subroutine24 & 0xFFFF
??CrossCallReturnLabel_103:
        LCALL     ??Subroutine56_0 & 0xFFFF
??CrossCallReturnLabel_80:
        MOV       A,R0
        ADD       A,#0xe
        MOV       DPL,A
        CLR       A
        ADDC      A,R1
        MOV       DPH,A
        MOVX      A,@DPTR
        XRL       A,#0x2
        JNZ       ??CrossCallReturnLabel_32
//  342           {
//  343             cmd.srcAddr = pInMsg->msg->srcAddr.addr.shortAddr;
        MOV       DPL,R0
        MOV       DPH,R1
        INC       DPTR
        INC       DPTR
        INC       DPTR
        INC       DPTR
        INC       DPTR
        INC       DPTR
        LCALL     ??Subroutine56_0 & 0xFFFF
//  344           }
??CrossCallReturnLabel_81:
        MOV       A,#0x6
        LCALL     ?XSTACK_DISP0_8
        LCALL     ?Subroutine32 & 0xFFFF
//  345           
//  346           pCBs->pfnGpProxyCommissioningModeCmd( &cmd );
??CrossCallReturnLabel_32:
        ; Setup parameters for indirect call
        MOV       A,#0x6
        LCALL     ?XSTACK_DISP101_8
        MOV       A,#0x2
        LCALL     ?XSTACK_DISP0_8
        LCALL     ?Subroutine18 & 0xFFFF
//  347         }
??CrossCallReturnLabel_14:
        LJMP      ??zclGp_ProcessInProxyBasic_8 & 0xFFFF
??zclGp_ProcessInProxyBasic_4:
        MOV       A,#0x2
        LCALL     ?XSTACK_DISP0_8
        LCALL     ?Subroutine22 & 0xFFFF
??CrossCallReturnLabel_19:
        LCALL     ??Subroutine67_0 & 0xFFFF
??CrossCallReturnLabel_153:
        JNZ       $+5
        LJMP      ??zclGp_ProcessInProxyBasic_1 & 0xFFFF
//  348         break;
//  349         case COMMAND_GP_RESPONSE:
//  350           
//  351           if(pCBs->pfnGpResponseCommand)
//  352           {
//  353             zclGpResponse_t cmd;
//  354             
//  355             uint8 responseLen;
//  356 
//  357             osal_memcpy( &cmd.options, (void*)pInMsg->pData, sizeof(cmd.options) );
        ; Setup parameters for call to function osal_memcpy
        LCALL     ??Subroutine53_0 & 0xFFFF
??CrossCallReturnLabel_65:
        LCALL     ?PUSH_XSTACK_I_THREE
          CFI CFA_XSP16 add(XSP16, 46)
        MOV       R4,#0x1
        MOV       R5,#0x0
        MOV       A,#0x12
        LCALL     ?XSTACK_DISP0_8
        MOV       R2,DPL
        MOV       R3,DPH
        LCALL     ??Subroutine72_0 & 0xFFFF
??CrossCallReturnLabel_189:
        LCALL     ?DEALLOC_XSTACK8
          CFI CFA_XSP16 add(XSP16, 43)
//  358             pInMsg->pData += sizeof(cmd.options);  // Move data pointer after options field
        MOV       DPL,?V0
        MOV       DPH,?V1
        MOVX      A,@DPTR
        ADD       A,#0x1
        MOV       R2,A
        INC       DPTR
        MOVX      A,@DPTR
        ADDC      A,#0x0
        MOV       R3,A
        MOV       DPL,?V0
        MOV       DPH,?V1
        LCALL     ??Subroutine64_0 & 0xFFFF
//  359             
//  360             cmd.tempMasterShortAddr = osal_build_uint16(pInMsg->pData);
??CrossCallReturnLabel_129:
        ; Setup parameters for call to function osal_build_uint16
        LCALL     `??osal_build_uint16::?relay`; Banked call to: osal_build_uint16
        MOV       A,#0x10
        LCALL     ?XSTACK_DISP0_8
        LCALL     ??Subroutine64_0 & 0xFFFF
//  361             pInMsg->pData += sizeof(cmd.tempMasterShortAddr);  // Move data pointer after tempMaster field
??CrossCallReturnLabel_130:
        MOV       DPL,?V0
        MOV       DPH,?V1
        MOVX      A,@DPTR
        ADD       A,#0x2
        LCALL     ??Subroutine54_0 & 0xFFFF
//  362             
//  363             osal_memcpy( &cmd.tempMasterTxChannel, (void*)pInMsg->pData, sizeof(cmd.tempMasterTxChannel) );
??CrossCallReturnLabel_67:
        ; Setup parameters for call to function osal_memcpy
        MOV       ?V4,R0
        MOV       ?V5,R1
        MOV       R0,#?V4
        LCALL     ?PUSH_XSTACK_I_THREE
          CFI CFA_XSP16 add(XSP16, 46)
        MOV       R4,#0x1
        MOV       R5,#0x0
        MOV       A,#0x15
        LCALL     ?XSTACK_DISP0_8
        MOV       R2,DPL
        MOV       R3,DPH
        LCALL     ??Subroutine72_0 & 0xFFFF
??CrossCallReturnLabel_190:
        LCALL     ?DEALLOC_XSTACK8
          CFI CFA_XSP16 add(XSP16, 43)
//  364             pInMsg->pData += sizeof(cmd.tempMasterTxChannel);  // Move data pointer after options field
        LCALL     ?Subroutine7 & 0xFFFF
//  365             
//  366             cmd.dstAddr = pInMsg->msg->macDestAddr;  
??CrossCallReturnLabel_70:
        LCALL     ?Subroutine15 & 0xFFFF
??CrossCallReturnLabel_113:
        MOV       R0,A
        INC       DPTR
        MOVX      A,@DPTR
        XCH       A,R0
        ADD       A,#0x12
        MOV       DPL,A
        CLR       A
        ADDC      A,R0
        MOV       DPH,A
        LCALL     ??Subroutine56_0 & 0xFFFF
??CrossCallReturnLabel_82:
        MOV       A,#0xd
        LCALL     ?XSTACK_DISP0_8
        LCALL     ?Subroutine32 & 0xFFFF
//  367                   
//  368             responseLen = pInMsg->pDataLen - sizeof(cmd.tempMasterTxChannel) 
//  369                                    - sizeof(cmd.tempMasterShortAddr) 
//  370                                    - sizeof(cmd.options);
??CrossCallReturnLabel_33:
        MOV       A,#0x4
        LCALL     ?XSTACK_DISP0_8
        LCALL     ??Subroutine61_0 & 0xFFFF
??CrossCallReturnLabel_111:
        ADD       A,#-0x4
        MOV       R0,A
//  371             cmd.pData = osal_mem_alloc( responseLen );
        MOV       R6,A
        ; Setup parameters for call to function osal_mem_alloc
        MOV       R2,A
        MOV       R3,#0x0
        LCALL     `??osal_mem_alloc::?relay`; Banked call to: osal_mem_alloc
        MOV       A,#0x13
        LCALL     ?XSTACK_DISP0_8
        LCALL     ?Subroutine19 & 0xFFFF
//  372             
//  373             osal_memcpy(cmd.pData, (void*)pInMsg->pData, responseLen );
??CrossCallReturnLabel_16:
        LCALL     ?PUSH_XSTACK_I_THREE
          CFI CFA_XSP16 add(XSP16, 46)
        MOV       A,R6
        MOV       R4,A
        MOV       R5,#0x0
        LCALL     ??Subroutine72_0 & 0xFFFF
??CrossCallReturnLabel_191:
        LCALL     ?DEALLOC_XSTACK8
          CFI CFA_XSP16 add(XSP16, 43)
//  374 
//  375             pCBs->pfnGpResponseCommand( &cmd ); 
        ; Setup parameters for indirect call
        MOV       A,#0xd
        LCALL     ?XSTACK_DISP101_8
        MOV       A,#0x2
        LCALL     ?XSTACK_DISP0_8
        LCALL     ?Subroutine22 & 0xFFFF
//  376           }
//  377         break;
//  378     }
//  379   }
??CrossCallReturnLabel_20:
        MOV       DPH,A
??zclGp_ProcessInProxyBasic_8:
        LCALL     ??Subroutine59_0 & 0xFFFF
??CrossCallReturnLabel_100:
        LCALL     ?CALL_IND
//  380 
//  381   return ( ZSuccess );
??zclGp_ProcessInProxyBasic_1:
        MOV       R1,#0x0
??zclGp_ProcessInProxyBasic_7:
        MOV       A,#0x1c
          CFI EndBlock cfiBlock4
        REQUIRE ?Subroutine2
        ; // Fall through to label ?Subroutine2
//  382 }

        RSEG BANKED_CODE:HUGECODE:NOROOT(0)
?Subroutine2:
          CFI Block cfiBlock5 Using cfiCommon0
          CFI NoFunction
          CFI CFA_SP SP+0
          CFI CFA_XSP16 add(XSP16, 43)
          CFI VB load(1, XDATA, add(CFA_XSP16, literal(-14)))
          CFI DPL0 load(1, XDATA, add(CFA_XSP16, literal(-2)))
          CFI DPH0 load(1, XDATA, add(CFA_XSP16, literal(-1)))
          CFI R6 load(1, XDATA, add(CFA_XSP16, literal(-15)))
          CFI R7 load(1, XDATA, add(CFA_XSP16, literal(-6)))
          CFI V0 load(1, XDATA, add(CFA_XSP16, literal(-13)))
          CFI V1 load(1, XDATA, add(CFA_XSP16, literal(-12)))
          CFI V2 load(1, XDATA, add(CFA_XSP16, literal(-11)))
          CFI V3 load(1, XDATA, add(CFA_XSP16, literal(-10)))
          CFI V4 load(1, XDATA, add(CFA_XSP16, literal(-9)))
          CFI V5 load(1, XDATA, add(CFA_XSP16, literal(-8)))
          CFI V6 load(1, XDATA, add(CFA_XSP16, literal(-7)))
          CFI ?BRET_EXT load(1, XDATA, add(CFA_XSP16, literal(-3)))
          CFI ?RET_HIGH load(1, XDATA, add(CFA_XSP16, literal(-4)))
          CFI ?RET_LOW load(1, XDATA, add(CFA_XSP16, literal(-5)))
          CFI Invalid
        LCALL     ?DEALLOC_XSTACK8
          CFI CFA_XSP16 add(XSP16, 15)
          CFI Valid
        MOV       R7,#0x7
        LJMP      ?BANKED_LEAVE_XDATA
          CFI EndBlock cfiBlock5

        RSEG BANKED_CODE:HUGECODE:NOROOT(0)
?Subroutine22:
          CFI Block cfiCond6 Using cfiCommon0
          CFI Function zclGp_ProcessInProxyBasic
          CFI Conditional ??CrossCallReturnLabel_19
          CFI R6 load(1, XDATA, add(CFA_XSP16, literal(-15)))
          CFI VB load(1, XDATA, add(CFA_XSP16, literal(-14)))
          CFI V0 load(1, XDATA, add(CFA_XSP16, literal(-13)))
          CFI V1 load(1, XDATA, add(CFA_XSP16, literal(-12)))
          CFI V2 load(1, XDATA, add(CFA_XSP16, literal(-11)))
          CFI V3 load(1, XDATA, add(CFA_XSP16, literal(-10)))
          CFI V4 load(1, XDATA, add(CFA_XSP16, literal(-9)))
          CFI V5 load(1, XDATA, add(CFA_XSP16, literal(-8)))
          CFI V6 load(1, XDATA, add(CFA_XSP16, literal(-7)))
          CFI R7 load(1, XDATA, add(CFA_XSP16, literal(-6)))
          CFI ?RET_LOW load(1, XDATA, add(CFA_XSP16, literal(-5)))
          CFI ?RET_HIGH load(1, XDATA, add(CFA_XSP16, literal(-4)))
          CFI ?BRET_EXT load(1, XDATA, add(CFA_XSP16, literal(-3)))
          CFI DPL0 load(1, XDATA, add(CFA_XSP16, literal(-2)))
          CFI DPH0 load(1, XDATA, add(CFA_XSP16, literal(-1)))
          CFI CFA_SP SP+-2
          CFI CFA_XSP16 add(XSP16, 43)
          CFI Block cfiCond7 Using cfiCommon0
          CFI (cfiCond7) Function zclGp_ProcessInProxyBasic
          CFI (cfiCond7) Conditional ??CrossCallReturnLabel_20
          CFI (cfiCond7) R6 load(1, XDATA, add(CFA_XSP16, literal(-15)))
          CFI (cfiCond7) VB load(1, XDATA, add(CFA_XSP16, literal(-14)))
          CFI (cfiCond7) V0 load(1, XDATA, add(CFA_XSP16, literal(-13)))
          CFI (cfiCond7) V1 load(1, XDATA, add(CFA_XSP16, literal(-12)))
          CFI (cfiCond7) V2 load(1, XDATA, add(CFA_XSP16, literal(-11)))
          CFI (cfiCond7) V3 load(1, XDATA, add(CFA_XSP16, literal(-10)))
          CFI (cfiCond7) V4 load(1, XDATA, add(CFA_XSP16, literal(-9)))
          CFI (cfiCond7) V5 load(1, XDATA, add(CFA_XSP16, literal(-8)))
          CFI (cfiCond7) V6 load(1, XDATA, add(CFA_XSP16, literal(-7)))
          CFI (cfiCond7) R7 load(1, XDATA, add(CFA_XSP16, literal(-6)))
          CFI (cfiCond7) ?RET_LOW load(1, XDATA, add(CFA_XSP16, literal(-5)))
          CFI (cfiCond7) ?RET_HIGH load(1, XDATA, add(CFA_XSP16, literal(-4)))
          CFI (cfiCond7) ?BRET_EXT load(1, XDATA, add(CFA_XSP16, literal(-3)))
          CFI (cfiCond7) DPL0 load(1, XDATA, add(CFA_XSP16, literal(-2)))
          CFI (cfiCond7) DPH0 load(1, XDATA, add(CFA_XSP16, literal(-1)))
          CFI (cfiCond7) CFA_SP SP+-2
          CFI (cfiCond7) CFA_XSP16 add(XSP16, 43)
          CFI Block cfiPicker8 Using cfiCommon1
          CFI (cfiPicker8) NoFunction
          CFI (cfiPicker8) Picker
        LCALL     ?Subroutine45 & 0xFFFF
??CrossCallReturnLabel_158:
        XCH       A,R0
        ADD       A,#0x6
        MOV       DPL,A
        CLR       A
        ADDC      A,R0
        RET
          CFI EndBlock cfiCond6
          CFI EndBlock cfiCond7
          CFI EndBlock cfiPicker8

        RSEG BANKED_CODE:HUGECODE:NOROOT(0)
?Subroutine19:
          CFI Block cfiCond9 Using cfiCommon0
          CFI Function zclGp_ProcessInProxyBasic
          CFI Conditional ??CrossCallReturnLabel_15
          CFI R6 load(1, XDATA, add(CFA_XSP16, literal(-15)))
          CFI VB load(1, XDATA, add(CFA_XSP16, literal(-14)))
          CFI V0 load(1, XDATA, add(CFA_XSP16, literal(-13)))
          CFI V1 load(1, XDATA, add(CFA_XSP16, literal(-12)))
          CFI V2 load(1, XDATA, add(CFA_XSP16, literal(-11)))
          CFI V3 load(1, XDATA, add(CFA_XSP16, literal(-10)))
          CFI V4 load(1, XDATA, add(CFA_XSP16, literal(-9)))
          CFI V5 load(1, XDATA, add(CFA_XSP16, literal(-8)))
          CFI V6 load(1, XDATA, add(CFA_XSP16, literal(-7)))
          CFI R7 load(1, XDATA, add(CFA_XSP16, literal(-6)))
          CFI ?RET_LOW load(1, XDATA, add(CFA_XSP16, literal(-5)))
          CFI ?RET_HIGH load(1, XDATA, add(CFA_XSP16, literal(-4)))
          CFI ?BRET_EXT load(1, XDATA, add(CFA_XSP16, literal(-3)))
          CFI DPL0 load(1, XDATA, add(CFA_XSP16, literal(-2)))
          CFI DPH0 load(1, XDATA, add(CFA_XSP16, literal(-1)))
          CFI CFA_SP SP+-2
          CFI CFA_XSP16 add(XSP16, 43)
          CFI Block cfiCond10 Using cfiCommon0
          CFI (cfiCond10) Function zclGp_ProcessInProxyBasic
          CFI (cfiCond10) Conditional ??CrossCallReturnLabel_16
          CFI (cfiCond10) R6 load(1, XDATA, add(CFA_XSP16, literal(-15)))
          CFI (cfiCond10) VB load(1, XDATA, add(CFA_XSP16, literal(-14)))
          CFI (cfiCond10) V0 load(1, XDATA, add(CFA_XSP16, literal(-13)))
          CFI (cfiCond10) V1 load(1, XDATA, add(CFA_XSP16, literal(-12)))
          CFI (cfiCond10) V2 load(1, XDATA, add(CFA_XSP16, literal(-11)))
          CFI (cfiCond10) V3 load(1, XDATA, add(CFA_XSP16, literal(-10)))
          CFI (cfiCond10) V4 load(1, XDATA, add(CFA_XSP16, literal(-9)))
          CFI (cfiCond10) V5 load(1, XDATA, add(CFA_XSP16, literal(-8)))
          CFI (cfiCond10) V6 load(1, XDATA, add(CFA_XSP16, literal(-7)))
          CFI (cfiCond10) R7 load(1, XDATA, add(CFA_XSP16, literal(-6)))
          CFI (cfiCond10) ?RET_LOW load(1, XDATA, add(CFA_XSP16, literal(-5)))
          CFI (cfiCond10) ?RET_HIGH load(1, XDATA, add(CFA_XSP16, literal(-4)))
          CFI (cfiCond10) ?BRET_EXT load(1, XDATA, add(CFA_XSP16, literal(-3)))
          CFI (cfiCond10) DPL0 load(1, XDATA, add(CFA_XSP16, literal(-2)))
          CFI (cfiCond10) DPH0 load(1, XDATA, add(CFA_XSP16, literal(-1)))
          CFI (cfiCond10) CFA_SP SP+-2
          CFI (cfiCond10) CFA_XSP16 add(XSP16, 43)
          CFI Block cfiPicker11 Using cfiCommon1
          CFI (cfiPicker11) NoFunction
          CFI (cfiPicker11) Picker
        MOV       A,R2
        MOVX      @DPTR,A
        INC       DPTR
        MOV       A,R3
        MOVX      @DPTR,A
        ; Setup parameters for call to function osal_memcpy
        ; Setup parameters for call to function osal_memcpy
        MOV       DPL,?V0
        MOV       DPH,?V1
        MOVX      A,@DPTR
        MOV       ?V0,A
        INC       DPTR
        MOVX      A,@DPTR
        MOV       ?V1,A
        MOV       ?V2,#0x0
        MOV       R0,#?V0
        RET
          CFI EndBlock cfiCond9
          CFI EndBlock cfiCond10
          CFI EndBlock cfiPicker11

        RSEG BANKED_CODE:HUGECODE:NOROOT(0)
?Subroutine18:
          CFI Block cfiCond12 Using cfiCommon0
          CFI Function zclGp_ProcessInProxyBasic
          CFI Conditional ??CrossCallReturnLabel_13
          CFI R6 load(1, XDATA, add(CFA_XSP16, literal(-15)))
          CFI VB load(1, XDATA, add(CFA_XSP16, literal(-14)))
          CFI V0 load(1, XDATA, add(CFA_XSP16, literal(-13)))
          CFI V1 load(1, XDATA, add(CFA_XSP16, literal(-12)))
          CFI V2 load(1, XDATA, add(CFA_XSP16, literal(-11)))
          CFI V3 load(1, XDATA, add(CFA_XSP16, literal(-10)))
          CFI V4 load(1, XDATA, add(CFA_XSP16, literal(-9)))
          CFI V5 load(1, XDATA, add(CFA_XSP16, literal(-8)))
          CFI V6 load(1, XDATA, add(CFA_XSP16, literal(-7)))
          CFI R7 load(1, XDATA, add(CFA_XSP16, literal(-6)))
          CFI ?RET_LOW load(1, XDATA, add(CFA_XSP16, literal(-5)))
          CFI ?RET_HIGH load(1, XDATA, add(CFA_XSP16, literal(-4)))
          CFI ?BRET_EXT load(1, XDATA, add(CFA_XSP16, literal(-3)))
          CFI DPL0 load(1, XDATA, add(CFA_XSP16, literal(-2)))
          CFI DPH0 load(1, XDATA, add(CFA_XSP16, literal(-1)))
          CFI CFA_SP SP+-2
          CFI CFA_XSP16 add(XSP16, 43)
          CFI Block cfiCond13 Using cfiCommon0
          CFI (cfiCond13) Function zclGp_ProcessInProxyBasic
          CFI (cfiCond13) Conditional ??CrossCallReturnLabel_14
          CFI (cfiCond13) R6 load(1, XDATA, add(CFA_XSP16, literal(-15)))
          CFI (cfiCond13) VB load(1, XDATA, add(CFA_XSP16, literal(-14)))
          CFI (cfiCond13) V0 load(1, XDATA, add(CFA_XSP16, literal(-13)))
          CFI (cfiCond13) V1 load(1, XDATA, add(CFA_XSP16, literal(-12)))
          CFI (cfiCond13) V2 load(1, XDATA, add(CFA_XSP16, literal(-11)))
          CFI (cfiCond13) V3 load(1, XDATA, add(CFA_XSP16, literal(-10)))
          CFI (cfiCond13) V4 load(1, XDATA, add(CFA_XSP16, literal(-9)))
          CFI (cfiCond13) V5 load(1, XDATA, add(CFA_XSP16, literal(-8)))
          CFI (cfiCond13) V6 load(1, XDATA, add(CFA_XSP16, literal(-7)))
          CFI (cfiCond13) R7 load(1, XDATA, add(CFA_XSP16, literal(-6)))
          CFI (cfiCond13) ?RET_LOW load(1, XDATA, add(CFA_XSP16, literal(-5)))
          CFI (cfiCond13) ?RET_HIGH load(1, XDATA, add(CFA_XSP16, literal(-4)))
          CFI (cfiCond13) ?BRET_EXT load(1, XDATA, add(CFA_XSP16, literal(-3)))
          CFI (cfiCond13) DPL0 load(1, XDATA, add(CFA_XSP16, literal(-2)))
          CFI (cfiCond13) DPH0 load(1, XDATA, add(CFA_XSP16, literal(-1)))
          CFI (cfiCond13) CFA_SP SP+-2
          CFI (cfiCond13) CFA_XSP16 add(XSP16, 43)
          CFI Block cfiPicker14 Using cfiCommon1
          CFI (cfiPicker14) NoFunction
          CFI (cfiPicker14) Picker
        LCALL     ?Subroutine42 & 0xFFFF
??CrossCallReturnLabel_53:
        INC       DPTR
        INC       DPTR
        INC       DPTR
        RET
          CFI EndBlock cfiCond12
          CFI EndBlock cfiCond13
          CFI EndBlock cfiPicker14

        RSEG BANKED_CODE:HUGECODE:NOROOT(0)
?Subroutine11:
          CFI Block cfiCond15 Using cfiCommon0
          CFI Function zclGp_ProcessInProxyBasic
          CFI Conditional ??CrossCallReturnLabel_5
          CFI R6 load(1, XDATA, add(CFA_XSP16, literal(-15)))
          CFI VB load(1, XDATA, add(CFA_XSP16, literal(-14)))
          CFI V0 load(1, XDATA, add(CFA_XSP16, literal(-13)))
          CFI V1 load(1, XDATA, add(CFA_XSP16, literal(-12)))
          CFI V2 load(1, XDATA, add(CFA_XSP16, literal(-11)))
          CFI V3 load(1, XDATA, add(CFA_XSP16, literal(-10)))
          CFI V4 load(1, XDATA, add(CFA_XSP16, literal(-9)))
          CFI V5 load(1, XDATA, add(CFA_XSP16, literal(-8)))
          CFI V6 load(1, XDATA, add(CFA_XSP16, literal(-7)))
          CFI R7 load(1, XDATA, add(CFA_XSP16, literal(-6)))
          CFI ?RET_LOW load(1, XDATA, add(CFA_XSP16, literal(-5)))
          CFI ?RET_HIGH load(1, XDATA, add(CFA_XSP16, literal(-4)))
          CFI ?BRET_EXT load(1, XDATA, add(CFA_XSP16, literal(-3)))
          CFI DPL0 load(1, XDATA, add(CFA_XSP16, literal(-2)))
          CFI DPH0 load(1, XDATA, add(CFA_XSP16, literal(-1)))
          CFI CFA_SP SP+-2
          CFI CFA_XSP16 add(XSP16, 43)
          CFI Block cfiCond16 Using cfiCommon0
          CFI (cfiCond16) Function zclGp_ProcessInProxyBasic
          CFI (cfiCond16) Conditional ??CrossCallReturnLabel_6
          CFI (cfiCond16) R6 load(1, XDATA, add(CFA_XSP16, literal(-15)))
          CFI (cfiCond16) VB load(1, XDATA, add(CFA_XSP16, literal(-14)))
          CFI (cfiCond16) V0 load(1, XDATA, add(CFA_XSP16, literal(-13)))
          CFI (cfiCond16) V1 load(1, XDATA, add(CFA_XSP16, literal(-12)))
          CFI (cfiCond16) V2 load(1, XDATA, add(CFA_XSP16, literal(-11)))
          CFI (cfiCond16) V3 load(1, XDATA, add(CFA_XSP16, literal(-10)))
          CFI (cfiCond16) V4 load(1, XDATA, add(CFA_XSP16, literal(-9)))
          CFI (cfiCond16) V5 load(1, XDATA, add(CFA_XSP16, literal(-8)))
          CFI (cfiCond16) V6 load(1, XDATA, add(CFA_XSP16, literal(-7)))
          CFI (cfiCond16) R7 load(1, XDATA, add(CFA_XSP16, literal(-6)))
          CFI (cfiCond16) ?RET_LOW load(1, XDATA, add(CFA_XSP16, literal(-5)))
          CFI (cfiCond16) ?RET_HIGH load(1, XDATA, add(CFA_XSP16, literal(-4)))
          CFI (cfiCond16) ?BRET_EXT load(1, XDATA, add(CFA_XSP16, literal(-3)))
          CFI (cfiCond16) DPL0 load(1, XDATA, add(CFA_XSP16, literal(-2)))
          CFI (cfiCond16) DPH0 load(1, XDATA, add(CFA_XSP16, literal(-1)))
          CFI (cfiCond16) CFA_SP SP+-2
          CFI (cfiCond16) CFA_XSP16 add(XSP16, 43)
          CFI Block cfiPicker17 Using cfiCommon1
          CFI (cfiPicker17) NoFunction
          CFI (cfiPicker17) Picker
        MOV       DPL,R6
        MOV       DPH,R7
        MOVX      A,@DPTR
        MOV       DPTR,#zcl_InSeqNum
        LCALL     ?Subroutine50 & 0xFFFF
??CrossCallReturnLabel_91:
        LCALL     ?Subroutine43 & 0xFFFF
??CrossCallReturnLabel_115:
        ADD       A,#0x6
        MOV       R0,A
        INC       DPTR
        MOVX      A,@DPTR
        ADDC      A,#0x0
        MOV       R1,A
        RET
          CFI EndBlock cfiCond15
          CFI EndBlock cfiCond16
          CFI EndBlock cfiPicker17

        RSEG BANKED_CODE:HUGECODE:NOROOT(0)
?Subroutine10:
          CFI Block cfiCond18 Using cfiCommon0
          CFI Function zclGp_ProcessInProxyBasic
          CFI Conditional ??CrossCallReturnLabel_62
          CFI R6 load(1, XDATA, add(CFA_XSP16, literal(-15)))
          CFI VB load(1, XDATA, add(CFA_XSP16, literal(-14)))
          CFI V0 load(1, XDATA, add(CFA_XSP16, literal(-13)))
          CFI V1 load(1, XDATA, add(CFA_XSP16, literal(-12)))
          CFI V2 load(1, XDATA, add(CFA_XSP16, literal(-11)))
          CFI V3 load(1, XDATA, add(CFA_XSP16, literal(-10)))
          CFI V4 load(1, XDATA, add(CFA_XSP16, literal(-9)))
          CFI V5 load(1, XDATA, add(CFA_XSP16, literal(-8)))
          CFI V6 load(1, XDATA, add(CFA_XSP16, literal(-7)))
          CFI R7 load(1, XDATA, add(CFA_XSP16, literal(-6)))
          CFI ?RET_LOW load(1, XDATA, add(CFA_XSP16, literal(-5)))
          CFI ?RET_HIGH load(1, XDATA, add(CFA_XSP16, literal(-4)))
          CFI ?BRET_EXT load(1, XDATA, add(CFA_XSP16, literal(-3)))
          CFI DPL0 load(1, XDATA, add(CFA_XSP16, literal(-2)))
          CFI DPH0 load(1, XDATA, add(CFA_XSP16, literal(-1)))
          CFI CFA_SP SP+-2
          CFI CFA_XSP16 add(XSP16, 43)
          CFI Block cfiCond19 Using cfiCommon0
          CFI (cfiCond19) Function zclGp_ProcessInProxyBasic
          CFI (cfiCond19) Conditional ??CrossCallReturnLabel_63
          CFI (cfiCond19) R6 load(1, XDATA, add(CFA_XSP16, literal(-15)))
          CFI (cfiCond19) VB load(1, XDATA, add(CFA_XSP16, literal(-14)))
          CFI (cfiCond19) V0 load(1, XDATA, add(CFA_XSP16, literal(-13)))
          CFI (cfiCond19) V1 load(1, XDATA, add(CFA_XSP16, literal(-12)))
          CFI (cfiCond19) V2 load(1, XDATA, add(CFA_XSP16, literal(-11)))
          CFI (cfiCond19) V3 load(1, XDATA, add(CFA_XSP16, literal(-10)))
          CFI (cfiCond19) V4 load(1, XDATA, add(CFA_XSP16, literal(-9)))
          CFI (cfiCond19) V5 load(1, XDATA, add(CFA_XSP16, literal(-8)))
          CFI (cfiCond19) V6 load(1, XDATA, add(CFA_XSP16, literal(-7)))
          CFI (cfiCond19) R7 load(1, XDATA, add(CFA_XSP16, literal(-6)))
          CFI (cfiCond19) ?RET_LOW load(1, XDATA, add(CFA_XSP16, literal(-5)))
          CFI (cfiCond19) ?RET_HIGH load(1, XDATA, add(CFA_XSP16, literal(-4)))
          CFI (cfiCond19) ?BRET_EXT load(1, XDATA, add(CFA_XSP16, literal(-3)))
          CFI (cfiCond19) DPL0 load(1, XDATA, add(CFA_XSP16, literal(-2)))
          CFI (cfiCond19) DPH0 load(1, XDATA, add(CFA_XSP16, literal(-1)))
          CFI (cfiCond19) CFA_SP SP+-2
          CFI (cfiCond19) CFA_XSP16 add(XSP16, 43)
          CFI Block cfiPicker20 Using cfiCommon1
          CFI (cfiPicker20) NoFunction
          CFI (cfiPicker20) Picker
        MOV       A,R0
        MOVX      @DPTR,A
        INC       DPTR
        MOV       A,R1
        MOVX      @DPTR,A
          CFI EndBlock cfiCond18
          CFI EndBlock cfiCond19
          CFI EndBlock cfiPicker20
        ; Setup parameters for call to function osal_memcpy
        ; Setup parameters for call to function osal_memcpy
        REQUIRE ??Subroutine53_0
        ; // Fall through to label ??Subroutine53_0

        RSEG BANKED_CODE:HUGECODE:NOROOT(0)
??Subroutine53_0:
          CFI Block cfiCond21 Using cfiCommon0
          CFI Function zclGp_ProcessInProxyBasic
          CFI Conditional ??CrossCallReturnLabel_64
          CFI R6 load(1, XDATA, add(CFA_XSP16, literal(-15)))
          CFI VB load(1, XDATA, add(CFA_XSP16, literal(-14)))
          CFI V0 load(1, XDATA, add(CFA_XSP16, literal(-13)))
          CFI V1 load(1, XDATA, add(CFA_XSP16, literal(-12)))
          CFI V2 load(1, XDATA, add(CFA_XSP16, literal(-11)))
          CFI V3 load(1, XDATA, add(CFA_XSP16, literal(-10)))
          CFI V4 load(1, XDATA, add(CFA_XSP16, literal(-9)))
          CFI V5 load(1, XDATA, add(CFA_XSP16, literal(-8)))
          CFI V6 load(1, XDATA, add(CFA_XSP16, literal(-7)))
          CFI R7 load(1, XDATA, add(CFA_XSP16, literal(-6)))
          CFI ?RET_LOW load(1, XDATA, add(CFA_XSP16, literal(-5)))
          CFI ?RET_HIGH load(1, XDATA, add(CFA_XSP16, literal(-4)))
          CFI ?BRET_EXT load(1, XDATA, add(CFA_XSP16, literal(-3)))
          CFI DPL0 load(1, XDATA, add(CFA_XSP16, literal(-2)))
          CFI DPH0 load(1, XDATA, add(CFA_XSP16, literal(-1)))
          CFI CFA_SP SP+-2
          CFI CFA_XSP16 add(XSP16, 43)
          CFI Block cfiCond22 Using cfiCommon0
          CFI (cfiCond22) Function zclGp_ProcessInProxyBasic
          CFI (cfiCond22) Conditional ??CrossCallReturnLabel_65
          CFI (cfiCond22) R6 load(1, XDATA, add(CFA_XSP16, literal(-15)))
          CFI (cfiCond22) VB load(1, XDATA, add(CFA_XSP16, literal(-14)))
          CFI (cfiCond22) V0 load(1, XDATA, add(CFA_XSP16, literal(-13)))
          CFI (cfiCond22) V1 load(1, XDATA, add(CFA_XSP16, literal(-12)))
          CFI (cfiCond22) V2 load(1, XDATA, add(CFA_XSP16, literal(-11)))
          CFI (cfiCond22) V3 load(1, XDATA, add(CFA_XSP16, literal(-10)))
          CFI (cfiCond22) V4 load(1, XDATA, add(CFA_XSP16, literal(-9)))
          CFI (cfiCond22) V5 load(1, XDATA, add(CFA_XSP16, literal(-8)))
          CFI (cfiCond22) V6 load(1, XDATA, add(CFA_XSP16, literal(-7)))
          CFI (cfiCond22) R7 load(1, XDATA, add(CFA_XSP16, literal(-6)))
          CFI (cfiCond22) ?RET_LOW load(1, XDATA, add(CFA_XSP16, literal(-5)))
          CFI (cfiCond22) ?RET_HIGH load(1, XDATA, add(CFA_XSP16, literal(-4)))
          CFI (cfiCond22) ?BRET_EXT load(1, XDATA, add(CFA_XSP16, literal(-3)))
          CFI (cfiCond22) DPL0 load(1, XDATA, add(CFA_XSP16, literal(-2)))
          CFI (cfiCond22) DPH0 load(1, XDATA, add(CFA_XSP16, literal(-1)))
          CFI (cfiCond22) CFA_SP SP+-2
          CFI (cfiCond22) CFA_XSP16 add(XSP16, 43)
          CFI Block cfiCond23 Using cfiCommon0
          CFI (cfiCond23) Function zclGp_ProcessInProxyBasic
          CFI (cfiCond23) Conditional ??CrossCallReturnLabel_62
          CFI (cfiCond23) R6 load(1, XDATA, add(CFA_XSP16, literal(-15)))
          CFI (cfiCond23) VB load(1, XDATA, add(CFA_XSP16, literal(-14)))
          CFI (cfiCond23) V0 load(1, XDATA, add(CFA_XSP16, literal(-13)))
          CFI (cfiCond23) V1 load(1, XDATA, add(CFA_XSP16, literal(-12)))
          CFI (cfiCond23) V2 load(1, XDATA, add(CFA_XSP16, literal(-11)))
          CFI (cfiCond23) V3 load(1, XDATA, add(CFA_XSP16, literal(-10)))
          CFI (cfiCond23) V4 load(1, XDATA, add(CFA_XSP16, literal(-9)))
          CFI (cfiCond23) V5 load(1, XDATA, add(CFA_XSP16, literal(-8)))
          CFI (cfiCond23) V6 load(1, XDATA, add(CFA_XSP16, literal(-7)))
          CFI (cfiCond23) R7 load(1, XDATA, add(CFA_XSP16, literal(-6)))
          CFI (cfiCond23) ?RET_LOW load(1, XDATA, add(CFA_XSP16, literal(-5)))
          CFI (cfiCond23) ?RET_HIGH load(1, XDATA, add(CFA_XSP16, literal(-4)))
          CFI (cfiCond23) ?BRET_EXT load(1, XDATA, add(CFA_XSP16, literal(-3)))
          CFI (cfiCond23) DPL0 load(1, XDATA, add(CFA_XSP16, literal(-2)))
          CFI (cfiCond23) DPH0 load(1, XDATA, add(CFA_XSP16, literal(-1)))
          CFI (cfiCond23) CFA_SP SP+-2
          CFI (cfiCond23) CFA_XSP16 add(XSP16, 43)
          CFI Block cfiCond24 Using cfiCommon0
          CFI (cfiCond24) Function zclGp_ProcessInProxyBasic
          CFI (cfiCond24) Conditional ??CrossCallReturnLabel_63
          CFI (cfiCond24) R6 load(1, XDATA, add(CFA_XSP16, literal(-15)))
          CFI (cfiCond24) VB load(1, XDATA, add(CFA_XSP16, literal(-14)))
          CFI (cfiCond24) V0 load(1, XDATA, add(CFA_XSP16, literal(-13)))
          CFI (cfiCond24) V1 load(1, XDATA, add(CFA_XSP16, literal(-12)))
          CFI (cfiCond24) V2 load(1, XDATA, add(CFA_XSP16, literal(-11)))
          CFI (cfiCond24) V3 load(1, XDATA, add(CFA_XSP16, literal(-10)))
          CFI (cfiCond24) V4 load(1, XDATA, add(CFA_XSP16, literal(-9)))
          CFI (cfiCond24) V5 load(1, XDATA, add(CFA_XSP16, literal(-8)))
          CFI (cfiCond24) V6 load(1, XDATA, add(CFA_XSP16, literal(-7)))
          CFI (cfiCond24) R7 load(1, XDATA, add(CFA_XSP16, literal(-6)))
          CFI (cfiCond24) ?RET_LOW load(1, XDATA, add(CFA_XSP16, literal(-5)))
          CFI (cfiCond24) ?RET_HIGH load(1, XDATA, add(CFA_XSP16, literal(-4)))
          CFI (cfiCond24) ?BRET_EXT load(1, XDATA, add(CFA_XSP16, literal(-3)))
          CFI (cfiCond24) DPL0 load(1, XDATA, add(CFA_XSP16, literal(-2)))
          CFI (cfiCond24) DPH0 load(1, XDATA, add(CFA_XSP16, literal(-1)))
          CFI (cfiCond24) CFA_SP SP+-2
          CFI (cfiCond24) CFA_XSP16 add(XSP16, 43)
          CFI Block cfiPicker25 Using cfiCommon1
          CFI (cfiPicker25) NoFunction
          CFI (cfiPicker25) Picker
        MOV       DPL,?V0
        MOV       DPH,?V1
        MOVX      A,@DPTR
        MOV       ?V4,A
        INC       DPTR
        MOVX      A,@DPTR
        MOV       ?V5,A
        MOV       ?V6,#0x0
        MOV       R0,#?V4
        RET
          CFI EndBlock cfiCond21
          CFI EndBlock cfiCond22
          CFI EndBlock cfiCond23
          CFI EndBlock cfiCond24
          CFI EndBlock cfiPicker25

        RSEG BANKED_CODE:HUGECODE:NOROOT(0)
?Subroutine7:
          CFI Block cfiCond26 Using cfiCommon0
          CFI Function zclGp_ProcessInProxyBasic
          CFI Conditional ??CrossCallReturnLabel_68
          CFI R6 load(1, XDATA, add(CFA_XSP16, literal(-15)))
          CFI VB load(1, XDATA, add(CFA_XSP16, literal(-14)))
          CFI V0 load(1, XDATA, add(CFA_XSP16, literal(-13)))
          CFI V1 load(1, XDATA, add(CFA_XSP16, literal(-12)))
          CFI V2 load(1, XDATA, add(CFA_XSP16, literal(-11)))
          CFI V3 load(1, XDATA, add(CFA_XSP16, literal(-10)))
          CFI V4 load(1, XDATA, add(CFA_XSP16, literal(-9)))
          CFI V5 load(1, XDATA, add(CFA_XSP16, literal(-8)))
          CFI V6 load(1, XDATA, add(CFA_XSP16, literal(-7)))
          CFI R7 load(1, XDATA, add(CFA_XSP16, literal(-6)))
          CFI ?RET_LOW load(1, XDATA, add(CFA_XSP16, literal(-5)))
          CFI ?RET_HIGH load(1, XDATA, add(CFA_XSP16, literal(-4)))
          CFI ?BRET_EXT load(1, XDATA, add(CFA_XSP16, literal(-3)))
          CFI DPL0 load(1, XDATA, add(CFA_XSP16, literal(-2)))
          CFI DPH0 load(1, XDATA, add(CFA_XSP16, literal(-1)))
          CFI CFA_SP SP+-2
          CFI CFA_XSP16 add(XSP16, 43)
          CFI Block cfiCond27 Using cfiCommon0
          CFI (cfiCond27) Function zclGp_ProcessInProxyBasic
          CFI (cfiCond27) Conditional ??CrossCallReturnLabel_69
          CFI (cfiCond27) R6 load(1, XDATA, add(CFA_XSP16, literal(-15)))
          CFI (cfiCond27) VB load(1, XDATA, add(CFA_XSP16, literal(-14)))
          CFI (cfiCond27) V0 load(1, XDATA, add(CFA_XSP16, literal(-13)))
          CFI (cfiCond27) V1 load(1, XDATA, add(CFA_XSP16, literal(-12)))
          CFI (cfiCond27) V2 load(1, XDATA, add(CFA_XSP16, literal(-11)))
          CFI (cfiCond27) V3 load(1, XDATA, add(CFA_XSP16, literal(-10)))
          CFI (cfiCond27) V4 load(1, XDATA, add(CFA_XSP16, literal(-9)))
          CFI (cfiCond27) V5 load(1, XDATA, add(CFA_XSP16, literal(-8)))
          CFI (cfiCond27) V6 load(1, XDATA, add(CFA_XSP16, literal(-7)))
          CFI (cfiCond27) R7 load(1, XDATA, add(CFA_XSP16, literal(-6)))
          CFI (cfiCond27) ?RET_LOW load(1, XDATA, add(CFA_XSP16, literal(-5)))
          CFI (cfiCond27) ?RET_HIGH load(1, XDATA, add(CFA_XSP16, literal(-4)))
          CFI (cfiCond27) ?BRET_EXT load(1, XDATA, add(CFA_XSP16, literal(-3)))
          CFI (cfiCond27) DPL0 load(1, XDATA, add(CFA_XSP16, literal(-2)))
          CFI (cfiCond27) DPH0 load(1, XDATA, add(CFA_XSP16, literal(-1)))
          CFI (cfiCond27) CFA_SP SP+-2
          CFI (cfiCond27) CFA_XSP16 add(XSP16, 43)
          CFI Block cfiCond28 Using cfiCommon0
          CFI (cfiCond28) Function zclGp_ProcessInProxyBasic
          CFI (cfiCond28) Conditional ??CrossCallReturnLabel_70
          CFI (cfiCond28) R6 load(1, XDATA, add(CFA_XSP16, literal(-15)))
          CFI (cfiCond28) VB load(1, XDATA, add(CFA_XSP16, literal(-14)))
          CFI (cfiCond28) V0 load(1, XDATA, add(CFA_XSP16, literal(-13)))
          CFI (cfiCond28) V1 load(1, XDATA, add(CFA_XSP16, literal(-12)))
          CFI (cfiCond28) V2 load(1, XDATA, add(CFA_XSP16, literal(-11)))
          CFI (cfiCond28) V3 load(1, XDATA, add(CFA_XSP16, literal(-10)))
          CFI (cfiCond28) V4 load(1, XDATA, add(CFA_XSP16, literal(-9)))
          CFI (cfiCond28) V5 load(1, XDATA, add(CFA_XSP16, literal(-8)))
          CFI (cfiCond28) V6 load(1, XDATA, add(CFA_XSP16, literal(-7)))
          CFI (cfiCond28) R7 load(1, XDATA, add(CFA_XSP16, literal(-6)))
          CFI (cfiCond28) ?RET_LOW load(1, XDATA, add(CFA_XSP16, literal(-5)))
          CFI (cfiCond28) ?RET_HIGH load(1, XDATA, add(CFA_XSP16, literal(-4)))
          CFI (cfiCond28) ?BRET_EXT load(1, XDATA, add(CFA_XSP16, literal(-3)))
          CFI (cfiCond28) DPL0 load(1, XDATA, add(CFA_XSP16, literal(-2)))
          CFI (cfiCond28) DPH0 load(1, XDATA, add(CFA_XSP16, literal(-1)))
          CFI (cfiCond28) CFA_SP SP+-2
          CFI (cfiCond28) CFA_XSP16 add(XSP16, 43)
          CFI Block cfiPicker29 Using cfiCommon1
          CFI (cfiPicker29) NoFunction
          CFI (cfiPicker29) Picker
        MOV       DPL,?V0
        MOV       DPH,?V1
        MOVX      A,@DPTR
        ADD       A,#0x1
          CFI EndBlock cfiCond26
          CFI EndBlock cfiCond27
          CFI EndBlock cfiCond28
          CFI EndBlock cfiPicker29
        REQUIRE ??Subroutine54_0
        ; // Fall through to label ??Subroutine54_0

        RSEG BANKED_CODE:HUGECODE:NOROOT(0)
??Subroutine54_0:
          CFI Block cfiCond30 Using cfiCommon0
          CFI Function zclGp_ProcessInProxyBasic
          CFI Conditional ??CrossCallReturnLabel_66
          CFI R6 load(1, XDATA, add(CFA_XSP16, literal(-15)))
          CFI VB load(1, XDATA, add(CFA_XSP16, literal(-14)))
          CFI V0 load(1, XDATA, add(CFA_XSP16, literal(-13)))
          CFI V1 load(1, XDATA, add(CFA_XSP16, literal(-12)))
          CFI V2 load(1, XDATA, add(CFA_XSP16, literal(-11)))
          CFI V3 load(1, XDATA, add(CFA_XSP16, literal(-10)))
          CFI V4 load(1, XDATA, add(CFA_XSP16, literal(-9)))
          CFI V5 load(1, XDATA, add(CFA_XSP16, literal(-8)))
          CFI V6 load(1, XDATA, add(CFA_XSP16, literal(-7)))
          CFI R7 load(1, XDATA, add(CFA_XSP16, literal(-6)))
          CFI ?RET_LOW load(1, XDATA, add(CFA_XSP16, literal(-5)))
          CFI ?RET_HIGH load(1, XDATA, add(CFA_XSP16, literal(-4)))
          CFI ?BRET_EXT load(1, XDATA, add(CFA_XSP16, literal(-3)))
          CFI DPL0 load(1, XDATA, add(CFA_XSP16, literal(-2)))
          CFI DPH0 load(1, XDATA, add(CFA_XSP16, literal(-1)))
          CFI CFA_SP SP+-2
          CFI CFA_XSP16 add(XSP16, 43)
          CFI Block cfiCond31 Using cfiCommon0
          CFI (cfiCond31) Function zclGp_ProcessInProxyBasic
          CFI (cfiCond31) Conditional ??CrossCallReturnLabel_67
          CFI (cfiCond31) R6 load(1, XDATA, add(CFA_XSP16, literal(-15)))
          CFI (cfiCond31) VB load(1, XDATA, add(CFA_XSP16, literal(-14)))
          CFI (cfiCond31) V0 load(1, XDATA, add(CFA_XSP16, literal(-13)))
          CFI (cfiCond31) V1 load(1, XDATA, add(CFA_XSP16, literal(-12)))
          CFI (cfiCond31) V2 load(1, XDATA, add(CFA_XSP16, literal(-11)))
          CFI (cfiCond31) V3 load(1, XDATA, add(CFA_XSP16, literal(-10)))
          CFI (cfiCond31) V4 load(1, XDATA, add(CFA_XSP16, literal(-9)))
          CFI (cfiCond31) V5 load(1, XDATA, add(CFA_XSP16, literal(-8)))
          CFI (cfiCond31) V6 load(1, XDATA, add(CFA_XSP16, literal(-7)))
          CFI (cfiCond31) R7 load(1, XDATA, add(CFA_XSP16, literal(-6)))
          CFI (cfiCond31) ?RET_LOW load(1, XDATA, add(CFA_XSP16, literal(-5)))
          CFI (cfiCond31) ?RET_HIGH load(1, XDATA, add(CFA_XSP16, literal(-4)))
          CFI (cfiCond31) ?BRET_EXT load(1, XDATA, add(CFA_XSP16, literal(-3)))
          CFI (cfiCond31) DPL0 load(1, XDATA, add(CFA_XSP16, literal(-2)))
          CFI (cfiCond31) DPH0 load(1, XDATA, add(CFA_XSP16, literal(-1)))
          CFI (cfiCond31) CFA_SP SP+-2
          CFI (cfiCond31) CFA_XSP16 add(XSP16, 43)
          CFI Block cfiCond32 Using cfiCommon0
          CFI (cfiCond32) Function zclGp_ProcessInProxyBasic
          CFI (cfiCond32) Conditional ??CrossCallReturnLabel_68
          CFI (cfiCond32) R6 load(1, XDATA, add(CFA_XSP16, literal(-15)))
          CFI (cfiCond32) VB load(1, XDATA, add(CFA_XSP16, literal(-14)))
          CFI (cfiCond32) V0 load(1, XDATA, add(CFA_XSP16, literal(-13)))
          CFI (cfiCond32) V1 load(1, XDATA, add(CFA_XSP16, literal(-12)))
          CFI (cfiCond32) V2 load(1, XDATA, add(CFA_XSP16, literal(-11)))
          CFI (cfiCond32) V3 load(1, XDATA, add(CFA_XSP16, literal(-10)))
          CFI (cfiCond32) V4 load(1, XDATA, add(CFA_XSP16, literal(-9)))
          CFI (cfiCond32) V5 load(1, XDATA, add(CFA_XSP16, literal(-8)))
          CFI (cfiCond32) V6 load(1, XDATA, add(CFA_XSP16, literal(-7)))
          CFI (cfiCond32) R7 load(1, XDATA, add(CFA_XSP16, literal(-6)))
          CFI (cfiCond32) ?RET_LOW load(1, XDATA, add(CFA_XSP16, literal(-5)))
          CFI (cfiCond32) ?RET_HIGH load(1, XDATA, add(CFA_XSP16, literal(-4)))
          CFI (cfiCond32) ?BRET_EXT load(1, XDATA, add(CFA_XSP16, literal(-3)))
          CFI (cfiCond32) DPL0 load(1, XDATA, add(CFA_XSP16, literal(-2)))
          CFI (cfiCond32) DPH0 load(1, XDATA, add(CFA_XSP16, literal(-1)))
          CFI (cfiCond32) CFA_SP SP+-2
          CFI (cfiCond32) CFA_XSP16 add(XSP16, 43)
          CFI Block cfiCond33 Using cfiCommon0
          CFI (cfiCond33) Function zclGp_ProcessInProxyBasic
          CFI (cfiCond33) Conditional ??CrossCallReturnLabel_69
          CFI (cfiCond33) R6 load(1, XDATA, add(CFA_XSP16, literal(-15)))
          CFI (cfiCond33) VB load(1, XDATA, add(CFA_XSP16, literal(-14)))
          CFI (cfiCond33) V0 load(1, XDATA, add(CFA_XSP16, literal(-13)))
          CFI (cfiCond33) V1 load(1, XDATA, add(CFA_XSP16, literal(-12)))
          CFI (cfiCond33) V2 load(1, XDATA, add(CFA_XSP16, literal(-11)))
          CFI (cfiCond33) V3 load(1, XDATA, add(CFA_XSP16, literal(-10)))
          CFI (cfiCond33) V4 load(1, XDATA, add(CFA_XSP16, literal(-9)))
          CFI (cfiCond33) V5 load(1, XDATA, add(CFA_XSP16, literal(-8)))
          CFI (cfiCond33) V6 load(1, XDATA, add(CFA_XSP16, literal(-7)))
          CFI (cfiCond33) R7 load(1, XDATA, add(CFA_XSP16, literal(-6)))
          CFI (cfiCond33) ?RET_LOW load(1, XDATA, add(CFA_XSP16, literal(-5)))
          CFI (cfiCond33) ?RET_HIGH load(1, XDATA, add(CFA_XSP16, literal(-4)))
          CFI (cfiCond33) ?BRET_EXT load(1, XDATA, add(CFA_XSP16, literal(-3)))
          CFI (cfiCond33) DPL0 load(1, XDATA, add(CFA_XSP16, literal(-2)))
          CFI (cfiCond33) DPH0 load(1, XDATA, add(CFA_XSP16, literal(-1)))
          CFI (cfiCond33) CFA_SP SP+-2
          CFI (cfiCond33) CFA_XSP16 add(XSP16, 43)
          CFI Block cfiCond34 Using cfiCommon0
          CFI (cfiCond34) Function zclGp_ProcessInProxyBasic
          CFI (cfiCond34) Conditional ??CrossCallReturnLabel_70
          CFI (cfiCond34) R6 load(1, XDATA, add(CFA_XSP16, literal(-15)))
          CFI (cfiCond34) VB load(1, XDATA, add(CFA_XSP16, literal(-14)))
          CFI (cfiCond34) V0 load(1, XDATA, add(CFA_XSP16, literal(-13)))
          CFI (cfiCond34) V1 load(1, XDATA, add(CFA_XSP16, literal(-12)))
          CFI (cfiCond34) V2 load(1, XDATA, add(CFA_XSP16, literal(-11)))
          CFI (cfiCond34) V3 load(1, XDATA, add(CFA_XSP16, literal(-10)))
          CFI (cfiCond34) V4 load(1, XDATA, add(CFA_XSP16, literal(-9)))
          CFI (cfiCond34) V5 load(1, XDATA, add(CFA_XSP16, literal(-8)))
          CFI (cfiCond34) V6 load(1, XDATA, add(CFA_XSP16, literal(-7)))
          CFI (cfiCond34) R7 load(1, XDATA, add(CFA_XSP16, literal(-6)))
          CFI (cfiCond34) ?RET_LOW load(1, XDATA, add(CFA_XSP16, literal(-5)))
          CFI (cfiCond34) ?RET_HIGH load(1, XDATA, add(CFA_XSP16, literal(-4)))
          CFI (cfiCond34) ?BRET_EXT load(1, XDATA, add(CFA_XSP16, literal(-3)))
          CFI (cfiCond34) DPL0 load(1, XDATA, add(CFA_XSP16, literal(-2)))
          CFI (cfiCond34) DPH0 load(1, XDATA, add(CFA_XSP16, literal(-1)))
          CFI (cfiCond34) CFA_SP SP+-2
          CFI (cfiCond34) CFA_XSP16 add(XSP16, 43)
          CFI Block cfiPicker35 Using cfiCommon1
          CFI (cfiPicker35) NoFunction
          CFI (cfiPicker35) Picker
        MOV       R0,A
        INC       DPTR
        MOVX      A,@DPTR
        ADDC      A,#0x0
        MOV       R1,A
        MOV       DPL,?V0
        MOV       DPH,?V1
        MOV       A,R0
        MOVX      @DPTR,A
        INC       DPTR
        MOV       A,R1
        MOVX      @DPTR,A
        RET
          CFI EndBlock cfiCond30
          CFI EndBlock cfiCond31
          CFI EndBlock cfiCond32
          CFI EndBlock cfiCond33
          CFI EndBlock cfiCond34
          CFI EndBlock cfiPicker35
//  383 
//  384 /*********************************************************************
//  385  * @fn      zclGp_SendGpNotificationCommand
//  386  *
//  387  * @brief   Send the Green Power Notification Command to a device
//  388  *
//  389  * @param   pCmd - Pointer to GP Notification Struct
//  390  *          secNum - Sequence number given by the GPDF  
//  391  *
//  392  * @return  ZStatus_t
//  393  */

        RSEG BANKED_CODE:HUGECODE:NOROOT(0)
//  394 ZStatus_t zclGp_SendGpNotificationCommand( gpNotificationCmd_t *pCmd, uint8 secNum )
zclGp_SendGpNotificationCommand:
          CFI Block cfiBlock36 Using cfiCommon0
          CFI Function zclGp_SendGpNotificationCommand
        CODE
//  395 {
        FUNCALL zclGp_SendGpNotificationCommand, osal_mem_alloc
        LOCFRAME ISTACK, 0, STACK
        LOCFRAME PSTACK, 0, STACK
        LOCFRAME XSTACK, 22, STACK
        LOCFRAME IOVERLAY, 0, STATIC
        LOCFRAME DOVERLAY, 0, STATIC
        ARGFRAME ISTACK, 0, STACK
        ARGFRAME PSTACK, 0, STACK
        ARGFRAME XSTACK, 22, STACK
        ARGFRAME IOVERLAY, 0, STATIC
        ARGFRAME DOVERLAY, 0, STATIC
        FUNCALL zclGp_SendGpNotificationCommand, osal_memcpy
        LOCFRAME ISTACK, 0, STACK
        LOCFRAME PSTACK, 0, STACK
        LOCFRAME XSTACK, 25, STACK
        LOCFRAME IOVERLAY, 0, STATIC
        LOCFRAME DOVERLAY, 0, STATIC
        ARGFRAME ISTACK, 0, STACK
        ARGFRAME PSTACK, 0, STACK
        ARGFRAME XSTACK, 25, STACK
        ARGFRAME IOVERLAY, 0, STATIC
        ARGFRAME DOVERLAY, 0, STATIC
        FUNCALL zclGp_SendGpNotificationCommand, osal_memcpy
        LOCFRAME ISTACK, 0, STACK
        LOCFRAME PSTACK, 0, STACK
        LOCFRAME XSTACK, 25, STACK
        LOCFRAME IOVERLAY, 0, STATIC
        LOCFRAME DOVERLAY, 0, STATIC
        ARGFRAME ISTACK, 0, STACK
        ARGFRAME PSTACK, 0, STACK
        ARGFRAME XSTACK, 25, STACK
        ARGFRAME IOVERLAY, 0, STATIC
        ARGFRAME DOVERLAY, 0, STATIC
        FUNCALL zclGp_SendGpNotificationCommand, osal_memcpy
        LOCFRAME ISTACK, 0, STACK
        LOCFRAME PSTACK, 0, STACK
        LOCFRAME XSTACK, 25, STACK
        LOCFRAME IOVERLAY, 0, STATIC
        LOCFRAME DOVERLAY, 0, STATIC
        ARGFRAME ISTACK, 0, STACK
        ARGFRAME PSTACK, 0, STACK
        ARGFRAME XSTACK, 25, STACK
        ARGFRAME IOVERLAY, 0, STATIC
        ARGFRAME DOVERLAY, 0, STATIC
        FUNCALL zclGp_SendGpNotificationCommand, osal_memcpy
        LOCFRAME ISTACK, 0, STACK
        LOCFRAME PSTACK, 0, STACK
        LOCFRAME XSTACK, 25, STACK
        LOCFRAME IOVERLAY, 0, STATIC
        LOCFRAME DOVERLAY, 0, STATIC
        ARGFRAME ISTACK, 0, STACK
        ARGFRAME PSTACK, 0, STACK
        ARGFRAME XSTACK, 25, STACK
        ARGFRAME IOVERLAY, 0, STATIC
        ARGFRAME DOVERLAY, 0, STATIC
        FUNCALL zclGp_SendGpNotificationCommand, osal_memcpy
        LOCFRAME ISTACK, 0, STACK
        LOCFRAME PSTACK, 0, STACK
        LOCFRAME XSTACK, 25, STACK
        LOCFRAME IOVERLAY, 0, STATIC
        LOCFRAME DOVERLAY, 0, STATIC
        ARGFRAME ISTACK, 0, STACK
        ARGFRAME PSTACK, 0, STACK
        ARGFRAME XSTACK, 25, STACK
        ARGFRAME IOVERLAY, 0, STATIC
        ARGFRAME DOVERLAY, 0, STATIC
        FUNCALL zclGp_SendGpNotificationCommand, osal_memcpy
        LOCFRAME ISTACK, 0, STACK
        LOCFRAME PSTACK, 0, STACK
        LOCFRAME XSTACK, 25, STACK
        LOCFRAME IOVERLAY, 0, STATIC
        LOCFRAME DOVERLAY, 0, STATIC
        ARGFRAME ISTACK, 0, STACK
        ARGFRAME PSTACK, 0, STACK
        ARGFRAME XSTACK, 25, STACK
        ARGFRAME IOVERLAY, 0, STATIC
        ARGFRAME DOVERLAY, 0, STATIC
        FUNCALL zclGp_SendGpNotificationCommand, gp_AddCmdPayloadMsgNode
        LOCFRAME ISTACK, 0, STACK
        LOCFRAME PSTACK, 0, STACK
        LOCFRAME XSTACK, 22, STACK
        LOCFRAME IOVERLAY, 0, STATIC
        LOCFRAME DOVERLAY, 0, STATIC
        ARGFRAME ISTACK, 0, STACK
        ARGFRAME PSTACK, 0, STACK
        ARGFRAME XSTACK, 22, STACK
        ARGFRAME IOVERLAY, 0, STATIC
        ARGFRAME DOVERLAY, 0, STATIC
        FUNCALL zclGp_SendGpNotificationCommand, gp_addPairedSinksToMsgQueue
        LOCFRAME ISTACK, 0, STACK
        LOCFRAME PSTACK, 0, STACK
        LOCFRAME XSTACK, 22, STACK
        LOCFRAME IOVERLAY, 0, STATIC
        LOCFRAME DOVERLAY, 0, STATIC
        ARGFRAME ISTACK, 0, STACK
        ARGFRAME PSTACK, 0, STACK
        ARGFRAME XSTACK, 22, STACK
        ARGFRAME IOVERLAY, 0, STATIC
        ARGFRAME DOVERLAY, 0, STATIC
        FUNCALL zclGp_SendGpNotificationCommand, osal_start_timerEx
        LOCFRAME ISTACK, 0, STACK
        LOCFRAME PSTACK, 0, STACK
        LOCFRAME XSTACK, 26, STACK
        LOCFRAME IOVERLAY, 0, STATIC
        LOCFRAME DOVERLAY, 0, STATIC
        ARGFRAME ISTACK, 0, STACK
        ARGFRAME PSTACK, 0, STACK
        ARGFRAME XSTACK, 26, STACK
        ARGFRAME IOVERLAY, 0, STATIC
        ARGFRAME DOVERLAY, 0, STATIC
        REQUIRE ?V0
        REQUIRE ?V1
        REQUIRE ?V2
        REQUIRE ?V3
        REQUIRE ?V4
        REQUIRE ?V5
        REQUIRE ?V6
        REQUIRE ?V7
        MOV       A,#-0x10
        LCALL     ?BANKED_ENTER_XDATA
          CFI DPH0 load(1, XDATA, add(CFA_XSP16, literal(-1)))
          CFI DPL0 load(1, XDATA, add(CFA_XSP16, literal(-2)))
          CFI ?BRET_EXT load(1, XDATA, add(CFA_XSP16, literal(-3)))
          CFI ?RET_HIGH load(1, XDATA, add(CFA_XSP16, literal(-4)))
          CFI ?RET_LOW load(1, XDATA, add(CFA_XSP16, literal(-5)))
          CFI R7 load(1, XDATA, add(CFA_XSP16, literal(-6)))
          CFI V7 load(1, XDATA, add(CFA_XSP16, literal(-7)))
          CFI V6 load(1, XDATA, add(CFA_XSP16, literal(-8)))
          CFI V5 load(1, XDATA, add(CFA_XSP16, literal(-9)))
          CFI V4 load(1, XDATA, add(CFA_XSP16, literal(-10)))
          CFI V3 load(1, XDATA, add(CFA_XSP16, literal(-11)))
          CFI V2 load(1, XDATA, add(CFA_XSP16, literal(-12)))
          CFI V1 load(1, XDATA, add(CFA_XSP16, literal(-13)))
          CFI V0 load(1, XDATA, add(CFA_XSP16, literal(-14)))
          CFI VB load(1, XDATA, add(CFA_XSP16, literal(-15)))
          CFI R6 load(1, XDATA, add(CFA_XSP16, literal(-16)))
          CFI CFA_SP SP+0
          CFI CFA_XSP16 add(XSP16, 16)
        ; Saved register size: 16
        ; Auto size: 6
        MOV       A,#-0x6
        LCALL     ?ALLOC_XSTACK8
          CFI CFA_XSP16 add(XSP16, 22)
        MOV       A,#0x5
        LCALL     ?XSTACK_DISP0_8
        MOV       A,R1
        MOVX      @DPTR,A
        MOV       ?V6,R2
        MOV       ?V7,R3
//  396   uint8 *buf = NULL;
//  397   uint8 *pBuf = NULL;
//  398   uint8 *pGpdId = NULL;
        MOV       A,#0x3
        LCALL     ?XSTACK_DISP0_8
        CLR       A
        MOVX      @DPTR,A
        INC       DPTR
        MOVX      @DPTR,A
//  399   uint8 appId;
//  400   ZStatus_t status;
//  401   uint16 len = 11;  // options + GPD Sec Counter + Cmd ID + payloadLen + GPP Short Address + GPP-GPD link
        MOV       ?V4,#0xb
        MOV       DPL,R2
        MOV       DPH,R3
        MOVX      A,@DPTR
        ANL       A,#0x7
        MOV       R0,A
        JNZ       ??zclGp_SendGpNotificationCommand_0
//  402   gpCmdPayloadMsg_t *pCmdPayloadMsgCurr = NULL;
//  403   
//  404   // Check some stuff to calculate the packet len
//  405   // If Application Id bitfield is 0b000
//  406   if( GP_IS_APPLICATION_ID_GPD( pCmd->options ) )
//  407   {
//  408     len += 4;  // GPD ID
        MOV       ?V4,#0xf
        SJMP      ??zclGp_SendGpNotificationCommand_1
//  409   }
//  410   // If Application Id bitfield is 0b010
//  411   else if( GP_IS_APPLICATION_ID_IEEE( pCmd->options ) )
??zclGp_SendGpNotificationCommand_0:
        MOV       A,#0x2
        XRL       A,R0
        JNZ       ??zclGp_SendGpNotificationCommand_1
//  412   {
//  413     len += 9;  // IEEE addr + EP
        MOV       ?V4,#0x14
//  414   }
??zclGp_SendGpNotificationCommand_1:
        LCALL     ?Subroutine25 & 0xFFFF
//  415   
//  416   // Length of the command payload
//  417   len += pCmd->payloadLen;
//  418 
//  419   buf = zcl_mem_alloc( len );
??CrossCallReturnLabel_21:
        ; Setup parameters for call to function osal_mem_alloc
        MOV       R2,?V4
        MOV       R3,A
        LCALL     `??osal_mem_alloc::?relay`; Banked call to: osal_mem_alloc
        MOV       A,#0x1
        LCALL     ?XSTACK_DISP0_8
        LCALL     ??Subroutine64_0 & 0xFFFF
//  420   if ( buf )
??CrossCallReturnLabel_131:
        MOV       A,#0x1
        LCALL     ?XSTACK_DISP0_8
        LCALL     ??Subroutine68_0 & 0xFFFF
??CrossCallReturnLabel_145:
        JNZ       $+5
        LJMP      ??zclGp_SendGpNotificationCommand_2 & 0xFFFF
//  421   {
//  422     pBuf = buf;
//  423     
//  424     zcl_memcpy( pBuf, &pCmd->options, sizeof ( uint16 ) );
        ; Setup parameters for call to function osal_memcpy
        MOV       ?V0,?V6
        MOV       ?V1,?V7
        MOV       ?V2,#0x0
        MOV       R0,#?V0
        LCALL     ?PUSH_XSTACK_I_THREE
          CFI CFA_XSP16 add(XSP16, 25)
        MOV       R4,#0x2
        MOV       R5,#0x0
        MOV       A,#0x4
        LCALL     ?XSTACK_DISP0_8
        LCALL     ?Subroutine26 & 0xFFFF
??CrossCallReturnLabel_23:
        LCALL     ?DEALLOC_XSTACK8
          CFI CFA_XSP16 add(XSP16, 22)
//  425     pBuf += sizeof ( uint16 );
        MOV       A,#0x1
        LCALL     ?XSTACK_DISP0_8
        LCALL     ?Subroutine13 & 0xFFFF
??CrossCallReturnLabel_7:
        JNZ       ??zclGp_SendGpNotificationCommand_3
        ; Setup parameters for call to function osal_memcpy
        INC       DPTR
        INC       DPTR
        MOV       R1,DPL
        MOV       R2,DPH
        MOV       ?V0,R1
        MOV       ?V1,R2
        MOV       R0,#?V0
        LCALL     ?PUSH_XSTACK_I_THREE
          CFI CFA_XSP16 add(XSP16, 25)
        LCALL     ?Subroutine38 & 0xFFFF
??CrossCallReturnLabel_174:
        LCALL     ?DEALLOC_XSTACK8
          CFI CFA_XSP16 add(XSP16, 22)
//  426     
//  427     // If Application Id bitfield is 0b000
//  428     if( GP_IS_APPLICATION_ID_GPD( pCmd->options ) )
//  429     {
//  430       zcl_memcpy( pBuf, &pCmd->gpdId, sizeof ( uint32 ) );
//  431       pGpdId = ( uint8* )&pCmd->gpdId;
        MOV       A,?V6
        ADD       A,#0x2
        MOV       R0,A
        CLR       A
        ADDC      A,?V7
        MOV       R1,A
        MOV       A,#0x3
        LCALL     ?XSTACK_DISP0_8
        LCALL     ?Subroutine32 & 0xFFFF
//  432       appId = GP_OPT_APP_ID_GPD;
??CrossCallReturnLabel_34:
        MOV       ?V3,#0x0
//  433       pBuf += sizeof ( uint32 );
        MOV       A,R6
        ADD       A,#0x4
        SJMP      ??CrossCallReturnLabel_11
//  434     }
//  435     // If Application Id bitfield is 0b010
//  436     else if( GP_IS_APPLICATION_ID_IEEE( pCmd->options ) )
??zclGp_SendGpNotificationCommand_3:
        MOV       A,#0x2
        XRL       A,R0
        JNZ       ??zclGp_SendGpNotificationCommand_4
        ; Setup parameters for call to function osal_memcpy
        LCALL     ?Subroutine37 & 0xFFFF
??CrossCallReturnLabel_48:
        LCALL     ?PUSH_XSTACK_I_THREE
          CFI CFA_XSP16 add(XSP16, 25)
        MOV       R4,#0x8
        LCALL     ??Subroutine70_0 & 0xFFFF
??CrossCallReturnLabel_178:
        LCALL     ?DEALLOC_XSTACK8
          CFI CFA_XSP16 add(XSP16, 22)
//  437     {
//  438       zcl_memcpy( pBuf, &pCmd->gpdIEEE, Z_EXTADDR_LEN );
//  439       pGpdId = pCmd->gpdIEEE;
        MOV       A,?V6
        ADD       A,#0x6
        MOV       R0,A
        CLR       A
        ADDC      A,?V7
        MOV       R1,A
        MOV       A,#0x3
        LCALL     ?XSTACK_DISP0_8
        LCALL     ?Subroutine32 & 0xFFFF
//  440       appId = GP_OPT_APP_ID_IEEE;
??CrossCallReturnLabel_35:
        MOV       ?V3,#0x2
//  441       pBuf += Z_EXTADDR_LEN;
//  442       *pBuf++ = pCmd->ep;
        LCALL     ?Subroutine17 & 0xFFFF
//  443     }
??CrossCallReturnLabel_11:
        MOV       R6,A
        JNC       ??zclGp_SendGpNotificationCommand_4
        INC       R7
//  444     
//  445     zcl_memcpy( pBuf, &pCmd->gpdSecCounter, sizeof ( uint32 ) );
??zclGp_SendGpNotificationCommand_4:
        ; Setup parameters for call to function osal_memcpy
        LCALL     ?Subroutine39 & 0xFFFF
??CrossCallReturnLabel_75:
        LCALL     ?PUSH_XSTACK_I_THREE
          CFI CFA_XSP16 add(XSP16, 25)
        LCALL     ?Subroutine38 & 0xFFFF
??CrossCallReturnLabel_175:
        LCALL     ?DEALLOC_XSTACK8
          CFI CFA_XSP16 add(XSP16, 22)
//  446     pBuf += sizeof ( uint32 );
//  447 
//  448     *pBuf++ = pCmd->cmdId;
        LCALL     ?Subroutine9 & 0xFFFF
//  449     
//  450     *pBuf++ = pCmd->payloadLen;
??CrossCallReturnLabel_3:
        JNC       ??zclGp_SendGpNotificationCommand_5
        INC       R7
//  451     if ( pCmd->payloadLen > 0 )
??zclGp_SendGpNotificationCommand_5:
        LCALL     ?Subroutine36 & 0xFFFF
??CrossCallReturnLabel_46:
        JZ        ??CrossCallReturnLabel_25
//  452     {
//  453       zcl_memcpy( pBuf, &pCmd->cmdPayload, pCmd->payloadLen );
        ; Setup parameters for call to function osal_memcpy
        MOV       A,?V6
        ADD       A,#0x15
        LCALL     ??Subroutine55_0 & 0xFFFF
??CrossCallReturnLabel_71:
        LCALL     ?PUSH_XSTACK_I_THREE
          CFI CFA_XSP16 add(XSP16, 25)
        MOV       A,R1
        MOV       R4,A
        LCALL     ??Subroutine70_0 & 0xFFFF
??CrossCallReturnLabel_179:
        LCALL     ?DEALLOC_XSTACK8
          CFI CFA_XSP16 add(XSP16, 22)
//  454       pBuf += pCmd->payloadLen;
        LCALL     ?Subroutine29 & 0xFFFF
//  455     }
//  456     
//  457     zcl_memcpy( pBuf, &pCmd->gppShortAddr, sizeof ( uint16 ) );
??CrossCallReturnLabel_25:
        ; Setup parameters for call to function osal_memcpy
        MOV       A,?V6
        ADD       A,#0x17
        LCALL     ??Subroutine55_0 & 0xFFFF
??CrossCallReturnLabel_72:
        LCALL     ?PUSH_XSTACK_I_THREE
          CFI CFA_XSP16 add(XSP16, 25)
        MOV       R4,#0x2
        LCALL     ??Subroutine70_0 & 0xFFFF
??CrossCallReturnLabel_180:
        LCALL     ?DEALLOC_XSTACK8
          CFI CFA_XSP16 add(XSP16, 22)
//  458     pBuf += sizeof ( uint16 );
//  459     
//  460     *pBuf++ = pCmd->gppGpdLink;
        LCALL     ?Subroutine30 & 0xFFFF
//  461     
//  462     pCmdPayloadMsgCurr = gp_AddCmdPayloadMsgNode ( &pCmdPayloadMsgHead, buf, len );
??CrossCallReturnLabel_27:
        ; Setup parameters for call to function gp_AddCmdPayloadMsgNode
        MOV       R1,?V4
        MOV       A,#0x1
        LCALL     ?XSTACK_DISP0_8
        LCALL     ??Subroutine63_0 & 0xFFFF
??CrossCallReturnLabel_123:
        MOV       R2,#pCmdPayloadMsgHead & 0xff
        MOV       R3,#(pCmdPayloadMsgHead >> 8) & 0xff
        LCALL     `??gp_AddCmdPayloadMsgNode::?relay`; Banked call to: gp_AddCmdPayloadMsgNode
        MOV       ?V0,R2
        MOV       ?V1,R3
        MOV       R4,?V0
        MOV       R5,?V1
//  463     
//  464     pCmdPayloadMsgCurr->secNum = secNum;
        MOV       A,#0x5
        LCALL     ?XSTACK_DISP0_8
        LCALL     ??Subroutine58_0 & 0xFFFF
??CrossCallReturnLabel_94:
        MOVX      @DPTR,A
//  465           
//  466     if ( pCmdPayloadMsgCurr != NULL )
        MOV       A,R2
        ORL       A,R5
        JZ        ??zclGp_SendGpNotificationCommand_6
//  467     {
//  468       gp_addPairedSinksToMsgQueue( appId, pGpdId, pCmdPayloadMsgCurr );
        ; Setup parameters for call to function gp_addPairedSinksToMsgQueue
        MOV       A,#0x3
        LCALL     ?XSTACK_DISP0_8
        LCALL     ??Subroutine69_0 & 0xFFFF
??CrossCallReturnLabel_162:
        MOV       R1,?V3
        LCALL     `??gp_addPairedSinksToMsgQueue::?relay`; Banked call to: gp_addPairedSinksToMsgQueue
//  469       osal_start_timerEx( zcl_TaskID, ZCL_DATABUF_SEND, 50 );
        ; Setup parameters for call to function osal_start_timerEx
        MOV       DPTR,#__Constant_32
        LCALL     ?PUSH_XSTACK8_X_FOUR
          CFI CFA_XSP16 add(XSP16, 26)
        MOV       R2,#0x20
        MOV       R3,#0x0
        MOV       DPTR,#zcl_TaskID
        MOVX      A,@DPTR
        MOV       R1,A
        LCALL     `??osal_start_timerEx::?relay`; Banked call to: osal_start_timerEx
        MOV       A,#0x4
        LCALL     ?DEALLOC_XSTACK8
          CFI CFA_XSP16 add(XSP16, 22)
        SJMP      ??zclGp_SendGpNotificationCommand_6
//  470     }
//  471 
//  472   }
//  473   else
//  474     status = ZMemError;
??zclGp_SendGpNotificationCommand_2:
        MOV       DPL,?XSP + 0
        MOV       DPH,?XSP + 1
        MOV       A,#0x10
        MOVX      @DPTR,A
//  475 
//  476   return ( status );
??zclGp_SendGpNotificationCommand_6:
        MOV       DPL,?XSP + 0
        MOV       DPH,?XSP + 1
        MOVX      A,@DPTR
        MOV       R1,A
        MOV       A,#0x6
          CFI EndBlock cfiBlock36
        REQUIRE ?Subroutine3
        ; // Fall through to label ?Subroutine3
//  477 }

        RSEG BANKED_CODE:HUGECODE:NOROOT(0)
?Subroutine3:
          CFI Block cfiBlock37 Using cfiCommon0
          CFI NoFunction
          CFI CFA_SP SP+0
          CFI CFA_XSP16 add(XSP16, 22)
          CFI VB load(1, XDATA, add(CFA_XSP16, literal(-15)))
          CFI DPL0 load(1, XDATA, add(CFA_XSP16, literal(-2)))
          CFI DPH0 load(1, XDATA, add(CFA_XSP16, literal(-1)))
          CFI R6 load(1, XDATA, add(CFA_XSP16, literal(-16)))
          CFI R7 load(1, XDATA, add(CFA_XSP16, literal(-6)))
          CFI V0 load(1, XDATA, add(CFA_XSP16, literal(-14)))
          CFI V1 load(1, XDATA, add(CFA_XSP16, literal(-13)))
          CFI V2 load(1, XDATA, add(CFA_XSP16, literal(-12)))
          CFI V3 load(1, XDATA, add(CFA_XSP16, literal(-11)))
          CFI V4 load(1, XDATA, add(CFA_XSP16, literal(-10)))
          CFI V5 load(1, XDATA, add(CFA_XSP16, literal(-9)))
          CFI V6 load(1, XDATA, add(CFA_XSP16, literal(-8)))
          CFI V7 load(1, XDATA, add(CFA_XSP16, literal(-7)))
          CFI ?BRET_EXT load(1, XDATA, add(CFA_XSP16, literal(-3)))
          CFI ?RET_HIGH load(1, XDATA, add(CFA_XSP16, literal(-4)))
          CFI ?RET_LOW load(1, XDATA, add(CFA_XSP16, literal(-5)))
          CFI Invalid
        LCALL     ?DEALLOC_XSTACK8
          CFI CFA_XSP16 add(XSP16, 16)
          CFI Valid
        MOV       R7,#0x8
        LJMP      ?BANKED_LEAVE_XDATA
          CFI EndBlock cfiBlock37
//  478   
//  479 /*********************************************************************
//  480  * @fn      zclGp_SendGpCommissioningNotificationCommand
//  481  *
//  482  * @brief   Send the Green Power Commissioning Notification Command to a device
//  483  *
//  484  * @param   pCmd - Pointer to GP Commissioning Notification Struct
//  485  *
//  486  * @return  ZStatus_t
//  487  */

        RSEG BANKED_CODE:HUGECODE:NOROOT(0)
//  488 ZStatus_t zclGp_SendGpCommissioningNotificationCommand( gpCommissioningNotificationCmd_t *pCmd )
zclGp_SendGpCommissioningNotificationCommand:
          CFI Block cfiBlock38 Using cfiCommon0
          CFI Function zclGp_SendGpCommissioningNotificationCommand
        CODE
//  489 {
        FUNCALL zclGp_SendGpCommissioningNotificationCommand, osal_mem_alloc
        LOCFRAME ISTACK, 0, STACK
        LOCFRAME PSTACK, 0, STACK
        LOCFRAME XSTACK, 30, STACK
        LOCFRAME IOVERLAY, 0, STATIC
        LOCFRAME DOVERLAY, 0, STATIC
        ARGFRAME ISTACK, 0, STACK
        ARGFRAME PSTACK, 0, STACK
        ARGFRAME XSTACK, 30, STACK
        ARGFRAME IOVERLAY, 0, STATIC
        ARGFRAME DOVERLAY, 0, STATIC
        FUNCALL zclGp_SendGpCommissioningNotificationCommand, osal_memcpy
        LOCFRAME ISTACK, 0, STACK
        LOCFRAME PSTACK, 0, STACK
        LOCFRAME XSTACK, 33, STACK
        LOCFRAME IOVERLAY, 0, STATIC
        LOCFRAME DOVERLAY, 0, STATIC
        ARGFRAME ISTACK, 0, STACK
        ARGFRAME PSTACK, 0, STACK
        ARGFRAME XSTACK, 33, STACK
        ARGFRAME IOVERLAY, 0, STATIC
        ARGFRAME DOVERLAY, 0, STATIC
        FUNCALL zclGp_SendGpCommissioningNotificationCommand, osal_memcpy
        LOCFRAME ISTACK, 0, STACK
        LOCFRAME PSTACK, 0, STACK
        LOCFRAME XSTACK, 33, STACK
        LOCFRAME IOVERLAY, 0, STATIC
        LOCFRAME DOVERLAY, 0, STATIC
        ARGFRAME ISTACK, 0, STACK
        ARGFRAME PSTACK, 0, STACK
        ARGFRAME XSTACK, 33, STACK
        ARGFRAME IOVERLAY, 0, STATIC
        ARGFRAME DOVERLAY, 0, STATIC
        FUNCALL zclGp_SendGpCommissioningNotificationCommand, osal_memcpy
        LOCFRAME ISTACK, 0, STACK
        LOCFRAME PSTACK, 0, STACK
        LOCFRAME XSTACK, 33, STACK
        LOCFRAME IOVERLAY, 0, STATIC
        LOCFRAME DOVERLAY, 0, STATIC
        ARGFRAME ISTACK, 0, STACK
        ARGFRAME PSTACK, 0, STACK
        ARGFRAME XSTACK, 33, STACK
        ARGFRAME IOVERLAY, 0, STATIC
        ARGFRAME DOVERLAY, 0, STATIC
        FUNCALL zclGp_SendGpCommissioningNotificationCommand, osal_memcpy
        LOCFRAME ISTACK, 0, STACK
        LOCFRAME PSTACK, 0, STACK
        LOCFRAME XSTACK, 33, STACK
        LOCFRAME IOVERLAY, 0, STATIC
        LOCFRAME DOVERLAY, 0, STATIC
        ARGFRAME ISTACK, 0, STACK
        ARGFRAME PSTACK, 0, STACK
        ARGFRAME XSTACK, 33, STACK
        ARGFRAME IOVERLAY, 0, STATIC
        ARGFRAME DOVERLAY, 0, STATIC
        FUNCALL zclGp_SendGpCommissioningNotificationCommand, osal_memcpy
        LOCFRAME ISTACK, 0, STACK
        LOCFRAME PSTACK, 0, STACK
        LOCFRAME XSTACK, 33, STACK
        LOCFRAME IOVERLAY, 0, STATIC
        LOCFRAME DOVERLAY, 0, STATIC
        ARGFRAME ISTACK, 0, STACK
        ARGFRAME PSTACK, 0, STACK
        ARGFRAME XSTACK, 33, STACK
        ARGFRAME IOVERLAY, 0, STATIC
        ARGFRAME DOVERLAY, 0, STATIC
        FUNCALL zclGp_SendGpCommissioningNotificationCommand, osal_memcpy
        LOCFRAME ISTACK, 0, STACK
        LOCFRAME PSTACK, 0, STACK
        LOCFRAME XSTACK, 33, STACK
        LOCFRAME IOVERLAY, 0, STATIC
        LOCFRAME DOVERLAY, 0, STATIC
        ARGFRAME ISTACK, 0, STACK
        ARGFRAME PSTACK, 0, STACK
        ARGFRAME XSTACK, 33, STACK
        ARGFRAME IOVERLAY, 0, STATIC
        ARGFRAME DOVERLAY, 0, STATIC
        FUNCALL zclGp_SendGpCommissioningNotificationCommand, bdb_getZCLFrameCounter
        LOCFRAME ISTACK, 0, STACK
        LOCFRAME PSTACK, 0, STACK
        LOCFRAME XSTACK, 30, STACK
        LOCFRAME IOVERLAY, 0, STATIC
        LOCFRAME DOVERLAY, 0, STATIC
        ARGFRAME ISTACK, 0, STACK
        ARGFRAME PSTACK, 0, STACK
        ARGFRAME XSTACK, 30, STACK
        ARGFRAME IOVERLAY, 0, STATIC
        ARGFRAME DOVERLAY, 0, STATIC
        FUNCALL zclGp_SendGpCommissioningNotificationCommand, zcl_SendCommand
        LOCFRAME ISTACK, 0, STACK
        LOCFRAME PSTACK, 0, STACK
        LOCFRAME XSTACK, 41, STACK
        LOCFRAME IOVERLAY, 0, STATIC
        LOCFRAME DOVERLAY, 0, STATIC
        ARGFRAME ISTACK, 0, STACK
        ARGFRAME PSTACK, 0, STACK
        ARGFRAME XSTACK, 41, STACK
        ARGFRAME IOVERLAY, 0, STATIC
        ARGFRAME DOVERLAY, 0, STATIC
        FUNCALL zclGp_SendGpCommissioningNotificationCommand, osal_mem_free
        LOCFRAME ISTACK, 0, STACK
        LOCFRAME PSTACK, 0, STACK
        LOCFRAME XSTACK, 30, STACK
        LOCFRAME IOVERLAY, 0, STATIC
        LOCFRAME DOVERLAY, 0, STATIC
        ARGFRAME ISTACK, 0, STACK
        ARGFRAME PSTACK, 0, STACK
        ARGFRAME XSTACK, 30, STACK
        ARGFRAME IOVERLAY, 0, STATIC
        ARGFRAME DOVERLAY, 0, STATIC
        REQUIRE ?V0
        REQUIRE ?V1
        REQUIRE ?V2
        REQUIRE ?V3
        REQUIRE ?V4
        REQUIRE ?V5
        REQUIRE ?V6
        REQUIRE ?V7
        MOV       A,#-0x10
        LCALL     ?BANKED_ENTER_XDATA
          CFI DPH0 load(1, XDATA, add(CFA_XSP16, literal(-1)))
          CFI DPL0 load(1, XDATA, add(CFA_XSP16, literal(-2)))
          CFI ?BRET_EXT load(1, XDATA, add(CFA_XSP16, literal(-3)))
          CFI ?RET_HIGH load(1, XDATA, add(CFA_XSP16, literal(-4)))
          CFI ?RET_LOW load(1, XDATA, add(CFA_XSP16, literal(-5)))
          CFI R7 load(1, XDATA, add(CFA_XSP16, literal(-6)))
          CFI V7 load(1, XDATA, add(CFA_XSP16, literal(-7)))
          CFI V6 load(1, XDATA, add(CFA_XSP16, literal(-8)))
          CFI V5 load(1, XDATA, add(CFA_XSP16, literal(-9)))
          CFI V4 load(1, XDATA, add(CFA_XSP16, literal(-10)))
          CFI V3 load(1, XDATA, add(CFA_XSP16, literal(-11)))
          CFI V2 load(1, XDATA, add(CFA_XSP16, literal(-12)))
          CFI V1 load(1, XDATA, add(CFA_XSP16, literal(-13)))
          CFI V0 load(1, XDATA, add(CFA_XSP16, literal(-14)))
          CFI VB load(1, XDATA, add(CFA_XSP16, literal(-15)))
          CFI R6 load(1, XDATA, add(CFA_XSP16, literal(-16)))
          CFI CFA_SP SP+0
          CFI CFA_XSP16 add(XSP16, 16)
        ; Saved register size: 16
        ; Auto size: 14
        MOV       A,#-0xe
        LCALL     ?ALLOC_XSTACK8
          CFI CFA_XSP16 add(XSP16, 30)
        MOV       ?V6,R2
        MOV       ?V7,R3
//  490   uint8 *buf = NULL;
//  491   uint8 *pBuf = NULL;
//  492   ZStatus_t status;
//  493   uint16 len = 11;  // options + GPD Sec Counter + Cmd ID + payloadLen + GPP Short Address + GPP-GPD link
        MOV       ?V4,#0xb
        MOV       DPL,R2
        MOV       DPH,R3
        MOVX      A,@DPTR
        ANL       A,#0x7
        MOV       R0,A
        JNZ       ??zclGp_SendGpCommissioningNotificationCommand_0
//  494   
//  495   // Check some stuff to calculate the packet len
//  496   // If Application Id bitfield is 0b000
//  497   if( GP_IS_APPLICATION_ID_GPD( pCmd->options ) )
//  498   {
//  499     len += 4;  // GPD ID
        MOV       ?V4,#0xf
        SJMP      ??zclGp_SendGpCommissioningNotificationCommand_1
//  500   }
//  501   // If Application Id bitfield is 0b010
//  502   else if( GP_IS_APPLICATION_ID_IEEE( pCmd->options ) )
??zclGp_SendGpCommissioningNotificationCommand_0:
        MOV       A,#0x2
        XRL       A,R0
        JNZ       ??zclGp_SendGpCommissioningNotificationCommand_1
//  503   {
//  504     len += 9;  // IEEE addr + EP
        MOV       ?V4,#0x14
//  505   }
??zclGp_SendGpCommissioningNotificationCommand_1:
        LCALL     ?Subroutine25 & 0xFFFF
??CrossCallReturnLabel_22:
        MOV       ?V5,A
//  506   
//  507   // Length of the command payload
//  508   len += pCmd->payloadLen;
//  509 
//  510   buf = zcl_mem_alloc( len );
        ; Setup parameters for call to function osal_mem_alloc
        MOV       R2,?V4
        MOV       R3,A
        LCALL     `??osal_mem_alloc::?relay`; Banked call to: osal_mem_alloc
        MOV       DPL,?XSP + 0
        MOV       DPH,?XSP + 1
        LCALL     ?Subroutine34 & 0xFFFF
//  511   if ( buf )
??CrossCallReturnLabel_44:
        LCALL     ??Subroutine68_0 & 0xFFFF
??CrossCallReturnLabel_146:
        JNZ       $+5
        LJMP      ??zclGp_SendGpCommissioningNotificationCommand_2 & 0xFFFF
//  512   {
//  513     pBuf = buf;
//  514     
//  515     zcl_memcpy( pBuf, &pCmd->options, sizeof ( uint16 ) );
        ; Setup parameters for call to function osal_memcpy
        MOV       ?V0,?V6
        MOV       ?V1,?V7
        MOV       ?V2,#0x0
        MOV       R0,#?V0
        LCALL     ?PUSH_XSTACK_I_THREE
          CFI CFA_XSP16 add(XSP16, 33)
        MOV       R4,#0x2
        MOV       R5,#0x0
        MOV       A,#0x3
        LCALL     ?XSTACK_DISP0_8
        LCALL     ?Subroutine26 & 0xFFFF
??CrossCallReturnLabel_24:
        LCALL     ?DEALLOC_XSTACK8
          CFI CFA_XSP16 add(XSP16, 30)
//  516     pBuf += sizeof ( uint16 );
        MOV       DPL,?XSP + 0
        MOV       DPH,?XSP + 1
        LCALL     ?Subroutine13 & 0xFFFF
??CrossCallReturnLabel_8:
        JNZ       ??zclGp_SendGpCommissioningNotificationCommand_3
//  517     
//  518     // If Application Id bitfield is 0b000
//  519     if( GP_IS_APPLICATION_ID_GPD( pCmd->options ) )
//  520     {
//  521       zcl_memcpy( pBuf, &pCmd->gpdId, sizeof ( uint32 ) );
        ; Setup parameters for call to function osal_memcpy
        INC       DPTR
        INC       DPTR
        MOV       R1,DPL
        MOV       R2,DPH
        MOV       ?V0,R1
        MOV       ?V1,R2
        MOV       R0,#?V0
        LCALL     ?PUSH_XSTACK_I_THREE
          CFI CFA_XSP16 add(XSP16, 33)
        LCALL     ?Subroutine38 & 0xFFFF
??CrossCallReturnLabel_176:
        LCALL     ?DEALLOC_XSTACK8
          CFI CFA_XSP16 add(XSP16, 30)
//  522       pBuf += sizeof ( uint32 );
        MOV       A,R6
        ADD       A,#0x4
        SJMP      ??CrossCallReturnLabel_12
//  523     }
//  524     // If Application Id bitfield is 0b010
//  525     else if( GP_IS_APPLICATION_ID_IEEE( pCmd->options ) )
??zclGp_SendGpCommissioningNotificationCommand_3:
        MOV       A,#0x2
        XRL       A,R0
        JNZ       ??zclGp_SendGpCommissioningNotificationCommand_4
//  526     {
//  527       zcl_memcpy( pBuf, &pCmd->gpdIEEE, Z_EXTADDR_LEN );
        ; Setup parameters for call to function osal_memcpy
        LCALL     ?Subroutine37 & 0xFFFF
??CrossCallReturnLabel_49:
        LCALL     ?PUSH_XSTACK_I_THREE
          CFI CFA_XSP16 add(XSP16, 33)
        MOV       R4,#0x8
        LCALL     ??Subroutine70_0 & 0xFFFF
??CrossCallReturnLabel_181:
        LCALL     ?DEALLOC_XSTACK8
          CFI CFA_XSP16 add(XSP16, 30)
//  528       pBuf += Z_EXTADDR_LEN;
//  529       *pBuf++ = pCmd->ep;
        LCALL     ?Subroutine17 & 0xFFFF
//  530     }
??CrossCallReturnLabel_12:
        MOV       R6,A
        JNC       ??zclGp_SendGpCommissioningNotificationCommand_4
        INC       R7
//  531     
//  532     zcl_memcpy( pBuf, &pCmd->gpdSecCounter, sizeof ( uint32 ) );
??zclGp_SendGpCommissioningNotificationCommand_4:
        ; Setup parameters for call to function osal_memcpy
        LCALL     ?Subroutine39 & 0xFFFF
??CrossCallReturnLabel_76:
        LCALL     ?PUSH_XSTACK_I_THREE
          CFI CFA_XSP16 add(XSP16, 33)
        LCALL     ?Subroutine38 & 0xFFFF
??CrossCallReturnLabel_177:
        LCALL     ?DEALLOC_XSTACK8
          CFI CFA_XSP16 add(XSP16, 30)
//  533     pBuf += sizeof ( uint32 );
//  534 
//  535     *pBuf++ = pCmd->cmdId;
        LCALL     ?Subroutine9 & 0xFFFF
//  536     
//  537     *pBuf++ = pCmd->payloadLen;
??CrossCallReturnLabel_4:
        JNC       ??zclGp_SendGpCommissioningNotificationCommand_5
        INC       R7
//  538     if ( pCmd->payloadLen > 0 )
??zclGp_SendGpCommissioningNotificationCommand_5:
        LCALL     ?Subroutine36 & 0xFFFF
??CrossCallReturnLabel_47:
        JZ        ??CrossCallReturnLabel_26
//  539     {
//  540       zcl_memcpy( pBuf, &pCmd->cmdPayload, pCmd->payloadLen );
        ; Setup parameters for call to function osal_memcpy
        MOV       A,?V6
        ADD       A,#0x15
        LCALL     ??Subroutine55_0 & 0xFFFF
??CrossCallReturnLabel_73:
        LCALL     ?PUSH_XSTACK_I_THREE
          CFI CFA_XSP16 add(XSP16, 33)
        MOV       A,R1
        MOV       R4,A
        LCALL     ??Subroutine70_0 & 0xFFFF
??CrossCallReturnLabel_182:
        LCALL     ?DEALLOC_XSTACK8
          CFI CFA_XSP16 add(XSP16, 30)
//  541       pBuf += pCmd->payloadLen;
        LCALL     ?Subroutine29 & 0xFFFF
//  542     }
//  543     
//  544     zcl_memcpy( pBuf, &pCmd->gppShortAddr, sizeof ( uint16 ) );
??CrossCallReturnLabel_26:
        ; Setup parameters for call to function osal_memcpy
        MOV       A,?V6
        ADD       A,#0x17
        LCALL     ??Subroutine55_0 & 0xFFFF
??CrossCallReturnLabel_74:
        LCALL     ?PUSH_XSTACK_I_THREE
          CFI CFA_XSP16 add(XSP16, 33)
        MOV       R4,#0x2
        LCALL     ??Subroutine70_0 & 0xFFFF
??CrossCallReturnLabel_183:
        LCALL     ?DEALLOC_XSTACK8
          CFI CFA_XSP16 add(XSP16, 30)
//  545     pBuf += sizeof ( uint16 );
//  546     
//  547     *pBuf++ = pCmd->gppGpdLink;
        LCALL     ?Subroutine30 & 0xFFFF
//  548     
//  549     afAddrType_t addr;
//  550     addr.endPoint = GREEN_POWER_INTERNAL_ENDPOINT;
??CrossCallReturnLabel_28:
        MOV       A,#0xb
        LCALL     ?XSTACK_DISP0_8
        LCALL     ?Subroutine14 & 0xFFFF
//  551     addr.panId = _NIB.nwkPanId;
??CrossCallReturnLabel_77:
        MOV       A,#0xc
        LCALL     ?XSTACK_DISP0_8
        LCALL     ?Subroutine32 & 0xFFFF
//  552     addr.addr.shortAddr = gp_commissionerAddress; 
??CrossCallReturnLabel_36:
        MOV       DPTR,#gp_commissionerAddress
        LCALL     ??Subroutine56_0 & 0xFFFF
??CrossCallReturnLabel_83:
        MOV       A,#0x2
        LCALL     ?XSTACK_DISP0_8
        LCALL     ?Subroutine32 & 0xFFFF
//  553         
//  554     if ( gp_commissionerAddress == 0xFFFF )
??CrossCallReturnLabel_37:
        MOV       DPTR,#gp_commissionerAddress
        MOVX      A,@DPTR
        CPL       A
        JNZ       ??zclGp_SendGpCommissioningNotificationCommand_6
        INC       DPTR
        MOVX      A,@DPTR
        CPL       A
??zclGp_SendGpCommissioningNotificationCommand_6:
        JNZ       ??zclGp_SendGpCommissioningNotificationCommand_7
//  555     {
//  556       addr.addrMode = afAddrBroadcast;
        MOV       A,#0xa
        LCALL     ?XSTACK_DISP0_8
        MOV       A,#0xf
        SJMP      ??zclGp_SendGpCommissioningNotificationCommand_8
//  557     }
//  558     else
//  559     {
//  560       addr.addrMode = afAddr16Bit;
??zclGp_SendGpCommissioningNotificationCommand_7:
        MOV       A,#0xa
        LCALL     ?XSTACK_DISP0_8
        MOV       A,#0x2
??zclGp_SendGpCommissioningNotificationCommand_8:
        MOVX      @DPTR,A
//  561     }
//  562         
//  563     zcl_SendCommand( GREEN_POWER_INTERNAL_ENDPOINT, &addr, ZCL_CLUSTER_ID_GREEN_POWER,
//  564                       COMMAND_GP_COMMISSIONING_NOTIFICATION, TRUE, ZCL_FRAME_CLIENT_SERVER_DIR,
//  565                       TRUE, 0,  bdb_getZCLFrameCounter(), len, buf ); 
        ; Setup parameters for call to function bdb_getZCLFrameCounter
        LCALL     `??bdb_getZCLFrameCounter::?relay`; Banked call to: bdb_getZCLFrameCounter
        MOV       A,R1
        MOV       R1,A
        ; Setup parameters for call to function zcl_SendCommand
        MOV       DPL,?XSP + 0
        MOV       DPH,?XSP + 1
        LCALL     ?PUSH_XSTACK8_X_TWO
          CFI CFA_XSP16 add(XSP16, 32)
        MOV       R0,#?V4
        LCALL     ?PUSH_XSTACK_I_TWO
          CFI CFA_XSP16 add(XSP16, 34)
        MOV       A,R1
        MOV       ?V0,A
        MOV       R0,#?V0
        LCALL     ?PUSH_XSTACK_I_ONE
          CFI CFA_XSP16 add(XSP16, 35)
        CLR       A
        MOV       ?V0,A
        MOV       ?V1,A
        MOV       R0,#?V0
        LCALL     ?PUSH_XSTACK_I_TWO
          CFI CFA_XSP16 add(XSP16, 37)
        MOV       ?V0,#0x1
        MOV       R0,#?V0
        LCALL     ?PUSH_XSTACK_I_ONE
          CFI CFA_XSP16 add(XSP16, 38)
        MOV       ?V0,#0x0
        MOV       R0,#?V0
        LCALL     ?PUSH_XSTACK_I_ONE
          CFI CFA_XSP16 add(XSP16, 39)
        MOV       ?V0,#0x1
        MOV       R0,#?V0
        LCALL     ?PUSH_XSTACK_I_ONE
          CFI CFA_XSP16 add(XSP16, 40)
        MOV       ?V0,#0x4
        MOV       R0,#?V0
        LCALL     ?PUSH_XSTACK_I_ONE
          CFI CFA_XSP16 add(XSP16, 41)
        MOV       R4,#0x21
        MOV       R5,#0x0
        MOV       A,#0xd
        LCALL     ?XSTACK_DISP101_8
        MOV       R1,#-0xe
        LCALL     `??zcl_SendCommand::?relay`; Banked call to: zcl_SendCommand
        MOV       A,#0xb
        LCALL     ?DEALLOC_XSTACK8
          CFI CFA_XSP16 add(XSP16, 30)
//  566       
//  567     zcl_mem_free( buf );
        ; Setup parameters for call to function osal_mem_free
        MOV       DPL,?XSP + 0
        MOV       DPH,?XSP + 1
        LCALL     ??Subroutine69_0 & 0xFFFF
//  568   }
??CrossCallReturnLabel_163:
        LCALL     `??osal_mem_free::?relay`; Banked call to: osal_mem_free
        SJMP      ??zclGp_SendGpCommissioningNotificationCommand_9
//  569   else
//  570     status = ZMemError;
??zclGp_SendGpCommissioningNotificationCommand_2:
        MOV       ?V3,#0x10
//  571 
//  572   return ( status );
??zclGp_SendGpCommissioningNotificationCommand_9:
        MOV       R1,?V3
        MOV       A,#0xe
        LJMP      ?Subroutine3 & 0xFFFF
//  573 }
          CFI EndBlock cfiBlock38

        RSEG BANKED_CODE:HUGECODE:NOROOT(0)
?Subroutine39:
          CFI Block cfiCond39 Using cfiCommon0
          CFI Function zclGp_SendGpNotificationCommand
          CFI Conditional ??CrossCallReturnLabel_75
          CFI R6 load(1, XDATA, add(CFA_XSP16, literal(-16)))
          CFI VB load(1, XDATA, add(CFA_XSP16, literal(-15)))
          CFI V0 load(1, XDATA, add(CFA_XSP16, literal(-14)))
          CFI V1 load(1, XDATA, add(CFA_XSP16, literal(-13)))
          CFI V2 load(1, XDATA, add(CFA_XSP16, literal(-12)))
          CFI V3 load(1, XDATA, add(CFA_XSP16, literal(-11)))
          CFI V4 load(1, XDATA, add(CFA_XSP16, literal(-10)))
          CFI V5 load(1, XDATA, add(CFA_XSP16, literal(-9)))
          CFI V6 load(1, XDATA, add(CFA_XSP16, literal(-8)))
          CFI V7 load(1, XDATA, add(CFA_XSP16, literal(-7)))
          CFI R7 load(1, XDATA, add(CFA_XSP16, literal(-6)))
          CFI ?RET_LOW load(1, XDATA, add(CFA_XSP16, literal(-5)))
          CFI ?RET_HIGH load(1, XDATA, add(CFA_XSP16, literal(-4)))
          CFI ?BRET_EXT load(1, XDATA, add(CFA_XSP16, literal(-3)))
          CFI DPL0 load(1, XDATA, add(CFA_XSP16, literal(-2)))
          CFI DPH0 load(1, XDATA, add(CFA_XSP16, literal(-1)))
          CFI CFA_SP SP+-2
          CFI CFA_XSP16 add(XSP16, 22)
          CFI Block cfiCond40 Using cfiCommon0
          CFI (cfiCond40) Function zclGp_SendGpCommissioningNotificationCommand
          CFI (cfiCond40) Conditional ??CrossCallReturnLabel_76
          CFI (cfiCond40) R6 load(1, XDATA, add(CFA_XSP16, literal(-16)))
          CFI (cfiCond40) VB load(1, XDATA, add(CFA_XSP16, literal(-15)))
          CFI (cfiCond40) V0 load(1, XDATA, add(CFA_XSP16, literal(-14)))
          CFI (cfiCond40) V1 load(1, XDATA, add(CFA_XSP16, literal(-13)))
          CFI (cfiCond40) V2 load(1, XDATA, add(CFA_XSP16, literal(-12)))
          CFI (cfiCond40) V3 load(1, XDATA, add(CFA_XSP16, literal(-11)))
          CFI (cfiCond40) V4 load(1, XDATA, add(CFA_XSP16, literal(-10)))
          CFI (cfiCond40) V5 load(1, XDATA, add(CFA_XSP16, literal(-9)))
          CFI (cfiCond40) V6 load(1, XDATA, add(CFA_XSP16, literal(-8)))
          CFI (cfiCond40) V7 load(1, XDATA, add(CFA_XSP16, literal(-7)))
          CFI (cfiCond40) R7 load(1, XDATA, add(CFA_XSP16, literal(-6)))
          CFI (cfiCond40) ?RET_LOW load(1, XDATA, add(CFA_XSP16, literal(-5)))
          CFI (cfiCond40) ?RET_HIGH load(1, XDATA, add(CFA_XSP16, literal(-4)))
          CFI (cfiCond40) ?BRET_EXT load(1, XDATA, add(CFA_XSP16, literal(-3)))
          CFI (cfiCond40) DPL0 load(1, XDATA, add(CFA_XSP16, literal(-2)))
          CFI (cfiCond40) DPH0 load(1, XDATA, add(CFA_XSP16, literal(-1)))
          CFI (cfiCond40) CFA_SP SP+-2
          CFI (cfiCond40) CFA_XSP16 add(XSP16, 30)
          CFI Block cfiPicker41 Using cfiCommon1
          CFI (cfiPicker41) NoFunction
          CFI (cfiPicker41) Picker
        MOV       A,?V6
        ADD       A,#0xf
          CFI EndBlock cfiCond39
          CFI EndBlock cfiCond40
          CFI EndBlock cfiPicker41
        REQUIRE ??Subroutine55_0
        ; // Fall through to label ??Subroutine55_0

        RSEG BANKED_CODE:HUGECODE:NOROOT(0)
??Subroutine55_0:
          CFI Block cfiCond42 Using cfiCommon0
          CFI Function zclGp_SendGpNotificationCommand
          CFI Conditional ??CrossCallReturnLabel_71
          CFI R6 load(1, XDATA, add(CFA_XSP16, literal(-16)))
          CFI VB load(1, XDATA, add(CFA_XSP16, literal(-15)))
          CFI V0 load(1, XDATA, add(CFA_XSP16, literal(-14)))
          CFI V1 load(1, XDATA, add(CFA_XSP16, literal(-13)))
          CFI V2 load(1, XDATA, add(CFA_XSP16, literal(-12)))
          CFI V3 load(1, XDATA, add(CFA_XSP16, literal(-11)))
          CFI V4 load(1, XDATA, add(CFA_XSP16, literal(-10)))
          CFI V5 load(1, XDATA, add(CFA_XSP16, literal(-9)))
          CFI V6 load(1, XDATA, add(CFA_XSP16, literal(-8)))
          CFI V7 load(1, XDATA, add(CFA_XSP16, literal(-7)))
          CFI R7 load(1, XDATA, add(CFA_XSP16, literal(-6)))
          CFI ?RET_LOW load(1, XDATA, add(CFA_XSP16, literal(-5)))
          CFI ?RET_HIGH load(1, XDATA, add(CFA_XSP16, literal(-4)))
          CFI ?BRET_EXT load(1, XDATA, add(CFA_XSP16, literal(-3)))
          CFI DPL0 load(1, XDATA, add(CFA_XSP16, literal(-2)))
          CFI DPH0 load(1, XDATA, add(CFA_XSP16, literal(-1)))
          CFI CFA_SP SP+-2
          CFI CFA_XSP16 add(XSP16, 22)
          CFI Block cfiCond43 Using cfiCommon0
          CFI (cfiCond43) Function zclGp_SendGpNotificationCommand
          CFI (cfiCond43) Conditional ??CrossCallReturnLabel_72
          CFI (cfiCond43) R6 load(1, XDATA, add(CFA_XSP16, literal(-16)))
          CFI (cfiCond43) VB load(1, XDATA, add(CFA_XSP16, literal(-15)))
          CFI (cfiCond43) V0 load(1, XDATA, add(CFA_XSP16, literal(-14)))
          CFI (cfiCond43) V1 load(1, XDATA, add(CFA_XSP16, literal(-13)))
          CFI (cfiCond43) V2 load(1, XDATA, add(CFA_XSP16, literal(-12)))
          CFI (cfiCond43) V3 load(1, XDATA, add(CFA_XSP16, literal(-11)))
          CFI (cfiCond43) V4 load(1, XDATA, add(CFA_XSP16, literal(-10)))
          CFI (cfiCond43) V5 load(1, XDATA, add(CFA_XSP16, literal(-9)))
          CFI (cfiCond43) V6 load(1, XDATA, add(CFA_XSP16, literal(-8)))
          CFI (cfiCond43) V7 load(1, XDATA, add(CFA_XSP16, literal(-7)))
          CFI (cfiCond43) R7 load(1, XDATA, add(CFA_XSP16, literal(-6)))
          CFI (cfiCond43) ?RET_LOW load(1, XDATA, add(CFA_XSP16, literal(-5)))
          CFI (cfiCond43) ?RET_HIGH load(1, XDATA, add(CFA_XSP16, literal(-4)))
          CFI (cfiCond43) ?BRET_EXT load(1, XDATA, add(CFA_XSP16, literal(-3)))
          CFI (cfiCond43) DPL0 load(1, XDATA, add(CFA_XSP16, literal(-2)))
          CFI (cfiCond43) DPH0 load(1, XDATA, add(CFA_XSP16, literal(-1)))
          CFI (cfiCond43) CFA_SP SP+-2
          CFI (cfiCond43) CFA_XSP16 add(XSP16, 22)
          CFI Block cfiCond44 Using cfiCommon0
          CFI (cfiCond44) Function zclGp_SendGpCommissioningNotificationCommand
          CFI (cfiCond44) Conditional ??CrossCallReturnLabel_73
          CFI (cfiCond44) R6 load(1, XDATA, add(CFA_XSP16, literal(-16)))
          CFI (cfiCond44) VB load(1, XDATA, add(CFA_XSP16, literal(-15)))
          CFI (cfiCond44) V0 load(1, XDATA, add(CFA_XSP16, literal(-14)))
          CFI (cfiCond44) V1 load(1, XDATA, add(CFA_XSP16, literal(-13)))
          CFI (cfiCond44) V2 load(1, XDATA, add(CFA_XSP16, literal(-12)))
          CFI (cfiCond44) V3 load(1, XDATA, add(CFA_XSP16, literal(-11)))
          CFI (cfiCond44) V4 load(1, XDATA, add(CFA_XSP16, literal(-10)))
          CFI (cfiCond44) V5 load(1, XDATA, add(CFA_XSP16, literal(-9)))
          CFI (cfiCond44) V6 load(1, XDATA, add(CFA_XSP16, literal(-8)))
          CFI (cfiCond44) V7 load(1, XDATA, add(CFA_XSP16, literal(-7)))
          CFI (cfiCond44) R7 load(1, XDATA, add(CFA_XSP16, literal(-6)))
          CFI (cfiCond44) ?RET_LOW load(1, XDATA, add(CFA_XSP16, literal(-5)))
          CFI (cfiCond44) ?RET_HIGH load(1, XDATA, add(CFA_XSP16, literal(-4)))
          CFI (cfiCond44) ?BRET_EXT load(1, XDATA, add(CFA_XSP16, literal(-3)))
          CFI (cfiCond44) DPL0 load(1, XDATA, add(CFA_XSP16, literal(-2)))
          CFI (cfiCond44) DPH0 load(1, XDATA, add(CFA_XSP16, literal(-1)))
          CFI (cfiCond44) CFA_SP SP+-2
          CFI (cfiCond44) CFA_XSP16 add(XSP16, 30)
          CFI Block cfiCond45 Using cfiCommon0
          CFI (cfiCond45) Function zclGp_SendGpCommissioningNotificationCommand
          CFI (cfiCond45) Conditional ??CrossCallReturnLabel_74
          CFI (cfiCond45) R6 load(1, XDATA, add(CFA_XSP16, literal(-16)))
          CFI (cfiCond45) VB load(1, XDATA, add(CFA_XSP16, literal(-15)))
          CFI (cfiCond45) V0 load(1, XDATA, add(CFA_XSP16, literal(-14)))
          CFI (cfiCond45) V1 load(1, XDATA, add(CFA_XSP16, literal(-13)))
          CFI (cfiCond45) V2 load(1, XDATA, add(CFA_XSP16, literal(-12)))
          CFI (cfiCond45) V3 load(1, XDATA, add(CFA_XSP16, literal(-11)))
          CFI (cfiCond45) V4 load(1, XDATA, add(CFA_XSP16, literal(-10)))
          CFI (cfiCond45) V5 load(1, XDATA, add(CFA_XSP16, literal(-9)))
          CFI (cfiCond45) V6 load(1, XDATA, add(CFA_XSP16, literal(-8)))
          CFI (cfiCond45) V7 load(1, XDATA, add(CFA_XSP16, literal(-7)))
          CFI (cfiCond45) R7 load(1, XDATA, add(CFA_XSP16, literal(-6)))
          CFI (cfiCond45) ?RET_LOW load(1, XDATA, add(CFA_XSP16, literal(-5)))
          CFI (cfiCond45) ?RET_HIGH load(1, XDATA, add(CFA_XSP16, literal(-4)))
          CFI (cfiCond45) ?BRET_EXT load(1, XDATA, add(CFA_XSP16, literal(-3)))
          CFI (cfiCond45) DPL0 load(1, XDATA, add(CFA_XSP16, literal(-2)))
          CFI (cfiCond45) DPH0 load(1, XDATA, add(CFA_XSP16, literal(-1)))
          CFI (cfiCond45) CFA_SP SP+-2
          CFI (cfiCond45) CFA_XSP16 add(XSP16, 30)
          CFI Block cfiCond46 Using cfiCommon0
          CFI (cfiCond46) Function zclGp_SendGpNotificationCommand
          CFI (cfiCond46) Conditional ??CrossCallReturnLabel_75
          CFI (cfiCond46) R6 load(1, XDATA, add(CFA_XSP16, literal(-16)))
          CFI (cfiCond46) VB load(1, XDATA, add(CFA_XSP16, literal(-15)))
          CFI (cfiCond46) V0 load(1, XDATA, add(CFA_XSP16, literal(-14)))
          CFI (cfiCond46) V1 load(1, XDATA, add(CFA_XSP16, literal(-13)))
          CFI (cfiCond46) V2 load(1, XDATA, add(CFA_XSP16, literal(-12)))
          CFI (cfiCond46) V3 load(1, XDATA, add(CFA_XSP16, literal(-11)))
          CFI (cfiCond46) V4 load(1, XDATA, add(CFA_XSP16, literal(-10)))
          CFI (cfiCond46) V5 load(1, XDATA, add(CFA_XSP16, literal(-9)))
          CFI (cfiCond46) V6 load(1, XDATA, add(CFA_XSP16, literal(-8)))
          CFI (cfiCond46) V7 load(1, XDATA, add(CFA_XSP16, literal(-7)))
          CFI (cfiCond46) R7 load(1, XDATA, add(CFA_XSP16, literal(-6)))
          CFI (cfiCond46) ?RET_LOW load(1, XDATA, add(CFA_XSP16, literal(-5)))
          CFI (cfiCond46) ?RET_HIGH load(1, XDATA, add(CFA_XSP16, literal(-4)))
          CFI (cfiCond46) ?BRET_EXT load(1, XDATA, add(CFA_XSP16, literal(-3)))
          CFI (cfiCond46) DPL0 load(1, XDATA, add(CFA_XSP16, literal(-2)))
          CFI (cfiCond46) DPH0 load(1, XDATA, add(CFA_XSP16, literal(-1)))
          CFI (cfiCond46) CFA_SP SP+-2
          CFI (cfiCond46) CFA_XSP16 add(XSP16, 22)
          CFI Block cfiCond47 Using cfiCommon0
          CFI (cfiCond47) Function zclGp_SendGpCommissioningNotificationCommand
          CFI (cfiCond47) Conditional ??CrossCallReturnLabel_76
          CFI (cfiCond47) R6 load(1, XDATA, add(CFA_XSP16, literal(-16)))
          CFI (cfiCond47) VB load(1, XDATA, add(CFA_XSP16, literal(-15)))
          CFI (cfiCond47) V0 load(1, XDATA, add(CFA_XSP16, literal(-14)))
          CFI (cfiCond47) V1 load(1, XDATA, add(CFA_XSP16, literal(-13)))
          CFI (cfiCond47) V2 load(1, XDATA, add(CFA_XSP16, literal(-12)))
          CFI (cfiCond47) V3 load(1, XDATA, add(CFA_XSP16, literal(-11)))
          CFI (cfiCond47) V4 load(1, XDATA, add(CFA_XSP16, literal(-10)))
          CFI (cfiCond47) V5 load(1, XDATA, add(CFA_XSP16, literal(-9)))
          CFI (cfiCond47) V6 load(1, XDATA, add(CFA_XSP16, literal(-8)))
          CFI (cfiCond47) V7 load(1, XDATA, add(CFA_XSP16, literal(-7)))
          CFI (cfiCond47) R7 load(1, XDATA, add(CFA_XSP16, literal(-6)))
          CFI (cfiCond47) ?RET_LOW load(1, XDATA, add(CFA_XSP16, literal(-5)))
          CFI (cfiCond47) ?RET_HIGH load(1, XDATA, add(CFA_XSP16, literal(-4)))
          CFI (cfiCond47) ?BRET_EXT load(1, XDATA, add(CFA_XSP16, literal(-3)))
          CFI (cfiCond47) DPL0 load(1, XDATA, add(CFA_XSP16, literal(-2)))
          CFI (cfiCond47) DPH0 load(1, XDATA, add(CFA_XSP16, literal(-1)))
          CFI (cfiCond47) CFA_SP SP+-2
          CFI (cfiCond47) CFA_XSP16 add(XSP16, 30)
          CFI Block cfiPicker48 Using cfiCommon1
          CFI (cfiPicker48) NoFunction
          CFI (cfiPicker48) Picker
        MOV       ?V0,A
        CLR       A
        ADDC      A,?V7
        MOV       ?V1,A
        MOV       R0,#?V0
        RET
          CFI EndBlock cfiCond42
          CFI EndBlock cfiCond43
          CFI EndBlock cfiCond44
          CFI EndBlock cfiCond45
          CFI EndBlock cfiCond46
          CFI EndBlock cfiCond47
          CFI EndBlock cfiPicker48

        RSEG BANKED_CODE:HUGECODE:NOROOT(0)
?Subroutine37:
          CFI Block cfiCond49 Using cfiCommon0
          CFI Function zclGp_SendGpNotificationCommand
          CFI Conditional ??CrossCallReturnLabel_48
          CFI R6 load(1, XDATA, add(CFA_XSP16, literal(-16)))
          CFI VB load(1, XDATA, add(CFA_XSP16, literal(-15)))
          CFI V0 load(1, XDATA, add(CFA_XSP16, literal(-14)))
          CFI V1 load(1, XDATA, add(CFA_XSP16, literal(-13)))
          CFI V2 load(1, XDATA, add(CFA_XSP16, literal(-12)))
          CFI V3 load(1, XDATA, add(CFA_XSP16, literal(-11)))
          CFI V4 load(1, XDATA, add(CFA_XSP16, literal(-10)))
          CFI V5 load(1, XDATA, add(CFA_XSP16, literal(-9)))
          CFI V6 load(1, XDATA, add(CFA_XSP16, literal(-8)))
          CFI V7 load(1, XDATA, add(CFA_XSP16, literal(-7)))
          CFI R7 load(1, XDATA, add(CFA_XSP16, literal(-6)))
          CFI ?RET_LOW load(1, XDATA, add(CFA_XSP16, literal(-5)))
          CFI ?RET_HIGH load(1, XDATA, add(CFA_XSP16, literal(-4)))
          CFI ?BRET_EXT load(1, XDATA, add(CFA_XSP16, literal(-3)))
          CFI DPL0 load(1, XDATA, add(CFA_XSP16, literal(-2)))
          CFI DPH0 load(1, XDATA, add(CFA_XSP16, literal(-1)))
          CFI CFA_SP SP+-2
          CFI CFA_XSP16 add(XSP16, 22)
          CFI Block cfiCond50 Using cfiCommon0
          CFI (cfiCond50) Function zclGp_SendGpCommissioningNotificationCommand
          CFI (cfiCond50) Conditional ??CrossCallReturnLabel_49
          CFI (cfiCond50) R6 load(1, XDATA, add(CFA_XSP16, literal(-16)))
          CFI (cfiCond50) VB load(1, XDATA, add(CFA_XSP16, literal(-15)))
          CFI (cfiCond50) V0 load(1, XDATA, add(CFA_XSP16, literal(-14)))
          CFI (cfiCond50) V1 load(1, XDATA, add(CFA_XSP16, literal(-13)))
          CFI (cfiCond50) V2 load(1, XDATA, add(CFA_XSP16, literal(-12)))
          CFI (cfiCond50) V3 load(1, XDATA, add(CFA_XSP16, literal(-11)))
          CFI (cfiCond50) V4 load(1, XDATA, add(CFA_XSP16, literal(-10)))
          CFI (cfiCond50) V5 load(1, XDATA, add(CFA_XSP16, literal(-9)))
          CFI (cfiCond50) V6 load(1, XDATA, add(CFA_XSP16, literal(-8)))
          CFI (cfiCond50) V7 load(1, XDATA, add(CFA_XSP16, literal(-7)))
          CFI (cfiCond50) R7 load(1, XDATA, add(CFA_XSP16, literal(-6)))
          CFI (cfiCond50) ?RET_LOW load(1, XDATA, add(CFA_XSP16, literal(-5)))
          CFI (cfiCond50) ?RET_HIGH load(1, XDATA, add(CFA_XSP16, literal(-4)))
          CFI (cfiCond50) ?BRET_EXT load(1, XDATA, add(CFA_XSP16, literal(-3)))
          CFI (cfiCond50) DPL0 load(1, XDATA, add(CFA_XSP16, literal(-2)))
          CFI (cfiCond50) DPH0 load(1, XDATA, add(CFA_XSP16, literal(-1)))
          CFI (cfiCond50) CFA_SP SP+-2
          CFI (cfiCond50) CFA_XSP16 add(XSP16, 30)
          CFI Block cfiPicker51 Using cfiCommon1
          CFI (cfiPicker51) NoFunction
          CFI (cfiPicker51) Picker
        MOV       A,?V6
        ADD       A,#0x6
        MOV       ?V0,A
        CLR       A
        ADDC      A,?V7
        MOV       ?V1,A
        MOV       R0,#?V0
        RET
          CFI EndBlock cfiCond49
          CFI EndBlock cfiCond50
          CFI EndBlock cfiPicker51

        RSEG BANKED_CODE:HUGECODE:NOROOT(0)
?Subroutine36:
          CFI Block cfiCond52 Using cfiCommon0
          CFI Function zclGp_SendGpNotificationCommand
          CFI Conditional ??CrossCallReturnLabel_46
          CFI R6 load(1, XDATA, add(CFA_XSP16, literal(-16)))
          CFI VB load(1, XDATA, add(CFA_XSP16, literal(-15)))
          CFI V0 load(1, XDATA, add(CFA_XSP16, literal(-14)))
          CFI V1 load(1, XDATA, add(CFA_XSP16, literal(-13)))
          CFI V2 load(1, XDATA, add(CFA_XSP16, literal(-12)))
          CFI V3 load(1, XDATA, add(CFA_XSP16, literal(-11)))
          CFI V4 load(1, XDATA, add(CFA_XSP16, literal(-10)))
          CFI V5 load(1, XDATA, add(CFA_XSP16, literal(-9)))
          CFI V6 load(1, XDATA, add(CFA_XSP16, literal(-8)))
          CFI V7 load(1, XDATA, add(CFA_XSP16, literal(-7)))
          CFI R7 load(1, XDATA, add(CFA_XSP16, literal(-6)))
          CFI ?RET_LOW load(1, XDATA, add(CFA_XSP16, literal(-5)))
          CFI ?RET_HIGH load(1, XDATA, add(CFA_XSP16, literal(-4)))
          CFI ?BRET_EXT load(1, XDATA, add(CFA_XSP16, literal(-3)))
          CFI DPL0 load(1, XDATA, add(CFA_XSP16, literal(-2)))
          CFI DPH0 load(1, XDATA, add(CFA_XSP16, literal(-1)))
          CFI CFA_SP SP+-2
          CFI CFA_XSP16 add(XSP16, 22)
          CFI Block cfiCond53 Using cfiCommon0
          CFI (cfiCond53) Function zclGp_SendGpCommissioningNotificationCommand
          CFI (cfiCond53) Conditional ??CrossCallReturnLabel_47
          CFI (cfiCond53) R6 load(1, XDATA, add(CFA_XSP16, literal(-16)))
          CFI (cfiCond53) VB load(1, XDATA, add(CFA_XSP16, literal(-15)))
          CFI (cfiCond53) V0 load(1, XDATA, add(CFA_XSP16, literal(-14)))
          CFI (cfiCond53) V1 load(1, XDATA, add(CFA_XSP16, literal(-13)))
          CFI (cfiCond53) V2 load(1, XDATA, add(CFA_XSP16, literal(-12)))
          CFI (cfiCond53) V3 load(1, XDATA, add(CFA_XSP16, literal(-11)))
          CFI (cfiCond53) V4 load(1, XDATA, add(CFA_XSP16, literal(-10)))
          CFI (cfiCond53) V5 load(1, XDATA, add(CFA_XSP16, literal(-9)))
          CFI (cfiCond53) V6 load(1, XDATA, add(CFA_XSP16, literal(-8)))
          CFI (cfiCond53) V7 load(1, XDATA, add(CFA_XSP16, literal(-7)))
          CFI (cfiCond53) R7 load(1, XDATA, add(CFA_XSP16, literal(-6)))
          CFI (cfiCond53) ?RET_LOW load(1, XDATA, add(CFA_XSP16, literal(-5)))
          CFI (cfiCond53) ?RET_HIGH load(1, XDATA, add(CFA_XSP16, literal(-4)))
          CFI (cfiCond53) ?BRET_EXT load(1, XDATA, add(CFA_XSP16, literal(-3)))
          CFI (cfiCond53) DPL0 load(1, XDATA, add(CFA_XSP16, literal(-2)))
          CFI (cfiCond53) DPH0 load(1, XDATA, add(CFA_XSP16, literal(-1)))
          CFI (cfiCond53) CFA_SP SP+-2
          CFI (cfiCond53) CFA_XSP16 add(XSP16, 30)
          CFI Block cfiPicker54 Using cfiCommon1
          CFI (cfiPicker54) NoFunction
          CFI (cfiPicker54) Picker
        MOV       A,?V6
        LCALL     ?Subroutine51 & 0xFFFF
??CrossCallReturnLabel_58:
        MOV       R1,A
        RET
          CFI EndBlock cfiCond52
          CFI EndBlock cfiCond53
          CFI EndBlock cfiPicker54

        RSEG BANKED_CODE:HUGECODE:NOROOT(0)
?Subroutine32:
          CFI Block cfiCond55 Using cfiCommon0
          CFI Function zclGp_RegisterCmdCallbacks
          CFI Conditional ??CrossCallReturnLabel_29
          CFI R6 load(1, XDATA, add(CFA_XSP16, literal(-12)))
          CFI VB load(1, XDATA, add(CFA_XSP16, literal(-11)))
          CFI V0 load(1, XDATA, add(CFA_XSP16, literal(-10)))
          CFI V1 load(1, XDATA, add(CFA_XSP16, literal(-9)))
          CFI V2 load(1, XDATA, add(CFA_XSP16, literal(-8)))
          CFI V3 load(1, XDATA, add(CFA_XSP16, literal(-7)))
          CFI R7 load(1, XDATA, add(CFA_XSP16, literal(-6)))
          CFI ?RET_LOW load(1, XDATA, add(CFA_XSP16, literal(-5)))
          CFI ?RET_HIGH load(1, XDATA, add(CFA_XSP16, literal(-4)))
          CFI ?BRET_EXT load(1, XDATA, add(CFA_XSP16, literal(-3)))
          CFI DPL0 load(1, XDATA, add(CFA_XSP16, literal(-2)))
          CFI DPH0 load(1, XDATA, add(CFA_XSP16, literal(-1)))
          CFI CFA_SP SP+-2
          CFI CFA_XSP16 add(XSP16, 12)
          CFI Block cfiCond56 Using cfiCommon0
          CFI (cfiCond56) Function zclGp_ProcessInProxyBasic
          CFI (cfiCond56) Conditional ??CrossCallReturnLabel_30
          CFI (cfiCond56) R6 load(1, XDATA, add(CFA_XSP16, literal(-15)))
          CFI (cfiCond56) VB load(1, XDATA, add(CFA_XSP16, literal(-14)))
          CFI (cfiCond56) V0 load(1, XDATA, add(CFA_XSP16, literal(-13)))
          CFI (cfiCond56) V1 load(1, XDATA, add(CFA_XSP16, literal(-12)))
          CFI (cfiCond56) V2 load(1, XDATA, add(CFA_XSP16, literal(-11)))
          CFI (cfiCond56) V3 load(1, XDATA, add(CFA_XSP16, literal(-10)))
          CFI (cfiCond56) V4 load(1, XDATA, add(CFA_XSP16, literal(-9)))
          CFI (cfiCond56) V5 load(1, XDATA, add(CFA_XSP16, literal(-8)))
          CFI (cfiCond56) V6 load(1, XDATA, add(CFA_XSP16, literal(-7)))
          CFI (cfiCond56) R7 load(1, XDATA, add(CFA_XSP16, literal(-6)))
          CFI (cfiCond56) ?RET_LOW load(1, XDATA, add(CFA_XSP16, literal(-5)))
          CFI (cfiCond56) ?RET_HIGH load(1, XDATA, add(CFA_XSP16, literal(-4)))
          CFI (cfiCond56) ?BRET_EXT load(1, XDATA, add(CFA_XSP16, literal(-3)))
          CFI (cfiCond56) DPL0 load(1, XDATA, add(CFA_XSP16, literal(-2)))
          CFI (cfiCond56) DPH0 load(1, XDATA, add(CFA_XSP16, literal(-1)))
          CFI (cfiCond56) CFA_SP SP+-2
          CFI (cfiCond56) CFA_XSP16 add(XSP16, 43)
          CFI Block cfiCond57 Using cfiCommon0
          CFI (cfiCond57) Function zclGp_ProcessInProxyBasic
          CFI (cfiCond57) Conditional ??CrossCallReturnLabel_31
          CFI (cfiCond57) R6 load(1, XDATA, add(CFA_XSP16, literal(-15)))
          CFI (cfiCond57) VB load(1, XDATA, add(CFA_XSP16, literal(-14)))
          CFI (cfiCond57) V0 load(1, XDATA, add(CFA_XSP16, literal(-13)))
          CFI (cfiCond57) V1 load(1, XDATA, add(CFA_XSP16, literal(-12)))
          CFI (cfiCond57) V2 load(1, XDATA, add(CFA_XSP16, literal(-11)))
          CFI (cfiCond57) V3 load(1, XDATA, add(CFA_XSP16, literal(-10)))
          CFI (cfiCond57) V4 load(1, XDATA, add(CFA_XSP16, literal(-9)))
          CFI (cfiCond57) V5 load(1, XDATA, add(CFA_XSP16, literal(-8)))
          CFI (cfiCond57) V6 load(1, XDATA, add(CFA_XSP16, literal(-7)))
          CFI (cfiCond57) R7 load(1, XDATA, add(CFA_XSP16, literal(-6)))
          CFI (cfiCond57) ?RET_LOW load(1, XDATA, add(CFA_XSP16, literal(-5)))
          CFI (cfiCond57) ?RET_HIGH load(1, XDATA, add(CFA_XSP16, literal(-4)))
          CFI (cfiCond57) ?BRET_EXT load(1, XDATA, add(CFA_XSP16, literal(-3)))
          CFI (cfiCond57) DPL0 load(1, XDATA, add(CFA_XSP16, literal(-2)))
          CFI (cfiCond57) DPH0 load(1, XDATA, add(CFA_XSP16, literal(-1)))
          CFI (cfiCond57) CFA_SP SP+-2
          CFI (cfiCond57) CFA_XSP16 add(XSP16, 43)
          CFI Block cfiCond58 Using cfiCommon0
          CFI (cfiCond58) Function zclGp_ProcessInProxyBasic
          CFI (cfiCond58) Conditional ??CrossCallReturnLabel_32
          CFI (cfiCond58) R6 load(1, XDATA, add(CFA_XSP16, literal(-15)))
          CFI (cfiCond58) VB load(1, XDATA, add(CFA_XSP16, literal(-14)))
          CFI (cfiCond58) V0 load(1, XDATA, add(CFA_XSP16, literal(-13)))
          CFI (cfiCond58) V1 load(1, XDATA, add(CFA_XSP16, literal(-12)))
          CFI (cfiCond58) V2 load(1, XDATA, add(CFA_XSP16, literal(-11)))
          CFI (cfiCond58) V3 load(1, XDATA, add(CFA_XSP16, literal(-10)))
          CFI (cfiCond58) V4 load(1, XDATA, add(CFA_XSP16, literal(-9)))
          CFI (cfiCond58) V5 load(1, XDATA, add(CFA_XSP16, literal(-8)))
          CFI (cfiCond58) V6 load(1, XDATA, add(CFA_XSP16, literal(-7)))
          CFI (cfiCond58) R7 load(1, XDATA, add(CFA_XSP16, literal(-6)))
          CFI (cfiCond58) ?RET_LOW load(1, XDATA, add(CFA_XSP16, literal(-5)))
          CFI (cfiCond58) ?RET_HIGH load(1, XDATA, add(CFA_XSP16, literal(-4)))
          CFI (cfiCond58) ?BRET_EXT load(1, XDATA, add(CFA_XSP16, literal(-3)))
          CFI (cfiCond58) DPL0 load(1, XDATA, add(CFA_XSP16, literal(-2)))
          CFI (cfiCond58) DPH0 load(1, XDATA, add(CFA_XSP16, literal(-1)))
          CFI (cfiCond58) CFA_SP SP+-2
          CFI (cfiCond58) CFA_XSP16 add(XSP16, 43)
          CFI Block cfiCond59 Using cfiCommon0
          CFI (cfiCond59) Function zclGp_ProcessInProxyBasic
          CFI (cfiCond59) Conditional ??CrossCallReturnLabel_33
          CFI (cfiCond59) R6 load(1, XDATA, add(CFA_XSP16, literal(-15)))
          CFI (cfiCond59) VB load(1, XDATA, add(CFA_XSP16, literal(-14)))
          CFI (cfiCond59) V0 load(1, XDATA, add(CFA_XSP16, literal(-13)))
          CFI (cfiCond59) V1 load(1, XDATA, add(CFA_XSP16, literal(-12)))
          CFI (cfiCond59) V2 load(1, XDATA, add(CFA_XSP16, literal(-11)))
          CFI (cfiCond59) V3 load(1, XDATA, add(CFA_XSP16, literal(-10)))
          CFI (cfiCond59) V4 load(1, XDATA, add(CFA_XSP16, literal(-9)))
          CFI (cfiCond59) V5 load(1, XDATA, add(CFA_XSP16, literal(-8)))
          CFI (cfiCond59) V6 load(1, XDATA, add(CFA_XSP16, literal(-7)))
          CFI (cfiCond59) R7 load(1, XDATA, add(CFA_XSP16, literal(-6)))
          CFI (cfiCond59) ?RET_LOW load(1, XDATA, add(CFA_XSP16, literal(-5)))
          CFI (cfiCond59) ?RET_HIGH load(1, XDATA, add(CFA_XSP16, literal(-4)))
          CFI (cfiCond59) ?BRET_EXT load(1, XDATA, add(CFA_XSP16, literal(-3)))
          CFI (cfiCond59) DPL0 load(1, XDATA, add(CFA_XSP16, literal(-2)))
          CFI (cfiCond59) DPH0 load(1, XDATA, add(CFA_XSP16, literal(-1)))
          CFI (cfiCond59) CFA_SP SP+-2
          CFI (cfiCond59) CFA_XSP16 add(XSP16, 43)
          CFI Block cfiCond60 Using cfiCommon0
          CFI (cfiCond60) Function zclGp_SendGpNotificationCommand
          CFI (cfiCond60) Conditional ??CrossCallReturnLabel_34
          CFI (cfiCond60) R6 load(1, XDATA, add(CFA_XSP16, literal(-16)))
          CFI (cfiCond60) VB load(1, XDATA, add(CFA_XSP16, literal(-15)))
          CFI (cfiCond60) V0 load(1, XDATA, add(CFA_XSP16, literal(-14)))
          CFI (cfiCond60) V1 load(1, XDATA, add(CFA_XSP16, literal(-13)))
          CFI (cfiCond60) V2 load(1, XDATA, add(CFA_XSP16, literal(-12)))
          CFI (cfiCond60) V3 load(1, XDATA, add(CFA_XSP16, literal(-11)))
          CFI (cfiCond60) V4 load(1, XDATA, add(CFA_XSP16, literal(-10)))
          CFI (cfiCond60) V5 load(1, XDATA, add(CFA_XSP16, literal(-9)))
          CFI (cfiCond60) V6 load(1, XDATA, add(CFA_XSP16, literal(-8)))
          CFI (cfiCond60) V7 load(1, XDATA, add(CFA_XSP16, literal(-7)))
          CFI (cfiCond60) R7 load(1, XDATA, add(CFA_XSP16, literal(-6)))
          CFI (cfiCond60) ?RET_LOW load(1, XDATA, add(CFA_XSP16, literal(-5)))
          CFI (cfiCond60) ?RET_HIGH load(1, XDATA, add(CFA_XSP16, literal(-4)))
          CFI (cfiCond60) ?BRET_EXT load(1, XDATA, add(CFA_XSP16, literal(-3)))
          CFI (cfiCond60) DPL0 load(1, XDATA, add(CFA_XSP16, literal(-2)))
          CFI (cfiCond60) DPH0 load(1, XDATA, add(CFA_XSP16, literal(-1)))
          CFI (cfiCond60) CFA_SP SP+-2
          CFI (cfiCond60) CFA_XSP16 add(XSP16, 22)
          CFI Block cfiCond61 Using cfiCommon0
          CFI (cfiCond61) Function zclGp_SendGpNotificationCommand
          CFI (cfiCond61) Conditional ??CrossCallReturnLabel_35
          CFI (cfiCond61) R6 load(1, XDATA, add(CFA_XSP16, literal(-16)))
          CFI (cfiCond61) VB load(1, XDATA, add(CFA_XSP16, literal(-15)))
          CFI (cfiCond61) V0 load(1, XDATA, add(CFA_XSP16, literal(-14)))
          CFI (cfiCond61) V1 load(1, XDATA, add(CFA_XSP16, literal(-13)))
          CFI (cfiCond61) V2 load(1, XDATA, add(CFA_XSP16, literal(-12)))
          CFI (cfiCond61) V3 load(1, XDATA, add(CFA_XSP16, literal(-11)))
          CFI (cfiCond61) V4 load(1, XDATA, add(CFA_XSP16, literal(-10)))
          CFI (cfiCond61) V5 load(1, XDATA, add(CFA_XSP16, literal(-9)))
          CFI (cfiCond61) V6 load(1, XDATA, add(CFA_XSP16, literal(-8)))
          CFI (cfiCond61) V7 load(1, XDATA, add(CFA_XSP16, literal(-7)))
          CFI (cfiCond61) R7 load(1, XDATA, add(CFA_XSP16, literal(-6)))
          CFI (cfiCond61) ?RET_LOW load(1, XDATA, add(CFA_XSP16, literal(-5)))
          CFI (cfiCond61) ?RET_HIGH load(1, XDATA, add(CFA_XSP16, literal(-4)))
          CFI (cfiCond61) ?BRET_EXT load(1, XDATA, add(CFA_XSP16, literal(-3)))
          CFI (cfiCond61) DPL0 load(1, XDATA, add(CFA_XSP16, literal(-2)))
          CFI (cfiCond61) DPH0 load(1, XDATA, add(CFA_XSP16, literal(-1)))
          CFI (cfiCond61) CFA_SP SP+-2
          CFI (cfiCond61) CFA_XSP16 add(XSP16, 22)
          CFI Block cfiCond62 Using cfiCommon0
          CFI (cfiCond62) Function zclGp_SendGpCommissioningNotificationCommand
          CFI (cfiCond62) Conditional ??CrossCallReturnLabel_36
          CFI (cfiCond62) R6 load(1, XDATA, add(CFA_XSP16, literal(-16)))
          CFI (cfiCond62) VB load(1, XDATA, add(CFA_XSP16, literal(-15)))
          CFI (cfiCond62) V0 load(1, XDATA, add(CFA_XSP16, literal(-14)))
          CFI (cfiCond62) V1 load(1, XDATA, add(CFA_XSP16, literal(-13)))
          CFI (cfiCond62) V2 load(1, XDATA, add(CFA_XSP16, literal(-12)))
          CFI (cfiCond62) V3 load(1, XDATA, add(CFA_XSP16, literal(-11)))
          CFI (cfiCond62) V4 load(1, XDATA, add(CFA_XSP16, literal(-10)))
          CFI (cfiCond62) V5 load(1, XDATA, add(CFA_XSP16, literal(-9)))
          CFI (cfiCond62) V6 load(1, XDATA, add(CFA_XSP16, literal(-8)))
          CFI (cfiCond62) V7 load(1, XDATA, add(CFA_XSP16, literal(-7)))
          CFI (cfiCond62) R7 load(1, XDATA, add(CFA_XSP16, literal(-6)))
          CFI (cfiCond62) ?RET_LOW load(1, XDATA, add(CFA_XSP16, literal(-5)))
          CFI (cfiCond62) ?RET_HIGH load(1, XDATA, add(CFA_XSP16, literal(-4)))
          CFI (cfiCond62) ?BRET_EXT load(1, XDATA, add(CFA_XSP16, literal(-3)))
          CFI (cfiCond62) DPL0 load(1, XDATA, add(CFA_XSP16, literal(-2)))
          CFI (cfiCond62) DPH0 load(1, XDATA, add(CFA_XSP16, literal(-1)))
          CFI (cfiCond62) CFA_SP SP+-2
          CFI (cfiCond62) CFA_XSP16 add(XSP16, 30)
          CFI Block cfiCond63 Using cfiCommon0
          CFI (cfiCond63) Function zclGp_SendGpCommissioningNotificationCommand
          CFI (cfiCond63) Conditional ??CrossCallReturnLabel_37
          CFI (cfiCond63) R6 load(1, XDATA, add(CFA_XSP16, literal(-16)))
          CFI (cfiCond63) VB load(1, XDATA, add(CFA_XSP16, literal(-15)))
          CFI (cfiCond63) V0 load(1, XDATA, add(CFA_XSP16, literal(-14)))
          CFI (cfiCond63) V1 load(1, XDATA, add(CFA_XSP16, literal(-13)))
          CFI (cfiCond63) V2 load(1, XDATA, add(CFA_XSP16, literal(-12)))
          CFI (cfiCond63) V3 load(1, XDATA, add(CFA_XSP16, literal(-11)))
          CFI (cfiCond63) V4 load(1, XDATA, add(CFA_XSP16, literal(-10)))
          CFI (cfiCond63) V5 load(1, XDATA, add(CFA_XSP16, literal(-9)))
          CFI (cfiCond63) V6 load(1, XDATA, add(CFA_XSP16, literal(-8)))
          CFI (cfiCond63) V7 load(1, XDATA, add(CFA_XSP16, literal(-7)))
          CFI (cfiCond63) R7 load(1, XDATA, add(CFA_XSP16, literal(-6)))
          CFI (cfiCond63) ?RET_LOW load(1, XDATA, add(CFA_XSP16, literal(-5)))
          CFI (cfiCond63) ?RET_HIGH load(1, XDATA, add(CFA_XSP16, literal(-4)))
          CFI (cfiCond63) ?BRET_EXT load(1, XDATA, add(CFA_XSP16, literal(-3)))
          CFI (cfiCond63) DPL0 load(1, XDATA, add(CFA_XSP16, literal(-2)))
          CFI (cfiCond63) DPH0 load(1, XDATA, add(CFA_XSP16, literal(-1)))
          CFI (cfiCond63) CFA_SP SP+-2
          CFI (cfiCond63) CFA_XSP16 add(XSP16, 30)
          CFI Block cfiCond64 Using cfiCommon0
          CFI (cfiCond64) Function zclGp_SendGpProxyTableResponse
          CFI (cfiCond64) Conditional ??CrossCallReturnLabel_38
          CFI (cfiCond64) R6 load(1, XDATA, add(CFA_XSP16, literal(-16)))
          CFI (cfiCond64) VB load(1, XDATA, add(CFA_XSP16, literal(-15)))
          CFI (cfiCond64) V0 load(1, XDATA, add(CFA_XSP16, literal(-14)))
          CFI (cfiCond64) V1 load(1, XDATA, add(CFA_XSP16, literal(-13)))
          CFI (cfiCond64) V2 load(1, XDATA, add(CFA_XSP16, literal(-12)))
          CFI (cfiCond64) V3 load(1, XDATA, add(CFA_XSP16, literal(-11)))
          CFI (cfiCond64) V4 load(1, XDATA, add(CFA_XSP16, literal(-10)))
          CFI (cfiCond64) V5 load(1, XDATA, add(CFA_XSP16, literal(-9)))
          CFI (cfiCond64) V6 load(1, XDATA, add(CFA_XSP16, literal(-8)))
          CFI (cfiCond64) V7 load(1, XDATA, add(CFA_XSP16, literal(-7)))
          CFI (cfiCond64) R7 load(1, XDATA, add(CFA_XSP16, literal(-6)))
          CFI (cfiCond64) ?RET_LOW load(1, XDATA, add(CFA_XSP16, literal(-5)))
          CFI (cfiCond64) ?RET_HIGH load(1, XDATA, add(CFA_XSP16, literal(-4)))
          CFI (cfiCond64) ?BRET_EXT load(1, XDATA, add(CFA_XSP16, literal(-3)))
          CFI (cfiCond64) DPL0 load(1, XDATA, add(CFA_XSP16, literal(-2)))
          CFI (cfiCond64) DPH0 load(1, XDATA, add(CFA_XSP16, literal(-1)))
          CFI (cfiCond64) CFA_SP SP+-2
          CFI (cfiCond64) CFA_XSP16 add(XSP16, 24)
          CFI Block cfiCond65 Using cfiCommon0
          CFI (cfiCond65) Function gp_addPairedSinksToMsgQueue
          CFI (cfiCond65) Conditional ??CrossCallReturnLabel_39
          CFI (cfiCond65) R6 load(1, XDATA, add(CFA_XSP16, literal(-15)))
          CFI (cfiCond65) VB load(1, XDATA, add(CFA_XSP16, literal(-14)))
          CFI (cfiCond65) V0 load(1, XDATA, add(CFA_XSP16, literal(-13)))
          CFI (cfiCond65) V1 load(1, XDATA, add(CFA_XSP16, literal(-12)))
          CFI (cfiCond65) V2 load(1, XDATA, add(CFA_XSP16, literal(-11)))
          CFI (cfiCond65) V3 load(1, XDATA, add(CFA_XSP16, literal(-10)))
          CFI (cfiCond65) V4 load(1, XDATA, add(CFA_XSP16, literal(-9)))
          CFI (cfiCond65) V5 load(1, XDATA, add(CFA_XSP16, literal(-8)))
          CFI (cfiCond65) V6 load(1, XDATA, add(CFA_XSP16, literal(-7)))
          CFI (cfiCond65) R7 load(1, XDATA, add(CFA_XSP16, literal(-6)))
          CFI (cfiCond65) ?RET_LOW load(1, XDATA, add(CFA_XSP16, literal(-5)))
          CFI (cfiCond65) ?RET_HIGH load(1, XDATA, add(CFA_XSP16, literal(-4)))
          CFI (cfiCond65) ?BRET_EXT load(1, XDATA, add(CFA_XSP16, literal(-3)))
          CFI (cfiCond65) DPL0 load(1, XDATA, add(CFA_XSP16, literal(-2)))
          CFI (cfiCond65) DPH0 load(1, XDATA, add(CFA_XSP16, literal(-1)))
          CFI (cfiCond65) CFA_SP SP+-2
          CFI (cfiCond65) CFA_XSP16 add(XSP16, 104)
          CFI Block cfiCond66 Using cfiCommon0
          CFI (cfiCond66) Function gp_NotificationMsgClean
          CFI (cfiCond66) Conditional ??CrossCallReturnLabel_40
          CFI (cfiCond66) R6 load(1, XDATA, add(CFA_XSP16, literal(-12)))
          CFI (cfiCond66) VB load(1, XDATA, add(CFA_XSP16, literal(-11)))
          CFI (cfiCond66) V0 load(1, XDATA, add(CFA_XSP16, literal(-10)))
          CFI (cfiCond66) V1 load(1, XDATA, add(CFA_XSP16, literal(-9)))
          CFI (cfiCond66) V2 load(1, XDATA, add(CFA_XSP16, literal(-8)))
          CFI (cfiCond66) V3 load(1, XDATA, add(CFA_XSP16, literal(-7)))
          CFI (cfiCond66) R7 load(1, XDATA, add(CFA_XSP16, literal(-6)))
          CFI (cfiCond66) ?RET_LOW load(1, XDATA, add(CFA_XSP16, literal(-5)))
          CFI (cfiCond66) ?RET_HIGH load(1, XDATA, add(CFA_XSP16, literal(-4)))
          CFI (cfiCond66) ?BRET_EXT load(1, XDATA, add(CFA_XSP16, literal(-3)))
          CFI (cfiCond66) DPL0 load(1, XDATA, add(CFA_XSP16, literal(-2)))
          CFI (cfiCond66) DPH0 load(1, XDATA, add(CFA_XSP16, literal(-1)))
          CFI (cfiCond66) CFA_SP SP+-2
          CFI (cfiCond66) CFA_XSP16 add(XSP16, 12)
          CFI Block cfiPicker67 Using cfiCommon1
          CFI (cfiPicker67) NoFunction
          CFI (cfiPicker67) Picker
        MOV       A,R0
        MOVX      @DPTR,A
        INC       DPTR
        MOV       A,R1
        MOVX      @DPTR,A
        RET
          CFI EndBlock cfiCond55
          CFI EndBlock cfiCond56
          CFI EndBlock cfiCond57
          CFI EndBlock cfiCond58
          CFI EndBlock cfiCond59
          CFI EndBlock cfiCond60
          CFI EndBlock cfiCond61
          CFI EndBlock cfiCond62
          CFI EndBlock cfiCond63
          CFI EndBlock cfiCond64
          CFI EndBlock cfiCond65
          CFI EndBlock cfiCond66
          CFI EndBlock cfiPicker67

        RSEG BANKED_CODE:HUGECODE:NOROOT(0)
?Subroutine30:
          CFI Block cfiCond68 Using cfiCommon0
          CFI Function zclGp_SendGpNotificationCommand
          CFI Conditional ??CrossCallReturnLabel_27
          CFI R6 load(1, XDATA, add(CFA_XSP16, literal(-16)))
          CFI VB load(1, XDATA, add(CFA_XSP16, literal(-15)))
          CFI V0 load(1, XDATA, add(CFA_XSP16, literal(-14)))
          CFI V1 load(1, XDATA, add(CFA_XSP16, literal(-13)))
          CFI V2 load(1, XDATA, add(CFA_XSP16, literal(-12)))
          CFI V3 load(1, XDATA, add(CFA_XSP16, literal(-11)))
          CFI V4 load(1, XDATA, add(CFA_XSP16, literal(-10)))
          CFI V5 load(1, XDATA, add(CFA_XSP16, literal(-9)))
          CFI V6 load(1, XDATA, add(CFA_XSP16, literal(-8)))
          CFI V7 load(1, XDATA, add(CFA_XSP16, literal(-7)))
          CFI R7 load(1, XDATA, add(CFA_XSP16, literal(-6)))
          CFI ?RET_LOW load(1, XDATA, add(CFA_XSP16, literal(-5)))
          CFI ?RET_HIGH load(1, XDATA, add(CFA_XSP16, literal(-4)))
          CFI ?BRET_EXT load(1, XDATA, add(CFA_XSP16, literal(-3)))
          CFI DPL0 load(1, XDATA, add(CFA_XSP16, literal(-2)))
          CFI DPH0 load(1, XDATA, add(CFA_XSP16, literal(-1)))
          CFI CFA_SP SP+-2
          CFI CFA_XSP16 add(XSP16, 22)
          CFI Block cfiCond69 Using cfiCommon0
          CFI (cfiCond69) Function zclGp_SendGpCommissioningNotificationCommand
          CFI (cfiCond69) Conditional ??CrossCallReturnLabel_28
          CFI (cfiCond69) R6 load(1, XDATA, add(CFA_XSP16, literal(-16)))
          CFI (cfiCond69) VB load(1, XDATA, add(CFA_XSP16, literal(-15)))
          CFI (cfiCond69) V0 load(1, XDATA, add(CFA_XSP16, literal(-14)))
          CFI (cfiCond69) V1 load(1, XDATA, add(CFA_XSP16, literal(-13)))
          CFI (cfiCond69) V2 load(1, XDATA, add(CFA_XSP16, literal(-12)))
          CFI (cfiCond69) V3 load(1, XDATA, add(CFA_XSP16, literal(-11)))
          CFI (cfiCond69) V4 load(1, XDATA, add(CFA_XSP16, literal(-10)))
          CFI (cfiCond69) V5 load(1, XDATA, add(CFA_XSP16, literal(-9)))
          CFI (cfiCond69) V6 load(1, XDATA, add(CFA_XSP16, literal(-8)))
          CFI (cfiCond69) V7 load(1, XDATA, add(CFA_XSP16, literal(-7)))
          CFI (cfiCond69) R7 load(1, XDATA, add(CFA_XSP16, literal(-6)))
          CFI (cfiCond69) ?RET_LOW load(1, XDATA, add(CFA_XSP16, literal(-5)))
          CFI (cfiCond69) ?RET_HIGH load(1, XDATA, add(CFA_XSP16, literal(-4)))
          CFI (cfiCond69) ?BRET_EXT load(1, XDATA, add(CFA_XSP16, literal(-3)))
          CFI (cfiCond69) DPL0 load(1, XDATA, add(CFA_XSP16, literal(-2)))
          CFI (cfiCond69) DPH0 load(1, XDATA, add(CFA_XSP16, literal(-1)))
          CFI (cfiCond69) CFA_SP SP+-2
          CFI (cfiCond69) CFA_XSP16 add(XSP16, 30)
          CFI Block cfiPicker70 Using cfiCommon1
          CFI (cfiPicker70) NoFunction
          CFI (cfiPicker70) Picker
        MOV       A,?V6
        ADD       A,#0x19
        LCALL     ?Subroutine48 & 0xFFFF
??CrossCallReturnLabel_57:
        MOVX      @DPTR,A
        RET
          CFI EndBlock cfiCond68
          CFI EndBlock cfiCond69
          CFI EndBlock cfiPicker70

        RSEG BANKED_CODE:HUGECODE:NOROOT(0)
?Subroutine29:
          CFI Block cfiCond71 Using cfiCommon0
          CFI Function zclGp_SendGpNotificationCommand
          CFI Conditional ??CrossCallReturnLabel_25
          CFI R6 load(1, XDATA, add(CFA_XSP16, literal(-16)))
          CFI VB load(1, XDATA, add(CFA_XSP16, literal(-15)))
          CFI V0 load(1, XDATA, add(CFA_XSP16, literal(-14)))
          CFI V1 load(1, XDATA, add(CFA_XSP16, literal(-13)))
          CFI V2 load(1, XDATA, add(CFA_XSP16, literal(-12)))
          CFI V3 load(1, XDATA, add(CFA_XSP16, literal(-11)))
          CFI V4 load(1, XDATA, add(CFA_XSP16, literal(-10)))
          CFI V5 load(1, XDATA, add(CFA_XSP16, literal(-9)))
          CFI V6 load(1, XDATA, add(CFA_XSP16, literal(-8)))
          CFI V7 load(1, XDATA, add(CFA_XSP16, literal(-7)))
          CFI R7 load(1, XDATA, add(CFA_XSP16, literal(-6)))
          CFI ?RET_LOW load(1, XDATA, add(CFA_XSP16, literal(-5)))
          CFI ?RET_HIGH load(1, XDATA, add(CFA_XSP16, literal(-4)))
          CFI ?BRET_EXT load(1, XDATA, add(CFA_XSP16, literal(-3)))
          CFI DPL0 load(1, XDATA, add(CFA_XSP16, literal(-2)))
          CFI DPH0 load(1, XDATA, add(CFA_XSP16, literal(-1)))
          CFI CFA_SP SP+-2
          CFI CFA_XSP16 add(XSP16, 22)
          CFI Block cfiCond72 Using cfiCommon0
          CFI (cfiCond72) Function zclGp_SendGpCommissioningNotificationCommand
          CFI (cfiCond72) Conditional ??CrossCallReturnLabel_26
          CFI (cfiCond72) R6 load(1, XDATA, add(CFA_XSP16, literal(-16)))
          CFI (cfiCond72) VB load(1, XDATA, add(CFA_XSP16, literal(-15)))
          CFI (cfiCond72) V0 load(1, XDATA, add(CFA_XSP16, literal(-14)))
          CFI (cfiCond72) V1 load(1, XDATA, add(CFA_XSP16, literal(-13)))
          CFI (cfiCond72) V2 load(1, XDATA, add(CFA_XSP16, literal(-12)))
          CFI (cfiCond72) V3 load(1, XDATA, add(CFA_XSP16, literal(-11)))
          CFI (cfiCond72) V4 load(1, XDATA, add(CFA_XSP16, literal(-10)))
          CFI (cfiCond72) V5 load(1, XDATA, add(CFA_XSP16, literal(-9)))
          CFI (cfiCond72) V6 load(1, XDATA, add(CFA_XSP16, literal(-8)))
          CFI (cfiCond72) V7 load(1, XDATA, add(CFA_XSP16, literal(-7)))
          CFI (cfiCond72) R7 load(1, XDATA, add(CFA_XSP16, literal(-6)))
          CFI (cfiCond72) ?RET_LOW load(1, XDATA, add(CFA_XSP16, literal(-5)))
          CFI (cfiCond72) ?RET_HIGH load(1, XDATA, add(CFA_XSP16, literal(-4)))
          CFI (cfiCond72) ?BRET_EXT load(1, XDATA, add(CFA_XSP16, literal(-3)))
          CFI (cfiCond72) DPL0 load(1, XDATA, add(CFA_XSP16, literal(-2)))
          CFI (cfiCond72) DPH0 load(1, XDATA, add(CFA_XSP16, literal(-1)))
          CFI (cfiCond72) CFA_SP SP+-2
          CFI (cfiCond72) CFA_XSP16 add(XSP16, 30)
          CFI Block cfiPicker73 Using cfiCommon1
          CFI (cfiPicker73) NoFunction
          CFI (cfiPicker73) Picker
        MOV       A,?V6
        LCALL     ?Subroutine46 & 0xFFFF
??CrossCallReturnLabel_55:
        MOV       A,R6
        ADD       A,R0
        MOV       R6,A
        CLR       A
        ADDC      A,R7
        MOV       R7,A
        RET
          CFI EndBlock cfiCond71
          CFI EndBlock cfiCond72
          CFI EndBlock cfiPicker73

        RSEG BANKED_CODE:HUGECODE:NOROOT(0)
?Subroutine26:
          CFI Block cfiCond74 Using cfiCommon0
          CFI Function zclGp_SendGpNotificationCommand
          CFI Conditional ??CrossCallReturnLabel_23
          CFI R6 load(1, XDATA, add(CFA_XSP16, literal(-16)))
          CFI VB load(1, XDATA, add(CFA_XSP16, literal(-15)))
          CFI V0 load(1, XDATA, add(CFA_XSP16, literal(-14)))
          CFI V1 load(1, XDATA, add(CFA_XSP16, literal(-13)))
          CFI V2 load(1, XDATA, add(CFA_XSP16, literal(-12)))
          CFI V3 load(1, XDATA, add(CFA_XSP16, literal(-11)))
          CFI V4 load(1, XDATA, add(CFA_XSP16, literal(-10)))
          CFI V5 load(1, XDATA, add(CFA_XSP16, literal(-9)))
          CFI V6 load(1, XDATA, add(CFA_XSP16, literal(-8)))
          CFI V7 load(1, XDATA, add(CFA_XSP16, literal(-7)))
          CFI R7 load(1, XDATA, add(CFA_XSP16, literal(-6)))
          CFI ?RET_LOW load(1, XDATA, add(CFA_XSP16, literal(-5)))
          CFI ?RET_HIGH load(1, XDATA, add(CFA_XSP16, literal(-4)))
          CFI ?BRET_EXT load(1, XDATA, add(CFA_XSP16, literal(-3)))
          CFI DPL0 load(1, XDATA, add(CFA_XSP16, literal(-2)))
          CFI DPH0 load(1, XDATA, add(CFA_XSP16, literal(-1)))
          CFI CFA_SP SP+-2
          CFI CFA_XSP16 add(XSP16, 25)
          CFI Block cfiCond75 Using cfiCommon0
          CFI (cfiCond75) Function zclGp_SendGpCommissioningNotificationCommand
          CFI (cfiCond75) Conditional ??CrossCallReturnLabel_24
          CFI (cfiCond75) R6 load(1, XDATA, add(CFA_XSP16, literal(-16)))
          CFI (cfiCond75) VB load(1, XDATA, add(CFA_XSP16, literal(-15)))
          CFI (cfiCond75) V0 load(1, XDATA, add(CFA_XSP16, literal(-14)))
          CFI (cfiCond75) V1 load(1, XDATA, add(CFA_XSP16, literal(-13)))
          CFI (cfiCond75) V2 load(1, XDATA, add(CFA_XSP16, literal(-12)))
          CFI (cfiCond75) V3 load(1, XDATA, add(CFA_XSP16, literal(-11)))
          CFI (cfiCond75) V4 load(1, XDATA, add(CFA_XSP16, literal(-10)))
          CFI (cfiCond75) V5 load(1, XDATA, add(CFA_XSP16, literal(-9)))
          CFI (cfiCond75) V6 load(1, XDATA, add(CFA_XSP16, literal(-8)))
          CFI (cfiCond75) V7 load(1, XDATA, add(CFA_XSP16, literal(-7)))
          CFI (cfiCond75) R7 load(1, XDATA, add(CFA_XSP16, literal(-6)))
          CFI (cfiCond75) ?RET_LOW load(1, XDATA, add(CFA_XSP16, literal(-5)))
          CFI (cfiCond75) ?RET_HIGH load(1, XDATA, add(CFA_XSP16, literal(-4)))
          CFI (cfiCond75) ?BRET_EXT load(1, XDATA, add(CFA_XSP16, literal(-3)))
          CFI (cfiCond75) DPL0 load(1, XDATA, add(CFA_XSP16, literal(-2)))
          CFI (cfiCond75) DPH0 load(1, XDATA, add(CFA_XSP16, literal(-1)))
          CFI (cfiCond75) CFA_SP SP+-2
          CFI (cfiCond75) CFA_XSP16 add(XSP16, 33)
          CFI Block cfiPicker76 Using cfiCommon1
          CFI (cfiPicker76) NoFunction
          CFI (cfiPicker76) Picker
        LCALL     ?Subroutine44 & 0xFFFF
??CrossCallReturnLabel_171:
        LCALL     `??osal_memcpy::?relay`; Banked call to: osal_memcpy
        MOV       A,#0x3
        RET
          CFI EndBlock cfiCond74
          CFI EndBlock cfiCond75
          CFI EndBlock cfiPicker76

        RSEG BANKED_CODE:HUGECODE:NOROOT(0)
?Subroutine25:
          CFI Block cfiCond77 Using cfiCommon0
          CFI Function zclGp_SendGpNotificationCommand
          CFI Conditional ??CrossCallReturnLabel_21
          CFI R6 load(1, XDATA, add(CFA_XSP16, literal(-16)))
          CFI VB load(1, XDATA, add(CFA_XSP16, literal(-15)))
          CFI V0 load(1, XDATA, add(CFA_XSP16, literal(-14)))
          CFI V1 load(1, XDATA, add(CFA_XSP16, literal(-13)))
          CFI V2 load(1, XDATA, add(CFA_XSP16, literal(-12)))
          CFI V3 load(1, XDATA, add(CFA_XSP16, literal(-11)))
          CFI V4 load(1, XDATA, add(CFA_XSP16, literal(-10)))
          CFI V5 load(1, XDATA, add(CFA_XSP16, literal(-9)))
          CFI V6 load(1, XDATA, add(CFA_XSP16, literal(-8)))
          CFI V7 load(1, XDATA, add(CFA_XSP16, literal(-7)))
          CFI R7 load(1, XDATA, add(CFA_XSP16, literal(-6)))
          CFI ?RET_LOW load(1, XDATA, add(CFA_XSP16, literal(-5)))
          CFI ?RET_HIGH load(1, XDATA, add(CFA_XSP16, literal(-4)))
          CFI ?BRET_EXT load(1, XDATA, add(CFA_XSP16, literal(-3)))
          CFI DPL0 load(1, XDATA, add(CFA_XSP16, literal(-2)))
          CFI DPH0 load(1, XDATA, add(CFA_XSP16, literal(-1)))
          CFI CFA_SP SP+-2
          CFI CFA_XSP16 add(XSP16, 22)
          CFI Block cfiCond78 Using cfiCommon0
          CFI (cfiCond78) Function zclGp_SendGpCommissioningNotificationCommand
          CFI (cfiCond78) Conditional ??CrossCallReturnLabel_22
          CFI (cfiCond78) R6 load(1, XDATA, add(CFA_XSP16, literal(-16)))
          CFI (cfiCond78) VB load(1, XDATA, add(CFA_XSP16, literal(-15)))
          CFI (cfiCond78) V0 load(1, XDATA, add(CFA_XSP16, literal(-14)))
          CFI (cfiCond78) V1 load(1, XDATA, add(CFA_XSP16, literal(-13)))
          CFI (cfiCond78) V2 load(1, XDATA, add(CFA_XSP16, literal(-12)))
          CFI (cfiCond78) V3 load(1, XDATA, add(CFA_XSP16, literal(-11)))
          CFI (cfiCond78) V4 load(1, XDATA, add(CFA_XSP16, literal(-10)))
          CFI (cfiCond78) V5 load(1, XDATA, add(CFA_XSP16, literal(-9)))
          CFI (cfiCond78) V6 load(1, XDATA, add(CFA_XSP16, literal(-8)))
          CFI (cfiCond78) V7 load(1, XDATA, add(CFA_XSP16, literal(-7)))
          CFI (cfiCond78) R7 load(1, XDATA, add(CFA_XSP16, literal(-6)))
          CFI (cfiCond78) ?RET_LOW load(1, XDATA, add(CFA_XSP16, literal(-5)))
          CFI (cfiCond78) ?RET_HIGH load(1, XDATA, add(CFA_XSP16, literal(-4)))
          CFI (cfiCond78) ?BRET_EXT load(1, XDATA, add(CFA_XSP16, literal(-3)))
          CFI (cfiCond78) DPL0 load(1, XDATA, add(CFA_XSP16, literal(-2)))
          CFI (cfiCond78) DPH0 load(1, XDATA, add(CFA_XSP16, literal(-1)))
          CFI (cfiCond78) CFA_SP SP+-2
          CFI (cfiCond78) CFA_XSP16 add(XSP16, 30)
          CFI Block cfiPicker79 Using cfiCommon1
          CFI (cfiPicker79) NoFunction
          CFI (cfiPicker79) Picker
        MOV       A,R2
        LCALL     ?Subroutine46 & 0xFFFF
??CrossCallReturnLabel_54:
        MOV       A,?V4
        ADD       A,R0
        MOV       ?V4,A
        CLR       A
        ADDC      A,#0x0
        RET
          CFI EndBlock cfiCond77
          CFI EndBlock cfiCond78
          CFI EndBlock cfiPicker79

        RSEG BANKED_CODE:HUGECODE:NOROOT(0)
?Subroutine46:
          CFI Block cfiCond80 Using cfiCommon0
          CFI Function zclGp_SendGpNotificationCommand
          CFI Conditional ??CrossCallReturnLabel_55, ??CrossCallReturnLabel_25
          CFI R6 load(1, XDATA, add(CFA_XSP16, literal(-16)))
          CFI VB load(1, XDATA, add(CFA_XSP16, literal(-15)))
          CFI V0 load(1, XDATA, add(CFA_XSP16, literal(-14)))
          CFI V1 load(1, XDATA, add(CFA_XSP16, literal(-13)))
          CFI V2 load(1, XDATA, add(CFA_XSP16, literal(-12)))
          CFI V3 load(1, XDATA, add(CFA_XSP16, literal(-11)))
          CFI V4 load(1, XDATA, add(CFA_XSP16, literal(-10)))
          CFI V5 load(1, XDATA, add(CFA_XSP16, literal(-9)))
          CFI V6 load(1, XDATA, add(CFA_XSP16, literal(-8)))
          CFI V7 load(1, XDATA, add(CFA_XSP16, literal(-7)))
          CFI R7 load(1, XDATA, add(CFA_XSP16, literal(-6)))
          CFI ?RET_LOW load(1, XDATA, add(CFA_XSP16, literal(-5)))
          CFI ?RET_HIGH load(1, XDATA, add(CFA_XSP16, literal(-4)))
          CFI ?BRET_EXT load(1, XDATA, add(CFA_XSP16, literal(-3)))
          CFI DPL0 load(1, XDATA, add(CFA_XSP16, literal(-2)))
          CFI DPH0 load(1, XDATA, add(CFA_XSP16, literal(-1)))
          CFI CFA_SP SP+-4
          CFI CFA_XSP16 add(XSP16, 22)
          CFI Block cfiCond81 Using cfiCommon0
          CFI (cfiCond81) Function zclGp_SendGpCommissioningNotificationCommand
          CFI (cfiCond81) Conditional ??CrossCallReturnLabel_55, ??CrossCallReturnLabel_26
          CFI (cfiCond81) R6 load(1, XDATA, add(CFA_XSP16, literal(-16)))
          CFI (cfiCond81) VB load(1, XDATA, add(CFA_XSP16, literal(-15)))
          CFI (cfiCond81) V0 load(1, XDATA, add(CFA_XSP16, literal(-14)))
          CFI (cfiCond81) V1 load(1, XDATA, add(CFA_XSP16, literal(-13)))
          CFI (cfiCond81) V2 load(1, XDATA, add(CFA_XSP16, literal(-12)))
          CFI (cfiCond81) V3 load(1, XDATA, add(CFA_XSP16, literal(-11)))
          CFI (cfiCond81) V4 load(1, XDATA, add(CFA_XSP16, literal(-10)))
          CFI (cfiCond81) V5 load(1, XDATA, add(CFA_XSP16, literal(-9)))
          CFI (cfiCond81) V6 load(1, XDATA, add(CFA_XSP16, literal(-8)))
          CFI (cfiCond81) V7 load(1, XDATA, add(CFA_XSP16, literal(-7)))
          CFI (cfiCond81) R7 load(1, XDATA, add(CFA_XSP16, literal(-6)))
          CFI (cfiCond81) ?RET_LOW load(1, XDATA, add(CFA_XSP16, literal(-5)))
          CFI (cfiCond81) ?RET_HIGH load(1, XDATA, add(CFA_XSP16, literal(-4)))
          CFI (cfiCond81) ?BRET_EXT load(1, XDATA, add(CFA_XSP16, literal(-3)))
          CFI (cfiCond81) DPL0 load(1, XDATA, add(CFA_XSP16, literal(-2)))
          CFI (cfiCond81) DPH0 load(1, XDATA, add(CFA_XSP16, literal(-1)))
          CFI (cfiCond81) CFA_SP SP+-4
          CFI (cfiCond81) CFA_XSP16 add(XSP16, 30)
          CFI Block cfiCond82 Using cfiCommon0
          CFI (cfiCond82) Function zclGp_SendGpNotificationCommand
          CFI (cfiCond82) Conditional ??CrossCallReturnLabel_54, ??CrossCallReturnLabel_21
          CFI (cfiCond82) R6 load(1, XDATA, add(CFA_XSP16, literal(-16)))
          CFI (cfiCond82) VB load(1, XDATA, add(CFA_XSP16, literal(-15)))
          CFI (cfiCond82) V0 load(1, XDATA, add(CFA_XSP16, literal(-14)))
          CFI (cfiCond82) V1 load(1, XDATA, add(CFA_XSP16, literal(-13)))
          CFI (cfiCond82) V2 load(1, XDATA, add(CFA_XSP16, literal(-12)))
          CFI (cfiCond82) V3 load(1, XDATA, add(CFA_XSP16, literal(-11)))
          CFI (cfiCond82) V4 load(1, XDATA, add(CFA_XSP16, literal(-10)))
          CFI (cfiCond82) V5 load(1, XDATA, add(CFA_XSP16, literal(-9)))
          CFI (cfiCond82) V6 load(1, XDATA, add(CFA_XSP16, literal(-8)))
          CFI (cfiCond82) V7 load(1, XDATA, add(CFA_XSP16, literal(-7)))
          CFI (cfiCond82) R7 load(1, XDATA, add(CFA_XSP16, literal(-6)))
          CFI (cfiCond82) ?RET_LOW load(1, XDATA, add(CFA_XSP16, literal(-5)))
          CFI (cfiCond82) ?RET_HIGH load(1, XDATA, add(CFA_XSP16, literal(-4)))
          CFI (cfiCond82) ?BRET_EXT load(1, XDATA, add(CFA_XSP16, literal(-3)))
          CFI (cfiCond82) DPL0 load(1, XDATA, add(CFA_XSP16, literal(-2)))
          CFI (cfiCond82) DPH0 load(1, XDATA, add(CFA_XSP16, literal(-1)))
          CFI (cfiCond82) CFA_SP SP+-4
          CFI (cfiCond82) CFA_XSP16 add(XSP16, 22)
          CFI Block cfiCond83 Using cfiCommon0
          CFI (cfiCond83) Function zclGp_SendGpCommissioningNotificationCommand
          CFI (cfiCond83) Conditional ??CrossCallReturnLabel_54, ??CrossCallReturnLabel_22
          CFI (cfiCond83) R6 load(1, XDATA, add(CFA_XSP16, literal(-16)))
          CFI (cfiCond83) VB load(1, XDATA, add(CFA_XSP16, literal(-15)))
          CFI (cfiCond83) V0 load(1, XDATA, add(CFA_XSP16, literal(-14)))
          CFI (cfiCond83) V1 load(1, XDATA, add(CFA_XSP16, literal(-13)))
          CFI (cfiCond83) V2 load(1, XDATA, add(CFA_XSP16, literal(-12)))
          CFI (cfiCond83) V3 load(1, XDATA, add(CFA_XSP16, literal(-11)))
          CFI (cfiCond83) V4 load(1, XDATA, add(CFA_XSP16, literal(-10)))
          CFI (cfiCond83) V5 load(1, XDATA, add(CFA_XSP16, literal(-9)))
          CFI (cfiCond83) V6 load(1, XDATA, add(CFA_XSP16, literal(-8)))
          CFI (cfiCond83) V7 load(1, XDATA, add(CFA_XSP16, literal(-7)))
          CFI (cfiCond83) R7 load(1, XDATA, add(CFA_XSP16, literal(-6)))
          CFI (cfiCond83) ?RET_LOW load(1, XDATA, add(CFA_XSP16, literal(-5)))
          CFI (cfiCond83) ?RET_HIGH load(1, XDATA, add(CFA_XSP16, literal(-4)))
          CFI (cfiCond83) ?BRET_EXT load(1, XDATA, add(CFA_XSP16, literal(-3)))
          CFI (cfiCond83) DPL0 load(1, XDATA, add(CFA_XSP16, literal(-2)))
          CFI (cfiCond83) DPH0 load(1, XDATA, add(CFA_XSP16, literal(-1)))
          CFI (cfiCond83) CFA_SP SP+-4
          CFI (cfiCond83) CFA_XSP16 add(XSP16, 30)
          CFI Block cfiPicker84 Using cfiCommon1
          CFI (cfiPicker84) NoFunction
          CFI (cfiPicker84) Picker
        LCALL     ?Subroutine51 & 0xFFFF
??CrossCallReturnLabel_59:
        MOV       R0,A
        RET
          CFI EndBlock cfiCond80
          CFI EndBlock cfiCond81
          CFI EndBlock cfiCond82
          CFI EndBlock cfiCond83
          CFI EndBlock cfiPicker84

        RSEG BANKED_CODE:HUGECODE:NOROOT(0)
?Subroutine51:
          CFI Block cfiCond85 Using cfiCommon0
          CFI Function zclGp_SendGpNotificationCommand
          CFI Conditional ??CrossCallReturnLabel_58, ??CrossCallReturnLabel_46
          CFI R6 load(1, XDATA, add(CFA_XSP16, literal(-16)))
          CFI VB load(1, XDATA, add(CFA_XSP16, literal(-15)))
          CFI V0 load(1, XDATA, add(CFA_XSP16, literal(-14)))
          CFI V1 load(1, XDATA, add(CFA_XSP16, literal(-13)))
          CFI V2 load(1, XDATA, add(CFA_XSP16, literal(-12)))
          CFI V3 load(1, XDATA, add(CFA_XSP16, literal(-11)))
          CFI V4 load(1, XDATA, add(CFA_XSP16, literal(-10)))
          CFI V5 load(1, XDATA, add(CFA_XSP16, literal(-9)))
          CFI V6 load(1, XDATA, add(CFA_XSP16, literal(-8)))
          CFI V7 load(1, XDATA, add(CFA_XSP16, literal(-7)))
          CFI R7 load(1, XDATA, add(CFA_XSP16, literal(-6)))
          CFI ?RET_LOW load(1, XDATA, add(CFA_XSP16, literal(-5)))
          CFI ?RET_HIGH load(1, XDATA, add(CFA_XSP16, literal(-4)))
          CFI ?BRET_EXT load(1, XDATA, add(CFA_XSP16, literal(-3)))
          CFI DPL0 load(1, XDATA, add(CFA_XSP16, literal(-2)))
          CFI DPH0 load(1, XDATA, add(CFA_XSP16, literal(-1)))
          CFI CFA_SP SP+-4
          CFI CFA_XSP16 add(XSP16, 22)
          CFI Block cfiCond86 Using cfiCommon0
          CFI (cfiCond86) Function zclGp_SendGpCommissioningNotificationCommand
          CFI (cfiCond86) Conditional ??CrossCallReturnLabel_58, ??CrossCallReturnLabel_47
          CFI (cfiCond86) R6 load(1, XDATA, add(CFA_XSP16, literal(-16)))
          CFI (cfiCond86) VB load(1, XDATA, add(CFA_XSP16, literal(-15)))
          CFI (cfiCond86) V0 load(1, XDATA, add(CFA_XSP16, literal(-14)))
          CFI (cfiCond86) V1 load(1, XDATA, add(CFA_XSP16, literal(-13)))
          CFI (cfiCond86) V2 load(1, XDATA, add(CFA_XSP16, literal(-12)))
          CFI (cfiCond86) V3 load(1, XDATA, add(CFA_XSP16, literal(-11)))
          CFI (cfiCond86) V4 load(1, XDATA, add(CFA_XSP16, literal(-10)))
          CFI (cfiCond86) V5 load(1, XDATA, add(CFA_XSP16, literal(-9)))
          CFI (cfiCond86) V6 load(1, XDATA, add(CFA_XSP16, literal(-8)))
          CFI (cfiCond86) V7 load(1, XDATA, add(CFA_XSP16, literal(-7)))
          CFI (cfiCond86) R7 load(1, XDATA, add(CFA_XSP16, literal(-6)))
          CFI (cfiCond86) ?RET_LOW load(1, XDATA, add(CFA_XSP16, literal(-5)))
          CFI (cfiCond86) ?RET_HIGH load(1, XDATA, add(CFA_XSP16, literal(-4)))
          CFI (cfiCond86) ?BRET_EXT load(1, XDATA, add(CFA_XSP16, literal(-3)))
          CFI (cfiCond86) DPL0 load(1, XDATA, add(CFA_XSP16, literal(-2)))
          CFI (cfiCond86) DPH0 load(1, XDATA, add(CFA_XSP16, literal(-1)))
          CFI (cfiCond86) CFA_SP SP+-4
          CFI (cfiCond86) CFA_XSP16 add(XSP16, 30)
          CFI Block cfiCond87 Using cfiCommon0
          CFI (cfiCond87) Function zclGp_SendGpNotificationCommand
          CFI (cfiCond87) Conditional ??CrossCallReturnLabel_59, ??CrossCallReturnLabel_55, ??CrossCallReturnLabel_25
          CFI (cfiCond87) R6 load(1, XDATA, add(CFA_XSP16, literal(-16)))
          CFI (cfiCond87) VB load(1, XDATA, add(CFA_XSP16, literal(-15)))
          CFI (cfiCond87) V0 load(1, XDATA, add(CFA_XSP16, literal(-14)))
          CFI (cfiCond87) V1 load(1, XDATA, add(CFA_XSP16, literal(-13)))
          CFI (cfiCond87) V2 load(1, XDATA, add(CFA_XSP16, literal(-12)))
          CFI (cfiCond87) V3 load(1, XDATA, add(CFA_XSP16, literal(-11)))
          CFI (cfiCond87) V4 load(1, XDATA, add(CFA_XSP16, literal(-10)))
          CFI (cfiCond87) V5 load(1, XDATA, add(CFA_XSP16, literal(-9)))
          CFI (cfiCond87) V6 load(1, XDATA, add(CFA_XSP16, literal(-8)))
          CFI (cfiCond87) V7 load(1, XDATA, add(CFA_XSP16, literal(-7)))
          CFI (cfiCond87) R7 load(1, XDATA, add(CFA_XSP16, literal(-6)))
          CFI (cfiCond87) ?RET_LOW load(1, XDATA, add(CFA_XSP16, literal(-5)))
          CFI (cfiCond87) ?RET_HIGH load(1, XDATA, add(CFA_XSP16, literal(-4)))
          CFI (cfiCond87) ?BRET_EXT load(1, XDATA, add(CFA_XSP16, literal(-3)))
          CFI (cfiCond87) DPL0 load(1, XDATA, add(CFA_XSP16, literal(-2)))
          CFI (cfiCond87) DPH0 load(1, XDATA, add(CFA_XSP16, literal(-1)))
          CFI (cfiCond87) CFA_SP SP+-6
          CFI (cfiCond87) CFA_XSP16 add(XSP16, 22)
          CFI Block cfiCond88 Using cfiCommon0
          CFI (cfiCond88) Function zclGp_SendGpCommissioningNotificationCommand
          CFI (cfiCond88) Conditional ??CrossCallReturnLabel_59, ??CrossCallReturnLabel_55, ??CrossCallReturnLabel_26
          CFI (cfiCond88) R6 load(1, XDATA, add(CFA_XSP16, literal(-16)))
          CFI (cfiCond88) VB load(1, XDATA, add(CFA_XSP16, literal(-15)))
          CFI (cfiCond88) V0 load(1, XDATA, add(CFA_XSP16, literal(-14)))
          CFI (cfiCond88) V1 load(1, XDATA, add(CFA_XSP16, literal(-13)))
          CFI (cfiCond88) V2 load(1, XDATA, add(CFA_XSP16, literal(-12)))
          CFI (cfiCond88) V3 load(1, XDATA, add(CFA_XSP16, literal(-11)))
          CFI (cfiCond88) V4 load(1, XDATA, add(CFA_XSP16, literal(-10)))
          CFI (cfiCond88) V5 load(1, XDATA, add(CFA_XSP16, literal(-9)))
          CFI (cfiCond88) V6 load(1, XDATA, add(CFA_XSP16, literal(-8)))
          CFI (cfiCond88) V7 load(1, XDATA, add(CFA_XSP16, literal(-7)))
          CFI (cfiCond88) R7 load(1, XDATA, add(CFA_XSP16, literal(-6)))
          CFI (cfiCond88) ?RET_LOW load(1, XDATA, add(CFA_XSP16, literal(-5)))
          CFI (cfiCond88) ?RET_HIGH load(1, XDATA, add(CFA_XSP16, literal(-4)))
          CFI (cfiCond88) ?BRET_EXT load(1, XDATA, add(CFA_XSP16, literal(-3)))
          CFI (cfiCond88) DPL0 load(1, XDATA, add(CFA_XSP16, literal(-2)))
          CFI (cfiCond88) DPH0 load(1, XDATA, add(CFA_XSP16, literal(-1)))
          CFI (cfiCond88) CFA_SP SP+-6
          CFI (cfiCond88) CFA_XSP16 add(XSP16, 30)
          CFI Block cfiCond89 Using cfiCommon0
          CFI (cfiCond89) Function zclGp_SendGpNotificationCommand
          CFI (cfiCond89) Conditional ??CrossCallReturnLabel_59, ??CrossCallReturnLabel_54, ??CrossCallReturnLabel_21
          CFI (cfiCond89) R6 load(1, XDATA, add(CFA_XSP16, literal(-16)))
          CFI (cfiCond89) VB load(1, XDATA, add(CFA_XSP16, literal(-15)))
          CFI (cfiCond89) V0 load(1, XDATA, add(CFA_XSP16, literal(-14)))
          CFI (cfiCond89) V1 load(1, XDATA, add(CFA_XSP16, literal(-13)))
          CFI (cfiCond89) V2 load(1, XDATA, add(CFA_XSP16, literal(-12)))
          CFI (cfiCond89) V3 load(1, XDATA, add(CFA_XSP16, literal(-11)))
          CFI (cfiCond89) V4 load(1, XDATA, add(CFA_XSP16, literal(-10)))
          CFI (cfiCond89) V5 load(1, XDATA, add(CFA_XSP16, literal(-9)))
          CFI (cfiCond89) V6 load(1, XDATA, add(CFA_XSP16, literal(-8)))
          CFI (cfiCond89) V7 load(1, XDATA, add(CFA_XSP16, literal(-7)))
          CFI (cfiCond89) R7 load(1, XDATA, add(CFA_XSP16, literal(-6)))
          CFI (cfiCond89) ?RET_LOW load(1, XDATA, add(CFA_XSP16, literal(-5)))
          CFI (cfiCond89) ?RET_HIGH load(1, XDATA, add(CFA_XSP16, literal(-4)))
          CFI (cfiCond89) ?BRET_EXT load(1, XDATA, add(CFA_XSP16, literal(-3)))
          CFI (cfiCond89) DPL0 load(1, XDATA, add(CFA_XSP16, literal(-2)))
          CFI (cfiCond89) DPH0 load(1, XDATA, add(CFA_XSP16, literal(-1)))
          CFI (cfiCond89) CFA_SP SP+-6
          CFI (cfiCond89) CFA_XSP16 add(XSP16, 22)
          CFI Block cfiCond90 Using cfiCommon0
          CFI (cfiCond90) Function zclGp_SendGpCommissioningNotificationCommand
          CFI (cfiCond90) Conditional ??CrossCallReturnLabel_59, ??CrossCallReturnLabel_54, ??CrossCallReturnLabel_22
          CFI (cfiCond90) R6 load(1, XDATA, add(CFA_XSP16, literal(-16)))
          CFI (cfiCond90) VB load(1, XDATA, add(CFA_XSP16, literal(-15)))
          CFI (cfiCond90) V0 load(1, XDATA, add(CFA_XSP16, literal(-14)))
          CFI (cfiCond90) V1 load(1, XDATA, add(CFA_XSP16, literal(-13)))
          CFI (cfiCond90) V2 load(1, XDATA, add(CFA_XSP16, literal(-12)))
          CFI (cfiCond90) V3 load(1, XDATA, add(CFA_XSP16, literal(-11)))
          CFI (cfiCond90) V4 load(1, XDATA, add(CFA_XSP16, literal(-10)))
          CFI (cfiCond90) V5 load(1, XDATA, add(CFA_XSP16, literal(-9)))
          CFI (cfiCond90) V6 load(1, XDATA, add(CFA_XSP16, literal(-8)))
          CFI (cfiCond90) V7 load(1, XDATA, add(CFA_XSP16, literal(-7)))
          CFI (cfiCond90) R7 load(1, XDATA, add(CFA_XSP16, literal(-6)))
          CFI (cfiCond90) ?RET_LOW load(1, XDATA, add(CFA_XSP16, literal(-5)))
          CFI (cfiCond90) ?RET_HIGH load(1, XDATA, add(CFA_XSP16, literal(-4)))
          CFI (cfiCond90) ?BRET_EXT load(1, XDATA, add(CFA_XSP16, literal(-3)))
          CFI (cfiCond90) DPL0 load(1, XDATA, add(CFA_XSP16, literal(-2)))
          CFI (cfiCond90) DPH0 load(1, XDATA, add(CFA_XSP16, literal(-1)))
          CFI (cfiCond90) CFA_SP SP+-6
          CFI (cfiCond90) CFA_XSP16 add(XSP16, 30)
          CFI Block cfiPicker91 Using cfiCommon1
          CFI (cfiPicker91) NoFunction
          CFI (cfiPicker91) Picker
        ADD       A,#0x14
        MOV       DPL,A
        CLR       A
        ADDC      A,?V7
        MOV       DPH,A
        MOVX      A,@DPTR
        RET
          CFI EndBlock cfiCond85
          CFI EndBlock cfiCond86
          CFI EndBlock cfiCond87
          CFI EndBlock cfiCond88
          CFI EndBlock cfiCond89
          CFI EndBlock cfiCond90
          CFI EndBlock cfiPicker91

        RSEG BANKED_CODE:HUGECODE:NOROOT(0)
?Subroutine17:
          CFI Block cfiCond92 Using cfiCommon0
          CFI Function zclGp_SendGpNotificationCommand
          CFI Conditional ??CrossCallReturnLabel_11
          CFI R6 load(1, XDATA, add(CFA_XSP16, literal(-16)))
          CFI VB load(1, XDATA, add(CFA_XSP16, literal(-15)))
          CFI V0 load(1, XDATA, add(CFA_XSP16, literal(-14)))
          CFI V1 load(1, XDATA, add(CFA_XSP16, literal(-13)))
          CFI V2 load(1, XDATA, add(CFA_XSP16, literal(-12)))
          CFI V3 load(1, XDATA, add(CFA_XSP16, literal(-11)))
          CFI V4 load(1, XDATA, add(CFA_XSP16, literal(-10)))
          CFI V5 load(1, XDATA, add(CFA_XSP16, literal(-9)))
          CFI V6 load(1, XDATA, add(CFA_XSP16, literal(-8)))
          CFI V7 load(1, XDATA, add(CFA_XSP16, literal(-7)))
          CFI R7 load(1, XDATA, add(CFA_XSP16, literal(-6)))
          CFI ?RET_LOW load(1, XDATA, add(CFA_XSP16, literal(-5)))
          CFI ?RET_HIGH load(1, XDATA, add(CFA_XSP16, literal(-4)))
          CFI ?BRET_EXT load(1, XDATA, add(CFA_XSP16, literal(-3)))
          CFI DPL0 load(1, XDATA, add(CFA_XSP16, literal(-2)))
          CFI DPH0 load(1, XDATA, add(CFA_XSP16, literal(-1)))
          CFI CFA_SP SP+-2
          CFI CFA_XSP16 add(XSP16, 22)
          CFI Block cfiCond93 Using cfiCommon0
          CFI (cfiCond93) Function zclGp_SendGpCommissioningNotificationCommand
          CFI (cfiCond93) Conditional ??CrossCallReturnLabel_12
          CFI (cfiCond93) R6 load(1, XDATA, add(CFA_XSP16, literal(-16)))
          CFI (cfiCond93) VB load(1, XDATA, add(CFA_XSP16, literal(-15)))
          CFI (cfiCond93) V0 load(1, XDATA, add(CFA_XSP16, literal(-14)))
          CFI (cfiCond93) V1 load(1, XDATA, add(CFA_XSP16, literal(-13)))
          CFI (cfiCond93) V2 load(1, XDATA, add(CFA_XSP16, literal(-12)))
          CFI (cfiCond93) V3 load(1, XDATA, add(CFA_XSP16, literal(-11)))
          CFI (cfiCond93) V4 load(1, XDATA, add(CFA_XSP16, literal(-10)))
          CFI (cfiCond93) V5 load(1, XDATA, add(CFA_XSP16, literal(-9)))
          CFI (cfiCond93) V6 load(1, XDATA, add(CFA_XSP16, literal(-8)))
          CFI (cfiCond93) V7 load(1, XDATA, add(CFA_XSP16, literal(-7)))
          CFI (cfiCond93) R7 load(1, XDATA, add(CFA_XSP16, literal(-6)))
          CFI (cfiCond93) ?RET_LOW load(1, XDATA, add(CFA_XSP16, literal(-5)))
          CFI (cfiCond93) ?RET_HIGH load(1, XDATA, add(CFA_XSP16, literal(-4)))
          CFI (cfiCond93) ?BRET_EXT load(1, XDATA, add(CFA_XSP16, literal(-3)))
          CFI (cfiCond93) DPL0 load(1, XDATA, add(CFA_XSP16, literal(-2)))
          CFI (cfiCond93) DPH0 load(1, XDATA, add(CFA_XSP16, literal(-1)))
          CFI (cfiCond93) CFA_SP SP+-2
          CFI (cfiCond93) CFA_XSP16 add(XSP16, 30)
          CFI Block cfiPicker94 Using cfiCommon1
          CFI (cfiPicker94) NoFunction
          CFI (cfiPicker94) Picker
        MOV       A,?V6
        ADD       A,#0xe
        LCALL     ?Subroutine41 & 0xFFFF
??CrossCallReturnLabel_51:
        INC       DPTR
        INC       DPTR
        INC       DPTR
        MOVX      @DPTR,A
        MOV       A,R6
        ADD       A,#0x9
        RET
          CFI EndBlock cfiCond92
          CFI EndBlock cfiCond93
          CFI EndBlock cfiPicker94

        RSEG BANKED_CODE:HUGECODE:NOROOT(0)
?Subroutine14:
          CFI Block cfiCond95 Using cfiCommon0
          CFI Function zclGp_SendGpCommissioningNotificationCommand
          CFI Conditional ??CrossCallReturnLabel_77
          CFI R6 load(1, XDATA, add(CFA_XSP16, literal(-16)))
          CFI VB load(1, XDATA, add(CFA_XSP16, literal(-15)))
          CFI V0 load(1, XDATA, add(CFA_XSP16, literal(-14)))
          CFI V1 load(1, XDATA, add(CFA_XSP16, literal(-13)))
          CFI V2 load(1, XDATA, add(CFA_XSP16, literal(-12)))
          CFI V3 load(1, XDATA, add(CFA_XSP16, literal(-11)))
          CFI V4 load(1, XDATA, add(CFA_XSP16, literal(-10)))
          CFI V5 load(1, XDATA, add(CFA_XSP16, literal(-9)))
          CFI V6 load(1, XDATA, add(CFA_XSP16, literal(-8)))
          CFI V7 load(1, XDATA, add(CFA_XSP16, literal(-7)))
          CFI R7 load(1, XDATA, add(CFA_XSP16, literal(-6)))
          CFI ?RET_LOW load(1, XDATA, add(CFA_XSP16, literal(-5)))
          CFI ?RET_HIGH load(1, XDATA, add(CFA_XSP16, literal(-4)))
          CFI ?BRET_EXT load(1, XDATA, add(CFA_XSP16, literal(-3)))
          CFI DPL0 load(1, XDATA, add(CFA_XSP16, literal(-2)))
          CFI DPH0 load(1, XDATA, add(CFA_XSP16, literal(-1)))
          CFI CFA_SP SP+-2
          CFI CFA_XSP16 add(XSP16, 30)
          CFI Block cfiCond96 Using cfiCommon0
          CFI (cfiCond96) Function gp_addPairedSinksToMsgQueue
          CFI (cfiCond96) Conditional ??CrossCallReturnLabel_78
          CFI (cfiCond96) R6 load(1, XDATA, add(CFA_XSP16, literal(-15)))
          CFI (cfiCond96) VB load(1, XDATA, add(CFA_XSP16, literal(-14)))
          CFI (cfiCond96) V0 load(1, XDATA, add(CFA_XSP16, literal(-13)))
          CFI (cfiCond96) V1 load(1, XDATA, add(CFA_XSP16, literal(-12)))
          CFI (cfiCond96) V2 load(1, XDATA, add(CFA_XSP16, literal(-11)))
          CFI (cfiCond96) V3 load(1, XDATA, add(CFA_XSP16, literal(-10)))
          CFI (cfiCond96) V4 load(1, XDATA, add(CFA_XSP16, literal(-9)))
          CFI (cfiCond96) V5 load(1, XDATA, add(CFA_XSP16, literal(-8)))
          CFI (cfiCond96) V6 load(1, XDATA, add(CFA_XSP16, literal(-7)))
          CFI (cfiCond96) R7 load(1, XDATA, add(CFA_XSP16, literal(-6)))
          CFI (cfiCond96) ?RET_LOW load(1, XDATA, add(CFA_XSP16, literal(-5)))
          CFI (cfiCond96) ?RET_HIGH load(1, XDATA, add(CFA_XSP16, literal(-4)))
          CFI (cfiCond96) ?BRET_EXT load(1, XDATA, add(CFA_XSP16, literal(-3)))
          CFI (cfiCond96) DPL0 load(1, XDATA, add(CFA_XSP16, literal(-2)))
          CFI (cfiCond96) DPH0 load(1, XDATA, add(CFA_XSP16, literal(-1)))
          CFI (cfiCond96) CFA_SP SP+-2
          CFI (cfiCond96) CFA_XSP16 add(XSP16, 104)
          CFI Block cfiPicker97 Using cfiCommon1
          CFI (cfiPicker97) NoFunction
          CFI (cfiPicker97) Picker
        MOV       A,#-0xe
        MOVX      @DPTR,A
        MOV       DPTR,#_NIB + 33
          CFI EndBlock cfiCond95
          CFI EndBlock cfiCond96
          CFI EndBlock cfiPicker97
        REQUIRE ??Subroutine56_0
        ; // Fall through to label ??Subroutine56_0

        RSEG BANKED_CODE:HUGECODE:NOROOT(0)
??Subroutine56_0:
          CFI Block cfiCond98 Using cfiCommon0
          CFI Function zclGp_HdlIncoming
          CFI Conditional ??CrossCallReturnLabel_79
          CFI R6 load(1, XDATA, add(CFA_XSP16, literal(-9)))
          CFI VB load(1, XDATA, add(CFA_XSP16, literal(-8)))
          CFI V0 load(1, XDATA, add(CFA_XSP16, literal(-7)))
          CFI R7 load(1, XDATA, add(CFA_XSP16, literal(-6)))
          CFI ?RET_LOW load(1, XDATA, add(CFA_XSP16, literal(-5)))
          CFI ?RET_HIGH load(1, XDATA, add(CFA_XSP16, literal(-4)))
          CFI ?BRET_EXT load(1, XDATA, add(CFA_XSP16, literal(-3)))
          CFI DPL0 load(1, XDATA, add(CFA_XSP16, literal(-2)))
          CFI DPH0 load(1, XDATA, add(CFA_XSP16, literal(-1)))
          CFI CFA_SP SP+-2
          CFI CFA_XSP16 add(XSP16, 9)
          CFI Block cfiCond99 Using cfiCommon0
          CFI (cfiCond99) Function zclGp_ProcessInProxyBasic
          CFI (cfiCond99) Conditional ??CrossCallReturnLabel_80
          CFI (cfiCond99) R6 load(1, XDATA, add(CFA_XSP16, literal(-15)))
          CFI (cfiCond99) VB load(1, XDATA, add(CFA_XSP16, literal(-14)))
          CFI (cfiCond99) V0 load(1, XDATA, add(CFA_XSP16, literal(-13)))
          CFI (cfiCond99) V1 load(1, XDATA, add(CFA_XSP16, literal(-12)))
          CFI (cfiCond99) V2 load(1, XDATA, add(CFA_XSP16, literal(-11)))
          CFI (cfiCond99) V3 load(1, XDATA, add(CFA_XSP16, literal(-10)))
          CFI (cfiCond99) V4 load(1, XDATA, add(CFA_XSP16, literal(-9)))
          CFI (cfiCond99) V5 load(1, XDATA, add(CFA_XSP16, literal(-8)))
          CFI (cfiCond99) V6 load(1, XDATA, add(CFA_XSP16, literal(-7)))
          CFI (cfiCond99) R7 load(1, XDATA, add(CFA_XSP16, literal(-6)))
          CFI (cfiCond99) ?RET_LOW load(1, XDATA, add(CFA_XSP16, literal(-5)))
          CFI (cfiCond99) ?RET_HIGH load(1, XDATA, add(CFA_XSP16, literal(-4)))
          CFI (cfiCond99) ?BRET_EXT load(1, XDATA, add(CFA_XSP16, literal(-3)))
          CFI (cfiCond99) DPL0 load(1, XDATA, add(CFA_XSP16, literal(-2)))
          CFI (cfiCond99) DPH0 load(1, XDATA, add(CFA_XSP16, literal(-1)))
          CFI (cfiCond99) CFA_SP SP+-2
          CFI (cfiCond99) CFA_XSP16 add(XSP16, 43)
          CFI Block cfiCond100 Using cfiCommon0
          CFI (cfiCond100) Function zclGp_ProcessInProxyBasic
          CFI (cfiCond100) Conditional ??CrossCallReturnLabel_81
          CFI (cfiCond100) R6 load(1, XDATA, add(CFA_XSP16, literal(-15)))
          CFI (cfiCond100) VB load(1, XDATA, add(CFA_XSP16, literal(-14)))
          CFI (cfiCond100) V0 load(1, XDATA, add(CFA_XSP16, literal(-13)))
          CFI (cfiCond100) V1 load(1, XDATA, add(CFA_XSP16, literal(-12)))
          CFI (cfiCond100) V2 load(1, XDATA, add(CFA_XSP16, literal(-11)))
          CFI (cfiCond100) V3 load(1, XDATA, add(CFA_XSP16, literal(-10)))
          CFI (cfiCond100) V4 load(1, XDATA, add(CFA_XSP16, literal(-9)))
          CFI (cfiCond100) V5 load(1, XDATA, add(CFA_XSP16, literal(-8)))
          CFI (cfiCond100) V6 load(1, XDATA, add(CFA_XSP16, literal(-7)))
          CFI (cfiCond100) R7 load(1, XDATA, add(CFA_XSP16, literal(-6)))
          CFI (cfiCond100) ?RET_LOW load(1, XDATA, add(CFA_XSP16, literal(-5)))
          CFI (cfiCond100) ?RET_HIGH load(1, XDATA, add(CFA_XSP16, literal(-4)))
          CFI (cfiCond100) ?BRET_EXT load(1, XDATA, add(CFA_XSP16, literal(-3)))
          CFI (cfiCond100) DPL0 load(1, XDATA, add(CFA_XSP16, literal(-2)))
          CFI (cfiCond100) DPH0 load(1, XDATA, add(CFA_XSP16, literal(-1)))
          CFI (cfiCond100) CFA_SP SP+-2
          CFI (cfiCond100) CFA_XSP16 add(XSP16, 43)
          CFI Block cfiCond101 Using cfiCommon0
          CFI (cfiCond101) Function zclGp_ProcessInProxyBasic
          CFI (cfiCond101) Conditional ??CrossCallReturnLabel_82
          CFI (cfiCond101) R6 load(1, XDATA, add(CFA_XSP16, literal(-15)))
          CFI (cfiCond101) VB load(1, XDATA, add(CFA_XSP16, literal(-14)))
          CFI (cfiCond101) V0 load(1, XDATA, add(CFA_XSP16, literal(-13)))
          CFI (cfiCond101) V1 load(1, XDATA, add(CFA_XSP16, literal(-12)))
          CFI (cfiCond101) V2 load(1, XDATA, add(CFA_XSP16, literal(-11)))
          CFI (cfiCond101) V3 load(1, XDATA, add(CFA_XSP16, literal(-10)))
          CFI (cfiCond101) V4 load(1, XDATA, add(CFA_XSP16, literal(-9)))
          CFI (cfiCond101) V5 load(1, XDATA, add(CFA_XSP16, literal(-8)))
          CFI (cfiCond101) V6 load(1, XDATA, add(CFA_XSP16, literal(-7)))
          CFI (cfiCond101) R7 load(1, XDATA, add(CFA_XSP16, literal(-6)))
          CFI (cfiCond101) ?RET_LOW load(1, XDATA, add(CFA_XSP16, literal(-5)))
          CFI (cfiCond101) ?RET_HIGH load(1, XDATA, add(CFA_XSP16, literal(-4)))
          CFI (cfiCond101) ?BRET_EXT load(1, XDATA, add(CFA_XSP16, literal(-3)))
          CFI (cfiCond101) DPL0 load(1, XDATA, add(CFA_XSP16, literal(-2)))
          CFI (cfiCond101) DPH0 load(1, XDATA, add(CFA_XSP16, literal(-1)))
          CFI (cfiCond101) CFA_SP SP+-2
          CFI (cfiCond101) CFA_XSP16 add(XSP16, 43)
          CFI Block cfiCond102 Using cfiCommon0
          CFI (cfiCond102) Function zclGp_SendGpCommissioningNotificationCommand
          CFI (cfiCond102) Conditional ??CrossCallReturnLabel_83
          CFI (cfiCond102) R6 load(1, XDATA, add(CFA_XSP16, literal(-16)))
          CFI (cfiCond102) VB load(1, XDATA, add(CFA_XSP16, literal(-15)))
          CFI (cfiCond102) V0 load(1, XDATA, add(CFA_XSP16, literal(-14)))
          CFI (cfiCond102) V1 load(1, XDATA, add(CFA_XSP16, literal(-13)))
          CFI (cfiCond102) V2 load(1, XDATA, add(CFA_XSP16, literal(-12)))
          CFI (cfiCond102) V3 load(1, XDATA, add(CFA_XSP16, literal(-11)))
          CFI (cfiCond102) V4 load(1, XDATA, add(CFA_XSP16, literal(-10)))
          CFI (cfiCond102) V5 load(1, XDATA, add(CFA_XSP16, literal(-9)))
          CFI (cfiCond102) V6 load(1, XDATA, add(CFA_XSP16, literal(-8)))
          CFI (cfiCond102) V7 load(1, XDATA, add(CFA_XSP16, literal(-7)))
          CFI (cfiCond102) R7 load(1, XDATA, add(CFA_XSP16, literal(-6)))
          CFI (cfiCond102) ?RET_LOW load(1, XDATA, add(CFA_XSP16, literal(-5)))
          CFI (cfiCond102) ?RET_HIGH load(1, XDATA, add(CFA_XSP16, literal(-4)))
          CFI (cfiCond102) ?BRET_EXT load(1, XDATA, add(CFA_XSP16, literal(-3)))
          CFI (cfiCond102) DPL0 load(1, XDATA, add(CFA_XSP16, literal(-2)))
          CFI (cfiCond102) DPH0 load(1, XDATA, add(CFA_XSP16, literal(-1)))
          CFI (cfiCond102) CFA_SP SP+-2
          CFI (cfiCond102) CFA_XSP16 add(XSP16, 30)
          CFI Block cfiCond103 Using cfiCommon0
          CFI (cfiCond103) Function gp_NotificationMsgClean
          CFI (cfiCond103) Conditional ??CrossCallReturnLabel_84
          CFI (cfiCond103) R6 load(1, XDATA, add(CFA_XSP16, literal(-12)))
          CFI (cfiCond103) VB load(1, XDATA, add(CFA_XSP16, literal(-11)))
          CFI (cfiCond103) V0 load(1, XDATA, add(CFA_XSP16, literal(-10)))
          CFI (cfiCond103) V1 load(1, XDATA, add(CFA_XSP16, literal(-9)))
          CFI (cfiCond103) V2 load(1, XDATA, add(CFA_XSP16, literal(-8)))
          CFI (cfiCond103) V3 load(1, XDATA, add(CFA_XSP16, literal(-7)))
          CFI (cfiCond103) R7 load(1, XDATA, add(CFA_XSP16, literal(-6)))
          CFI (cfiCond103) ?RET_LOW load(1, XDATA, add(CFA_XSP16, literal(-5)))
          CFI (cfiCond103) ?RET_HIGH load(1, XDATA, add(CFA_XSP16, literal(-4)))
          CFI (cfiCond103) ?BRET_EXT load(1, XDATA, add(CFA_XSP16, literal(-3)))
          CFI (cfiCond103) DPL0 load(1, XDATA, add(CFA_XSP16, literal(-2)))
          CFI (cfiCond103) DPH0 load(1, XDATA, add(CFA_XSP16, literal(-1)))
          CFI (cfiCond103) CFA_SP SP+-2
          CFI (cfiCond103) CFA_XSP16 add(XSP16, 12)
          CFI Block cfiCond104 Using cfiCommon0
          CFI (cfiCond104) Function zclGp_SendGpCommissioningNotificationCommand
          CFI (cfiCond104) Conditional ??CrossCallReturnLabel_77
          CFI (cfiCond104) R6 load(1, XDATA, add(CFA_XSP16, literal(-16)))
          CFI (cfiCond104) VB load(1, XDATA, add(CFA_XSP16, literal(-15)))
          CFI (cfiCond104) V0 load(1, XDATA, add(CFA_XSP16, literal(-14)))
          CFI (cfiCond104) V1 load(1, XDATA, add(CFA_XSP16, literal(-13)))
          CFI (cfiCond104) V2 load(1, XDATA, add(CFA_XSP16, literal(-12)))
          CFI (cfiCond104) V3 load(1, XDATA, add(CFA_XSP16, literal(-11)))
          CFI (cfiCond104) V4 load(1, XDATA, add(CFA_XSP16, literal(-10)))
          CFI (cfiCond104) V5 load(1, XDATA, add(CFA_XSP16, literal(-9)))
          CFI (cfiCond104) V6 load(1, XDATA, add(CFA_XSP16, literal(-8)))
          CFI (cfiCond104) V7 load(1, XDATA, add(CFA_XSP16, literal(-7)))
          CFI (cfiCond104) R7 load(1, XDATA, add(CFA_XSP16, literal(-6)))
          CFI (cfiCond104) ?RET_LOW load(1, XDATA, add(CFA_XSP16, literal(-5)))
          CFI (cfiCond104) ?RET_HIGH load(1, XDATA, add(CFA_XSP16, literal(-4)))
          CFI (cfiCond104) ?BRET_EXT load(1, XDATA, add(CFA_XSP16, literal(-3)))
          CFI (cfiCond104) DPL0 load(1, XDATA, add(CFA_XSP16, literal(-2)))
          CFI (cfiCond104) DPH0 load(1, XDATA, add(CFA_XSP16, literal(-1)))
          CFI (cfiCond104) CFA_SP SP+-2
          CFI (cfiCond104) CFA_XSP16 add(XSP16, 30)
          CFI Block cfiCond105 Using cfiCommon0
          CFI (cfiCond105) Function gp_addPairedSinksToMsgQueue
          CFI (cfiCond105) Conditional ??CrossCallReturnLabel_78
          CFI (cfiCond105) R6 load(1, XDATA, add(CFA_XSP16, literal(-15)))
          CFI (cfiCond105) VB load(1, XDATA, add(CFA_XSP16, literal(-14)))
          CFI (cfiCond105) V0 load(1, XDATA, add(CFA_XSP16, literal(-13)))
          CFI (cfiCond105) V1 load(1, XDATA, add(CFA_XSP16, literal(-12)))
          CFI (cfiCond105) V2 load(1, XDATA, add(CFA_XSP16, literal(-11)))
          CFI (cfiCond105) V3 load(1, XDATA, add(CFA_XSP16, literal(-10)))
          CFI (cfiCond105) V4 load(1, XDATA, add(CFA_XSP16, literal(-9)))
          CFI (cfiCond105) V5 load(1, XDATA, add(CFA_XSP16, literal(-8)))
          CFI (cfiCond105) V6 load(1, XDATA, add(CFA_XSP16, literal(-7)))
          CFI (cfiCond105) R7 load(1, XDATA, add(CFA_XSP16, literal(-6)))
          CFI (cfiCond105) ?RET_LOW load(1, XDATA, add(CFA_XSP16, literal(-5)))
          CFI (cfiCond105) ?RET_HIGH load(1, XDATA, add(CFA_XSP16, literal(-4)))
          CFI (cfiCond105) ?BRET_EXT load(1, XDATA, add(CFA_XSP16, literal(-3)))
          CFI (cfiCond105) DPL0 load(1, XDATA, add(CFA_XSP16, literal(-2)))
          CFI (cfiCond105) DPH0 load(1, XDATA, add(CFA_XSP16, literal(-1)))
          CFI (cfiCond105) CFA_SP SP+-2
          CFI (cfiCond105) CFA_XSP16 add(XSP16, 104)
          CFI Block cfiPicker106 Using cfiCommon1
          CFI (cfiPicker106) NoFunction
          CFI (cfiPicker106) Picker
        LCALL     ?Subroutine45 & 0xFFFF
??CrossCallReturnLabel_159:
        MOV       R1,A
        RET
          CFI EndBlock cfiCond98
          CFI EndBlock cfiCond99
          CFI EndBlock cfiCond100
          CFI EndBlock cfiCond101
          CFI EndBlock cfiCond102
          CFI EndBlock cfiCond103
          CFI EndBlock cfiCond104
          CFI EndBlock cfiCond105
          CFI EndBlock cfiPicker106

        RSEG BANKED_CODE:HUGECODE:NOROOT(0)
?Subroutine13:
          CFI Block cfiCond107 Using cfiCommon0
          CFI Function zclGp_SendGpNotificationCommand
          CFI Conditional ??CrossCallReturnLabel_7
          CFI R6 load(1, XDATA, add(CFA_XSP16, literal(-16)))
          CFI VB load(1, XDATA, add(CFA_XSP16, literal(-15)))
          CFI V0 load(1, XDATA, add(CFA_XSP16, literal(-14)))
          CFI V1 load(1, XDATA, add(CFA_XSP16, literal(-13)))
          CFI V2 load(1, XDATA, add(CFA_XSP16, literal(-12)))
          CFI V3 load(1, XDATA, add(CFA_XSP16, literal(-11)))
          CFI V4 load(1, XDATA, add(CFA_XSP16, literal(-10)))
          CFI V5 load(1, XDATA, add(CFA_XSP16, literal(-9)))
          CFI V6 load(1, XDATA, add(CFA_XSP16, literal(-8)))
          CFI V7 load(1, XDATA, add(CFA_XSP16, literal(-7)))
          CFI R7 load(1, XDATA, add(CFA_XSP16, literal(-6)))
          CFI ?RET_LOW load(1, XDATA, add(CFA_XSP16, literal(-5)))
          CFI ?RET_HIGH load(1, XDATA, add(CFA_XSP16, literal(-4)))
          CFI ?BRET_EXT load(1, XDATA, add(CFA_XSP16, literal(-3)))
          CFI DPL0 load(1, XDATA, add(CFA_XSP16, literal(-2)))
          CFI DPH0 load(1, XDATA, add(CFA_XSP16, literal(-1)))
          CFI CFA_SP SP+-2
          CFI CFA_XSP16 add(XSP16, 22)
          CFI Block cfiCond108 Using cfiCommon0
          CFI (cfiCond108) Function zclGp_SendGpCommissioningNotificationCommand
          CFI (cfiCond108) Conditional ??CrossCallReturnLabel_8
          CFI (cfiCond108) R6 load(1, XDATA, add(CFA_XSP16, literal(-16)))
          CFI (cfiCond108) VB load(1, XDATA, add(CFA_XSP16, literal(-15)))
          CFI (cfiCond108) V0 load(1, XDATA, add(CFA_XSP16, literal(-14)))
          CFI (cfiCond108) V1 load(1, XDATA, add(CFA_XSP16, literal(-13)))
          CFI (cfiCond108) V2 load(1, XDATA, add(CFA_XSP16, literal(-12)))
          CFI (cfiCond108) V3 load(1, XDATA, add(CFA_XSP16, literal(-11)))
          CFI (cfiCond108) V4 load(1, XDATA, add(CFA_XSP16, literal(-10)))
          CFI (cfiCond108) V5 load(1, XDATA, add(CFA_XSP16, literal(-9)))
          CFI (cfiCond108) V6 load(1, XDATA, add(CFA_XSP16, literal(-8)))
          CFI (cfiCond108) V7 load(1, XDATA, add(CFA_XSP16, literal(-7)))
          CFI (cfiCond108) R7 load(1, XDATA, add(CFA_XSP16, literal(-6)))
          CFI (cfiCond108) ?RET_LOW load(1, XDATA, add(CFA_XSP16, literal(-5)))
          CFI (cfiCond108) ?RET_HIGH load(1, XDATA, add(CFA_XSP16, literal(-4)))
          CFI (cfiCond108) ?BRET_EXT load(1, XDATA, add(CFA_XSP16, literal(-3)))
          CFI (cfiCond108) DPL0 load(1, XDATA, add(CFA_XSP16, literal(-2)))
          CFI (cfiCond108) DPH0 load(1, XDATA, add(CFA_XSP16, literal(-1)))
          CFI (cfiCond108) CFA_SP SP+-2
          CFI (cfiCond108) CFA_XSP16 add(XSP16, 30)
          CFI Block cfiPicker109 Using cfiCommon1
          CFI (cfiPicker109) NoFunction
          CFI (cfiPicker109) Picker
        MOVX      A,@DPTR
        ADD       A,#0x2
        MOV       R6,A
        INC       DPTR
        MOVX      A,@DPTR
        ADDC      A,#0x0
        MOV       R7,A
        MOV       DPL,?V6
        MOV       DPH,?V7
        MOVX      A,@DPTR
        ANL       A,#0x7
        MOV       R0,A
        RET
          CFI EndBlock cfiCond107
          CFI EndBlock cfiCond108
          CFI EndBlock cfiPicker109

        RSEG BANKED_CODE:HUGECODE:NOROOT(0)
?Subroutine9:
          CFI Block cfiCond110 Using cfiCommon0
          CFI Function zclGp_SendGpNotificationCommand
          CFI Conditional ??CrossCallReturnLabel_3
          CFI R6 load(1, XDATA, add(CFA_XSP16, literal(-16)))
          CFI VB load(1, XDATA, add(CFA_XSP16, literal(-15)))
          CFI V0 load(1, XDATA, add(CFA_XSP16, literal(-14)))
          CFI V1 load(1, XDATA, add(CFA_XSP16, literal(-13)))
          CFI V2 load(1, XDATA, add(CFA_XSP16, literal(-12)))
          CFI V3 load(1, XDATA, add(CFA_XSP16, literal(-11)))
          CFI V4 load(1, XDATA, add(CFA_XSP16, literal(-10)))
          CFI V5 load(1, XDATA, add(CFA_XSP16, literal(-9)))
          CFI V6 load(1, XDATA, add(CFA_XSP16, literal(-8)))
          CFI V7 load(1, XDATA, add(CFA_XSP16, literal(-7)))
          CFI R7 load(1, XDATA, add(CFA_XSP16, literal(-6)))
          CFI ?RET_LOW load(1, XDATA, add(CFA_XSP16, literal(-5)))
          CFI ?RET_HIGH load(1, XDATA, add(CFA_XSP16, literal(-4)))
          CFI ?BRET_EXT load(1, XDATA, add(CFA_XSP16, literal(-3)))
          CFI DPL0 load(1, XDATA, add(CFA_XSP16, literal(-2)))
          CFI DPH0 load(1, XDATA, add(CFA_XSP16, literal(-1)))
          CFI CFA_SP SP+-2
          CFI CFA_XSP16 add(XSP16, 22)
          CFI Block cfiCond111 Using cfiCommon0
          CFI (cfiCond111) Function zclGp_SendGpCommissioningNotificationCommand
          CFI (cfiCond111) Conditional ??CrossCallReturnLabel_4
          CFI (cfiCond111) R6 load(1, XDATA, add(CFA_XSP16, literal(-16)))
          CFI (cfiCond111) VB load(1, XDATA, add(CFA_XSP16, literal(-15)))
          CFI (cfiCond111) V0 load(1, XDATA, add(CFA_XSP16, literal(-14)))
          CFI (cfiCond111) V1 load(1, XDATA, add(CFA_XSP16, literal(-13)))
          CFI (cfiCond111) V2 load(1, XDATA, add(CFA_XSP16, literal(-12)))
          CFI (cfiCond111) V3 load(1, XDATA, add(CFA_XSP16, literal(-11)))
          CFI (cfiCond111) V4 load(1, XDATA, add(CFA_XSP16, literal(-10)))
          CFI (cfiCond111) V5 load(1, XDATA, add(CFA_XSP16, literal(-9)))
          CFI (cfiCond111) V6 load(1, XDATA, add(CFA_XSP16, literal(-8)))
          CFI (cfiCond111) V7 load(1, XDATA, add(CFA_XSP16, literal(-7)))
          CFI (cfiCond111) R7 load(1, XDATA, add(CFA_XSP16, literal(-6)))
          CFI (cfiCond111) ?RET_LOW load(1, XDATA, add(CFA_XSP16, literal(-5)))
          CFI (cfiCond111) ?RET_HIGH load(1, XDATA, add(CFA_XSP16, literal(-4)))
          CFI (cfiCond111) ?BRET_EXT load(1, XDATA, add(CFA_XSP16, literal(-3)))
          CFI (cfiCond111) DPL0 load(1, XDATA, add(CFA_XSP16, literal(-2)))
          CFI (cfiCond111) DPH0 load(1, XDATA, add(CFA_XSP16, literal(-1)))
          CFI (cfiCond111) CFA_SP SP+-2
          CFI (cfiCond111) CFA_XSP16 add(XSP16, 30)
          CFI Block cfiPicker112 Using cfiCommon1
          CFI (cfiPicker112) NoFunction
          CFI (cfiPicker112) Picker
        MOV       A,?V6
        ADD       A,#0x13
        LCALL     ?Subroutine48 & 0xFFFF
??CrossCallReturnLabel_56:
        INC       DPTR
        INC       DPTR
        MOVX      @DPTR,A
        MOV       A,?V6
        ADD       A,#0x14
        LCALL     ?Subroutine41 & 0xFFFF
??CrossCallReturnLabel_50:
        MOVX      @DPTR,A
        MOV       A,R6
        ADD       A,#0x6
        MOV       R6,A
        RET
          CFI EndBlock cfiCond110
          CFI EndBlock cfiCond111
          CFI EndBlock cfiPicker112

        RSEG BANKED_CODE:HUGECODE:NOROOT(0)
?Subroutine48:
          CFI Block cfiCond113 Using cfiCommon0
          CFI Function zclGp_SendGpNotificationCommand
          CFI Conditional ??CrossCallReturnLabel_57, ??CrossCallReturnLabel_27
          CFI R6 load(1, XDATA, add(CFA_XSP16, literal(-16)))
          CFI VB load(1, XDATA, add(CFA_XSP16, literal(-15)))
          CFI V0 load(1, XDATA, add(CFA_XSP16, literal(-14)))
          CFI V1 load(1, XDATA, add(CFA_XSP16, literal(-13)))
          CFI V2 load(1, XDATA, add(CFA_XSP16, literal(-12)))
          CFI V3 load(1, XDATA, add(CFA_XSP16, literal(-11)))
          CFI V4 load(1, XDATA, add(CFA_XSP16, literal(-10)))
          CFI V5 load(1, XDATA, add(CFA_XSP16, literal(-9)))
          CFI V6 load(1, XDATA, add(CFA_XSP16, literal(-8)))
          CFI V7 load(1, XDATA, add(CFA_XSP16, literal(-7)))
          CFI R7 load(1, XDATA, add(CFA_XSP16, literal(-6)))
          CFI ?RET_LOW load(1, XDATA, add(CFA_XSP16, literal(-5)))
          CFI ?RET_HIGH load(1, XDATA, add(CFA_XSP16, literal(-4)))
          CFI ?BRET_EXT load(1, XDATA, add(CFA_XSP16, literal(-3)))
          CFI DPL0 load(1, XDATA, add(CFA_XSP16, literal(-2)))
          CFI DPH0 load(1, XDATA, add(CFA_XSP16, literal(-1)))
          CFI CFA_SP SP+-4
          CFI CFA_XSP16 add(XSP16, 22)
          CFI Block cfiCond114 Using cfiCommon0
          CFI (cfiCond114) Function zclGp_SendGpCommissioningNotificationCommand
          CFI (cfiCond114) Conditional ??CrossCallReturnLabel_57, ??CrossCallReturnLabel_28
          CFI (cfiCond114) R6 load(1, XDATA, add(CFA_XSP16, literal(-16)))
          CFI (cfiCond114) VB load(1, XDATA, add(CFA_XSP16, literal(-15)))
          CFI (cfiCond114) V0 load(1, XDATA, add(CFA_XSP16, literal(-14)))
          CFI (cfiCond114) V1 load(1, XDATA, add(CFA_XSP16, literal(-13)))
          CFI (cfiCond114) V2 load(1, XDATA, add(CFA_XSP16, literal(-12)))
          CFI (cfiCond114) V3 load(1, XDATA, add(CFA_XSP16, literal(-11)))
          CFI (cfiCond114) V4 load(1, XDATA, add(CFA_XSP16, literal(-10)))
          CFI (cfiCond114) V5 load(1, XDATA, add(CFA_XSP16, literal(-9)))
          CFI (cfiCond114) V6 load(1, XDATA, add(CFA_XSP16, literal(-8)))
          CFI (cfiCond114) V7 load(1, XDATA, add(CFA_XSP16, literal(-7)))
          CFI (cfiCond114) R7 load(1, XDATA, add(CFA_XSP16, literal(-6)))
          CFI (cfiCond114) ?RET_LOW load(1, XDATA, add(CFA_XSP16, literal(-5)))
          CFI (cfiCond114) ?RET_HIGH load(1, XDATA, add(CFA_XSP16, literal(-4)))
          CFI (cfiCond114) ?BRET_EXT load(1, XDATA, add(CFA_XSP16, literal(-3)))
          CFI (cfiCond114) DPL0 load(1, XDATA, add(CFA_XSP16, literal(-2)))
          CFI (cfiCond114) DPH0 load(1, XDATA, add(CFA_XSP16, literal(-1)))
          CFI (cfiCond114) CFA_SP SP+-4
          CFI (cfiCond114) CFA_XSP16 add(XSP16, 30)
          CFI Block cfiCond115 Using cfiCommon0
          CFI (cfiCond115) Function zclGp_SendGpNotificationCommand
          CFI (cfiCond115) Conditional ??CrossCallReturnLabel_56, ??CrossCallReturnLabel_3
          CFI (cfiCond115) R6 load(1, XDATA, add(CFA_XSP16, literal(-16)))
          CFI (cfiCond115) VB load(1, XDATA, add(CFA_XSP16, literal(-15)))
          CFI (cfiCond115) V0 load(1, XDATA, add(CFA_XSP16, literal(-14)))
          CFI (cfiCond115) V1 load(1, XDATA, add(CFA_XSP16, literal(-13)))
          CFI (cfiCond115) V2 load(1, XDATA, add(CFA_XSP16, literal(-12)))
          CFI (cfiCond115) V3 load(1, XDATA, add(CFA_XSP16, literal(-11)))
          CFI (cfiCond115) V4 load(1, XDATA, add(CFA_XSP16, literal(-10)))
          CFI (cfiCond115) V5 load(1, XDATA, add(CFA_XSP16, literal(-9)))
          CFI (cfiCond115) V6 load(1, XDATA, add(CFA_XSP16, literal(-8)))
          CFI (cfiCond115) V7 load(1, XDATA, add(CFA_XSP16, literal(-7)))
          CFI (cfiCond115) R7 load(1, XDATA, add(CFA_XSP16, literal(-6)))
          CFI (cfiCond115) ?RET_LOW load(1, XDATA, add(CFA_XSP16, literal(-5)))
          CFI (cfiCond115) ?RET_HIGH load(1, XDATA, add(CFA_XSP16, literal(-4)))
          CFI (cfiCond115) ?BRET_EXT load(1, XDATA, add(CFA_XSP16, literal(-3)))
          CFI (cfiCond115) DPL0 load(1, XDATA, add(CFA_XSP16, literal(-2)))
          CFI (cfiCond115) DPH0 load(1, XDATA, add(CFA_XSP16, literal(-1)))
          CFI (cfiCond115) CFA_SP SP+-4
          CFI (cfiCond115) CFA_XSP16 add(XSP16, 22)
          CFI Block cfiCond116 Using cfiCommon0
          CFI (cfiCond116) Function zclGp_SendGpCommissioningNotificationCommand
          CFI (cfiCond116) Conditional ??CrossCallReturnLabel_56, ??CrossCallReturnLabel_4
          CFI (cfiCond116) R6 load(1, XDATA, add(CFA_XSP16, literal(-16)))
          CFI (cfiCond116) VB load(1, XDATA, add(CFA_XSP16, literal(-15)))
          CFI (cfiCond116) V0 load(1, XDATA, add(CFA_XSP16, literal(-14)))
          CFI (cfiCond116) V1 load(1, XDATA, add(CFA_XSP16, literal(-13)))
          CFI (cfiCond116) V2 load(1, XDATA, add(CFA_XSP16, literal(-12)))
          CFI (cfiCond116) V3 load(1, XDATA, add(CFA_XSP16, literal(-11)))
          CFI (cfiCond116) V4 load(1, XDATA, add(CFA_XSP16, literal(-10)))
          CFI (cfiCond116) V5 load(1, XDATA, add(CFA_XSP16, literal(-9)))
          CFI (cfiCond116) V6 load(1, XDATA, add(CFA_XSP16, literal(-8)))
          CFI (cfiCond116) V7 load(1, XDATA, add(CFA_XSP16, literal(-7)))
          CFI (cfiCond116) R7 load(1, XDATA, add(CFA_XSP16, literal(-6)))
          CFI (cfiCond116) ?RET_LOW load(1, XDATA, add(CFA_XSP16, literal(-5)))
          CFI (cfiCond116) ?RET_HIGH load(1, XDATA, add(CFA_XSP16, literal(-4)))
          CFI (cfiCond116) ?BRET_EXT load(1, XDATA, add(CFA_XSP16, literal(-3)))
          CFI (cfiCond116) DPL0 load(1, XDATA, add(CFA_XSP16, literal(-2)))
          CFI (cfiCond116) DPH0 load(1, XDATA, add(CFA_XSP16, literal(-1)))
          CFI (cfiCond116) CFA_SP SP+-4
          CFI (cfiCond116) CFA_XSP16 add(XSP16, 30)
          CFI Block cfiPicker117 Using cfiCommon1
          CFI (cfiPicker117) NoFunction
          CFI (cfiPicker117) Picker
        LCALL     ?Subroutine52 & 0xFFFF
??CrossCallReturnLabel_61:
        RET
          CFI EndBlock cfiCond113
          CFI EndBlock cfiCond114
          CFI EndBlock cfiCond115
          CFI EndBlock cfiCond116
          CFI EndBlock cfiPicker117

        RSEG BANKED_CODE:HUGECODE:NOROOT(0)
?Subroutine52:
          CFI Block cfiCond118 Using cfiCommon0
          CFI Function zclGp_SendGpNotificationCommand
          CFI Conditional ??CrossCallReturnLabel_61, ??CrossCallReturnLabel_57, ??CrossCallReturnLabel_27
          CFI R6 load(1, XDATA, add(CFA_XSP16, literal(-16)))
          CFI VB load(1, XDATA, add(CFA_XSP16, literal(-15)))
          CFI V0 load(1, XDATA, add(CFA_XSP16, literal(-14)))
          CFI V1 load(1, XDATA, add(CFA_XSP16, literal(-13)))
          CFI V2 load(1, XDATA, add(CFA_XSP16, literal(-12)))
          CFI V3 load(1, XDATA, add(CFA_XSP16, literal(-11)))
          CFI V4 load(1, XDATA, add(CFA_XSP16, literal(-10)))
          CFI V5 load(1, XDATA, add(CFA_XSP16, literal(-9)))
          CFI V6 load(1, XDATA, add(CFA_XSP16, literal(-8)))
          CFI V7 load(1, XDATA, add(CFA_XSP16, literal(-7)))
          CFI R7 load(1, XDATA, add(CFA_XSP16, literal(-6)))
          CFI ?RET_LOW load(1, XDATA, add(CFA_XSP16, literal(-5)))
          CFI ?RET_HIGH load(1, XDATA, add(CFA_XSP16, literal(-4)))
          CFI ?BRET_EXT load(1, XDATA, add(CFA_XSP16, literal(-3)))
          CFI DPL0 load(1, XDATA, add(CFA_XSP16, literal(-2)))
          CFI DPH0 load(1, XDATA, add(CFA_XSP16, literal(-1)))
          CFI CFA_SP SP+-6
          CFI CFA_XSP16 add(XSP16, 22)
          CFI Block cfiCond119 Using cfiCommon0
          CFI (cfiCond119) Function zclGp_SendGpCommissioningNotificationCommand
          CFI (cfiCond119) Conditional ??CrossCallReturnLabel_61, ??CrossCallReturnLabel_57, ??CrossCallReturnLabel_28
          CFI (cfiCond119) R6 load(1, XDATA, add(CFA_XSP16, literal(-16)))
          CFI (cfiCond119) VB load(1, XDATA, add(CFA_XSP16, literal(-15)))
          CFI (cfiCond119) V0 load(1, XDATA, add(CFA_XSP16, literal(-14)))
          CFI (cfiCond119) V1 load(1, XDATA, add(CFA_XSP16, literal(-13)))
          CFI (cfiCond119) V2 load(1, XDATA, add(CFA_XSP16, literal(-12)))
          CFI (cfiCond119) V3 load(1, XDATA, add(CFA_XSP16, literal(-11)))
          CFI (cfiCond119) V4 load(1, XDATA, add(CFA_XSP16, literal(-10)))
          CFI (cfiCond119) V5 load(1, XDATA, add(CFA_XSP16, literal(-9)))
          CFI (cfiCond119) V6 load(1, XDATA, add(CFA_XSP16, literal(-8)))
          CFI (cfiCond119) V7 load(1, XDATA, add(CFA_XSP16, literal(-7)))
          CFI (cfiCond119) R7 load(1, XDATA, add(CFA_XSP16, literal(-6)))
          CFI (cfiCond119) ?RET_LOW load(1, XDATA, add(CFA_XSP16, literal(-5)))
          CFI (cfiCond119) ?RET_HIGH load(1, XDATA, add(CFA_XSP16, literal(-4)))
          CFI (cfiCond119) ?BRET_EXT load(1, XDATA, add(CFA_XSP16, literal(-3)))
          CFI (cfiCond119) DPL0 load(1, XDATA, add(CFA_XSP16, literal(-2)))
          CFI (cfiCond119) DPH0 load(1, XDATA, add(CFA_XSP16, literal(-1)))
          CFI (cfiCond119) CFA_SP SP+-6
          CFI (cfiCond119) CFA_XSP16 add(XSP16, 30)
          CFI Block cfiCond120 Using cfiCommon0
          CFI (cfiCond120) Function zclGp_SendGpNotificationCommand
          CFI (cfiCond120) Conditional ??CrossCallReturnLabel_61, ??CrossCallReturnLabel_56, ??CrossCallReturnLabel_3
          CFI (cfiCond120) R6 load(1, XDATA, add(CFA_XSP16, literal(-16)))
          CFI (cfiCond120) VB load(1, XDATA, add(CFA_XSP16, literal(-15)))
          CFI (cfiCond120) V0 load(1, XDATA, add(CFA_XSP16, literal(-14)))
          CFI (cfiCond120) V1 load(1, XDATA, add(CFA_XSP16, literal(-13)))
          CFI (cfiCond120) V2 load(1, XDATA, add(CFA_XSP16, literal(-12)))
          CFI (cfiCond120) V3 load(1, XDATA, add(CFA_XSP16, literal(-11)))
          CFI (cfiCond120) V4 load(1, XDATA, add(CFA_XSP16, literal(-10)))
          CFI (cfiCond120) V5 load(1, XDATA, add(CFA_XSP16, literal(-9)))
          CFI (cfiCond120) V6 load(1, XDATA, add(CFA_XSP16, literal(-8)))
          CFI (cfiCond120) V7 load(1, XDATA, add(CFA_XSP16, literal(-7)))
          CFI (cfiCond120) R7 load(1, XDATA, add(CFA_XSP16, literal(-6)))
          CFI (cfiCond120) ?RET_LOW load(1, XDATA, add(CFA_XSP16, literal(-5)))
          CFI (cfiCond120) ?RET_HIGH load(1, XDATA, add(CFA_XSP16, literal(-4)))
          CFI (cfiCond120) ?BRET_EXT load(1, XDATA, add(CFA_XSP16, literal(-3)))
          CFI (cfiCond120) DPL0 load(1, XDATA, add(CFA_XSP16, literal(-2)))
          CFI (cfiCond120) DPH0 load(1, XDATA, add(CFA_XSP16, literal(-1)))
          CFI (cfiCond120) CFA_SP SP+-6
          CFI (cfiCond120) CFA_XSP16 add(XSP16, 22)
          CFI Block cfiCond121 Using cfiCommon0
          CFI (cfiCond121) Function zclGp_SendGpCommissioningNotificationCommand
          CFI (cfiCond121) Conditional ??CrossCallReturnLabel_61, ??CrossCallReturnLabel_56, ??CrossCallReturnLabel_4
          CFI (cfiCond121) R6 load(1, XDATA, add(CFA_XSP16, literal(-16)))
          CFI (cfiCond121) VB load(1, XDATA, add(CFA_XSP16, literal(-15)))
          CFI (cfiCond121) V0 load(1, XDATA, add(CFA_XSP16, literal(-14)))
          CFI (cfiCond121) V1 load(1, XDATA, add(CFA_XSP16, literal(-13)))
          CFI (cfiCond121) V2 load(1, XDATA, add(CFA_XSP16, literal(-12)))
          CFI (cfiCond121) V3 load(1, XDATA, add(CFA_XSP16, literal(-11)))
          CFI (cfiCond121) V4 load(1, XDATA, add(CFA_XSP16, literal(-10)))
          CFI (cfiCond121) V5 load(1, XDATA, add(CFA_XSP16, literal(-9)))
          CFI (cfiCond121) V6 load(1, XDATA, add(CFA_XSP16, literal(-8)))
          CFI (cfiCond121) V7 load(1, XDATA, add(CFA_XSP16, literal(-7)))
          CFI (cfiCond121) R7 load(1, XDATA, add(CFA_XSP16, literal(-6)))
          CFI (cfiCond121) ?RET_LOW load(1, XDATA, add(CFA_XSP16, literal(-5)))
          CFI (cfiCond121) ?RET_HIGH load(1, XDATA, add(CFA_XSP16, literal(-4)))
          CFI (cfiCond121) ?BRET_EXT load(1, XDATA, add(CFA_XSP16, literal(-3)))
          CFI (cfiCond121) DPL0 load(1, XDATA, add(CFA_XSP16, literal(-2)))
          CFI (cfiCond121) DPH0 load(1, XDATA, add(CFA_XSP16, literal(-1)))
          CFI (cfiCond121) CFA_SP SP+-6
          CFI (cfiCond121) CFA_XSP16 add(XSP16, 30)
          CFI Block cfiCond122 Using cfiCommon0
          CFI (cfiCond122) Function zclGp_SendGpNotificationCommand
          CFI (cfiCond122) Conditional ??CrossCallReturnLabel_60, ??CrossCallReturnLabel_51, ??CrossCallReturnLabel_11
          CFI (cfiCond122) R6 load(1, XDATA, add(CFA_XSP16, literal(-16)))
          CFI (cfiCond122) VB load(1, XDATA, add(CFA_XSP16, literal(-15)))
          CFI (cfiCond122) V0 load(1, XDATA, add(CFA_XSP16, literal(-14)))
          CFI (cfiCond122) V1 load(1, XDATA, add(CFA_XSP16, literal(-13)))
          CFI (cfiCond122) V2 load(1, XDATA, add(CFA_XSP16, literal(-12)))
          CFI (cfiCond122) V3 load(1, XDATA, add(CFA_XSP16, literal(-11)))
          CFI (cfiCond122) V4 load(1, XDATA, add(CFA_XSP16, literal(-10)))
          CFI (cfiCond122) V5 load(1, XDATA, add(CFA_XSP16, literal(-9)))
          CFI (cfiCond122) V6 load(1, XDATA, add(CFA_XSP16, literal(-8)))
          CFI (cfiCond122) V7 load(1, XDATA, add(CFA_XSP16, literal(-7)))
          CFI (cfiCond122) R7 load(1, XDATA, add(CFA_XSP16, literal(-6)))
          CFI (cfiCond122) ?RET_LOW load(1, XDATA, add(CFA_XSP16, literal(-5)))
          CFI (cfiCond122) ?RET_HIGH load(1, XDATA, add(CFA_XSP16, literal(-4)))
          CFI (cfiCond122) ?BRET_EXT load(1, XDATA, add(CFA_XSP16, literal(-3)))
          CFI (cfiCond122) DPL0 load(1, XDATA, add(CFA_XSP16, literal(-2)))
          CFI (cfiCond122) DPH0 load(1, XDATA, add(CFA_XSP16, literal(-1)))
          CFI (cfiCond122) CFA_SP SP+-6
          CFI (cfiCond122) CFA_XSP16 add(XSP16, 22)
          CFI Block cfiCond123 Using cfiCommon0
          CFI (cfiCond123) Function zclGp_SendGpCommissioningNotificationCommand
          CFI (cfiCond123) Conditional ??CrossCallReturnLabel_60, ??CrossCallReturnLabel_51, ??CrossCallReturnLabel_12
          CFI (cfiCond123) R6 load(1, XDATA, add(CFA_XSP16, literal(-16)))
          CFI (cfiCond123) VB load(1, XDATA, add(CFA_XSP16, literal(-15)))
          CFI (cfiCond123) V0 load(1, XDATA, add(CFA_XSP16, literal(-14)))
          CFI (cfiCond123) V1 load(1, XDATA, add(CFA_XSP16, literal(-13)))
          CFI (cfiCond123) V2 load(1, XDATA, add(CFA_XSP16, literal(-12)))
          CFI (cfiCond123) V3 load(1, XDATA, add(CFA_XSP16, literal(-11)))
          CFI (cfiCond123) V4 load(1, XDATA, add(CFA_XSP16, literal(-10)))
          CFI (cfiCond123) V5 load(1, XDATA, add(CFA_XSP16, literal(-9)))
          CFI (cfiCond123) V6 load(1, XDATA, add(CFA_XSP16, literal(-8)))
          CFI (cfiCond123) V7 load(1, XDATA, add(CFA_XSP16, literal(-7)))
          CFI (cfiCond123) R7 load(1, XDATA, add(CFA_XSP16, literal(-6)))
          CFI (cfiCond123) ?RET_LOW load(1, XDATA, add(CFA_XSP16, literal(-5)))
          CFI (cfiCond123) ?RET_HIGH load(1, XDATA, add(CFA_XSP16, literal(-4)))
          CFI (cfiCond123) ?BRET_EXT load(1, XDATA, add(CFA_XSP16, literal(-3)))
          CFI (cfiCond123) DPL0 load(1, XDATA, add(CFA_XSP16, literal(-2)))
          CFI (cfiCond123) DPH0 load(1, XDATA, add(CFA_XSP16, literal(-1)))
          CFI (cfiCond123) CFA_SP SP+-6
          CFI (cfiCond123) CFA_XSP16 add(XSP16, 30)
          CFI Block cfiCond124 Using cfiCommon0
          CFI (cfiCond124) Function zclGp_SendGpNotificationCommand
          CFI (cfiCond124) Conditional ??CrossCallReturnLabel_60, ??CrossCallReturnLabel_50, ??CrossCallReturnLabel_3
          CFI (cfiCond124) R6 load(1, XDATA, add(CFA_XSP16, literal(-16)))
          CFI (cfiCond124) VB load(1, XDATA, add(CFA_XSP16, literal(-15)))
          CFI (cfiCond124) V0 load(1, XDATA, add(CFA_XSP16, literal(-14)))
          CFI (cfiCond124) V1 load(1, XDATA, add(CFA_XSP16, literal(-13)))
          CFI (cfiCond124) V2 load(1, XDATA, add(CFA_XSP16, literal(-12)))
          CFI (cfiCond124) V3 load(1, XDATA, add(CFA_XSP16, literal(-11)))
          CFI (cfiCond124) V4 load(1, XDATA, add(CFA_XSP16, literal(-10)))
          CFI (cfiCond124) V5 load(1, XDATA, add(CFA_XSP16, literal(-9)))
          CFI (cfiCond124) V6 load(1, XDATA, add(CFA_XSP16, literal(-8)))
          CFI (cfiCond124) V7 load(1, XDATA, add(CFA_XSP16, literal(-7)))
          CFI (cfiCond124) R7 load(1, XDATA, add(CFA_XSP16, literal(-6)))
          CFI (cfiCond124) ?RET_LOW load(1, XDATA, add(CFA_XSP16, literal(-5)))
          CFI (cfiCond124) ?RET_HIGH load(1, XDATA, add(CFA_XSP16, literal(-4)))
          CFI (cfiCond124) ?BRET_EXT load(1, XDATA, add(CFA_XSP16, literal(-3)))
          CFI (cfiCond124) DPL0 load(1, XDATA, add(CFA_XSP16, literal(-2)))
          CFI (cfiCond124) DPH0 load(1, XDATA, add(CFA_XSP16, literal(-1)))
          CFI (cfiCond124) CFA_SP SP+-6
          CFI (cfiCond124) CFA_XSP16 add(XSP16, 22)
          CFI Block cfiCond125 Using cfiCommon0
          CFI (cfiCond125) Function zclGp_SendGpCommissioningNotificationCommand
          CFI (cfiCond125) Conditional ??CrossCallReturnLabel_60, ??CrossCallReturnLabel_50, ??CrossCallReturnLabel_4
          CFI (cfiCond125) R6 load(1, XDATA, add(CFA_XSP16, literal(-16)))
          CFI (cfiCond125) VB load(1, XDATA, add(CFA_XSP16, literal(-15)))
          CFI (cfiCond125) V0 load(1, XDATA, add(CFA_XSP16, literal(-14)))
          CFI (cfiCond125) V1 load(1, XDATA, add(CFA_XSP16, literal(-13)))
          CFI (cfiCond125) V2 load(1, XDATA, add(CFA_XSP16, literal(-12)))
          CFI (cfiCond125) V3 load(1, XDATA, add(CFA_XSP16, literal(-11)))
          CFI (cfiCond125) V4 load(1, XDATA, add(CFA_XSP16, literal(-10)))
          CFI (cfiCond125) V5 load(1, XDATA, add(CFA_XSP16, literal(-9)))
          CFI (cfiCond125) V6 load(1, XDATA, add(CFA_XSP16, literal(-8)))
          CFI (cfiCond125) V7 load(1, XDATA, add(CFA_XSP16, literal(-7)))
          CFI (cfiCond125) R7 load(1, XDATA, add(CFA_XSP16, literal(-6)))
          CFI (cfiCond125) ?RET_LOW load(1, XDATA, add(CFA_XSP16, literal(-5)))
          CFI (cfiCond125) ?RET_HIGH load(1, XDATA, add(CFA_XSP16, literal(-4)))
          CFI (cfiCond125) ?BRET_EXT load(1, XDATA, add(CFA_XSP16, literal(-3)))
          CFI (cfiCond125) DPL0 load(1, XDATA, add(CFA_XSP16, literal(-2)))
          CFI (cfiCond125) DPH0 load(1, XDATA, add(CFA_XSP16, literal(-1)))
          CFI (cfiCond125) CFA_SP SP+-6
          CFI (cfiCond125) CFA_XSP16 add(XSP16, 30)
          CFI Block cfiPicker126 Using cfiCommon1
          CFI (cfiPicker126) NoFunction
          CFI (cfiPicker126) Picker
        MOV       DPL,A
        CLR       A
        ADDC      A,?V7
        MOV       DPH,A
        MOVX      A,@DPTR
        MOV       DPL,R6
        MOV       DPH,R7
        INC       DPTR
        INC       DPTR
        RET
          CFI EndBlock cfiCond118
          CFI EndBlock cfiCond119
          CFI EndBlock cfiCond120
          CFI EndBlock cfiCond121
          CFI EndBlock cfiCond122
          CFI EndBlock cfiCond123
          CFI EndBlock cfiCond124
          CFI EndBlock cfiCond125
          CFI EndBlock cfiPicker126

        RSEG BANKED_CODE:HUGECODE:NOROOT(0)
?Subroutine41:
          CFI Block cfiCond127 Using cfiCommon0
          CFI Function zclGp_SendGpNotificationCommand
          CFI Conditional ??CrossCallReturnLabel_51, ??CrossCallReturnLabel_11
          CFI R6 load(1, XDATA, add(CFA_XSP16, literal(-16)))
          CFI VB load(1, XDATA, add(CFA_XSP16, literal(-15)))
          CFI V0 load(1, XDATA, add(CFA_XSP16, literal(-14)))
          CFI V1 load(1, XDATA, add(CFA_XSP16, literal(-13)))
          CFI V2 load(1, XDATA, add(CFA_XSP16, literal(-12)))
          CFI V3 load(1, XDATA, add(CFA_XSP16, literal(-11)))
          CFI V4 load(1, XDATA, add(CFA_XSP16, literal(-10)))
          CFI V5 load(1, XDATA, add(CFA_XSP16, literal(-9)))
          CFI V6 load(1, XDATA, add(CFA_XSP16, literal(-8)))
          CFI V7 load(1, XDATA, add(CFA_XSP16, literal(-7)))
          CFI R7 load(1, XDATA, add(CFA_XSP16, literal(-6)))
          CFI ?RET_LOW load(1, XDATA, add(CFA_XSP16, literal(-5)))
          CFI ?RET_HIGH load(1, XDATA, add(CFA_XSP16, literal(-4)))
          CFI ?BRET_EXT load(1, XDATA, add(CFA_XSP16, literal(-3)))
          CFI DPL0 load(1, XDATA, add(CFA_XSP16, literal(-2)))
          CFI DPH0 load(1, XDATA, add(CFA_XSP16, literal(-1)))
          CFI CFA_SP SP+-4
          CFI CFA_XSP16 add(XSP16, 22)
          CFI Block cfiCond128 Using cfiCommon0
          CFI (cfiCond128) Function zclGp_SendGpCommissioningNotificationCommand
          CFI (cfiCond128) Conditional ??CrossCallReturnLabel_51, ??CrossCallReturnLabel_12
          CFI (cfiCond128) R6 load(1, XDATA, add(CFA_XSP16, literal(-16)))
          CFI (cfiCond128) VB load(1, XDATA, add(CFA_XSP16, literal(-15)))
          CFI (cfiCond128) V0 load(1, XDATA, add(CFA_XSP16, literal(-14)))
          CFI (cfiCond128) V1 load(1, XDATA, add(CFA_XSP16, literal(-13)))
          CFI (cfiCond128) V2 load(1, XDATA, add(CFA_XSP16, literal(-12)))
          CFI (cfiCond128) V3 load(1, XDATA, add(CFA_XSP16, literal(-11)))
          CFI (cfiCond128) V4 load(1, XDATA, add(CFA_XSP16, literal(-10)))
          CFI (cfiCond128) V5 load(1, XDATA, add(CFA_XSP16, literal(-9)))
          CFI (cfiCond128) V6 load(1, XDATA, add(CFA_XSP16, literal(-8)))
          CFI (cfiCond128) V7 load(1, XDATA, add(CFA_XSP16, literal(-7)))
          CFI (cfiCond128) R7 load(1, XDATA, add(CFA_XSP16, literal(-6)))
          CFI (cfiCond128) ?RET_LOW load(1, XDATA, add(CFA_XSP16, literal(-5)))
          CFI (cfiCond128) ?RET_HIGH load(1, XDATA, add(CFA_XSP16, literal(-4)))
          CFI (cfiCond128) ?BRET_EXT load(1, XDATA, add(CFA_XSP16, literal(-3)))
          CFI (cfiCond128) DPL0 load(1, XDATA, add(CFA_XSP16, literal(-2)))
          CFI (cfiCond128) DPH0 load(1, XDATA, add(CFA_XSP16, literal(-1)))
          CFI (cfiCond128) CFA_SP SP+-4
          CFI (cfiCond128) CFA_XSP16 add(XSP16, 30)
          CFI Block cfiCond129 Using cfiCommon0
          CFI (cfiCond129) Function zclGp_SendGpNotificationCommand
          CFI (cfiCond129) Conditional ??CrossCallReturnLabel_50, ??CrossCallReturnLabel_3
          CFI (cfiCond129) R6 load(1, XDATA, add(CFA_XSP16, literal(-16)))
          CFI (cfiCond129) VB load(1, XDATA, add(CFA_XSP16, literal(-15)))
          CFI (cfiCond129) V0 load(1, XDATA, add(CFA_XSP16, literal(-14)))
          CFI (cfiCond129) V1 load(1, XDATA, add(CFA_XSP16, literal(-13)))
          CFI (cfiCond129) V2 load(1, XDATA, add(CFA_XSP16, literal(-12)))
          CFI (cfiCond129) V3 load(1, XDATA, add(CFA_XSP16, literal(-11)))
          CFI (cfiCond129) V4 load(1, XDATA, add(CFA_XSP16, literal(-10)))
          CFI (cfiCond129) V5 load(1, XDATA, add(CFA_XSP16, literal(-9)))
          CFI (cfiCond129) V6 load(1, XDATA, add(CFA_XSP16, literal(-8)))
          CFI (cfiCond129) V7 load(1, XDATA, add(CFA_XSP16, literal(-7)))
          CFI (cfiCond129) R7 load(1, XDATA, add(CFA_XSP16, literal(-6)))
          CFI (cfiCond129) ?RET_LOW load(1, XDATA, add(CFA_XSP16, literal(-5)))
          CFI (cfiCond129) ?RET_HIGH load(1, XDATA, add(CFA_XSP16, literal(-4)))
          CFI (cfiCond129) ?BRET_EXT load(1, XDATA, add(CFA_XSP16, literal(-3)))
          CFI (cfiCond129) DPL0 load(1, XDATA, add(CFA_XSP16, literal(-2)))
          CFI (cfiCond129) DPH0 load(1, XDATA, add(CFA_XSP16, literal(-1)))
          CFI (cfiCond129) CFA_SP SP+-4
          CFI (cfiCond129) CFA_XSP16 add(XSP16, 22)
          CFI Block cfiCond130 Using cfiCommon0
          CFI (cfiCond130) Function zclGp_SendGpCommissioningNotificationCommand
          CFI (cfiCond130) Conditional ??CrossCallReturnLabel_50, ??CrossCallReturnLabel_4
          CFI (cfiCond130) R6 load(1, XDATA, add(CFA_XSP16, literal(-16)))
          CFI (cfiCond130) VB load(1, XDATA, add(CFA_XSP16, literal(-15)))
          CFI (cfiCond130) V0 load(1, XDATA, add(CFA_XSP16, literal(-14)))
          CFI (cfiCond130) V1 load(1, XDATA, add(CFA_XSP16, literal(-13)))
          CFI (cfiCond130) V2 load(1, XDATA, add(CFA_XSP16, literal(-12)))
          CFI (cfiCond130) V3 load(1, XDATA, add(CFA_XSP16, literal(-11)))
          CFI (cfiCond130) V4 load(1, XDATA, add(CFA_XSP16, literal(-10)))
          CFI (cfiCond130) V5 load(1, XDATA, add(CFA_XSP16, literal(-9)))
          CFI (cfiCond130) V6 load(1, XDATA, add(CFA_XSP16, literal(-8)))
          CFI (cfiCond130) V7 load(1, XDATA, add(CFA_XSP16, literal(-7)))
          CFI (cfiCond130) R7 load(1, XDATA, add(CFA_XSP16, literal(-6)))
          CFI (cfiCond130) ?RET_LOW load(1, XDATA, add(CFA_XSP16, literal(-5)))
          CFI (cfiCond130) ?RET_HIGH load(1, XDATA, add(CFA_XSP16, literal(-4)))
          CFI (cfiCond130) ?BRET_EXT load(1, XDATA, add(CFA_XSP16, literal(-3)))
          CFI (cfiCond130) DPL0 load(1, XDATA, add(CFA_XSP16, literal(-2)))
          CFI (cfiCond130) DPH0 load(1, XDATA, add(CFA_XSP16, literal(-1)))
          CFI (cfiCond130) CFA_SP SP+-4
          CFI (cfiCond130) CFA_XSP16 add(XSP16, 30)
          CFI Block cfiPicker131 Using cfiCommon1
          CFI (cfiPicker131) NoFunction
          CFI (cfiPicker131) Picker
        LCALL     ?Subroutine52 & 0xFFFF
??CrossCallReturnLabel_60:
        INC       DPTR
        INC       DPTR
        INC       DPTR
        RET
          CFI EndBlock cfiCond127
          CFI EndBlock cfiCond128
          CFI EndBlock cfiCond129
          CFI EndBlock cfiCond130
          CFI EndBlock cfiPicker131
//  574 /*********************************************************************
//  575  * @fn      zclGp_SendGpProxyTableResponse
//  576  *
//  577  * @brief   Send the Green Power Proxy Table Response to a device
//  578  *
//  579  * @param   dstAddr - where to send the request
//  580  * @param   groupID - pointer to the group structure
//  581  * @param   groupName - pointer to Group Name.  This is a Zigbee
//  582  *          string data type, so the first byte is the length of the
//  583  *          name (in bytes), then the name.
//  584  *
//  585  * @return  ZStatus_t
//  586  */

        RSEG BANKED_CODE:HUGECODE:NOROOT(0)
//  587 ZStatus_t zclGp_SendGpProxyTableResponse( afAddrType_t *dstAddr, zclGpProxyTableResponse_t *rsp, 
zclGp_SendGpProxyTableResponse:
          CFI Block cfiBlock132 Using cfiCommon0
          CFI Function zclGp_SendGpProxyTableResponse
        CODE
//  588                                           uint8 seqNum )
//  589 {
        FUNCALL zclGp_SendGpProxyTableResponse, osal_memcpy
        LOCFRAME ISTACK, 0, STACK
        LOCFRAME PSTACK, 0, STACK
        LOCFRAME XSTACK, 27, STACK
        LOCFRAME IOVERLAY, 0, STATIC
        LOCFRAME DOVERLAY, 0, STATIC
        ARGFRAME ISTACK, 0, STACK
        ARGFRAME PSTACK, 0, STACK
        ARGFRAME XSTACK, 27, STACK
        ARGFRAME IOVERLAY, 0, STATIC
        ARGFRAME DOVERLAY, 0, STATIC
        FUNCALL zclGp_SendGpProxyTableResponse, osal_mem_alloc
        LOCFRAME ISTACK, 0, STACK
        LOCFRAME PSTACK, 0, STACK
        LOCFRAME XSTACK, 24, STACK
        LOCFRAME IOVERLAY, 0, STATIC
        LOCFRAME DOVERLAY, 0, STATIC
        ARGFRAME ISTACK, 0, STACK
        ARGFRAME PSTACK, 0, STACK
        ARGFRAME XSTACK, 24, STACK
        ARGFRAME IOVERLAY, 0, STATIC
        ARGFRAME DOVERLAY, 0, STATIC
        FUNCALL zclGp_SendGpProxyTableResponse, osal_memcpy
        LOCFRAME ISTACK, 0, STACK
        LOCFRAME PSTACK, 0, STACK
        LOCFRAME XSTACK, 27, STACK
        LOCFRAME IOVERLAY, 0, STATIC
        LOCFRAME DOVERLAY, 0, STATIC
        ARGFRAME ISTACK, 0, STACK
        ARGFRAME PSTACK, 0, STACK
        ARGFRAME XSTACK, 27, STACK
        ARGFRAME IOVERLAY, 0, STATIC
        ARGFRAME DOVERLAY, 0, STATIC
        FUNCALL zclGp_SendGpProxyTableResponse, zcl_SendCommand
        LOCFRAME ISTACK, 0, STACK
        LOCFRAME PSTACK, 0, STACK
        LOCFRAME XSTACK, 35, STACK
        LOCFRAME IOVERLAY, 0, STATIC
        LOCFRAME DOVERLAY, 0, STATIC
        ARGFRAME ISTACK, 0, STACK
        ARGFRAME PSTACK, 0, STACK
        ARGFRAME XSTACK, 35, STACK
        ARGFRAME IOVERLAY, 0, STATIC
        ARGFRAME DOVERLAY, 0, STATIC
        FUNCALL zclGp_SendGpProxyTableResponse, osal_mem_free
        LOCFRAME ISTACK, 0, STACK
        LOCFRAME PSTACK, 0, STACK
        LOCFRAME XSTACK, 24, STACK
        LOCFRAME IOVERLAY, 0, STATIC
        LOCFRAME DOVERLAY, 0, STATIC
        ARGFRAME ISTACK, 0, STACK
        ARGFRAME PSTACK, 0, STACK
        ARGFRAME XSTACK, 24, STACK
        ARGFRAME IOVERLAY, 0, STATIC
        ARGFRAME DOVERLAY, 0, STATIC
        REQUIRE ?V0
        REQUIRE ?V1
        REQUIRE ?V2
        REQUIRE ?V3
        REQUIRE ?V4
        REQUIRE ?V5
        REQUIRE ?V6
        REQUIRE ?V7
        MOV       A,#-0x10
        LCALL     ?BANKED_ENTER_XDATA
          CFI DPH0 load(1, XDATA, add(CFA_XSP16, literal(-1)))
          CFI DPL0 load(1, XDATA, add(CFA_XSP16, literal(-2)))
          CFI ?BRET_EXT load(1, XDATA, add(CFA_XSP16, literal(-3)))
          CFI ?RET_HIGH load(1, XDATA, add(CFA_XSP16, literal(-4)))
          CFI ?RET_LOW load(1, XDATA, add(CFA_XSP16, literal(-5)))
          CFI R7 load(1, XDATA, add(CFA_XSP16, literal(-6)))
          CFI V7 load(1, XDATA, add(CFA_XSP16, literal(-7)))
          CFI V6 load(1, XDATA, add(CFA_XSP16, literal(-8)))
          CFI V5 load(1, XDATA, add(CFA_XSP16, literal(-9)))
          CFI V4 load(1, XDATA, add(CFA_XSP16, literal(-10)))
          CFI V3 load(1, XDATA, add(CFA_XSP16, literal(-11)))
          CFI V2 load(1, XDATA, add(CFA_XSP16, literal(-12)))
          CFI V1 load(1, XDATA, add(CFA_XSP16, literal(-13)))
          CFI V0 load(1, XDATA, add(CFA_XSP16, literal(-14)))
          CFI VB load(1, XDATA, add(CFA_XSP16, literal(-15)))
          CFI R6 load(1, XDATA, add(CFA_XSP16, literal(-16)))
          CFI CFA_SP SP+0
          CFI CFA_XSP16 add(XSP16, 16)
        ; Saved register size: 16
        ; Auto size: 8
        MOV       A,#-0x8
        LCALL     ?ALLOC_XSTACK8
          CFI CFA_XSP16 add(XSP16, 24)
        MOV       A,#0x6
        LCALL     ?XSTACK_DISP0_8
        LCALL     ?Subroutine34 & 0xFFFF
??CrossCallReturnLabel_45:
        MOV       A,R4
        MOVX      @DPTR,A
        INC       DPTR
        MOV       A,R5
        MOVX      @DPTR,A
        MOV       ?V7,R1
//  590   uint8 *buf = NULL;
//  591   uint8 *pBuf = NULL;
//  592   uint8 *pEntry = NULL;
        MOV       ?V0,#0x0
        MOV       ?V1,#0x0
//  593   
//  594   ZStatus_t status;
//  595   uint16 entryLen = 0;
        MOV       A,#0x2
        LCALL     ?XSTACK_DISP0_8
        CLR       A
        MOVX      @DPTR,A
        INC       DPTR
        LCALL     ??Subroutine57_0 & 0xFFFF
//  596   uint16 len;
//  597   
//  598   if ( rsp->proxyTableEntry != NULL )
??CrossCallReturnLabel_86:
        ADD       A,#0x4
        MOV       R0,A
        INC       DPTR
        MOVX      A,@DPTR
        ADDC      A,#0x0
        MOV       R1,A
        MOV       A,#0x4
        LCALL     ?XSTACK_DISP0_8
        LCALL     ?Subroutine32 & 0xFFFF
??CrossCallReturnLabel_38:
        MOV       A,#0x4
        LCALL     ?XSTACK_DISP0_8
        LCALL     ??Subroutine59_0 & 0xFFFF
??CrossCallReturnLabel_101:
        LCALL     ??Subroutine68_0 & 0xFFFF
??CrossCallReturnLabel_147:
        JZ        ??zclGp_SendGpProxyTableResponse_0
//  599   {
//  600     pEntry = rsp->proxyTableEntry;
        MOV       ?V0,R0
        MOV       ?V1,R1
//  601     zcl_memcpy( &entryLen, pEntry, sizeof ( uint16 ) );
        ; Setup parameters for call to function osal_memcpy
        MOV       ?V4,R0
        MOV       ?V5,R1
        MOV       ?V6,#0x0
        MOV       R0,#?V4
        LCALL     ?PUSH_XSTACK_I_THREE
          CFI CFA_XSP16 add(XSP16, 27)
        MOV       R4,#0x2
        MOV       R5,#0x0
        MOV       A,#0x5
        LCALL     ?XSTACK_DISP101_8
        LCALL     ??Subroutine72_0 & 0xFFFF
??CrossCallReturnLabel_192:
        LCALL     ?DEALLOC_XSTACK8
          CFI CFA_XSP16 add(XSP16, 24)
//  602     pEntry += sizeof ( uint16 );
        MOV       A,?V0
        ADD       A,#0x2
        MOV       ?V0,A
        JNC       ??zclGp_SendGpProxyTableResponse_0
        INC       ?V1
//  603   }
//  604   
//  605   len = entryLen + 4;
??zclGp_SendGpProxyTableResponse_0:
        MOV       A,#0x2
        LCALL     ?XSTACK_DISP0_8
        MOVX      A,@DPTR
        ADD       A,#0x4
        MOV       R6,A
        INC       DPTR
        MOVX      A,@DPTR
        ADDC      A,#0x0
        MOV       R7,A
//  606 
//  607   buf = zcl_mem_alloc( len );
        ; Setup parameters for call to function osal_mem_alloc
        MOV       A,R6
        MOV       R2,A
        MOV       A,R7
        MOV       R3,A
        LCALL     `??osal_mem_alloc::?relay`; Banked call to: osal_mem_alloc
        MOV       ?V4,R2
        MOV       ?V5,R3
//  608   if ( buf )
        MOV       A,R2
        ORL       A,R3
        JNZ       $+5
        LJMP      ??zclGp_SendGpProxyTableResponse_1 & 0xFFFF
//  609   {
//  610     pBuf = buf;
//  611     *pBuf++ = rsp->status;
        LCALL     ?Subroutine15 & 0xFFFF
??CrossCallReturnLabel_114:
        MOV       DPL,R2
        MOV       DPH,R3
        MOVX      @DPTR,A
//  612     *pBuf++ = rsp->tableEntriesTotal;
        LCALL     ?Subroutine24 & 0xFFFF
??CrossCallReturnLabel_104:
        LCALL     ?Subroutine28 & 0xFFFF
??CrossCallReturnLabel_96:
        LCALL     ?Subroutine23 & 0xFFFF
//  613     *pBuf++ = rsp->startIndex;
??CrossCallReturnLabel_105:
        LCALL     ??Subroutine58_0 & 0xFFFF
??CrossCallReturnLabel_95:
        INC       DPTR
        LCALL     ?Subroutine23 & 0xFFFF
//  614     *pBuf++ = rsp->entriesCount;
??CrossCallReturnLabel_106:
        LCALL     ?Subroutine28 & 0xFFFF
??CrossCallReturnLabel_97:
        INC       DPTR
        INC       DPTR
        INC       DPTR
        MOVX      @DPTR,A
//  615     if ( rsp->proxyTableEntry != NULL )
        MOV       A,#0x4
        LCALL     ?XSTACK_DISP0_8
        LCALL     ??Subroutine59_0 & 0xFFFF
??CrossCallReturnLabel_102:
        LCALL     ??Subroutine68_0 & 0xFFFF
??CrossCallReturnLabel_148:
        JZ        ??zclGp_SendGpProxyTableResponse_2
//  616     {
//  617       zcl_memcpy( pBuf, pEntry, entryLen );
        ; Setup parameters for call to function osal_memcpy
        MOV       ?V2,#0x0
        MOV       R0,#?V0
        LCALL     ?PUSH_XSTACK_I_THREE
          CFI CFA_XSP16 add(XSP16, 27)
        MOV       A,#0x5
        LCALL     ?XSTACK_DISP0_8
        LCALL     ??Subroutine63_0 & 0xFFFF
//  618     }
??CrossCallReturnLabel_124:
        MOV       A,R2
        ADD       A,#0x4
        MOV       R2,A
        CLR       A
        ADDC      A,?V5
        LCALL     ??Subroutine71_0 & 0xFFFF
??CrossCallReturnLabel_184:
        LCALL     ?DEALLOC_XSTACK8
          CFI CFA_XSP16 add(XSP16, 24)
//  619 
//  620     status = zcl_SendCommand( GREEN_POWER_INTERNAL_ENDPOINT, dstAddr, ZCL_CLUSTER_ID_GREEN_POWER,
//  621                               COMMAND_GP_PROXY_TABLE_RESPONSE, TRUE, ZCL_FRAME_CLIENT_SERVER_DIR,
//  622                               TRUE, 0, seqNum, len, buf );
??zclGp_SendGpProxyTableResponse_2:
        ; Setup parameters for call to function zcl_SendCommand
        MOV       R0,#?V4
        LCALL     ?PUSH_XSTACK_I_TWO
          CFI CFA_XSP16 add(XSP16, 26)
        MOV       ?V0,R6
        MOV       ?V1,R7
        MOV       R0,#?V0
        LCALL     ?PUSH_XSTACK_I_TWO
          CFI CFA_XSP16 add(XSP16, 28)
        MOV       A,?V7
        MOV       ?V0,A
        MOV       R0,#?V0
        LCALL     ?PUSH_XSTACK_I_ONE
          CFI CFA_XSP16 add(XSP16, 29)
        CLR       A
        MOV       ?V0,A
        MOV       ?V1,A
        MOV       R0,#?V0
        LCALL     ?PUSH_XSTACK_I_TWO
          CFI CFA_XSP16 add(XSP16, 31)
        MOV       ?V0,#0x1
        MOV       R0,#?V0
        LCALL     ?PUSH_XSTACK_I_ONE
          CFI CFA_XSP16 add(XSP16, 32)
        MOV       ?V0,#0x0
        MOV       R0,#?V0
        LCALL     ?PUSH_XSTACK_I_ONE
          CFI CFA_XSP16 add(XSP16, 33)
        MOV       ?V0,#0x1
        MOV       R0,#?V0
        LCALL     ?PUSH_XSTACK_I_ONE
          CFI CFA_XSP16 add(XSP16, 34)
        MOV       ?V0,#0xb
        MOV       R0,#?V0
        LCALL     ?PUSH_XSTACK_I_ONE
          CFI CFA_XSP16 add(XSP16, 35)
        MOV       R4,#0x21
        MOV       R5,#0x0
        MOV       A,#0x11
        LCALL     ?XSTACK_DISP0_8
        LCALL     ??Subroutine69_0 & 0xFFFF
??CrossCallReturnLabel_164:
        MOV       R1,#-0xe
        LCALL     `??zcl_SendCommand::?relay`; Banked call to: zcl_SendCommand
        MOV       A,#0xb
        LCALL     ?DEALLOC_XSTACK8
          CFI CFA_XSP16 add(XSP16, 24)
        MOV       A,R1
        MOV       R6,A
//  623     zcl_mem_free( buf );
        ; Setup parameters for call to function osal_mem_free
        MOV       R2,?V4
        MOV       R3,?V5
        LCALL     `??osal_mem_free::?relay`; Banked call to: osal_mem_free
        SJMP      ??zclGp_SendGpProxyTableResponse_3
//  624   }
//  625   else
//  626     status = ZMemError;
??zclGp_SendGpProxyTableResponse_1:
        MOV       R6,#0x10
//  627 
//  628   return ( status );
??zclGp_SendGpProxyTableResponse_3:
        MOV       A,R6
        MOV       R1,A
        MOV       A,#0x8
        LJMP      ?Subroutine3 & 0xFFFF
//  629 }
          CFI EndBlock cfiBlock132

        RSEG BANKED_CODE:HUGECODE:NOROOT(0)
?Subroutine34:
          CFI Block cfiCond133 Using cfiCommon0
          CFI Function zclGp_SendGpCommissioningNotificationCommand
          CFI Conditional ??CrossCallReturnLabel_44
          CFI R6 load(1, XDATA, add(CFA_XSP16, literal(-16)))
          CFI VB load(1, XDATA, add(CFA_XSP16, literal(-15)))
          CFI V0 load(1, XDATA, add(CFA_XSP16, literal(-14)))
          CFI V1 load(1, XDATA, add(CFA_XSP16, literal(-13)))
          CFI V2 load(1, XDATA, add(CFA_XSP16, literal(-12)))
          CFI V3 load(1, XDATA, add(CFA_XSP16, literal(-11)))
          CFI V4 load(1, XDATA, add(CFA_XSP16, literal(-10)))
          CFI V5 load(1, XDATA, add(CFA_XSP16, literal(-9)))
          CFI V6 load(1, XDATA, add(CFA_XSP16, literal(-8)))
          CFI V7 load(1, XDATA, add(CFA_XSP16, literal(-7)))
          CFI R7 load(1, XDATA, add(CFA_XSP16, literal(-6)))
          CFI ?RET_LOW load(1, XDATA, add(CFA_XSP16, literal(-5)))
          CFI ?RET_HIGH load(1, XDATA, add(CFA_XSP16, literal(-4)))
          CFI ?BRET_EXT load(1, XDATA, add(CFA_XSP16, literal(-3)))
          CFI DPL0 load(1, XDATA, add(CFA_XSP16, literal(-2)))
          CFI DPH0 load(1, XDATA, add(CFA_XSP16, literal(-1)))
          CFI CFA_SP SP+-2
          CFI CFA_XSP16 add(XSP16, 30)
          CFI Block cfiCond134 Using cfiCommon0
          CFI (cfiCond134) Function zclGp_SendGpProxyTableResponse
          CFI (cfiCond134) Conditional ??CrossCallReturnLabel_45
          CFI (cfiCond134) R6 load(1, XDATA, add(CFA_XSP16, literal(-16)))
          CFI (cfiCond134) VB load(1, XDATA, add(CFA_XSP16, literal(-15)))
          CFI (cfiCond134) V0 load(1, XDATA, add(CFA_XSP16, literal(-14)))
          CFI (cfiCond134) V1 load(1, XDATA, add(CFA_XSP16, literal(-13)))
          CFI (cfiCond134) V2 load(1, XDATA, add(CFA_XSP16, literal(-12)))
          CFI (cfiCond134) V3 load(1, XDATA, add(CFA_XSP16, literal(-11)))
          CFI (cfiCond134) V4 load(1, XDATA, add(CFA_XSP16, literal(-10)))
          CFI (cfiCond134) V5 load(1, XDATA, add(CFA_XSP16, literal(-9)))
          CFI (cfiCond134) V6 load(1, XDATA, add(CFA_XSP16, literal(-8)))
          CFI (cfiCond134) V7 load(1, XDATA, add(CFA_XSP16, literal(-7)))
          CFI (cfiCond134) R7 load(1, XDATA, add(CFA_XSP16, literal(-6)))
          CFI (cfiCond134) ?RET_LOW load(1, XDATA, add(CFA_XSP16, literal(-5)))
          CFI (cfiCond134) ?RET_HIGH load(1, XDATA, add(CFA_XSP16, literal(-4)))
          CFI (cfiCond134) ?BRET_EXT load(1, XDATA, add(CFA_XSP16, literal(-3)))
          CFI (cfiCond134) DPL0 load(1, XDATA, add(CFA_XSP16, literal(-2)))
          CFI (cfiCond134) DPH0 load(1, XDATA, add(CFA_XSP16, literal(-1)))
          CFI (cfiCond134) CFA_SP SP+-2
          CFI (cfiCond134) CFA_XSP16 add(XSP16, 24)
          CFI Block cfiPicker135 Using cfiCommon1
          CFI (cfiPicker135) NoFunction
          CFI (cfiPicker135) Picker
        MOV       A,R2
        MOVX      @DPTR,A
        INC       DPTR
        MOV       A,R3
        LCALL     ?Subroutine50 & 0xFFFF
??CrossCallReturnLabel_92:
        RET
          CFI EndBlock cfiCond133
          CFI EndBlock cfiCond134
          CFI EndBlock cfiPicker135

        RSEG BANKED_CODE:HUGECODE:NOROOT(0)
?Subroutine50:
          CFI Block cfiCond136 Using cfiCommon0
          CFI Function zclGp_ProcessInProxyBasic
          CFI Conditional ??CrossCallReturnLabel_91, ??CrossCallReturnLabel_5
          CFI R6 load(1, XDATA, add(CFA_XSP16, literal(-15)))
          CFI VB load(1, XDATA, add(CFA_XSP16, literal(-14)))
          CFI V0 load(1, XDATA, add(CFA_XSP16, literal(-13)))
          CFI V1 load(1, XDATA, add(CFA_XSP16, literal(-12)))
          CFI V2 load(1, XDATA, add(CFA_XSP16, literal(-11)))
          CFI V3 load(1, XDATA, add(CFA_XSP16, literal(-10)))
          CFI V4 load(1, XDATA, add(CFA_XSP16, literal(-9)))
          CFI V5 load(1, XDATA, add(CFA_XSP16, literal(-8)))
          CFI V6 load(1, XDATA, add(CFA_XSP16, literal(-7)))
          CFI R7 load(1, XDATA, add(CFA_XSP16, literal(-6)))
          CFI ?RET_LOW load(1, XDATA, add(CFA_XSP16, literal(-5)))
          CFI ?RET_HIGH load(1, XDATA, add(CFA_XSP16, literal(-4)))
          CFI ?BRET_EXT load(1, XDATA, add(CFA_XSP16, literal(-3)))
          CFI DPL0 load(1, XDATA, add(CFA_XSP16, literal(-2)))
          CFI DPH0 load(1, XDATA, add(CFA_XSP16, literal(-1)))
          CFI CFA_SP SP+-4
          CFI CFA_XSP16 add(XSP16, 43)
          CFI Block cfiCond137 Using cfiCommon0
          CFI (cfiCond137) Function zclGp_ProcessInProxyBasic
          CFI (cfiCond137) Conditional ??CrossCallReturnLabel_91, ??CrossCallReturnLabel_6
          CFI (cfiCond137) R6 load(1, XDATA, add(CFA_XSP16, literal(-15)))
          CFI (cfiCond137) VB load(1, XDATA, add(CFA_XSP16, literal(-14)))
          CFI (cfiCond137) V0 load(1, XDATA, add(CFA_XSP16, literal(-13)))
          CFI (cfiCond137) V1 load(1, XDATA, add(CFA_XSP16, literal(-12)))
          CFI (cfiCond137) V2 load(1, XDATA, add(CFA_XSP16, literal(-11)))
          CFI (cfiCond137) V3 load(1, XDATA, add(CFA_XSP16, literal(-10)))
          CFI (cfiCond137) V4 load(1, XDATA, add(CFA_XSP16, literal(-9)))
          CFI (cfiCond137) V5 load(1, XDATA, add(CFA_XSP16, literal(-8)))
          CFI (cfiCond137) V6 load(1, XDATA, add(CFA_XSP16, literal(-7)))
          CFI (cfiCond137) R7 load(1, XDATA, add(CFA_XSP16, literal(-6)))
          CFI (cfiCond137) ?RET_LOW load(1, XDATA, add(CFA_XSP16, literal(-5)))
          CFI (cfiCond137) ?RET_HIGH load(1, XDATA, add(CFA_XSP16, literal(-4)))
          CFI (cfiCond137) ?BRET_EXT load(1, XDATA, add(CFA_XSP16, literal(-3)))
          CFI (cfiCond137) DPL0 load(1, XDATA, add(CFA_XSP16, literal(-2)))
          CFI (cfiCond137) DPH0 load(1, XDATA, add(CFA_XSP16, literal(-1)))
          CFI (cfiCond137) CFA_SP SP+-4
          CFI (cfiCond137) CFA_XSP16 add(XSP16, 43)
          CFI Block cfiCond138 Using cfiCommon0
          CFI (cfiCond138) Function zclGp_SendGpCommissioningNotificationCommand
          CFI (cfiCond138) Conditional ??CrossCallReturnLabel_92, ??CrossCallReturnLabel_44
          CFI (cfiCond138) R6 load(1, XDATA, add(CFA_XSP16, literal(-16)))
          CFI (cfiCond138) VB load(1, XDATA, add(CFA_XSP16, literal(-15)))
          CFI (cfiCond138) V0 load(1, XDATA, add(CFA_XSP16, literal(-14)))
          CFI (cfiCond138) V1 load(1, XDATA, add(CFA_XSP16, literal(-13)))
          CFI (cfiCond138) V2 load(1, XDATA, add(CFA_XSP16, literal(-12)))
          CFI (cfiCond138) V3 load(1, XDATA, add(CFA_XSP16, literal(-11)))
          CFI (cfiCond138) V4 load(1, XDATA, add(CFA_XSP16, literal(-10)))
          CFI (cfiCond138) V5 load(1, XDATA, add(CFA_XSP16, literal(-9)))
          CFI (cfiCond138) V6 load(1, XDATA, add(CFA_XSP16, literal(-8)))
          CFI (cfiCond138) V7 load(1, XDATA, add(CFA_XSP16, literal(-7)))
          CFI (cfiCond138) R7 load(1, XDATA, add(CFA_XSP16, literal(-6)))
          CFI (cfiCond138) ?RET_LOW load(1, XDATA, add(CFA_XSP16, literal(-5)))
          CFI (cfiCond138) ?RET_HIGH load(1, XDATA, add(CFA_XSP16, literal(-4)))
          CFI (cfiCond138) ?BRET_EXT load(1, XDATA, add(CFA_XSP16, literal(-3)))
          CFI (cfiCond138) DPL0 load(1, XDATA, add(CFA_XSP16, literal(-2)))
          CFI (cfiCond138) DPH0 load(1, XDATA, add(CFA_XSP16, literal(-1)))
          CFI (cfiCond138) CFA_SP SP+-4
          CFI (cfiCond138) CFA_XSP16 add(XSP16, 30)
          CFI Block cfiCond139 Using cfiCommon0
          CFI (cfiCond139) Function zclGp_SendGpProxyTableResponse
          CFI (cfiCond139) Conditional ??CrossCallReturnLabel_92, ??CrossCallReturnLabel_45
          CFI (cfiCond139) R6 load(1, XDATA, add(CFA_XSP16, literal(-16)))
          CFI (cfiCond139) VB load(1, XDATA, add(CFA_XSP16, literal(-15)))
          CFI (cfiCond139) V0 load(1, XDATA, add(CFA_XSP16, literal(-14)))
          CFI (cfiCond139) V1 load(1, XDATA, add(CFA_XSP16, literal(-13)))
          CFI (cfiCond139) V2 load(1, XDATA, add(CFA_XSP16, literal(-12)))
          CFI (cfiCond139) V3 load(1, XDATA, add(CFA_XSP16, literal(-11)))
          CFI (cfiCond139) V4 load(1, XDATA, add(CFA_XSP16, literal(-10)))
          CFI (cfiCond139) V5 load(1, XDATA, add(CFA_XSP16, literal(-9)))
          CFI (cfiCond139) V6 load(1, XDATA, add(CFA_XSP16, literal(-8)))
          CFI (cfiCond139) V7 load(1, XDATA, add(CFA_XSP16, literal(-7)))
          CFI (cfiCond139) R7 load(1, XDATA, add(CFA_XSP16, literal(-6)))
          CFI (cfiCond139) ?RET_LOW load(1, XDATA, add(CFA_XSP16, literal(-5)))
          CFI (cfiCond139) ?RET_HIGH load(1, XDATA, add(CFA_XSP16, literal(-4)))
          CFI (cfiCond139) ?BRET_EXT load(1, XDATA, add(CFA_XSP16, literal(-3)))
          CFI (cfiCond139) DPL0 load(1, XDATA, add(CFA_XSP16, literal(-2)))
          CFI (cfiCond139) DPH0 load(1, XDATA, add(CFA_XSP16, literal(-1)))
          CFI (cfiCond139) CFA_SP SP+-4
          CFI (cfiCond139) CFA_XSP16 add(XSP16, 24)
          CFI Block cfiCond140 Using cfiCommon0
          CFI (cfiCond140) Function zclGp_ProcessInProxyBasic
          CFI (cfiCond140) Conditional ??CrossCallReturnLabel_93, ??CrossCallReturnLabel_89, ??CrossCallReturnLabel_87
          CFI (cfiCond140) R6 load(1, XDATA, add(CFA_XSP16, literal(-15)))
          CFI (cfiCond140) VB load(1, XDATA, add(CFA_XSP16, literal(-14)))
          CFI (cfiCond140) V0 load(1, XDATA, add(CFA_XSP16, literal(-13)))
          CFI (cfiCond140) V1 load(1, XDATA, add(CFA_XSP16, literal(-12)))
          CFI (cfiCond140) V2 load(1, XDATA, add(CFA_XSP16, literal(-11)))
          CFI (cfiCond140) V3 load(1, XDATA, add(CFA_XSP16, literal(-10)))
          CFI (cfiCond140) V4 load(1, XDATA, add(CFA_XSP16, literal(-9)))
          CFI (cfiCond140) V5 load(1, XDATA, add(CFA_XSP16, literal(-8)))
          CFI (cfiCond140) V6 load(1, XDATA, add(CFA_XSP16, literal(-7)))
          CFI (cfiCond140) R7 load(1, XDATA, add(CFA_XSP16, literal(-6)))
          CFI (cfiCond140) ?RET_LOW load(1, XDATA, add(CFA_XSP16, literal(-5)))
          CFI (cfiCond140) ?RET_HIGH load(1, XDATA, add(CFA_XSP16, literal(-4)))
          CFI (cfiCond140) ?BRET_EXT load(1, XDATA, add(CFA_XSP16, literal(-3)))
          CFI (cfiCond140) DPL0 load(1, XDATA, add(CFA_XSP16, literal(-2)))
          CFI (cfiCond140) DPH0 load(1, XDATA, add(CFA_XSP16, literal(-1)))
          CFI (cfiCond140) CFA_SP SP+-6
          CFI (cfiCond140) CFA_XSP16 add(XSP16, 43)
          CFI Block cfiCond141 Using cfiCommon0
          CFI (cfiCond141) Function zclGp_ProcessInProxyBasic
          CFI (cfiCond141) Conditional ??CrossCallReturnLabel_93, ??CrossCallReturnLabel_89, ??CrossCallReturnLabel_88
          CFI (cfiCond141) R6 load(1, XDATA, add(CFA_XSP16, literal(-15)))
          CFI (cfiCond141) VB load(1, XDATA, add(CFA_XSP16, literal(-14)))
          CFI (cfiCond141) V0 load(1, XDATA, add(CFA_XSP16, literal(-13)))
          CFI (cfiCond141) V1 load(1, XDATA, add(CFA_XSP16, literal(-12)))
          CFI (cfiCond141) V2 load(1, XDATA, add(CFA_XSP16, literal(-11)))
          CFI (cfiCond141) V3 load(1, XDATA, add(CFA_XSP16, literal(-10)))
          CFI (cfiCond141) V4 load(1, XDATA, add(CFA_XSP16, literal(-9)))
          CFI (cfiCond141) V5 load(1, XDATA, add(CFA_XSP16, literal(-8)))
          CFI (cfiCond141) V6 load(1, XDATA, add(CFA_XSP16, literal(-7)))
          CFI (cfiCond141) R7 load(1, XDATA, add(CFA_XSP16, literal(-6)))
          CFI (cfiCond141) ?RET_LOW load(1, XDATA, add(CFA_XSP16, literal(-5)))
          CFI (cfiCond141) ?RET_HIGH load(1, XDATA, add(CFA_XSP16, literal(-4)))
          CFI (cfiCond141) ?BRET_EXT load(1, XDATA, add(CFA_XSP16, literal(-3)))
          CFI (cfiCond141) DPL0 load(1, XDATA, add(CFA_XSP16, literal(-2)))
          CFI (cfiCond141) DPH0 load(1, XDATA, add(CFA_XSP16, literal(-1)))
          CFI (cfiCond141) CFA_SP SP+-6
          CFI (cfiCond141) CFA_XSP16 add(XSP16, 43)
          CFI Block cfiCond142 Using cfiCommon0
          CFI (cfiCond142) Function zclGp_ProcessInProxyBasic
          CFI (cfiCond142) Conditional ??CrossCallReturnLabel_93, ??CrossCallReturnLabel_89, ??CrossCallReturnLabel_85
          CFI (cfiCond142) R6 load(1, XDATA, add(CFA_XSP16, literal(-15)))
          CFI (cfiCond142) VB load(1, XDATA, add(CFA_XSP16, literal(-14)))
          CFI (cfiCond142) V0 load(1, XDATA, add(CFA_XSP16, literal(-13)))
          CFI (cfiCond142) V1 load(1, XDATA, add(CFA_XSP16, literal(-12)))
          CFI (cfiCond142) V2 load(1, XDATA, add(CFA_XSP16, literal(-11)))
          CFI (cfiCond142) V3 load(1, XDATA, add(CFA_XSP16, literal(-10)))
          CFI (cfiCond142) V4 load(1, XDATA, add(CFA_XSP16, literal(-9)))
          CFI (cfiCond142) V5 load(1, XDATA, add(CFA_XSP16, literal(-8)))
          CFI (cfiCond142) V6 load(1, XDATA, add(CFA_XSP16, literal(-7)))
          CFI (cfiCond142) R7 load(1, XDATA, add(CFA_XSP16, literal(-6)))
          CFI (cfiCond142) ?RET_LOW load(1, XDATA, add(CFA_XSP16, literal(-5)))
          CFI (cfiCond142) ?RET_HIGH load(1, XDATA, add(CFA_XSP16, literal(-4)))
          CFI (cfiCond142) ?BRET_EXT load(1, XDATA, add(CFA_XSP16, literal(-3)))
          CFI (cfiCond142) DPL0 load(1, XDATA, add(CFA_XSP16, literal(-2)))
          CFI (cfiCond142) DPH0 load(1, XDATA, add(CFA_XSP16, literal(-1)))
          CFI (cfiCond142) CFA_SP SP+-6
          CFI (cfiCond142) CFA_XSP16 add(XSP16, 43)
          CFI Block cfiCond143 Using cfiCommon0
          CFI (cfiCond143) Function zclGp_SendGpProxyTableResponse
          CFI (cfiCond143) Conditional ??CrossCallReturnLabel_93, ??CrossCallReturnLabel_89, ??CrossCallReturnLabel_86
          CFI (cfiCond143) R6 load(1, XDATA, add(CFA_XSP16, literal(-16)))
          CFI (cfiCond143) VB load(1, XDATA, add(CFA_XSP16, literal(-15)))
          CFI (cfiCond143) V0 load(1, XDATA, add(CFA_XSP16, literal(-14)))
          CFI (cfiCond143) V1 load(1, XDATA, add(CFA_XSP16, literal(-13)))
          CFI (cfiCond143) V2 load(1, XDATA, add(CFA_XSP16, literal(-12)))
          CFI (cfiCond143) V3 load(1, XDATA, add(CFA_XSP16, literal(-11)))
          CFI (cfiCond143) V4 load(1, XDATA, add(CFA_XSP16, literal(-10)))
          CFI (cfiCond143) V5 load(1, XDATA, add(CFA_XSP16, literal(-9)))
          CFI (cfiCond143) V6 load(1, XDATA, add(CFA_XSP16, literal(-8)))
          CFI (cfiCond143) V7 load(1, XDATA, add(CFA_XSP16, literal(-7)))
          CFI (cfiCond143) R7 load(1, XDATA, add(CFA_XSP16, literal(-6)))
          CFI (cfiCond143) ?RET_LOW load(1, XDATA, add(CFA_XSP16, literal(-5)))
          CFI (cfiCond143) ?RET_HIGH load(1, XDATA, add(CFA_XSP16, literal(-4)))
          CFI (cfiCond143) ?BRET_EXT load(1, XDATA, add(CFA_XSP16, literal(-3)))
          CFI (cfiCond143) DPL0 load(1, XDATA, add(CFA_XSP16, literal(-2)))
          CFI (cfiCond143) DPH0 load(1, XDATA, add(CFA_XSP16, literal(-1)))
          CFI (cfiCond143) CFA_SP SP+-6
          CFI (cfiCond143) CFA_XSP16 add(XSP16, 24)
          CFI Block cfiCond144 Using cfiCommon0
          CFI (cfiCond144) Function zclGp_SendGpProxyTableResponse
          CFI (cfiCond144) Conditional ??CrossCallReturnLabel_93, ??CrossCallReturnLabel_90, ??CrossCallReturnLabel_105
          CFI (cfiCond144) R6 load(1, XDATA, add(CFA_XSP16, literal(-16)))
          CFI (cfiCond144) VB load(1, XDATA, add(CFA_XSP16, literal(-15)))
          CFI (cfiCond144) V0 load(1, XDATA, add(CFA_XSP16, literal(-14)))
          CFI (cfiCond144) V1 load(1, XDATA, add(CFA_XSP16, literal(-13)))
          CFI (cfiCond144) V2 load(1, XDATA, add(CFA_XSP16, literal(-12)))
          CFI (cfiCond144) V3 load(1, XDATA, add(CFA_XSP16, literal(-11)))
          CFI (cfiCond144) V4 load(1, XDATA, add(CFA_XSP16, literal(-10)))
          CFI (cfiCond144) V5 load(1, XDATA, add(CFA_XSP16, literal(-9)))
          CFI (cfiCond144) V6 load(1, XDATA, add(CFA_XSP16, literal(-8)))
          CFI (cfiCond144) V7 load(1, XDATA, add(CFA_XSP16, literal(-7)))
          CFI (cfiCond144) R7 load(1, XDATA, add(CFA_XSP16, literal(-6)))
          CFI (cfiCond144) ?RET_LOW load(1, XDATA, add(CFA_XSP16, literal(-5)))
          CFI (cfiCond144) ?RET_HIGH load(1, XDATA, add(CFA_XSP16, literal(-4)))
          CFI (cfiCond144) ?BRET_EXT load(1, XDATA, add(CFA_XSP16, literal(-3)))
          CFI (cfiCond144) DPL0 load(1, XDATA, add(CFA_XSP16, literal(-2)))
          CFI (cfiCond144) DPH0 load(1, XDATA, add(CFA_XSP16, literal(-1)))
          CFI (cfiCond144) CFA_SP SP+-6
          CFI (cfiCond144) CFA_XSP16 add(XSP16, 24)
          CFI Block cfiCond145 Using cfiCommon0
          CFI (cfiCond145) Function zclGp_SendGpProxyTableResponse
          CFI (cfiCond145) Conditional ??CrossCallReturnLabel_93, ??CrossCallReturnLabel_90, ??CrossCallReturnLabel_106
          CFI (cfiCond145) R6 load(1, XDATA, add(CFA_XSP16, literal(-16)))
          CFI (cfiCond145) VB load(1, XDATA, add(CFA_XSP16, literal(-15)))
          CFI (cfiCond145) V0 load(1, XDATA, add(CFA_XSP16, literal(-14)))
          CFI (cfiCond145) V1 load(1, XDATA, add(CFA_XSP16, literal(-13)))
          CFI (cfiCond145) V2 load(1, XDATA, add(CFA_XSP16, literal(-12)))
          CFI (cfiCond145) V3 load(1, XDATA, add(CFA_XSP16, literal(-11)))
          CFI (cfiCond145) V4 load(1, XDATA, add(CFA_XSP16, literal(-10)))
          CFI (cfiCond145) V5 load(1, XDATA, add(CFA_XSP16, literal(-9)))
          CFI (cfiCond145) V6 load(1, XDATA, add(CFA_XSP16, literal(-8)))
          CFI (cfiCond145) V7 load(1, XDATA, add(CFA_XSP16, literal(-7)))
          CFI (cfiCond145) R7 load(1, XDATA, add(CFA_XSP16, literal(-6)))
          CFI (cfiCond145) ?RET_LOW load(1, XDATA, add(CFA_XSP16, literal(-5)))
          CFI (cfiCond145) ?RET_HIGH load(1, XDATA, add(CFA_XSP16, literal(-4)))
          CFI (cfiCond145) ?BRET_EXT load(1, XDATA, add(CFA_XSP16, literal(-3)))
          CFI (cfiCond145) DPL0 load(1, XDATA, add(CFA_XSP16, literal(-2)))
          CFI (cfiCond145) DPH0 load(1, XDATA, add(CFA_XSP16, literal(-1)))
          CFI (cfiCond145) CFA_SP SP+-6
          CFI (cfiCond145) CFA_XSP16 add(XSP16, 24)
          CFI Block cfiPicker146 Using cfiCommon1
          CFI (cfiPicker146) NoFunction
          CFI (cfiPicker146) Picker
        MOVX      @DPTR,A
        MOV       DPL,?XSP + 0
        MOV       DPH,?XSP + 1
        RET
          CFI EndBlock cfiCond136
          CFI EndBlock cfiCond137
          CFI EndBlock cfiCond138
          CFI EndBlock cfiCond139
          CFI EndBlock cfiCond140
          CFI EndBlock cfiCond141
          CFI EndBlock cfiCond142
          CFI EndBlock cfiCond143
          CFI EndBlock cfiCond144
          CFI EndBlock cfiCond145
          CFI EndBlock cfiPicker146

        RSEG BANKED_CODE:HUGECODE:NOROOT(0)
?Subroutine31:
          CFI Block cfiCond147 Using cfiCommon0
          CFI Function zclGp_ProcessInProxyBasic
          CFI Conditional ??CrossCallReturnLabel_87
          CFI R6 load(1, XDATA, add(CFA_XSP16, literal(-15)))
          CFI VB load(1, XDATA, add(CFA_XSP16, literal(-14)))
          CFI V0 load(1, XDATA, add(CFA_XSP16, literal(-13)))
          CFI V1 load(1, XDATA, add(CFA_XSP16, literal(-12)))
          CFI V2 load(1, XDATA, add(CFA_XSP16, literal(-11)))
          CFI V3 load(1, XDATA, add(CFA_XSP16, literal(-10)))
          CFI V4 load(1, XDATA, add(CFA_XSP16, literal(-9)))
          CFI V5 load(1, XDATA, add(CFA_XSP16, literal(-8)))
          CFI V6 load(1, XDATA, add(CFA_XSP16, literal(-7)))
          CFI R7 load(1, XDATA, add(CFA_XSP16, literal(-6)))
          CFI ?RET_LOW load(1, XDATA, add(CFA_XSP16, literal(-5)))
          CFI ?RET_HIGH load(1, XDATA, add(CFA_XSP16, literal(-4)))
          CFI ?BRET_EXT load(1, XDATA, add(CFA_XSP16, literal(-3)))
          CFI DPL0 load(1, XDATA, add(CFA_XSP16, literal(-2)))
          CFI DPH0 load(1, XDATA, add(CFA_XSP16, literal(-1)))
          CFI CFA_SP SP+-2
          CFI CFA_XSP16 add(XSP16, 43)
          CFI Block cfiCond148 Using cfiCommon0
          CFI (cfiCond148) Function zclGp_ProcessInProxyBasic
          CFI (cfiCond148) Conditional ??CrossCallReturnLabel_88
          CFI (cfiCond148) R6 load(1, XDATA, add(CFA_XSP16, literal(-15)))
          CFI (cfiCond148) VB load(1, XDATA, add(CFA_XSP16, literal(-14)))
          CFI (cfiCond148) V0 load(1, XDATA, add(CFA_XSP16, literal(-13)))
          CFI (cfiCond148) V1 load(1, XDATA, add(CFA_XSP16, literal(-12)))
          CFI (cfiCond148) V2 load(1, XDATA, add(CFA_XSP16, literal(-11)))
          CFI (cfiCond148) V3 load(1, XDATA, add(CFA_XSP16, literal(-10)))
          CFI (cfiCond148) V4 load(1, XDATA, add(CFA_XSP16, literal(-9)))
          CFI (cfiCond148) V5 load(1, XDATA, add(CFA_XSP16, literal(-8)))
          CFI (cfiCond148) V6 load(1, XDATA, add(CFA_XSP16, literal(-7)))
          CFI (cfiCond148) R7 load(1, XDATA, add(CFA_XSP16, literal(-6)))
          CFI (cfiCond148) ?RET_LOW load(1, XDATA, add(CFA_XSP16, literal(-5)))
          CFI (cfiCond148) ?RET_HIGH load(1, XDATA, add(CFA_XSP16, literal(-4)))
          CFI (cfiCond148) ?BRET_EXT load(1, XDATA, add(CFA_XSP16, literal(-3)))
          CFI (cfiCond148) DPL0 load(1, XDATA, add(CFA_XSP16, literal(-2)))
          CFI (cfiCond148) DPH0 load(1, XDATA, add(CFA_XSP16, literal(-1)))
          CFI (cfiCond148) CFA_SP SP+-2
          CFI (cfiCond148) CFA_XSP16 add(XSP16, 43)
          CFI Block cfiPicker149 Using cfiCommon1
          CFI (cfiPicker149) NoFunction
          CFI (cfiPicker149) Picker
        MOV       A,R0
        MOVX      @DPTR,A
        INC       DPTR
        MOV       A,R1
          CFI EndBlock cfiCond147
          CFI EndBlock cfiCond148
          CFI EndBlock cfiPicker149
        REQUIRE ??Subroutine57_0
        ; // Fall through to label ??Subroutine57_0

        RSEG BANKED_CODE:HUGECODE:NOROOT(0)
??Subroutine57_0:
          CFI Block cfiCond150 Using cfiCommon0
          CFI Function zclGp_ProcessInProxyBasic
          CFI Conditional ??CrossCallReturnLabel_85
          CFI R6 load(1, XDATA, add(CFA_XSP16, literal(-15)))
          CFI VB load(1, XDATA, add(CFA_XSP16, literal(-14)))
          CFI V0 load(1, XDATA, add(CFA_XSP16, literal(-13)))
          CFI V1 load(1, XDATA, add(CFA_XSP16, literal(-12)))
          CFI V2 load(1, XDATA, add(CFA_XSP16, literal(-11)))
          CFI V3 load(1, XDATA, add(CFA_XSP16, literal(-10)))
          CFI V4 load(1, XDATA, add(CFA_XSP16, literal(-9)))
          CFI V5 load(1, XDATA, add(CFA_XSP16, literal(-8)))
          CFI V6 load(1, XDATA, add(CFA_XSP16, literal(-7)))
          CFI R7 load(1, XDATA, add(CFA_XSP16, literal(-6)))
          CFI ?RET_LOW load(1, XDATA, add(CFA_XSP16, literal(-5)))
          CFI ?RET_HIGH load(1, XDATA, add(CFA_XSP16, literal(-4)))
          CFI ?BRET_EXT load(1, XDATA, add(CFA_XSP16, literal(-3)))
          CFI DPL0 load(1, XDATA, add(CFA_XSP16, literal(-2)))
          CFI DPH0 load(1, XDATA, add(CFA_XSP16, literal(-1)))
          CFI CFA_SP SP+-2
          CFI CFA_XSP16 add(XSP16, 43)
          CFI Block cfiCond151 Using cfiCommon0
          CFI (cfiCond151) Function zclGp_SendGpProxyTableResponse
          CFI (cfiCond151) Conditional ??CrossCallReturnLabel_86
          CFI (cfiCond151) R6 load(1, XDATA, add(CFA_XSP16, literal(-16)))
          CFI (cfiCond151) VB load(1, XDATA, add(CFA_XSP16, literal(-15)))
          CFI (cfiCond151) V0 load(1, XDATA, add(CFA_XSP16, literal(-14)))
          CFI (cfiCond151) V1 load(1, XDATA, add(CFA_XSP16, literal(-13)))
          CFI (cfiCond151) V2 load(1, XDATA, add(CFA_XSP16, literal(-12)))
          CFI (cfiCond151) V3 load(1, XDATA, add(CFA_XSP16, literal(-11)))
          CFI (cfiCond151) V4 load(1, XDATA, add(CFA_XSP16, literal(-10)))
          CFI (cfiCond151) V5 load(1, XDATA, add(CFA_XSP16, literal(-9)))
          CFI (cfiCond151) V6 load(1, XDATA, add(CFA_XSP16, literal(-8)))
          CFI (cfiCond151) V7 load(1, XDATA, add(CFA_XSP16, literal(-7)))
          CFI (cfiCond151) R7 load(1, XDATA, add(CFA_XSP16, literal(-6)))
          CFI (cfiCond151) ?RET_LOW load(1, XDATA, add(CFA_XSP16, literal(-5)))
          CFI (cfiCond151) ?RET_HIGH load(1, XDATA, add(CFA_XSP16, literal(-4)))
          CFI (cfiCond151) ?BRET_EXT load(1, XDATA, add(CFA_XSP16, literal(-3)))
          CFI (cfiCond151) DPL0 load(1, XDATA, add(CFA_XSP16, literal(-2)))
          CFI (cfiCond151) DPH0 load(1, XDATA, add(CFA_XSP16, literal(-1)))
          CFI (cfiCond151) CFA_SP SP+-2
          CFI (cfiCond151) CFA_XSP16 add(XSP16, 24)
          CFI Block cfiCond152 Using cfiCommon0
          CFI (cfiCond152) Function zclGp_ProcessInProxyBasic
          CFI (cfiCond152) Conditional ??CrossCallReturnLabel_87
          CFI (cfiCond152) R6 load(1, XDATA, add(CFA_XSP16, literal(-15)))
          CFI (cfiCond152) VB load(1, XDATA, add(CFA_XSP16, literal(-14)))
          CFI (cfiCond152) V0 load(1, XDATA, add(CFA_XSP16, literal(-13)))
          CFI (cfiCond152) V1 load(1, XDATA, add(CFA_XSP16, literal(-12)))
          CFI (cfiCond152) V2 load(1, XDATA, add(CFA_XSP16, literal(-11)))
          CFI (cfiCond152) V3 load(1, XDATA, add(CFA_XSP16, literal(-10)))
          CFI (cfiCond152) V4 load(1, XDATA, add(CFA_XSP16, literal(-9)))
          CFI (cfiCond152) V5 load(1, XDATA, add(CFA_XSP16, literal(-8)))
          CFI (cfiCond152) V6 load(1, XDATA, add(CFA_XSP16, literal(-7)))
          CFI (cfiCond152) R7 load(1, XDATA, add(CFA_XSP16, literal(-6)))
          CFI (cfiCond152) ?RET_LOW load(1, XDATA, add(CFA_XSP16, literal(-5)))
          CFI (cfiCond152) ?RET_HIGH load(1, XDATA, add(CFA_XSP16, literal(-4)))
          CFI (cfiCond152) ?BRET_EXT load(1, XDATA, add(CFA_XSP16, literal(-3)))
          CFI (cfiCond152) DPL0 load(1, XDATA, add(CFA_XSP16, literal(-2)))
          CFI (cfiCond152) DPH0 load(1, XDATA, add(CFA_XSP16, literal(-1)))
          CFI (cfiCond152) CFA_SP SP+-2
          CFI (cfiCond152) CFA_XSP16 add(XSP16, 43)
          CFI Block cfiCond153 Using cfiCommon0
          CFI (cfiCond153) Function zclGp_ProcessInProxyBasic
          CFI (cfiCond153) Conditional ??CrossCallReturnLabel_88
          CFI (cfiCond153) R6 load(1, XDATA, add(CFA_XSP16, literal(-15)))
          CFI (cfiCond153) VB load(1, XDATA, add(CFA_XSP16, literal(-14)))
          CFI (cfiCond153) V0 load(1, XDATA, add(CFA_XSP16, literal(-13)))
          CFI (cfiCond153) V1 load(1, XDATA, add(CFA_XSP16, literal(-12)))
          CFI (cfiCond153) V2 load(1, XDATA, add(CFA_XSP16, literal(-11)))
          CFI (cfiCond153) V3 load(1, XDATA, add(CFA_XSP16, literal(-10)))
          CFI (cfiCond153) V4 load(1, XDATA, add(CFA_XSP16, literal(-9)))
          CFI (cfiCond153) V5 load(1, XDATA, add(CFA_XSP16, literal(-8)))
          CFI (cfiCond153) V6 load(1, XDATA, add(CFA_XSP16, literal(-7)))
          CFI (cfiCond153) R7 load(1, XDATA, add(CFA_XSP16, literal(-6)))
          CFI (cfiCond153) ?RET_LOW load(1, XDATA, add(CFA_XSP16, literal(-5)))
          CFI (cfiCond153) ?RET_HIGH load(1, XDATA, add(CFA_XSP16, literal(-4)))
          CFI (cfiCond153) ?BRET_EXT load(1, XDATA, add(CFA_XSP16, literal(-3)))
          CFI (cfiCond153) DPL0 load(1, XDATA, add(CFA_XSP16, literal(-2)))
          CFI (cfiCond153) DPH0 load(1, XDATA, add(CFA_XSP16, literal(-1)))
          CFI (cfiCond153) CFA_SP SP+-2
          CFI (cfiCond153) CFA_XSP16 add(XSP16, 43)
          CFI Block cfiPicker154 Using cfiCommon1
          CFI (cfiPicker154) NoFunction
          CFI (cfiPicker154) Picker
        LCALL     ?Subroutine47 & 0xFFFF
??CrossCallReturnLabel_89:
        RET
          CFI EndBlock cfiCond150
          CFI EndBlock cfiCond151
          CFI EndBlock cfiCond152
          CFI EndBlock cfiCond153
          CFI EndBlock cfiPicker154

        RSEG BANKED_CODE:HUGECODE:NOROOT(0)
?Subroutine47:
          CFI Block cfiCond155 Using cfiCommon0
          CFI Function zclGp_ProcessInProxyBasic
          CFI Conditional ??CrossCallReturnLabel_89, ??CrossCallReturnLabel_87
          CFI R6 load(1, XDATA, add(CFA_XSP16, literal(-15)))
          CFI VB load(1, XDATA, add(CFA_XSP16, literal(-14)))
          CFI V0 load(1, XDATA, add(CFA_XSP16, literal(-13)))
          CFI V1 load(1, XDATA, add(CFA_XSP16, literal(-12)))
          CFI V2 load(1, XDATA, add(CFA_XSP16, literal(-11)))
          CFI V3 load(1, XDATA, add(CFA_XSP16, literal(-10)))
          CFI V4 load(1, XDATA, add(CFA_XSP16, literal(-9)))
          CFI V5 load(1, XDATA, add(CFA_XSP16, literal(-8)))
          CFI V6 load(1, XDATA, add(CFA_XSP16, literal(-7)))
          CFI R7 load(1, XDATA, add(CFA_XSP16, literal(-6)))
          CFI ?RET_LOW load(1, XDATA, add(CFA_XSP16, literal(-5)))
          CFI ?RET_HIGH load(1, XDATA, add(CFA_XSP16, literal(-4)))
          CFI ?BRET_EXT load(1, XDATA, add(CFA_XSP16, literal(-3)))
          CFI DPL0 load(1, XDATA, add(CFA_XSP16, literal(-2)))
          CFI DPH0 load(1, XDATA, add(CFA_XSP16, literal(-1)))
          CFI CFA_SP SP+-4
          CFI CFA_XSP16 add(XSP16, 43)
          CFI Block cfiCond156 Using cfiCommon0
          CFI (cfiCond156) Function zclGp_ProcessInProxyBasic
          CFI (cfiCond156) Conditional ??CrossCallReturnLabel_89, ??CrossCallReturnLabel_88
          CFI (cfiCond156) R6 load(1, XDATA, add(CFA_XSP16, literal(-15)))
          CFI (cfiCond156) VB load(1, XDATA, add(CFA_XSP16, literal(-14)))
          CFI (cfiCond156) V0 load(1, XDATA, add(CFA_XSP16, literal(-13)))
          CFI (cfiCond156) V1 load(1, XDATA, add(CFA_XSP16, literal(-12)))
          CFI (cfiCond156) V2 load(1, XDATA, add(CFA_XSP16, literal(-11)))
          CFI (cfiCond156) V3 load(1, XDATA, add(CFA_XSP16, literal(-10)))
          CFI (cfiCond156) V4 load(1, XDATA, add(CFA_XSP16, literal(-9)))
          CFI (cfiCond156) V5 load(1, XDATA, add(CFA_XSP16, literal(-8)))
          CFI (cfiCond156) V6 load(1, XDATA, add(CFA_XSP16, literal(-7)))
          CFI (cfiCond156) R7 load(1, XDATA, add(CFA_XSP16, literal(-6)))
          CFI (cfiCond156) ?RET_LOW load(1, XDATA, add(CFA_XSP16, literal(-5)))
          CFI (cfiCond156) ?RET_HIGH load(1, XDATA, add(CFA_XSP16, literal(-4)))
          CFI (cfiCond156) ?BRET_EXT load(1, XDATA, add(CFA_XSP16, literal(-3)))
          CFI (cfiCond156) DPL0 load(1, XDATA, add(CFA_XSP16, literal(-2)))
          CFI (cfiCond156) DPH0 load(1, XDATA, add(CFA_XSP16, literal(-1)))
          CFI (cfiCond156) CFA_SP SP+-4
          CFI (cfiCond156) CFA_XSP16 add(XSP16, 43)
          CFI Block cfiCond157 Using cfiCommon0
          CFI (cfiCond157) Function zclGp_ProcessInProxyBasic
          CFI (cfiCond157) Conditional ??CrossCallReturnLabel_89, ??CrossCallReturnLabel_85
          CFI (cfiCond157) R6 load(1, XDATA, add(CFA_XSP16, literal(-15)))
          CFI (cfiCond157) VB load(1, XDATA, add(CFA_XSP16, literal(-14)))
          CFI (cfiCond157) V0 load(1, XDATA, add(CFA_XSP16, literal(-13)))
          CFI (cfiCond157) V1 load(1, XDATA, add(CFA_XSP16, literal(-12)))
          CFI (cfiCond157) V2 load(1, XDATA, add(CFA_XSP16, literal(-11)))
          CFI (cfiCond157) V3 load(1, XDATA, add(CFA_XSP16, literal(-10)))
          CFI (cfiCond157) V4 load(1, XDATA, add(CFA_XSP16, literal(-9)))
          CFI (cfiCond157) V5 load(1, XDATA, add(CFA_XSP16, literal(-8)))
          CFI (cfiCond157) V6 load(1, XDATA, add(CFA_XSP16, literal(-7)))
          CFI (cfiCond157) R7 load(1, XDATA, add(CFA_XSP16, literal(-6)))
          CFI (cfiCond157) ?RET_LOW load(1, XDATA, add(CFA_XSP16, literal(-5)))
          CFI (cfiCond157) ?RET_HIGH load(1, XDATA, add(CFA_XSP16, literal(-4)))
          CFI (cfiCond157) ?BRET_EXT load(1, XDATA, add(CFA_XSP16, literal(-3)))
          CFI (cfiCond157) DPL0 load(1, XDATA, add(CFA_XSP16, literal(-2)))
          CFI (cfiCond157) DPH0 load(1, XDATA, add(CFA_XSP16, literal(-1)))
          CFI (cfiCond157) CFA_SP SP+-4
          CFI (cfiCond157) CFA_XSP16 add(XSP16, 43)
          CFI Block cfiCond158 Using cfiCommon0
          CFI (cfiCond158) Function zclGp_SendGpProxyTableResponse
          CFI (cfiCond158) Conditional ??CrossCallReturnLabel_89, ??CrossCallReturnLabel_86
          CFI (cfiCond158) R6 load(1, XDATA, add(CFA_XSP16, literal(-16)))
          CFI (cfiCond158) VB load(1, XDATA, add(CFA_XSP16, literal(-15)))
          CFI (cfiCond158) V0 load(1, XDATA, add(CFA_XSP16, literal(-14)))
          CFI (cfiCond158) V1 load(1, XDATA, add(CFA_XSP16, literal(-13)))
          CFI (cfiCond158) V2 load(1, XDATA, add(CFA_XSP16, literal(-12)))
          CFI (cfiCond158) V3 load(1, XDATA, add(CFA_XSP16, literal(-11)))
          CFI (cfiCond158) V4 load(1, XDATA, add(CFA_XSP16, literal(-10)))
          CFI (cfiCond158) V5 load(1, XDATA, add(CFA_XSP16, literal(-9)))
          CFI (cfiCond158) V6 load(1, XDATA, add(CFA_XSP16, literal(-8)))
          CFI (cfiCond158) V7 load(1, XDATA, add(CFA_XSP16, literal(-7)))
          CFI (cfiCond158) R7 load(1, XDATA, add(CFA_XSP16, literal(-6)))
          CFI (cfiCond158) ?RET_LOW load(1, XDATA, add(CFA_XSP16, literal(-5)))
          CFI (cfiCond158) ?RET_HIGH load(1, XDATA, add(CFA_XSP16, literal(-4)))
          CFI (cfiCond158) ?BRET_EXT load(1, XDATA, add(CFA_XSP16, literal(-3)))
          CFI (cfiCond158) DPL0 load(1, XDATA, add(CFA_XSP16, literal(-2)))
          CFI (cfiCond158) DPH0 load(1, XDATA, add(CFA_XSP16, literal(-1)))
          CFI (cfiCond158) CFA_SP SP+-4
          CFI (cfiCond158) CFA_XSP16 add(XSP16, 24)
          CFI Block cfiCond159 Using cfiCommon0
          CFI (cfiCond159) Function zclGp_SendGpProxyTableResponse
          CFI (cfiCond159) Conditional ??CrossCallReturnLabel_90, ??CrossCallReturnLabel_105
          CFI (cfiCond159) R6 load(1, XDATA, add(CFA_XSP16, literal(-16)))
          CFI (cfiCond159) VB load(1, XDATA, add(CFA_XSP16, literal(-15)))
          CFI (cfiCond159) V0 load(1, XDATA, add(CFA_XSP16, literal(-14)))
          CFI (cfiCond159) V1 load(1, XDATA, add(CFA_XSP16, literal(-13)))
          CFI (cfiCond159) V2 load(1, XDATA, add(CFA_XSP16, literal(-12)))
          CFI (cfiCond159) V3 load(1, XDATA, add(CFA_XSP16, literal(-11)))
          CFI (cfiCond159) V4 load(1, XDATA, add(CFA_XSP16, literal(-10)))
          CFI (cfiCond159) V5 load(1, XDATA, add(CFA_XSP16, literal(-9)))
          CFI (cfiCond159) V6 load(1, XDATA, add(CFA_XSP16, literal(-8)))
          CFI (cfiCond159) V7 load(1, XDATA, add(CFA_XSP16, literal(-7)))
          CFI (cfiCond159) R7 load(1, XDATA, add(CFA_XSP16, literal(-6)))
          CFI (cfiCond159) ?RET_LOW load(1, XDATA, add(CFA_XSP16, literal(-5)))
          CFI (cfiCond159) ?RET_HIGH load(1, XDATA, add(CFA_XSP16, literal(-4)))
          CFI (cfiCond159) ?BRET_EXT load(1, XDATA, add(CFA_XSP16, literal(-3)))
          CFI (cfiCond159) DPL0 load(1, XDATA, add(CFA_XSP16, literal(-2)))
          CFI (cfiCond159) DPH0 load(1, XDATA, add(CFA_XSP16, literal(-1)))
          CFI (cfiCond159) CFA_SP SP+-4
          CFI (cfiCond159) CFA_XSP16 add(XSP16, 24)
          CFI Block cfiCond160 Using cfiCommon0
          CFI (cfiCond160) Function zclGp_SendGpProxyTableResponse
          CFI (cfiCond160) Conditional ??CrossCallReturnLabel_90, ??CrossCallReturnLabel_106
          CFI (cfiCond160) R6 load(1, XDATA, add(CFA_XSP16, literal(-16)))
          CFI (cfiCond160) VB load(1, XDATA, add(CFA_XSP16, literal(-15)))
          CFI (cfiCond160) V0 load(1, XDATA, add(CFA_XSP16, literal(-14)))
          CFI (cfiCond160) V1 load(1, XDATA, add(CFA_XSP16, literal(-13)))
          CFI (cfiCond160) V2 load(1, XDATA, add(CFA_XSP16, literal(-12)))
          CFI (cfiCond160) V3 load(1, XDATA, add(CFA_XSP16, literal(-11)))
          CFI (cfiCond160) V4 load(1, XDATA, add(CFA_XSP16, literal(-10)))
          CFI (cfiCond160) V5 load(1, XDATA, add(CFA_XSP16, literal(-9)))
          CFI (cfiCond160) V6 load(1, XDATA, add(CFA_XSP16, literal(-8)))
          CFI (cfiCond160) V7 load(1, XDATA, add(CFA_XSP16, literal(-7)))
          CFI (cfiCond160) R7 load(1, XDATA, add(CFA_XSP16, literal(-6)))
          CFI (cfiCond160) ?RET_LOW load(1, XDATA, add(CFA_XSP16, literal(-5)))
          CFI (cfiCond160) ?RET_HIGH load(1, XDATA, add(CFA_XSP16, literal(-4)))
          CFI (cfiCond160) ?BRET_EXT load(1, XDATA, add(CFA_XSP16, literal(-3)))
          CFI (cfiCond160) DPL0 load(1, XDATA, add(CFA_XSP16, literal(-2)))
          CFI (cfiCond160) DPH0 load(1, XDATA, add(CFA_XSP16, literal(-1)))
          CFI (cfiCond160) CFA_SP SP+-4
          CFI (cfiCond160) CFA_XSP16 add(XSP16, 24)
          CFI Block cfiPicker161 Using cfiCommon1
          CFI (cfiPicker161) NoFunction
          CFI (cfiPicker161) Picker
        LCALL     ?Subroutine50 & 0xFFFF
??CrossCallReturnLabel_93:
        MOVX      A,@DPTR
        RET
          CFI EndBlock cfiCond155
          CFI EndBlock cfiCond156
          CFI EndBlock cfiCond157
          CFI EndBlock cfiCond158
          CFI EndBlock cfiCond159
          CFI EndBlock cfiCond160
          CFI EndBlock cfiPicker161

        RSEG BANKED_CODE:HUGECODE:NOROOT(0)
?Subroutine28:
          CFI Block cfiCond162 Using cfiCommon0
          CFI Function zclGp_SendGpProxyTableResponse
          CFI Conditional ??CrossCallReturnLabel_96
          CFI R6 load(1, XDATA, add(CFA_XSP16, literal(-16)))
          CFI VB load(1, XDATA, add(CFA_XSP16, literal(-15)))
          CFI V0 load(1, XDATA, add(CFA_XSP16, literal(-14)))
          CFI V1 load(1, XDATA, add(CFA_XSP16, literal(-13)))
          CFI V2 load(1, XDATA, add(CFA_XSP16, literal(-12)))
          CFI V3 load(1, XDATA, add(CFA_XSP16, literal(-11)))
          CFI V4 load(1, XDATA, add(CFA_XSP16, literal(-10)))
          CFI V5 load(1, XDATA, add(CFA_XSP16, literal(-9)))
          CFI V6 load(1, XDATA, add(CFA_XSP16, literal(-8)))
          CFI V7 load(1, XDATA, add(CFA_XSP16, literal(-7)))
          CFI R7 load(1, XDATA, add(CFA_XSP16, literal(-6)))
          CFI ?RET_LOW load(1, XDATA, add(CFA_XSP16, literal(-5)))
          CFI ?RET_HIGH load(1, XDATA, add(CFA_XSP16, literal(-4)))
          CFI ?BRET_EXT load(1, XDATA, add(CFA_XSP16, literal(-3)))
          CFI DPL0 load(1, XDATA, add(CFA_XSP16, literal(-2)))
          CFI DPH0 load(1, XDATA, add(CFA_XSP16, literal(-1)))
          CFI CFA_SP SP+-2
          CFI CFA_XSP16 add(XSP16, 24)
          CFI Block cfiCond163 Using cfiCommon0
          CFI (cfiCond163) Function zclGp_SendGpProxyTableResponse
          CFI (cfiCond163) Conditional ??CrossCallReturnLabel_97
          CFI (cfiCond163) R6 load(1, XDATA, add(CFA_XSP16, literal(-16)))
          CFI (cfiCond163) VB load(1, XDATA, add(CFA_XSP16, literal(-15)))
          CFI (cfiCond163) V0 load(1, XDATA, add(CFA_XSP16, literal(-14)))
          CFI (cfiCond163) V1 load(1, XDATA, add(CFA_XSP16, literal(-13)))
          CFI (cfiCond163) V2 load(1, XDATA, add(CFA_XSP16, literal(-12)))
          CFI (cfiCond163) V3 load(1, XDATA, add(CFA_XSP16, literal(-11)))
          CFI (cfiCond163) V4 load(1, XDATA, add(CFA_XSP16, literal(-10)))
          CFI (cfiCond163) V5 load(1, XDATA, add(CFA_XSP16, literal(-9)))
          CFI (cfiCond163) V6 load(1, XDATA, add(CFA_XSP16, literal(-8)))
          CFI (cfiCond163) V7 load(1, XDATA, add(CFA_XSP16, literal(-7)))
          CFI (cfiCond163) R7 load(1, XDATA, add(CFA_XSP16, literal(-6)))
          CFI (cfiCond163) ?RET_LOW load(1, XDATA, add(CFA_XSP16, literal(-5)))
          CFI (cfiCond163) ?RET_HIGH load(1, XDATA, add(CFA_XSP16, literal(-4)))
          CFI (cfiCond163) ?BRET_EXT load(1, XDATA, add(CFA_XSP16, literal(-3)))
          CFI (cfiCond163) DPL0 load(1, XDATA, add(CFA_XSP16, literal(-2)))
          CFI (cfiCond163) DPH0 load(1, XDATA, add(CFA_XSP16, literal(-1)))
          CFI (cfiCond163) CFA_SP SP+-2
          CFI (cfiCond163) CFA_XSP16 add(XSP16, 24)
          CFI Block cfiPicker164 Using cfiCommon1
          CFI (cfiPicker164) NoFunction
          CFI (cfiPicker164) Picker
        INC       DPTR
          CFI EndBlock cfiCond162
          CFI EndBlock cfiCond163
          CFI EndBlock cfiPicker164
        REQUIRE ??Subroutine58_0
        ; // Fall through to label ??Subroutine58_0

        RSEG BANKED_CODE:HUGECODE:NOROOT(0)
??Subroutine58_0:
          CFI Block cfiCond165 Using cfiCommon0
          CFI Function zclGp_SendGpNotificationCommand
          CFI Conditional ??CrossCallReturnLabel_94
          CFI R6 load(1, XDATA, add(CFA_XSP16, literal(-16)))
          CFI VB load(1, XDATA, add(CFA_XSP16, literal(-15)))
          CFI V0 load(1, XDATA, add(CFA_XSP16, literal(-14)))
          CFI V1 load(1, XDATA, add(CFA_XSP16, literal(-13)))
          CFI V2 load(1, XDATA, add(CFA_XSP16, literal(-12)))
          CFI V3 load(1, XDATA, add(CFA_XSP16, literal(-11)))
          CFI V4 load(1, XDATA, add(CFA_XSP16, literal(-10)))
          CFI V5 load(1, XDATA, add(CFA_XSP16, literal(-9)))
          CFI V6 load(1, XDATA, add(CFA_XSP16, literal(-8)))
          CFI V7 load(1, XDATA, add(CFA_XSP16, literal(-7)))
          CFI R7 load(1, XDATA, add(CFA_XSP16, literal(-6)))
          CFI ?RET_LOW load(1, XDATA, add(CFA_XSP16, literal(-5)))
          CFI ?RET_HIGH load(1, XDATA, add(CFA_XSP16, literal(-4)))
          CFI ?BRET_EXT load(1, XDATA, add(CFA_XSP16, literal(-3)))
          CFI DPL0 load(1, XDATA, add(CFA_XSP16, literal(-2)))
          CFI DPH0 load(1, XDATA, add(CFA_XSP16, literal(-1)))
          CFI CFA_SP SP+-2
          CFI CFA_XSP16 add(XSP16, 22)
          CFI Block cfiCond166 Using cfiCommon0
          CFI (cfiCond166) Function zclGp_SendGpProxyTableResponse
          CFI (cfiCond166) Conditional ??CrossCallReturnLabel_95
          CFI (cfiCond166) R6 load(1, XDATA, add(CFA_XSP16, literal(-16)))
          CFI (cfiCond166) VB load(1, XDATA, add(CFA_XSP16, literal(-15)))
          CFI (cfiCond166) V0 load(1, XDATA, add(CFA_XSP16, literal(-14)))
          CFI (cfiCond166) V1 load(1, XDATA, add(CFA_XSP16, literal(-13)))
          CFI (cfiCond166) V2 load(1, XDATA, add(CFA_XSP16, literal(-12)))
          CFI (cfiCond166) V3 load(1, XDATA, add(CFA_XSP16, literal(-11)))
          CFI (cfiCond166) V4 load(1, XDATA, add(CFA_XSP16, literal(-10)))
          CFI (cfiCond166) V5 load(1, XDATA, add(CFA_XSP16, literal(-9)))
          CFI (cfiCond166) V6 load(1, XDATA, add(CFA_XSP16, literal(-8)))
          CFI (cfiCond166) V7 load(1, XDATA, add(CFA_XSP16, literal(-7)))
          CFI (cfiCond166) R7 load(1, XDATA, add(CFA_XSP16, literal(-6)))
          CFI (cfiCond166) ?RET_LOW load(1, XDATA, add(CFA_XSP16, literal(-5)))
          CFI (cfiCond166) ?RET_HIGH load(1, XDATA, add(CFA_XSP16, literal(-4)))
          CFI (cfiCond166) ?BRET_EXT load(1, XDATA, add(CFA_XSP16, literal(-3)))
          CFI (cfiCond166) DPL0 load(1, XDATA, add(CFA_XSP16, literal(-2)))
          CFI (cfiCond166) DPH0 load(1, XDATA, add(CFA_XSP16, literal(-1)))
          CFI (cfiCond166) CFA_SP SP+-2
          CFI (cfiCond166) CFA_XSP16 add(XSP16, 24)
          CFI Block cfiCond167 Using cfiCommon0
          CFI (cfiCond167) Function zclGp_SendGpProxyTableResponse
          CFI (cfiCond167) Conditional ??CrossCallReturnLabel_96
          CFI (cfiCond167) R6 load(1, XDATA, add(CFA_XSP16, literal(-16)))
          CFI (cfiCond167) VB load(1, XDATA, add(CFA_XSP16, literal(-15)))
          CFI (cfiCond167) V0 load(1, XDATA, add(CFA_XSP16, literal(-14)))
          CFI (cfiCond167) V1 load(1, XDATA, add(CFA_XSP16, literal(-13)))
          CFI (cfiCond167) V2 load(1, XDATA, add(CFA_XSP16, literal(-12)))
          CFI (cfiCond167) V3 load(1, XDATA, add(CFA_XSP16, literal(-11)))
          CFI (cfiCond167) V4 load(1, XDATA, add(CFA_XSP16, literal(-10)))
          CFI (cfiCond167) V5 load(1, XDATA, add(CFA_XSP16, literal(-9)))
          CFI (cfiCond167) V6 load(1, XDATA, add(CFA_XSP16, literal(-8)))
          CFI (cfiCond167) V7 load(1, XDATA, add(CFA_XSP16, literal(-7)))
          CFI (cfiCond167) R7 load(1, XDATA, add(CFA_XSP16, literal(-6)))
          CFI (cfiCond167) ?RET_LOW load(1, XDATA, add(CFA_XSP16, literal(-5)))
          CFI (cfiCond167) ?RET_HIGH load(1, XDATA, add(CFA_XSP16, literal(-4)))
          CFI (cfiCond167) ?BRET_EXT load(1, XDATA, add(CFA_XSP16, literal(-3)))
          CFI (cfiCond167) DPL0 load(1, XDATA, add(CFA_XSP16, literal(-2)))
          CFI (cfiCond167) DPH0 load(1, XDATA, add(CFA_XSP16, literal(-1)))
          CFI (cfiCond167) CFA_SP SP+-2
          CFI (cfiCond167) CFA_XSP16 add(XSP16, 24)
          CFI Block cfiCond168 Using cfiCommon0
          CFI (cfiCond168) Function zclGp_SendGpProxyTableResponse
          CFI (cfiCond168) Conditional ??CrossCallReturnLabel_97
          CFI (cfiCond168) R6 load(1, XDATA, add(CFA_XSP16, literal(-16)))
          CFI (cfiCond168) VB load(1, XDATA, add(CFA_XSP16, literal(-15)))
          CFI (cfiCond168) V0 load(1, XDATA, add(CFA_XSP16, literal(-14)))
          CFI (cfiCond168) V1 load(1, XDATA, add(CFA_XSP16, literal(-13)))
          CFI (cfiCond168) V2 load(1, XDATA, add(CFA_XSP16, literal(-12)))
          CFI (cfiCond168) V3 load(1, XDATA, add(CFA_XSP16, literal(-11)))
          CFI (cfiCond168) V4 load(1, XDATA, add(CFA_XSP16, literal(-10)))
          CFI (cfiCond168) V5 load(1, XDATA, add(CFA_XSP16, literal(-9)))
          CFI (cfiCond168) V6 load(1, XDATA, add(CFA_XSP16, literal(-8)))
          CFI (cfiCond168) V7 load(1, XDATA, add(CFA_XSP16, literal(-7)))
          CFI (cfiCond168) R7 load(1, XDATA, add(CFA_XSP16, literal(-6)))
          CFI (cfiCond168) ?RET_LOW load(1, XDATA, add(CFA_XSP16, literal(-5)))
          CFI (cfiCond168) ?RET_HIGH load(1, XDATA, add(CFA_XSP16, literal(-4)))
          CFI (cfiCond168) ?BRET_EXT load(1, XDATA, add(CFA_XSP16, literal(-3)))
          CFI (cfiCond168) DPL0 load(1, XDATA, add(CFA_XSP16, literal(-2)))
          CFI (cfiCond168) DPH0 load(1, XDATA, add(CFA_XSP16, literal(-1)))
          CFI (cfiCond168) CFA_SP SP+-2
          CFI (cfiCond168) CFA_XSP16 add(XSP16, 24)
          CFI Block cfiPicker169 Using cfiCommon1
          CFI (cfiPicker169) NoFunction
          CFI (cfiPicker169) Picker
        MOVX      A,@DPTR
        MOV       DPL,R2
        MOV       DPH,R3
        RET
          CFI EndBlock cfiCond165
          CFI EndBlock cfiCond166
          CFI EndBlock cfiCond167
          CFI EndBlock cfiCond168
          CFI EndBlock cfiPicker169

        RSEG BANKED_CODE:HUGECODE:NOROOT(0)
?Subroutine24:
          CFI Block cfiCond170 Using cfiCommon0
          CFI Function zclGp_ProcessInProxyBasic
          CFI Conditional ??CrossCallReturnLabel_103
          CFI R6 load(1, XDATA, add(CFA_XSP16, literal(-15)))
          CFI VB load(1, XDATA, add(CFA_XSP16, literal(-14)))
          CFI V0 load(1, XDATA, add(CFA_XSP16, literal(-13)))
          CFI V1 load(1, XDATA, add(CFA_XSP16, literal(-12)))
          CFI V2 load(1, XDATA, add(CFA_XSP16, literal(-11)))
          CFI V3 load(1, XDATA, add(CFA_XSP16, literal(-10)))
          CFI V4 load(1, XDATA, add(CFA_XSP16, literal(-9)))
          CFI V5 load(1, XDATA, add(CFA_XSP16, literal(-8)))
          CFI V6 load(1, XDATA, add(CFA_XSP16, literal(-7)))
          CFI R7 load(1, XDATA, add(CFA_XSP16, literal(-6)))
          CFI ?RET_LOW load(1, XDATA, add(CFA_XSP16, literal(-5)))
          CFI ?RET_HIGH load(1, XDATA, add(CFA_XSP16, literal(-4)))
          CFI ?BRET_EXT load(1, XDATA, add(CFA_XSP16, literal(-3)))
          CFI DPL0 load(1, XDATA, add(CFA_XSP16, literal(-2)))
          CFI DPH0 load(1, XDATA, add(CFA_XSP16, literal(-1)))
          CFI CFA_SP SP+-2
          CFI CFA_XSP16 add(XSP16, 43)
          CFI Block cfiCond171 Using cfiCommon0
          CFI (cfiCond171) Function zclGp_SendGpProxyTableResponse
          CFI (cfiCond171) Conditional ??CrossCallReturnLabel_104
          CFI (cfiCond171) R6 load(1, XDATA, add(CFA_XSP16, literal(-16)))
          CFI (cfiCond171) VB load(1, XDATA, add(CFA_XSP16, literal(-15)))
          CFI (cfiCond171) V0 load(1, XDATA, add(CFA_XSP16, literal(-14)))
          CFI (cfiCond171) V1 load(1, XDATA, add(CFA_XSP16, literal(-13)))
          CFI (cfiCond171) V2 load(1, XDATA, add(CFA_XSP16, literal(-12)))
          CFI (cfiCond171) V3 load(1, XDATA, add(CFA_XSP16, literal(-11)))
          CFI (cfiCond171) V4 load(1, XDATA, add(CFA_XSP16, literal(-10)))
          CFI (cfiCond171) V5 load(1, XDATA, add(CFA_XSP16, literal(-9)))
          CFI (cfiCond171) V6 load(1, XDATA, add(CFA_XSP16, literal(-8)))
          CFI (cfiCond171) V7 load(1, XDATA, add(CFA_XSP16, literal(-7)))
          CFI (cfiCond171) R7 load(1, XDATA, add(CFA_XSP16, literal(-6)))
          CFI (cfiCond171) ?RET_LOW load(1, XDATA, add(CFA_XSP16, literal(-5)))
          CFI (cfiCond171) ?RET_HIGH load(1, XDATA, add(CFA_XSP16, literal(-4)))
          CFI (cfiCond171) ?BRET_EXT load(1, XDATA, add(CFA_XSP16, literal(-3)))
          CFI (cfiCond171) DPL0 load(1, XDATA, add(CFA_XSP16, literal(-2)))
          CFI (cfiCond171) DPH0 load(1, XDATA, add(CFA_XSP16, literal(-1)))
          CFI (cfiCond171) CFA_SP SP+-2
          CFI (cfiCond171) CFA_XSP16 add(XSP16, 24)
          CFI Block cfiPicker172 Using cfiCommon1
          CFI (cfiPicker172) NoFunction
          CFI (cfiPicker172) Picker
        MOV       DPL,?XSP + 0
        MOV       DPH,?XSP + 1
          CFI EndBlock cfiCond170
          CFI EndBlock cfiCond171
          CFI EndBlock cfiPicker172
        REQUIRE ??Subroutine59_0
        ; // Fall through to label ??Subroutine59_0

        RSEG BANKED_CODE:HUGECODE:NOROOT(0)
??Subroutine59_0:
          CFI Block cfiCond173 Using cfiCommon0
          CFI Function zclGp_ProcessInProxyBasic
          CFI Conditional ??CrossCallReturnLabel_98
          CFI R6 load(1, XDATA, add(CFA_XSP16, literal(-15)))
          CFI VB load(1, XDATA, add(CFA_XSP16, literal(-14)))
          CFI V0 load(1, XDATA, add(CFA_XSP16, literal(-13)))
          CFI V1 load(1, XDATA, add(CFA_XSP16, literal(-12)))
          CFI V2 load(1, XDATA, add(CFA_XSP16, literal(-11)))
          CFI V3 load(1, XDATA, add(CFA_XSP16, literal(-10)))
          CFI V4 load(1, XDATA, add(CFA_XSP16, literal(-9)))
          CFI V5 load(1, XDATA, add(CFA_XSP16, literal(-8)))
          CFI V6 load(1, XDATA, add(CFA_XSP16, literal(-7)))
          CFI R7 load(1, XDATA, add(CFA_XSP16, literal(-6)))
          CFI ?RET_LOW load(1, XDATA, add(CFA_XSP16, literal(-5)))
          CFI ?RET_HIGH load(1, XDATA, add(CFA_XSP16, literal(-4)))
          CFI ?BRET_EXT load(1, XDATA, add(CFA_XSP16, literal(-3)))
          CFI DPL0 load(1, XDATA, add(CFA_XSP16, literal(-2)))
          CFI DPH0 load(1, XDATA, add(CFA_XSP16, literal(-1)))
          CFI CFA_SP SP+-2
          CFI CFA_XSP16 add(XSP16, 43)
          CFI Block cfiCond174 Using cfiCommon0
          CFI (cfiCond174) Function zclGp_ProcessInProxyBasic
          CFI (cfiCond174) Conditional ??CrossCallReturnLabel_99
          CFI (cfiCond174) R6 load(1, XDATA, add(CFA_XSP16, literal(-15)))
          CFI (cfiCond174) VB load(1, XDATA, add(CFA_XSP16, literal(-14)))
          CFI (cfiCond174) V0 load(1, XDATA, add(CFA_XSP16, literal(-13)))
          CFI (cfiCond174) V1 load(1, XDATA, add(CFA_XSP16, literal(-12)))
          CFI (cfiCond174) V2 load(1, XDATA, add(CFA_XSP16, literal(-11)))
          CFI (cfiCond174) V3 load(1, XDATA, add(CFA_XSP16, literal(-10)))
          CFI (cfiCond174) V4 load(1, XDATA, add(CFA_XSP16, literal(-9)))
          CFI (cfiCond174) V5 load(1, XDATA, add(CFA_XSP16, literal(-8)))
          CFI (cfiCond174) V6 load(1, XDATA, add(CFA_XSP16, literal(-7)))
          CFI (cfiCond174) R7 load(1, XDATA, add(CFA_XSP16, literal(-6)))
          CFI (cfiCond174) ?RET_LOW load(1, XDATA, add(CFA_XSP16, literal(-5)))
          CFI (cfiCond174) ?RET_HIGH load(1, XDATA, add(CFA_XSP16, literal(-4)))
          CFI (cfiCond174) ?BRET_EXT load(1, XDATA, add(CFA_XSP16, literal(-3)))
          CFI (cfiCond174) DPL0 load(1, XDATA, add(CFA_XSP16, literal(-2)))
          CFI (cfiCond174) DPH0 load(1, XDATA, add(CFA_XSP16, literal(-1)))
          CFI (cfiCond174) CFA_SP SP+-2
          CFI (cfiCond174) CFA_XSP16 add(XSP16, 43)
          CFI Block cfiCond175 Using cfiCommon0
          CFI (cfiCond175) Function zclGp_ProcessInProxyBasic
          CFI (cfiCond175) Conditional ??CrossCallReturnLabel_100
          CFI (cfiCond175) R6 load(1, XDATA, add(CFA_XSP16, literal(-15)))
          CFI (cfiCond175) VB load(1, XDATA, add(CFA_XSP16, literal(-14)))
          CFI (cfiCond175) V0 load(1, XDATA, add(CFA_XSP16, literal(-13)))
          CFI (cfiCond175) V1 load(1, XDATA, add(CFA_XSP16, literal(-12)))
          CFI (cfiCond175) V2 load(1, XDATA, add(CFA_XSP16, literal(-11)))
          CFI (cfiCond175) V3 load(1, XDATA, add(CFA_XSP16, literal(-10)))
          CFI (cfiCond175) V4 load(1, XDATA, add(CFA_XSP16, literal(-9)))
          CFI (cfiCond175) V5 load(1, XDATA, add(CFA_XSP16, literal(-8)))
          CFI (cfiCond175) V6 load(1, XDATA, add(CFA_XSP16, literal(-7)))
          CFI (cfiCond175) R7 load(1, XDATA, add(CFA_XSP16, literal(-6)))
          CFI (cfiCond175) ?RET_LOW load(1, XDATA, add(CFA_XSP16, literal(-5)))
          CFI (cfiCond175) ?RET_HIGH load(1, XDATA, add(CFA_XSP16, literal(-4)))
          CFI (cfiCond175) ?BRET_EXT load(1, XDATA, add(CFA_XSP16, literal(-3)))
          CFI (cfiCond175) DPL0 load(1, XDATA, add(CFA_XSP16, literal(-2)))
          CFI (cfiCond175) DPH0 load(1, XDATA, add(CFA_XSP16, literal(-1)))
          CFI (cfiCond175) CFA_SP SP+-2
          CFI (cfiCond175) CFA_XSP16 add(XSP16, 43)
          CFI Block cfiCond176 Using cfiCommon0
          CFI (cfiCond176) Function zclGp_SendGpProxyTableResponse
          CFI (cfiCond176) Conditional ??CrossCallReturnLabel_101
          CFI (cfiCond176) R6 load(1, XDATA, add(CFA_XSP16, literal(-16)))
          CFI (cfiCond176) VB load(1, XDATA, add(CFA_XSP16, literal(-15)))
          CFI (cfiCond176) V0 load(1, XDATA, add(CFA_XSP16, literal(-14)))
          CFI (cfiCond176) V1 load(1, XDATA, add(CFA_XSP16, literal(-13)))
          CFI (cfiCond176) V2 load(1, XDATA, add(CFA_XSP16, literal(-12)))
          CFI (cfiCond176) V3 load(1, XDATA, add(CFA_XSP16, literal(-11)))
          CFI (cfiCond176) V4 load(1, XDATA, add(CFA_XSP16, literal(-10)))
          CFI (cfiCond176) V5 load(1, XDATA, add(CFA_XSP16, literal(-9)))
          CFI (cfiCond176) V6 load(1, XDATA, add(CFA_XSP16, literal(-8)))
          CFI (cfiCond176) V7 load(1, XDATA, add(CFA_XSP16, literal(-7)))
          CFI (cfiCond176) R7 load(1, XDATA, add(CFA_XSP16, literal(-6)))
          CFI (cfiCond176) ?RET_LOW load(1, XDATA, add(CFA_XSP16, literal(-5)))
          CFI (cfiCond176) ?RET_HIGH load(1, XDATA, add(CFA_XSP16, literal(-4)))
          CFI (cfiCond176) ?BRET_EXT load(1, XDATA, add(CFA_XSP16, literal(-3)))
          CFI (cfiCond176) DPL0 load(1, XDATA, add(CFA_XSP16, literal(-2)))
          CFI (cfiCond176) DPH0 load(1, XDATA, add(CFA_XSP16, literal(-1)))
          CFI (cfiCond176) CFA_SP SP+-2
          CFI (cfiCond176) CFA_XSP16 add(XSP16, 24)
          CFI Block cfiCond177 Using cfiCommon0
          CFI (cfiCond177) Function zclGp_SendGpProxyTableResponse
          CFI (cfiCond177) Conditional ??CrossCallReturnLabel_102
          CFI (cfiCond177) R6 load(1, XDATA, add(CFA_XSP16, literal(-16)))
          CFI (cfiCond177) VB load(1, XDATA, add(CFA_XSP16, literal(-15)))
          CFI (cfiCond177) V0 load(1, XDATA, add(CFA_XSP16, literal(-14)))
          CFI (cfiCond177) V1 load(1, XDATA, add(CFA_XSP16, literal(-13)))
          CFI (cfiCond177) V2 load(1, XDATA, add(CFA_XSP16, literal(-12)))
          CFI (cfiCond177) V3 load(1, XDATA, add(CFA_XSP16, literal(-11)))
          CFI (cfiCond177) V4 load(1, XDATA, add(CFA_XSP16, literal(-10)))
          CFI (cfiCond177) V5 load(1, XDATA, add(CFA_XSP16, literal(-9)))
          CFI (cfiCond177) V6 load(1, XDATA, add(CFA_XSP16, literal(-8)))
          CFI (cfiCond177) V7 load(1, XDATA, add(CFA_XSP16, literal(-7)))
          CFI (cfiCond177) R7 load(1, XDATA, add(CFA_XSP16, literal(-6)))
          CFI (cfiCond177) ?RET_LOW load(1, XDATA, add(CFA_XSP16, literal(-5)))
          CFI (cfiCond177) ?RET_HIGH load(1, XDATA, add(CFA_XSP16, literal(-4)))
          CFI (cfiCond177) ?BRET_EXT load(1, XDATA, add(CFA_XSP16, literal(-3)))
          CFI (cfiCond177) DPL0 load(1, XDATA, add(CFA_XSP16, literal(-2)))
          CFI (cfiCond177) DPH0 load(1, XDATA, add(CFA_XSP16, literal(-1)))
          CFI (cfiCond177) CFA_SP SP+-2
          CFI (cfiCond177) CFA_XSP16 add(XSP16, 24)
          CFI Block cfiCond178 Using cfiCommon0
          CFI (cfiCond178) Function zclGp_ProcessInProxyBasic
          CFI (cfiCond178) Conditional ??CrossCallReturnLabel_103
          CFI (cfiCond178) R6 load(1, XDATA, add(CFA_XSP16, literal(-15)))
          CFI (cfiCond178) VB load(1, XDATA, add(CFA_XSP16, literal(-14)))
          CFI (cfiCond178) V0 load(1, XDATA, add(CFA_XSP16, literal(-13)))
          CFI (cfiCond178) V1 load(1, XDATA, add(CFA_XSP16, literal(-12)))
          CFI (cfiCond178) V2 load(1, XDATA, add(CFA_XSP16, literal(-11)))
          CFI (cfiCond178) V3 load(1, XDATA, add(CFA_XSP16, literal(-10)))
          CFI (cfiCond178) V4 load(1, XDATA, add(CFA_XSP16, literal(-9)))
          CFI (cfiCond178) V5 load(1, XDATA, add(CFA_XSP16, literal(-8)))
          CFI (cfiCond178) V6 load(1, XDATA, add(CFA_XSP16, literal(-7)))
          CFI (cfiCond178) R7 load(1, XDATA, add(CFA_XSP16, literal(-6)))
          CFI (cfiCond178) ?RET_LOW load(1, XDATA, add(CFA_XSP16, literal(-5)))
          CFI (cfiCond178) ?RET_HIGH load(1, XDATA, add(CFA_XSP16, literal(-4)))
          CFI (cfiCond178) ?BRET_EXT load(1, XDATA, add(CFA_XSP16, literal(-3)))
          CFI (cfiCond178) DPL0 load(1, XDATA, add(CFA_XSP16, literal(-2)))
          CFI (cfiCond178) DPH0 load(1, XDATA, add(CFA_XSP16, literal(-1)))
          CFI (cfiCond178) CFA_SP SP+-2
          CFI (cfiCond178) CFA_XSP16 add(XSP16, 43)
          CFI Block cfiCond179 Using cfiCommon0
          CFI (cfiCond179) Function zclGp_SendGpProxyTableResponse
          CFI (cfiCond179) Conditional ??CrossCallReturnLabel_104
          CFI (cfiCond179) R6 load(1, XDATA, add(CFA_XSP16, literal(-16)))
          CFI (cfiCond179) VB load(1, XDATA, add(CFA_XSP16, literal(-15)))
          CFI (cfiCond179) V0 load(1, XDATA, add(CFA_XSP16, literal(-14)))
          CFI (cfiCond179) V1 load(1, XDATA, add(CFA_XSP16, literal(-13)))
          CFI (cfiCond179) V2 load(1, XDATA, add(CFA_XSP16, literal(-12)))
          CFI (cfiCond179) V3 load(1, XDATA, add(CFA_XSP16, literal(-11)))
          CFI (cfiCond179) V4 load(1, XDATA, add(CFA_XSP16, literal(-10)))
          CFI (cfiCond179) V5 load(1, XDATA, add(CFA_XSP16, literal(-9)))
          CFI (cfiCond179) V6 load(1, XDATA, add(CFA_XSP16, literal(-8)))
          CFI (cfiCond179) V7 load(1, XDATA, add(CFA_XSP16, literal(-7)))
          CFI (cfiCond179) R7 load(1, XDATA, add(CFA_XSP16, literal(-6)))
          CFI (cfiCond179) ?RET_LOW load(1, XDATA, add(CFA_XSP16, literal(-5)))
          CFI (cfiCond179) ?RET_HIGH load(1, XDATA, add(CFA_XSP16, literal(-4)))
          CFI (cfiCond179) ?BRET_EXT load(1, XDATA, add(CFA_XSP16, literal(-3)))
          CFI (cfiCond179) DPL0 load(1, XDATA, add(CFA_XSP16, literal(-2)))
          CFI (cfiCond179) DPH0 load(1, XDATA, add(CFA_XSP16, literal(-1)))
          CFI (cfiCond179) CFA_SP SP+-2
          CFI (cfiCond179) CFA_XSP16 add(XSP16, 24)
          CFI Block cfiPicker180 Using cfiCommon1
          CFI (cfiPicker180) NoFunction
          CFI (cfiPicker180) Picker
        LCALL     ?Subroutine45 & 0xFFFF
??CrossCallReturnLabel_160:
        MOV       DPH,A
        MOV       DPL,R0
        RET
          CFI EndBlock cfiCond173
          CFI EndBlock cfiCond174
          CFI EndBlock cfiCond175
          CFI EndBlock cfiCond176
          CFI EndBlock cfiCond177
          CFI EndBlock cfiCond178
          CFI EndBlock cfiCond179
          CFI EndBlock cfiPicker180

        RSEG BANKED_CODE:HUGECODE:NOROOT(0)
?Subroutine23:
          CFI Block cfiCond181 Using cfiCommon0
          CFI Function zclGp_SendGpProxyTableResponse
          CFI Conditional ??CrossCallReturnLabel_105
          CFI R6 load(1, XDATA, add(CFA_XSP16, literal(-16)))
          CFI VB load(1, XDATA, add(CFA_XSP16, literal(-15)))
          CFI V0 load(1, XDATA, add(CFA_XSP16, literal(-14)))
          CFI V1 load(1, XDATA, add(CFA_XSP16, literal(-13)))
          CFI V2 load(1, XDATA, add(CFA_XSP16, literal(-12)))
          CFI V3 load(1, XDATA, add(CFA_XSP16, literal(-11)))
          CFI V4 load(1, XDATA, add(CFA_XSP16, literal(-10)))
          CFI V5 load(1, XDATA, add(CFA_XSP16, literal(-9)))
          CFI V6 load(1, XDATA, add(CFA_XSP16, literal(-8)))
          CFI V7 load(1, XDATA, add(CFA_XSP16, literal(-7)))
          CFI R7 load(1, XDATA, add(CFA_XSP16, literal(-6)))
          CFI ?RET_LOW load(1, XDATA, add(CFA_XSP16, literal(-5)))
          CFI ?RET_HIGH load(1, XDATA, add(CFA_XSP16, literal(-4)))
          CFI ?BRET_EXT load(1, XDATA, add(CFA_XSP16, literal(-3)))
          CFI DPL0 load(1, XDATA, add(CFA_XSP16, literal(-2)))
          CFI DPH0 load(1, XDATA, add(CFA_XSP16, literal(-1)))
          CFI CFA_SP SP+-2
          CFI CFA_XSP16 add(XSP16, 24)
          CFI Block cfiCond182 Using cfiCommon0
          CFI (cfiCond182) Function zclGp_SendGpProxyTableResponse
          CFI (cfiCond182) Conditional ??CrossCallReturnLabel_106
          CFI (cfiCond182) R6 load(1, XDATA, add(CFA_XSP16, literal(-16)))
          CFI (cfiCond182) VB load(1, XDATA, add(CFA_XSP16, literal(-15)))
          CFI (cfiCond182) V0 load(1, XDATA, add(CFA_XSP16, literal(-14)))
          CFI (cfiCond182) V1 load(1, XDATA, add(CFA_XSP16, literal(-13)))
          CFI (cfiCond182) V2 load(1, XDATA, add(CFA_XSP16, literal(-12)))
          CFI (cfiCond182) V3 load(1, XDATA, add(CFA_XSP16, literal(-11)))
          CFI (cfiCond182) V4 load(1, XDATA, add(CFA_XSP16, literal(-10)))
          CFI (cfiCond182) V5 load(1, XDATA, add(CFA_XSP16, literal(-9)))
          CFI (cfiCond182) V6 load(1, XDATA, add(CFA_XSP16, literal(-8)))
          CFI (cfiCond182) V7 load(1, XDATA, add(CFA_XSP16, literal(-7)))
          CFI (cfiCond182) R7 load(1, XDATA, add(CFA_XSP16, literal(-6)))
          CFI (cfiCond182) ?RET_LOW load(1, XDATA, add(CFA_XSP16, literal(-5)))
          CFI (cfiCond182) ?RET_HIGH load(1, XDATA, add(CFA_XSP16, literal(-4)))
          CFI (cfiCond182) ?BRET_EXT load(1, XDATA, add(CFA_XSP16, literal(-3)))
          CFI (cfiCond182) DPL0 load(1, XDATA, add(CFA_XSP16, literal(-2)))
          CFI (cfiCond182) DPH0 load(1, XDATA, add(CFA_XSP16, literal(-1)))
          CFI (cfiCond182) CFA_SP SP+-2
          CFI (cfiCond182) CFA_XSP16 add(XSP16, 24)
          CFI Block cfiPicker183 Using cfiCommon1
          CFI (cfiPicker183) NoFunction
          CFI (cfiPicker183) Picker
        INC       DPTR
        LCALL     ?Subroutine47 & 0xFFFF
??CrossCallReturnLabel_90:
          CFI EndBlock cfiCond181
          CFI EndBlock cfiCond182
          CFI EndBlock cfiPicker183
        REQUIRE ??Subroutine60_0
        ; // Fall through to label ??Subroutine60_0

        RSEG BANKED_CODE:HUGECODE:NOROOT(0)
??Subroutine60_0:
          CFI Block cfiCond184 Using cfiCommon0
          CFI Function gp_AddCmdPayloadMsgNode
          CFI Conditional ??CrossCallReturnLabel_107
          CFI R6 load(1, XDATA, add(CFA_XSP16, literal(-14)))
          CFI VB load(1, XDATA, add(CFA_XSP16, literal(-13)))
          CFI V0 load(1, XDATA, add(CFA_XSP16, literal(-12)))
          CFI V1 load(1, XDATA, add(CFA_XSP16, literal(-11)))
          CFI V2 load(1, XDATA, add(CFA_XSP16, literal(-10)))
          CFI V3 load(1, XDATA, add(CFA_XSP16, literal(-9)))
          CFI V4 load(1, XDATA, add(CFA_XSP16, literal(-8)))
          CFI V5 load(1, XDATA, add(CFA_XSP16, literal(-7)))
          CFI R7 load(1, XDATA, add(CFA_XSP16, literal(-6)))
          CFI ?RET_LOW load(1, XDATA, add(CFA_XSP16, literal(-5)))
          CFI ?RET_HIGH load(1, XDATA, add(CFA_XSP16, literal(-4)))
          CFI ?BRET_EXT load(1, XDATA, add(CFA_XSP16, literal(-3)))
          CFI DPL0 load(1, XDATA, add(CFA_XSP16, literal(-2)))
          CFI DPH0 load(1, XDATA, add(CFA_XSP16, literal(-1)))
          CFI CFA_SP SP+-2
          CFI CFA_XSP16 add(XSP16, 14)
          CFI Block cfiCond185 Using cfiCommon0
          CFI (cfiCond185) Function zclGp_SendGpProxyTableResponse
          CFI (cfiCond185) Conditional ??CrossCallReturnLabel_105
          CFI (cfiCond185) R6 load(1, XDATA, add(CFA_XSP16, literal(-16)))
          CFI (cfiCond185) VB load(1, XDATA, add(CFA_XSP16, literal(-15)))
          CFI (cfiCond185) V0 load(1, XDATA, add(CFA_XSP16, literal(-14)))
          CFI (cfiCond185) V1 load(1, XDATA, add(CFA_XSP16, literal(-13)))
          CFI (cfiCond185) V2 load(1, XDATA, add(CFA_XSP16, literal(-12)))
          CFI (cfiCond185) V3 load(1, XDATA, add(CFA_XSP16, literal(-11)))
          CFI (cfiCond185) V4 load(1, XDATA, add(CFA_XSP16, literal(-10)))
          CFI (cfiCond185) V5 load(1, XDATA, add(CFA_XSP16, literal(-9)))
          CFI (cfiCond185) V6 load(1, XDATA, add(CFA_XSP16, literal(-8)))
          CFI (cfiCond185) V7 load(1, XDATA, add(CFA_XSP16, literal(-7)))
          CFI (cfiCond185) R7 load(1, XDATA, add(CFA_XSP16, literal(-6)))
          CFI (cfiCond185) ?RET_LOW load(1, XDATA, add(CFA_XSP16, literal(-5)))
          CFI (cfiCond185) ?RET_HIGH load(1, XDATA, add(CFA_XSP16, literal(-4)))
          CFI (cfiCond185) ?BRET_EXT load(1, XDATA, add(CFA_XSP16, literal(-3)))
          CFI (cfiCond185) DPL0 load(1, XDATA, add(CFA_XSP16, literal(-2)))
          CFI (cfiCond185) DPH0 load(1, XDATA, add(CFA_XSP16, literal(-1)))
          CFI (cfiCond185) CFA_SP SP+-2
          CFI (cfiCond185) CFA_XSP16 add(XSP16, 24)
          CFI Block cfiCond186 Using cfiCommon0
          CFI (cfiCond186) Function zclGp_SendGpProxyTableResponse
          CFI (cfiCond186) Conditional ??CrossCallReturnLabel_106
          CFI (cfiCond186) R6 load(1, XDATA, add(CFA_XSP16, literal(-16)))
          CFI (cfiCond186) VB load(1, XDATA, add(CFA_XSP16, literal(-15)))
          CFI (cfiCond186) V0 load(1, XDATA, add(CFA_XSP16, literal(-14)))
          CFI (cfiCond186) V1 load(1, XDATA, add(CFA_XSP16, literal(-13)))
          CFI (cfiCond186) V2 load(1, XDATA, add(CFA_XSP16, literal(-12)))
          CFI (cfiCond186) V3 load(1, XDATA, add(CFA_XSP16, literal(-11)))
          CFI (cfiCond186) V4 load(1, XDATA, add(CFA_XSP16, literal(-10)))
          CFI (cfiCond186) V5 load(1, XDATA, add(CFA_XSP16, literal(-9)))
          CFI (cfiCond186) V6 load(1, XDATA, add(CFA_XSP16, literal(-8)))
          CFI (cfiCond186) V7 load(1, XDATA, add(CFA_XSP16, literal(-7)))
          CFI (cfiCond186) R7 load(1, XDATA, add(CFA_XSP16, literal(-6)))
          CFI (cfiCond186) ?RET_LOW load(1, XDATA, add(CFA_XSP16, literal(-5)))
          CFI (cfiCond186) ?RET_HIGH load(1, XDATA, add(CFA_XSP16, literal(-4)))
          CFI (cfiCond186) ?BRET_EXT load(1, XDATA, add(CFA_XSP16, literal(-3)))
          CFI (cfiCond186) DPL0 load(1, XDATA, add(CFA_XSP16, literal(-2)))
          CFI (cfiCond186) DPH0 load(1, XDATA, add(CFA_XSP16, literal(-1)))
          CFI (cfiCond186) CFA_SP SP+-2
          CFI (cfiCond186) CFA_XSP16 add(XSP16, 24)
          CFI Block cfiPicker187 Using cfiCommon1
          CFI (cfiPicker187) NoFunction
          CFI (cfiPicker187) Picker
        MOV       R0,A
        INC       DPTR
        MOVX      A,@DPTR
        MOV       DPH,A
        MOV       DPL,R0
        INC       DPTR
        INC       DPTR
        RET
          CFI EndBlock cfiCond184
          CFI EndBlock cfiCond185
          CFI EndBlock cfiCond186
          CFI EndBlock cfiPicker187

        RSEG BANKED_CODE:HUGECODE:NOROOT(0)
?Subroutine15:
          CFI Block cfiCond188 Using cfiCommon0
          CFI Function zclGp_ProcessInProxyBasic
          CFI Conditional ??CrossCallReturnLabel_112
          CFI R6 load(1, XDATA, add(CFA_XSP16, literal(-15)))
          CFI VB load(1, XDATA, add(CFA_XSP16, literal(-14)))
          CFI V0 load(1, XDATA, add(CFA_XSP16, literal(-13)))
          CFI V1 load(1, XDATA, add(CFA_XSP16, literal(-12)))
          CFI V2 load(1, XDATA, add(CFA_XSP16, literal(-11)))
          CFI V3 load(1, XDATA, add(CFA_XSP16, literal(-10)))
          CFI V4 load(1, XDATA, add(CFA_XSP16, literal(-9)))
          CFI V5 load(1, XDATA, add(CFA_XSP16, literal(-8)))
          CFI V6 load(1, XDATA, add(CFA_XSP16, literal(-7)))
          CFI R7 load(1, XDATA, add(CFA_XSP16, literal(-6)))
          CFI ?RET_LOW load(1, XDATA, add(CFA_XSP16, literal(-5)))
          CFI ?RET_HIGH load(1, XDATA, add(CFA_XSP16, literal(-4)))
          CFI ?BRET_EXT load(1, XDATA, add(CFA_XSP16, literal(-3)))
          CFI DPL0 load(1, XDATA, add(CFA_XSP16, literal(-2)))
          CFI DPH0 load(1, XDATA, add(CFA_XSP16, literal(-1)))
          CFI CFA_SP SP+-2
          CFI CFA_XSP16 add(XSP16, 43)
          CFI Block cfiCond189 Using cfiCommon0
          CFI (cfiCond189) Function zclGp_ProcessInProxyBasic
          CFI (cfiCond189) Conditional ??CrossCallReturnLabel_113
          CFI (cfiCond189) R6 load(1, XDATA, add(CFA_XSP16, literal(-15)))
          CFI (cfiCond189) VB load(1, XDATA, add(CFA_XSP16, literal(-14)))
          CFI (cfiCond189) V0 load(1, XDATA, add(CFA_XSP16, literal(-13)))
          CFI (cfiCond189) V1 load(1, XDATA, add(CFA_XSP16, literal(-12)))
          CFI (cfiCond189) V2 load(1, XDATA, add(CFA_XSP16, literal(-11)))
          CFI (cfiCond189) V3 load(1, XDATA, add(CFA_XSP16, literal(-10)))
          CFI (cfiCond189) V4 load(1, XDATA, add(CFA_XSP16, literal(-9)))
          CFI (cfiCond189) V5 load(1, XDATA, add(CFA_XSP16, literal(-8)))
          CFI (cfiCond189) V6 load(1, XDATA, add(CFA_XSP16, literal(-7)))
          CFI (cfiCond189) R7 load(1, XDATA, add(CFA_XSP16, literal(-6)))
          CFI (cfiCond189) ?RET_LOW load(1, XDATA, add(CFA_XSP16, literal(-5)))
          CFI (cfiCond189) ?RET_HIGH load(1, XDATA, add(CFA_XSP16, literal(-4)))
          CFI (cfiCond189) ?BRET_EXT load(1, XDATA, add(CFA_XSP16, literal(-3)))
          CFI (cfiCond189) DPL0 load(1, XDATA, add(CFA_XSP16, literal(-2)))
          CFI (cfiCond189) DPH0 load(1, XDATA, add(CFA_XSP16, literal(-1)))
          CFI (cfiCond189) CFA_SP SP+-2
          CFI (cfiCond189) CFA_XSP16 add(XSP16, 43)
          CFI Block cfiCond190 Using cfiCommon0
          CFI (cfiCond190) Function zclGp_SendGpProxyTableResponse
          CFI (cfiCond190) Conditional ??CrossCallReturnLabel_114
          CFI (cfiCond190) R6 load(1, XDATA, add(CFA_XSP16, literal(-16)))
          CFI (cfiCond190) VB load(1, XDATA, add(CFA_XSP16, literal(-15)))
          CFI (cfiCond190) V0 load(1, XDATA, add(CFA_XSP16, literal(-14)))
          CFI (cfiCond190) V1 load(1, XDATA, add(CFA_XSP16, literal(-13)))
          CFI (cfiCond190) V2 load(1, XDATA, add(CFA_XSP16, literal(-12)))
          CFI (cfiCond190) V3 load(1, XDATA, add(CFA_XSP16, literal(-11)))
          CFI (cfiCond190) V4 load(1, XDATA, add(CFA_XSP16, literal(-10)))
          CFI (cfiCond190) V5 load(1, XDATA, add(CFA_XSP16, literal(-9)))
          CFI (cfiCond190) V6 load(1, XDATA, add(CFA_XSP16, literal(-8)))
          CFI (cfiCond190) V7 load(1, XDATA, add(CFA_XSP16, literal(-7)))
          CFI (cfiCond190) R7 load(1, XDATA, add(CFA_XSP16, literal(-6)))
          CFI (cfiCond190) ?RET_LOW load(1, XDATA, add(CFA_XSP16, literal(-5)))
          CFI (cfiCond190) ?RET_HIGH load(1, XDATA, add(CFA_XSP16, literal(-4)))
          CFI (cfiCond190) ?BRET_EXT load(1, XDATA, add(CFA_XSP16, literal(-3)))
          CFI (cfiCond190) DPL0 load(1, XDATA, add(CFA_XSP16, literal(-2)))
          CFI (cfiCond190) DPH0 load(1, XDATA, add(CFA_XSP16, literal(-1)))
          CFI (cfiCond190) CFA_SP SP+-2
          CFI (cfiCond190) CFA_XSP16 add(XSP16, 24)
          CFI Block cfiPicker191 Using cfiCommon1
          CFI (cfiPicker191) NoFunction
          CFI (cfiPicker191) Picker
        MOV       DPL,?XSP + 0
        MOV       DPH,?XSP + 1
          CFI EndBlock cfiCond188
          CFI EndBlock cfiCond189
          CFI EndBlock cfiCond190
          CFI EndBlock cfiPicker191
        REQUIRE ??Subroutine61_0
        ; // Fall through to label ??Subroutine61_0

        RSEG BANKED_CODE:HUGECODE:NOROOT(0)
??Subroutine61_0:
          CFI Block cfiCond192 Using cfiCommon0
          CFI Function zclGp_ProcessInProxyBasic
          CFI Conditional ??CrossCallReturnLabel_108
          CFI R6 load(1, XDATA, add(CFA_XSP16, literal(-15)))
          CFI VB load(1, XDATA, add(CFA_XSP16, literal(-14)))
          CFI V0 load(1, XDATA, add(CFA_XSP16, literal(-13)))
          CFI V1 load(1, XDATA, add(CFA_XSP16, literal(-12)))
          CFI V2 load(1, XDATA, add(CFA_XSP16, literal(-11)))
          CFI V3 load(1, XDATA, add(CFA_XSP16, literal(-10)))
          CFI V4 load(1, XDATA, add(CFA_XSP16, literal(-9)))
          CFI V5 load(1, XDATA, add(CFA_XSP16, literal(-8)))
          CFI V6 load(1, XDATA, add(CFA_XSP16, literal(-7)))
          CFI R7 load(1, XDATA, add(CFA_XSP16, literal(-6)))
          CFI ?RET_LOW load(1, XDATA, add(CFA_XSP16, literal(-5)))
          CFI ?RET_HIGH load(1, XDATA, add(CFA_XSP16, literal(-4)))
          CFI ?BRET_EXT load(1, XDATA, add(CFA_XSP16, literal(-3)))
          CFI DPL0 load(1, XDATA, add(CFA_XSP16, literal(-2)))
          CFI DPH0 load(1, XDATA, add(CFA_XSP16, literal(-1)))
          CFI CFA_SP SP+-2
          CFI CFA_XSP16 add(XSP16, 43)
          CFI Block cfiCond193 Using cfiCommon0
          CFI (cfiCond193) Function zclGp_ProcessInProxyBasic
          CFI (cfiCond193) Conditional ??CrossCallReturnLabel_109
          CFI (cfiCond193) R6 load(1, XDATA, add(CFA_XSP16, literal(-15)))
          CFI (cfiCond193) VB load(1, XDATA, add(CFA_XSP16, literal(-14)))
          CFI (cfiCond193) V0 load(1, XDATA, add(CFA_XSP16, literal(-13)))
          CFI (cfiCond193) V1 load(1, XDATA, add(CFA_XSP16, literal(-12)))
          CFI (cfiCond193) V2 load(1, XDATA, add(CFA_XSP16, literal(-11)))
          CFI (cfiCond193) V3 load(1, XDATA, add(CFA_XSP16, literal(-10)))
          CFI (cfiCond193) V4 load(1, XDATA, add(CFA_XSP16, literal(-9)))
          CFI (cfiCond193) V5 load(1, XDATA, add(CFA_XSP16, literal(-8)))
          CFI (cfiCond193) V6 load(1, XDATA, add(CFA_XSP16, literal(-7)))
          CFI (cfiCond193) R7 load(1, XDATA, add(CFA_XSP16, literal(-6)))
          CFI (cfiCond193) ?RET_LOW load(1, XDATA, add(CFA_XSP16, literal(-5)))
          CFI (cfiCond193) ?RET_HIGH load(1, XDATA, add(CFA_XSP16, literal(-4)))
          CFI (cfiCond193) ?BRET_EXT load(1, XDATA, add(CFA_XSP16, literal(-3)))
          CFI (cfiCond193) DPL0 load(1, XDATA, add(CFA_XSP16, literal(-2)))
          CFI (cfiCond193) DPH0 load(1, XDATA, add(CFA_XSP16, literal(-1)))
          CFI (cfiCond193) CFA_SP SP+-2
          CFI (cfiCond193) CFA_XSP16 add(XSP16, 43)
          CFI Block cfiCond194 Using cfiCommon0
          CFI (cfiCond194) Function zclGp_ProcessInProxyBasic
          CFI (cfiCond194) Conditional ??CrossCallReturnLabel_110
          CFI (cfiCond194) R6 load(1, XDATA, add(CFA_XSP16, literal(-15)))
          CFI (cfiCond194) VB load(1, XDATA, add(CFA_XSP16, literal(-14)))
          CFI (cfiCond194) V0 load(1, XDATA, add(CFA_XSP16, literal(-13)))
          CFI (cfiCond194) V1 load(1, XDATA, add(CFA_XSP16, literal(-12)))
          CFI (cfiCond194) V2 load(1, XDATA, add(CFA_XSP16, literal(-11)))
          CFI (cfiCond194) V3 load(1, XDATA, add(CFA_XSP16, literal(-10)))
          CFI (cfiCond194) V4 load(1, XDATA, add(CFA_XSP16, literal(-9)))
          CFI (cfiCond194) V5 load(1, XDATA, add(CFA_XSP16, literal(-8)))
          CFI (cfiCond194) V6 load(1, XDATA, add(CFA_XSP16, literal(-7)))
          CFI (cfiCond194) R7 load(1, XDATA, add(CFA_XSP16, literal(-6)))
          CFI (cfiCond194) ?RET_LOW load(1, XDATA, add(CFA_XSP16, literal(-5)))
          CFI (cfiCond194) ?RET_HIGH load(1, XDATA, add(CFA_XSP16, literal(-4)))
          CFI (cfiCond194) ?BRET_EXT load(1, XDATA, add(CFA_XSP16, literal(-3)))
          CFI (cfiCond194) DPL0 load(1, XDATA, add(CFA_XSP16, literal(-2)))
          CFI (cfiCond194) DPH0 load(1, XDATA, add(CFA_XSP16, literal(-1)))
          CFI (cfiCond194) CFA_SP SP+-2
          CFI (cfiCond194) CFA_XSP16 add(XSP16, 43)
          CFI Block cfiCond195 Using cfiCommon0
          CFI (cfiCond195) Function zclGp_ProcessInProxyBasic
          CFI (cfiCond195) Conditional ??CrossCallReturnLabel_111
          CFI (cfiCond195) R6 load(1, XDATA, add(CFA_XSP16, literal(-15)))
          CFI (cfiCond195) VB load(1, XDATA, add(CFA_XSP16, literal(-14)))
          CFI (cfiCond195) V0 load(1, XDATA, add(CFA_XSP16, literal(-13)))
          CFI (cfiCond195) V1 load(1, XDATA, add(CFA_XSP16, literal(-12)))
          CFI (cfiCond195) V2 load(1, XDATA, add(CFA_XSP16, literal(-11)))
          CFI (cfiCond195) V3 load(1, XDATA, add(CFA_XSP16, literal(-10)))
          CFI (cfiCond195) V4 load(1, XDATA, add(CFA_XSP16, literal(-9)))
          CFI (cfiCond195) V5 load(1, XDATA, add(CFA_XSP16, literal(-8)))
          CFI (cfiCond195) V6 load(1, XDATA, add(CFA_XSP16, literal(-7)))
          CFI (cfiCond195) R7 load(1, XDATA, add(CFA_XSP16, literal(-6)))
          CFI (cfiCond195) ?RET_LOW load(1, XDATA, add(CFA_XSP16, literal(-5)))
          CFI (cfiCond195) ?RET_HIGH load(1, XDATA, add(CFA_XSP16, literal(-4)))
          CFI (cfiCond195) ?BRET_EXT load(1, XDATA, add(CFA_XSP16, literal(-3)))
          CFI (cfiCond195) DPL0 load(1, XDATA, add(CFA_XSP16, literal(-2)))
          CFI (cfiCond195) DPH0 load(1, XDATA, add(CFA_XSP16, literal(-1)))
          CFI (cfiCond195) CFA_SP SP+-2
          CFI (cfiCond195) CFA_XSP16 add(XSP16, 43)
          CFI Block cfiCond196 Using cfiCommon0
          CFI (cfiCond196) Function zclGp_ProcessInProxyBasic
          CFI (cfiCond196) Conditional ??CrossCallReturnLabel_112
          CFI (cfiCond196) R6 load(1, XDATA, add(CFA_XSP16, literal(-15)))
          CFI (cfiCond196) VB load(1, XDATA, add(CFA_XSP16, literal(-14)))
          CFI (cfiCond196) V0 load(1, XDATA, add(CFA_XSP16, literal(-13)))
          CFI (cfiCond196) V1 load(1, XDATA, add(CFA_XSP16, literal(-12)))
          CFI (cfiCond196) V2 load(1, XDATA, add(CFA_XSP16, literal(-11)))
          CFI (cfiCond196) V3 load(1, XDATA, add(CFA_XSP16, literal(-10)))
          CFI (cfiCond196) V4 load(1, XDATA, add(CFA_XSP16, literal(-9)))
          CFI (cfiCond196) V5 load(1, XDATA, add(CFA_XSP16, literal(-8)))
          CFI (cfiCond196) V6 load(1, XDATA, add(CFA_XSP16, literal(-7)))
          CFI (cfiCond196) R7 load(1, XDATA, add(CFA_XSP16, literal(-6)))
          CFI (cfiCond196) ?RET_LOW load(1, XDATA, add(CFA_XSP16, literal(-5)))
          CFI (cfiCond196) ?RET_HIGH load(1, XDATA, add(CFA_XSP16, literal(-4)))
          CFI (cfiCond196) ?BRET_EXT load(1, XDATA, add(CFA_XSP16, literal(-3)))
          CFI (cfiCond196) DPL0 load(1, XDATA, add(CFA_XSP16, literal(-2)))
          CFI (cfiCond196) DPH0 load(1, XDATA, add(CFA_XSP16, literal(-1)))
          CFI (cfiCond196) CFA_SP SP+-2
          CFI (cfiCond196) CFA_XSP16 add(XSP16, 43)
          CFI Block cfiCond197 Using cfiCommon0
          CFI (cfiCond197) Function zclGp_ProcessInProxyBasic
          CFI (cfiCond197) Conditional ??CrossCallReturnLabel_113
          CFI (cfiCond197) R6 load(1, XDATA, add(CFA_XSP16, literal(-15)))
          CFI (cfiCond197) VB load(1, XDATA, add(CFA_XSP16, literal(-14)))
          CFI (cfiCond197) V0 load(1, XDATA, add(CFA_XSP16, literal(-13)))
          CFI (cfiCond197) V1 load(1, XDATA, add(CFA_XSP16, literal(-12)))
          CFI (cfiCond197) V2 load(1, XDATA, add(CFA_XSP16, literal(-11)))
          CFI (cfiCond197) V3 load(1, XDATA, add(CFA_XSP16, literal(-10)))
          CFI (cfiCond197) V4 load(1, XDATA, add(CFA_XSP16, literal(-9)))
          CFI (cfiCond197) V5 load(1, XDATA, add(CFA_XSP16, literal(-8)))
          CFI (cfiCond197) V6 load(1, XDATA, add(CFA_XSP16, literal(-7)))
          CFI (cfiCond197) R7 load(1, XDATA, add(CFA_XSP16, literal(-6)))
          CFI (cfiCond197) ?RET_LOW load(1, XDATA, add(CFA_XSP16, literal(-5)))
          CFI (cfiCond197) ?RET_HIGH load(1, XDATA, add(CFA_XSP16, literal(-4)))
          CFI (cfiCond197) ?BRET_EXT load(1, XDATA, add(CFA_XSP16, literal(-3)))
          CFI (cfiCond197) DPL0 load(1, XDATA, add(CFA_XSP16, literal(-2)))
          CFI (cfiCond197) DPH0 load(1, XDATA, add(CFA_XSP16, literal(-1)))
          CFI (cfiCond197) CFA_SP SP+-2
          CFI (cfiCond197) CFA_XSP16 add(XSP16, 43)
          CFI Block cfiCond198 Using cfiCommon0
          CFI (cfiCond198) Function zclGp_SendGpProxyTableResponse
          CFI (cfiCond198) Conditional ??CrossCallReturnLabel_114
          CFI (cfiCond198) R6 load(1, XDATA, add(CFA_XSP16, literal(-16)))
          CFI (cfiCond198) VB load(1, XDATA, add(CFA_XSP16, literal(-15)))
          CFI (cfiCond198) V0 load(1, XDATA, add(CFA_XSP16, literal(-14)))
          CFI (cfiCond198) V1 load(1, XDATA, add(CFA_XSP16, literal(-13)))
          CFI (cfiCond198) V2 load(1, XDATA, add(CFA_XSP16, literal(-12)))
          CFI (cfiCond198) V3 load(1, XDATA, add(CFA_XSP16, literal(-11)))
          CFI (cfiCond198) V4 load(1, XDATA, add(CFA_XSP16, literal(-10)))
          CFI (cfiCond198) V5 load(1, XDATA, add(CFA_XSP16, literal(-9)))
          CFI (cfiCond198) V6 load(1, XDATA, add(CFA_XSP16, literal(-8)))
          CFI (cfiCond198) V7 load(1, XDATA, add(CFA_XSP16, literal(-7)))
          CFI (cfiCond198) R7 load(1, XDATA, add(CFA_XSP16, literal(-6)))
          CFI (cfiCond198) ?RET_LOW load(1, XDATA, add(CFA_XSP16, literal(-5)))
          CFI (cfiCond198) ?RET_HIGH load(1, XDATA, add(CFA_XSP16, literal(-4)))
          CFI (cfiCond198) ?BRET_EXT load(1, XDATA, add(CFA_XSP16, literal(-3)))
          CFI (cfiCond198) DPL0 load(1, XDATA, add(CFA_XSP16, literal(-2)))
          CFI (cfiCond198) DPH0 load(1, XDATA, add(CFA_XSP16, literal(-1)))
          CFI (cfiCond198) CFA_SP SP+-2
          CFI (cfiCond198) CFA_XSP16 add(XSP16, 24)
          CFI Block cfiPicker199 Using cfiCommon1
          CFI (cfiPicker199) NoFunction
          CFI (cfiPicker199) Picker
        LCALL     ?Subroutine43 & 0xFFFF
??CrossCallReturnLabel_116:
        RET
          CFI EndBlock cfiCond192
          CFI EndBlock cfiCond193
          CFI EndBlock cfiCond194
          CFI EndBlock cfiCond195
          CFI EndBlock cfiCond196
          CFI EndBlock cfiCond197
          CFI EndBlock cfiCond198
          CFI EndBlock cfiPicker199

        RSEG BANKED_CODE:HUGECODE:NOROOT(0)
?Subroutine43:
          CFI Block cfiCond200 Using cfiCommon0
          CFI Function zclGp_ProcessInProxyBasic
          CFI Conditional ??CrossCallReturnLabel_115, ??CrossCallReturnLabel_5
          CFI R6 load(1, XDATA, add(CFA_XSP16, literal(-15)))
          CFI VB load(1, XDATA, add(CFA_XSP16, literal(-14)))
          CFI V0 load(1, XDATA, add(CFA_XSP16, literal(-13)))
          CFI V1 load(1, XDATA, add(CFA_XSP16, literal(-12)))
          CFI V2 load(1, XDATA, add(CFA_XSP16, literal(-11)))
          CFI V3 load(1, XDATA, add(CFA_XSP16, literal(-10)))
          CFI V4 load(1, XDATA, add(CFA_XSP16, literal(-9)))
          CFI V5 load(1, XDATA, add(CFA_XSP16, literal(-8)))
          CFI V6 load(1, XDATA, add(CFA_XSP16, literal(-7)))
          CFI R7 load(1, XDATA, add(CFA_XSP16, literal(-6)))
          CFI ?RET_LOW load(1, XDATA, add(CFA_XSP16, literal(-5)))
          CFI ?RET_HIGH load(1, XDATA, add(CFA_XSP16, literal(-4)))
          CFI ?BRET_EXT load(1, XDATA, add(CFA_XSP16, literal(-3)))
          CFI DPL0 load(1, XDATA, add(CFA_XSP16, literal(-2)))
          CFI DPH0 load(1, XDATA, add(CFA_XSP16, literal(-1)))
          CFI CFA_SP SP+-4
          CFI CFA_XSP16 add(XSP16, 43)
          CFI Block cfiCond201 Using cfiCommon0
          CFI (cfiCond201) Function zclGp_ProcessInProxyBasic
          CFI (cfiCond201) Conditional ??CrossCallReturnLabel_115, ??CrossCallReturnLabel_6
          CFI (cfiCond201) R6 load(1, XDATA, add(CFA_XSP16, literal(-15)))
          CFI (cfiCond201) VB load(1, XDATA, add(CFA_XSP16, literal(-14)))
          CFI (cfiCond201) V0 load(1, XDATA, add(CFA_XSP16, literal(-13)))
          CFI (cfiCond201) V1 load(1, XDATA, add(CFA_XSP16, literal(-12)))
          CFI (cfiCond201) V2 load(1, XDATA, add(CFA_XSP16, literal(-11)))
          CFI (cfiCond201) V3 load(1, XDATA, add(CFA_XSP16, literal(-10)))
          CFI (cfiCond201) V4 load(1, XDATA, add(CFA_XSP16, literal(-9)))
          CFI (cfiCond201) V5 load(1, XDATA, add(CFA_XSP16, literal(-8)))
          CFI (cfiCond201) V6 load(1, XDATA, add(CFA_XSP16, literal(-7)))
          CFI (cfiCond201) R7 load(1, XDATA, add(CFA_XSP16, literal(-6)))
          CFI (cfiCond201) ?RET_LOW load(1, XDATA, add(CFA_XSP16, literal(-5)))
          CFI (cfiCond201) ?RET_HIGH load(1, XDATA, add(CFA_XSP16, literal(-4)))
          CFI (cfiCond201) ?BRET_EXT load(1, XDATA, add(CFA_XSP16, literal(-3)))
          CFI (cfiCond201) DPL0 load(1, XDATA, add(CFA_XSP16, literal(-2)))
          CFI (cfiCond201) DPH0 load(1, XDATA, add(CFA_XSP16, literal(-1)))
          CFI (cfiCond201) CFA_SP SP+-4
          CFI (cfiCond201) CFA_XSP16 add(XSP16, 43)
          CFI Block cfiCond202 Using cfiCommon0
          CFI (cfiCond202) Function zclGp_ProcessInProxyBasic
          CFI (cfiCond202) Conditional ??CrossCallReturnLabel_116, ??CrossCallReturnLabel_112
          CFI (cfiCond202) R6 load(1, XDATA, add(CFA_XSP16, literal(-15)))
          CFI (cfiCond202) VB load(1, XDATA, add(CFA_XSP16, literal(-14)))
          CFI (cfiCond202) V0 load(1, XDATA, add(CFA_XSP16, literal(-13)))
          CFI (cfiCond202) V1 load(1, XDATA, add(CFA_XSP16, literal(-12)))
          CFI (cfiCond202) V2 load(1, XDATA, add(CFA_XSP16, literal(-11)))
          CFI (cfiCond202) V3 load(1, XDATA, add(CFA_XSP16, literal(-10)))
          CFI (cfiCond202) V4 load(1, XDATA, add(CFA_XSP16, literal(-9)))
          CFI (cfiCond202) V5 load(1, XDATA, add(CFA_XSP16, literal(-8)))
          CFI (cfiCond202) V6 load(1, XDATA, add(CFA_XSP16, literal(-7)))
          CFI (cfiCond202) R7 load(1, XDATA, add(CFA_XSP16, literal(-6)))
          CFI (cfiCond202) ?RET_LOW load(1, XDATA, add(CFA_XSP16, literal(-5)))
          CFI (cfiCond202) ?RET_HIGH load(1, XDATA, add(CFA_XSP16, literal(-4)))
          CFI (cfiCond202) ?BRET_EXT load(1, XDATA, add(CFA_XSP16, literal(-3)))
          CFI (cfiCond202) DPL0 load(1, XDATA, add(CFA_XSP16, literal(-2)))
          CFI (cfiCond202) DPH0 load(1, XDATA, add(CFA_XSP16, literal(-1)))
          CFI (cfiCond202) CFA_SP SP+-4
          CFI (cfiCond202) CFA_XSP16 add(XSP16, 43)
          CFI Block cfiCond203 Using cfiCommon0
          CFI (cfiCond203) Function zclGp_ProcessInProxyBasic
          CFI (cfiCond203) Conditional ??CrossCallReturnLabel_116, ??CrossCallReturnLabel_113
          CFI (cfiCond203) R6 load(1, XDATA, add(CFA_XSP16, literal(-15)))
          CFI (cfiCond203) VB load(1, XDATA, add(CFA_XSP16, literal(-14)))
          CFI (cfiCond203) V0 load(1, XDATA, add(CFA_XSP16, literal(-13)))
          CFI (cfiCond203) V1 load(1, XDATA, add(CFA_XSP16, literal(-12)))
          CFI (cfiCond203) V2 load(1, XDATA, add(CFA_XSP16, literal(-11)))
          CFI (cfiCond203) V3 load(1, XDATA, add(CFA_XSP16, literal(-10)))
          CFI (cfiCond203) V4 load(1, XDATA, add(CFA_XSP16, literal(-9)))
          CFI (cfiCond203) V5 load(1, XDATA, add(CFA_XSP16, literal(-8)))
          CFI (cfiCond203) V6 load(1, XDATA, add(CFA_XSP16, literal(-7)))
          CFI (cfiCond203) R7 load(1, XDATA, add(CFA_XSP16, literal(-6)))
          CFI (cfiCond203) ?RET_LOW load(1, XDATA, add(CFA_XSP16, literal(-5)))
          CFI (cfiCond203) ?RET_HIGH load(1, XDATA, add(CFA_XSP16, literal(-4)))
          CFI (cfiCond203) ?BRET_EXT load(1, XDATA, add(CFA_XSP16, literal(-3)))
          CFI (cfiCond203) DPL0 load(1, XDATA, add(CFA_XSP16, literal(-2)))
          CFI (cfiCond203) DPH0 load(1, XDATA, add(CFA_XSP16, literal(-1)))
          CFI (cfiCond203) CFA_SP SP+-4
          CFI (cfiCond203) CFA_XSP16 add(XSP16, 43)
          CFI Block cfiCond204 Using cfiCommon0
          CFI (cfiCond204) Function zclGp_SendGpProxyTableResponse
          CFI (cfiCond204) Conditional ??CrossCallReturnLabel_116, ??CrossCallReturnLabel_114
          CFI (cfiCond204) R6 load(1, XDATA, add(CFA_XSP16, literal(-16)))
          CFI (cfiCond204) VB load(1, XDATA, add(CFA_XSP16, literal(-15)))
          CFI (cfiCond204) V0 load(1, XDATA, add(CFA_XSP16, literal(-14)))
          CFI (cfiCond204) V1 load(1, XDATA, add(CFA_XSP16, literal(-13)))
          CFI (cfiCond204) V2 load(1, XDATA, add(CFA_XSP16, literal(-12)))
          CFI (cfiCond204) V3 load(1, XDATA, add(CFA_XSP16, literal(-11)))
          CFI (cfiCond204) V4 load(1, XDATA, add(CFA_XSP16, literal(-10)))
          CFI (cfiCond204) V5 load(1, XDATA, add(CFA_XSP16, literal(-9)))
          CFI (cfiCond204) V6 load(1, XDATA, add(CFA_XSP16, literal(-8)))
          CFI (cfiCond204) V7 load(1, XDATA, add(CFA_XSP16, literal(-7)))
          CFI (cfiCond204) R7 load(1, XDATA, add(CFA_XSP16, literal(-6)))
          CFI (cfiCond204) ?RET_LOW load(1, XDATA, add(CFA_XSP16, literal(-5)))
          CFI (cfiCond204) ?RET_HIGH load(1, XDATA, add(CFA_XSP16, literal(-4)))
          CFI (cfiCond204) ?BRET_EXT load(1, XDATA, add(CFA_XSP16, literal(-3)))
          CFI (cfiCond204) DPL0 load(1, XDATA, add(CFA_XSP16, literal(-2)))
          CFI (cfiCond204) DPH0 load(1, XDATA, add(CFA_XSP16, literal(-1)))
          CFI (cfiCond204) CFA_SP SP+-4
          CFI (cfiCond204) CFA_XSP16 add(XSP16, 24)
          CFI Block cfiCond205 Using cfiCommon0
          CFI (cfiCond205) Function zclGp_ProcessInProxyBasic
          CFI (cfiCond205) Conditional ??CrossCallReturnLabel_116, ??CrossCallReturnLabel_108
          CFI (cfiCond205) R6 load(1, XDATA, add(CFA_XSP16, literal(-15)))
          CFI (cfiCond205) VB load(1, XDATA, add(CFA_XSP16, literal(-14)))
          CFI (cfiCond205) V0 load(1, XDATA, add(CFA_XSP16, literal(-13)))
          CFI (cfiCond205) V1 load(1, XDATA, add(CFA_XSP16, literal(-12)))
          CFI (cfiCond205) V2 load(1, XDATA, add(CFA_XSP16, literal(-11)))
          CFI (cfiCond205) V3 load(1, XDATA, add(CFA_XSP16, literal(-10)))
          CFI (cfiCond205) V4 load(1, XDATA, add(CFA_XSP16, literal(-9)))
          CFI (cfiCond205) V5 load(1, XDATA, add(CFA_XSP16, literal(-8)))
          CFI (cfiCond205) V6 load(1, XDATA, add(CFA_XSP16, literal(-7)))
          CFI (cfiCond205) R7 load(1, XDATA, add(CFA_XSP16, literal(-6)))
          CFI (cfiCond205) ?RET_LOW load(1, XDATA, add(CFA_XSP16, literal(-5)))
          CFI (cfiCond205) ?RET_HIGH load(1, XDATA, add(CFA_XSP16, literal(-4)))
          CFI (cfiCond205) ?BRET_EXT load(1, XDATA, add(CFA_XSP16, literal(-3)))
          CFI (cfiCond205) DPL0 load(1, XDATA, add(CFA_XSP16, literal(-2)))
          CFI (cfiCond205) DPH0 load(1, XDATA, add(CFA_XSP16, literal(-1)))
          CFI (cfiCond205) CFA_SP SP+-4
          CFI (cfiCond205) CFA_XSP16 add(XSP16, 43)
          CFI Block cfiCond206 Using cfiCommon0
          CFI (cfiCond206) Function zclGp_ProcessInProxyBasic
          CFI (cfiCond206) Conditional ??CrossCallReturnLabel_116, ??CrossCallReturnLabel_109
          CFI (cfiCond206) R6 load(1, XDATA, add(CFA_XSP16, literal(-15)))
          CFI (cfiCond206) VB load(1, XDATA, add(CFA_XSP16, literal(-14)))
          CFI (cfiCond206) V0 load(1, XDATA, add(CFA_XSP16, literal(-13)))
          CFI (cfiCond206) V1 load(1, XDATA, add(CFA_XSP16, literal(-12)))
          CFI (cfiCond206) V2 load(1, XDATA, add(CFA_XSP16, literal(-11)))
          CFI (cfiCond206) V3 load(1, XDATA, add(CFA_XSP16, literal(-10)))
          CFI (cfiCond206) V4 load(1, XDATA, add(CFA_XSP16, literal(-9)))
          CFI (cfiCond206) V5 load(1, XDATA, add(CFA_XSP16, literal(-8)))
          CFI (cfiCond206) V6 load(1, XDATA, add(CFA_XSP16, literal(-7)))
          CFI (cfiCond206) R7 load(1, XDATA, add(CFA_XSP16, literal(-6)))
          CFI (cfiCond206) ?RET_LOW load(1, XDATA, add(CFA_XSP16, literal(-5)))
          CFI (cfiCond206) ?RET_HIGH load(1, XDATA, add(CFA_XSP16, literal(-4)))
          CFI (cfiCond206) ?BRET_EXT load(1, XDATA, add(CFA_XSP16, literal(-3)))
          CFI (cfiCond206) DPL0 load(1, XDATA, add(CFA_XSP16, literal(-2)))
          CFI (cfiCond206) DPH0 load(1, XDATA, add(CFA_XSP16, literal(-1)))
          CFI (cfiCond206) CFA_SP SP+-4
          CFI (cfiCond206) CFA_XSP16 add(XSP16, 43)
          CFI Block cfiCond207 Using cfiCommon0
          CFI (cfiCond207) Function zclGp_ProcessInProxyBasic
          CFI (cfiCond207) Conditional ??CrossCallReturnLabel_116, ??CrossCallReturnLabel_110
          CFI (cfiCond207) R6 load(1, XDATA, add(CFA_XSP16, literal(-15)))
          CFI (cfiCond207) VB load(1, XDATA, add(CFA_XSP16, literal(-14)))
          CFI (cfiCond207) V0 load(1, XDATA, add(CFA_XSP16, literal(-13)))
          CFI (cfiCond207) V1 load(1, XDATA, add(CFA_XSP16, literal(-12)))
          CFI (cfiCond207) V2 load(1, XDATA, add(CFA_XSP16, literal(-11)))
          CFI (cfiCond207) V3 load(1, XDATA, add(CFA_XSP16, literal(-10)))
          CFI (cfiCond207) V4 load(1, XDATA, add(CFA_XSP16, literal(-9)))
          CFI (cfiCond207) V5 load(1, XDATA, add(CFA_XSP16, literal(-8)))
          CFI (cfiCond207) V6 load(1, XDATA, add(CFA_XSP16, literal(-7)))
          CFI (cfiCond207) R7 load(1, XDATA, add(CFA_XSP16, literal(-6)))
          CFI (cfiCond207) ?RET_LOW load(1, XDATA, add(CFA_XSP16, literal(-5)))
          CFI (cfiCond207) ?RET_HIGH load(1, XDATA, add(CFA_XSP16, literal(-4)))
          CFI (cfiCond207) ?BRET_EXT load(1, XDATA, add(CFA_XSP16, literal(-3)))
          CFI (cfiCond207) DPL0 load(1, XDATA, add(CFA_XSP16, literal(-2)))
          CFI (cfiCond207) DPH0 load(1, XDATA, add(CFA_XSP16, literal(-1)))
          CFI (cfiCond207) CFA_SP SP+-4
          CFI (cfiCond207) CFA_XSP16 add(XSP16, 43)
          CFI Block cfiCond208 Using cfiCommon0
          CFI (cfiCond208) Function zclGp_ProcessInProxyBasic
          CFI (cfiCond208) Conditional ??CrossCallReturnLabel_116, ??CrossCallReturnLabel_111
          CFI (cfiCond208) R6 load(1, XDATA, add(CFA_XSP16, literal(-15)))
          CFI (cfiCond208) VB load(1, XDATA, add(CFA_XSP16, literal(-14)))
          CFI (cfiCond208) V0 load(1, XDATA, add(CFA_XSP16, literal(-13)))
          CFI (cfiCond208) V1 load(1, XDATA, add(CFA_XSP16, literal(-12)))
          CFI (cfiCond208) V2 load(1, XDATA, add(CFA_XSP16, literal(-11)))
          CFI (cfiCond208) V3 load(1, XDATA, add(CFA_XSP16, literal(-10)))
          CFI (cfiCond208) V4 load(1, XDATA, add(CFA_XSP16, literal(-9)))
          CFI (cfiCond208) V5 load(1, XDATA, add(CFA_XSP16, literal(-8)))
          CFI (cfiCond208) V6 load(1, XDATA, add(CFA_XSP16, literal(-7)))
          CFI (cfiCond208) R7 load(1, XDATA, add(CFA_XSP16, literal(-6)))
          CFI (cfiCond208) ?RET_LOW load(1, XDATA, add(CFA_XSP16, literal(-5)))
          CFI (cfiCond208) ?RET_HIGH load(1, XDATA, add(CFA_XSP16, literal(-4)))
          CFI (cfiCond208) ?BRET_EXT load(1, XDATA, add(CFA_XSP16, literal(-3)))
          CFI (cfiCond208) DPL0 load(1, XDATA, add(CFA_XSP16, literal(-2)))
          CFI (cfiCond208) DPH0 load(1, XDATA, add(CFA_XSP16, literal(-1)))
          CFI (cfiCond208) CFA_SP SP+-4
          CFI (cfiCond208) CFA_XSP16 add(XSP16, 43)
          CFI Block cfiPicker209 Using cfiCommon1
          CFI (cfiPicker209) NoFunction
          CFI (cfiPicker209) Picker
        LCALL     ?Subroutine49 & 0xFFFF
??CrossCallReturnLabel_118:
        MOVX      A,@DPTR
        RET
          CFI EndBlock cfiCond200
          CFI EndBlock cfiCond201
          CFI EndBlock cfiCond202
          CFI EndBlock cfiCond203
          CFI EndBlock cfiCond204
          CFI EndBlock cfiCond205
          CFI EndBlock cfiCond206
          CFI EndBlock cfiCond207
          CFI EndBlock cfiCond208
          CFI EndBlock cfiPicker209
//  630 
//  631  /*********************************************************************
//  632  * @fn          gp_addPairedSinksToMsgQueue
//  633  *
//  634  * @brief       General function to add Notification Msg to Queue for all 
//  635  *              Sinks paired to the given GPD
//  636  *
//  637  * @param       nvIndex - NV Id of proxy table
//  638  *              pEntry  - pointer to PROXY_TBL_ENTRY_LEN array
//  639  *
//  640  * @return      
//  641  */

        RSEG BANKED_CODE:HUGECODE:NOROOT(0)
//  642 static uint8 gp_addPairedSinksToMsgQueue( uint8 appId, uint8 *pId, gpCmdPayloadMsg_t* pMsg )
gp_addPairedSinksToMsgQueue:
          CFI Block cfiBlock210 Using cfiCommon0
          CFI Function gp_addPairedSinksToMsgQueue
        CODE
//  643 {
        FUNCALL gp_addPairedSinksToMsgQueue, gp_getProxyTableByIndex
        LOCFRAME ISTACK, 0, STACK
        LOCFRAME PSTACK, 0, STACK
        LOCFRAME XSTACK, 104, STACK
        LOCFRAME IOVERLAY, 0, STATIC
        LOCFRAME DOVERLAY, 0, STATIC
        ARGFRAME ISTACK, 0, STACK
        ARGFRAME PSTACK, 0, STACK
        ARGFRAME XSTACK, 104, STACK
        ARGFRAME IOVERLAY, 0, STATIC
        ARGFRAME DOVERLAY, 0, STATIC
        FUNCALL gp_addPairedSinksToMsgQueue, osal_memcmp
        LOCFRAME ISTACK, 0, STACK
        LOCFRAME PSTACK, 0, STACK
        LOCFRAME XSTACK, 107, STACK
        LOCFRAME IOVERLAY, 0, STATIC
        LOCFRAME DOVERLAY, 0, STATIC
        ARGFRAME ISTACK, 0, STACK
        ARGFRAME PSTACK, 0, STACK
        ARGFRAME XSTACK, 107, STACK
        ARGFRAME IOVERLAY, 0, STATIC
        ARGFRAME DOVERLAY, 0, STATIC
        FUNCALL gp_addPairedSinksToMsgQueue, osal_memcmp
        LOCFRAME ISTACK, 0, STACK
        LOCFRAME PSTACK, 0, STACK
        LOCFRAME XSTACK, 107, STACK
        LOCFRAME IOVERLAY, 0, STATIC
        LOCFRAME DOVERLAY, 0, STATIC
        ARGFRAME ISTACK, 0, STACK
        ARGFRAME PSTACK, 0, STACK
        ARGFRAME XSTACK, 107, STACK
        ARGFRAME IOVERLAY, 0, STATIC
        ARGFRAME DOVERLAY, 0, STATIC
        FUNCALL gp_addPairedSinksToMsgQueue, osal_memcmp
        LOCFRAME ISTACK, 0, STACK
        LOCFRAME PSTACK, 0, STACK
        LOCFRAME XSTACK, 107, STACK
        LOCFRAME IOVERLAY, 0, STATIC
        LOCFRAME DOVERLAY, 0, STATIC
        ARGFRAME ISTACK, 0, STACK
        ARGFRAME PSTACK, 0, STACK
        ARGFRAME XSTACK, 107, STACK
        ARGFRAME IOVERLAY, 0, STATIC
        ARGFRAME DOVERLAY, 0, STATIC
        FUNCALL gp_addPairedSinksToMsgQueue, osal_memcpy
        LOCFRAME ISTACK, 0, STACK
        LOCFRAME PSTACK, 0, STACK
        LOCFRAME XSTACK, 107, STACK
        LOCFRAME IOVERLAY, 0, STATIC
        LOCFRAME DOVERLAY, 0, STATIC
        ARGFRAME ISTACK, 0, STACK
        ARGFRAME PSTACK, 0, STACK
        ARGFRAME XSTACK, 107, STACK
        ARGFRAME IOVERLAY, 0, STATIC
        ARGFRAME DOVERLAY, 0, STATIC
        FUNCALL gp_addPairedSinksToMsgQueue, gp_AddNotificationMsgNode
        LOCFRAME ISTACK, 0, STACK
        LOCFRAME PSTACK, 0, STACK
        LOCFRAME XSTACK, 104, STACK
        LOCFRAME IOVERLAY, 0, STATIC
        LOCFRAME DOVERLAY, 0, STATIC
        ARGFRAME ISTACK, 0, STACK
        ARGFRAME PSTACK, 0, STACK
        ARGFRAME XSTACK, 104, STACK
        ARGFRAME IOVERLAY, 0, STATIC
        ARGFRAME DOVERLAY, 0, STATIC
        FUNCALL gp_addPairedSinksToMsgQueue, osal_memcmp
        LOCFRAME ISTACK, 0, STACK
        LOCFRAME PSTACK, 0, STACK
        LOCFRAME XSTACK, 107, STACK
        LOCFRAME IOVERLAY, 0, STATIC
        LOCFRAME DOVERLAY, 0, STATIC
        ARGFRAME ISTACK, 0, STACK
        ARGFRAME PSTACK, 0, STACK
        ARGFRAME XSTACK, 107, STACK
        ARGFRAME IOVERLAY, 0, STATIC
        ARGFRAME DOVERLAY, 0, STATIC
        FUNCALL gp_addPairedSinksToMsgQueue, osal_memcpy
        LOCFRAME ISTACK, 0, STACK
        LOCFRAME PSTACK, 0, STACK
        LOCFRAME XSTACK, 107, STACK
        LOCFRAME IOVERLAY, 0, STATIC
        LOCFRAME DOVERLAY, 0, STATIC
        ARGFRAME ISTACK, 0, STACK
        ARGFRAME PSTACK, 0, STACK
        ARGFRAME XSTACK, 107, STACK
        ARGFRAME IOVERLAY, 0, STATIC
        ARGFRAME DOVERLAY, 0, STATIC
        FUNCALL gp_addPairedSinksToMsgQueue, gp_AddNotificationMsgNode
        LOCFRAME ISTACK, 0, STACK
        LOCFRAME PSTACK, 0, STACK
        LOCFRAME XSTACK, 104, STACK
        LOCFRAME IOVERLAY, 0, STATIC
        LOCFRAME DOVERLAY, 0, STATIC
        ARGFRAME ISTACK, 0, STACK
        ARGFRAME PSTACK, 0, STACK
        ARGFRAME XSTACK, 104, STACK
        ARGFRAME IOVERLAY, 0, STATIC
        ARGFRAME DOVERLAY, 0, STATIC
        FUNCALL gp_addPairedSinksToMsgQueue, osal_memcpy
        LOCFRAME ISTACK, 0, STACK
        LOCFRAME PSTACK, 0, STACK
        LOCFRAME XSTACK, 107, STACK
        LOCFRAME IOVERLAY, 0, STATIC
        LOCFRAME DOVERLAY, 0, STATIC
        ARGFRAME ISTACK, 0, STACK
        ARGFRAME PSTACK, 0, STACK
        ARGFRAME XSTACK, 107, STACK
        ARGFRAME IOVERLAY, 0, STATIC
        ARGFRAME DOVERLAY, 0, STATIC
        FUNCALL gp_addPairedSinksToMsgQueue, gp_AddNotificationMsgNode
        LOCFRAME ISTACK, 0, STACK
        LOCFRAME PSTACK, 0, STACK
        LOCFRAME XSTACK, 104, STACK
        LOCFRAME IOVERLAY, 0, STATIC
        LOCFRAME DOVERLAY, 0, STATIC
        ARGFRAME ISTACK, 0, STACK
        ARGFRAME PSTACK, 0, STACK
        ARGFRAME XSTACK, 104, STACK
        ARGFRAME IOVERLAY, 0, STATIC
        ARGFRAME DOVERLAY, 0, STATIC
        FUNCALL gp_addPairedSinksToMsgQueue, osal_memcpy
        LOCFRAME ISTACK, 0, STACK
        LOCFRAME PSTACK, 0, STACK
        LOCFRAME XSTACK, 107, STACK
        LOCFRAME IOVERLAY, 0, STATIC
        LOCFRAME DOVERLAY, 0, STATIC
        ARGFRAME ISTACK, 0, STACK
        ARGFRAME PSTACK, 0, STACK
        ARGFRAME XSTACK, 107, STACK
        ARGFRAME IOVERLAY, 0, STATIC
        ARGFRAME DOVERLAY, 0, STATIC
        FUNCALL gp_addPairedSinksToMsgQueue, gp_AddNotificationMsgNode
        LOCFRAME ISTACK, 0, STACK
        LOCFRAME PSTACK, 0, STACK
        LOCFRAME XSTACK, 104, STACK
        LOCFRAME IOVERLAY, 0, STATIC
        LOCFRAME DOVERLAY, 0, STATIC
        ARGFRAME ISTACK, 0, STACK
        ARGFRAME PSTACK, 0, STACK
        ARGFRAME XSTACK, 104, STACK
        ARGFRAME IOVERLAY, 0, STATIC
        ARGFRAME DOVERLAY, 0, STATIC
        REQUIRE ?V0
        REQUIRE ?V1
        REQUIRE ?V2
        REQUIRE ?V3
        REQUIRE ?V4
        REQUIRE ?V5
        REQUIRE ?V6
        MOV       A,#-0xf
        LCALL     ?BANKED_ENTER_XDATA
          CFI DPH0 load(1, XDATA, add(CFA_XSP16, literal(-1)))
          CFI DPL0 load(1, XDATA, add(CFA_XSP16, literal(-2)))
          CFI ?BRET_EXT load(1, XDATA, add(CFA_XSP16, literal(-3)))
          CFI ?RET_HIGH load(1, XDATA, add(CFA_XSP16, literal(-4)))
          CFI ?RET_LOW load(1, XDATA, add(CFA_XSP16, literal(-5)))
          CFI R7 load(1, XDATA, add(CFA_XSP16, literal(-6)))
          CFI V6 load(1, XDATA, add(CFA_XSP16, literal(-7)))
          CFI V5 load(1, XDATA, add(CFA_XSP16, literal(-8)))
          CFI V4 load(1, XDATA, add(CFA_XSP16, literal(-9)))
          CFI V3 load(1, XDATA, add(CFA_XSP16, literal(-10)))
          CFI V2 load(1, XDATA, add(CFA_XSP16, literal(-11)))
          CFI V1 load(1, XDATA, add(CFA_XSP16, literal(-12)))
          CFI V0 load(1, XDATA, add(CFA_XSP16, literal(-13)))
          CFI VB load(1, XDATA, add(CFA_XSP16, literal(-14)))
          CFI R6 load(1, XDATA, add(CFA_XSP16, literal(-15)))
          CFI CFA_SP SP+0
          CFI CFA_XSP16 add(XSP16, 15)
        ; Saved register size: 15
        ; Auto size: 89
        MOV       A,#-0x59
        LCALL     ?ALLOC_XSTACK8
          CFI CFA_XSP16 add(XSP16, 104)
        MOV       DPL,?XSP + 0
        MOV       DPH,?XSP + 1
        MOV       A,R4
        MOVX      @DPTR,A
        INC       DPTR
        MOV       A,R5
        MOVX      @DPTR,A
        MOV       ?V3,R1
//  644   uint8 freeSinkEntry[LSINK_ADDR_LEN] = {0xFF, 0xFF, 0xFF, 0xFF, 0xFF, 0xFF, 0xFF, 0xFF, 0xFF, 0xFF};
        MOV       DPTR,#`?<Constant {255, 255, 255, 255, 255, 255, 255,`
        MOV       A,#0x4f
        LCALL     ?XSTACK_DISP102_8
        MOV       A,#0xa
        LCALL     ?MOVE_LONG8_XDATA_XDATA
//  645   uint8 status;
//  646   uint8 i;
//  647   uint8 currEntry[PROXY_TBL_ENTRY_LEN] = PROXY_BASIC_TBL_EMPTY_ENTRY;
        MOV       DPTR,#`?<Constant {255, 255, 255, 255, 255, 255, 255,_1`
        MOV       A,#0xe
        LCALL     ?XSTACK_DISP102_8
        MOV       A,#0x41
        LCALL     ?MOVE_LONG8_XDATA_XDATA
//  648   afAddrType_t dstAddr = {0};
        MOV       DPTR,#`?<Constant {{0}}>`
        MOV       A,#0x2
        LCALL     ?XSTACK_DISP102_8
        MOV       A,#0xc
        LCALL     ?MOVE_LONG8_XDATA_XDATA
//  649   gpNotificationMsg_t *pNotificationMsgCurr = NULL;
//  650 
//  651     
//  652   for ( i = 0; i <= GPP_MAX_PROXY_TABLE_ENTRIES ; i++ )
        MOV       R6,#0x0
        MOV       ?V0,R2
        MOV       ?V1,R3
        MOV       ?V2,A
//  653   {
//  654     status = gp_getProxyTableByIndex( ( ZCD_NV_PROXY_TABLE_START + i ), currEntry );
??gp_addPairedSinksToMsgQueue_0:
        ; Setup parameters for call to function gp_getProxyTableByIndex
        MOV       A,#0xe
        LCALL     ?XSTACK_DISP102_8
        MOV       A,R6
        ADD       A,#0x10
        MOV       R2,A
        CLR       A
        ADDC      A,#0x3
        MOV       R3,A
        LCALL     `??gp_getProxyTableByIndex::?relay`; Banked call to: gp_getProxyTableByIndex
        MOV       A,R1
        MOV       R7,A
//  655 
//  656     if ( status == NV_OPER_FAILED )
        MOV       A,#0xa
        XRL       A,R7
        JZ        ??gp_addPairedSinksToMsgQueue_1
//  657     {
//  658       break;
//  659     }
//  660     
//  661     // if the entry is empty
//  662     if ( status == NV_INVALID_DATA )
        MOV       A,#0xd
        XRL       A,R7
        JNZ       ??gp_addPairedSinksToMsgQueue_2
//  663     {
//  664       if ( i >= GPP_MAX_PROXY_TABLE_ENTRIES )
        MOV       A,R6
        CLR       C
        SUBB      A,#0x5
        JC        ??gp_addPairedSinksToMsgQueue_3
        LJMP      ??gp_addPairedSinksToMsgQueue_4 & 0xFFFF
//  665       {
//  666         return status;
//  667       }
//  668       continue;
//  669     }
//  670     
//  671     if ( PROXY_TBL_COMP_APPLICTION_ID( appId, currEntry[PROXY_TBL_ENTRY_OPT] ) )
??gp_addPairedSinksToMsgQueue_2:
        MOV       A,#0x7
        ANL       A,?V3
        MOV       R0,A
        MOV       A,#0xe
        LCALL     ?XSTACK_DISP0_8
        MOVX      A,@DPTR
        ANL       A,#0x7
        XRL       A,R0
        JNZ       ??gp_addPairedSinksToMsgQueue_3
//  672     {
//  673       if ( appId == GP_OPT_APP_ID_GPD )
        MOV       A,?V3
        JNZ       ??gp_addPairedSinksToMsgQueue_5
//  674       {
//  675         if ( osal_memcmp( pId, &currEntry[PROXY_TBL_ENTRY_GPD_ID + 4], sizeof ( uint32 ) ) )
        ; Setup parameters for call to function osal_memcmp
        MOV       A,#0x14
        LCALL     ?XSTACK_DISP0_8
        MOV       R1,DPL
        MOV       R2,DPH
        MOV       ?V4,R1
        MOV       ?V5,R2
        MOV       ?V6,#0x0
        MOV       R0,#?V4
        LCALL     ?PUSH_XSTACK_I_THREE
          CFI CFA_XSP16 add(XSP16, 107)
        MOV       R4,#0x4
        LCALL     ??Subroutine62_0 & 0xFFFF
//  676         {
//  677           // Entry found
//  678           break;
//  679         }
//  680       }
??CrossCallReturnLabel_121:
        LCALL     ?DEALLOC_XSTACK8
          CFI CFA_XSP16 add(XSP16, 104)
        MOV       A,R1
        JNZ       ??gp_addPairedSinksToMsgQueue_1
        SJMP      ??gp_addPairedSinksToMsgQueue_3
//  681       else if ( appId == GP_OPT_APP_ID_IEEE )
??gp_addPairedSinksToMsgQueue_5:
        MOV       A,#0x2
        XRL       A,?V3
        JNZ       ??gp_addPairedSinksToMsgQueue_3
//  682       {
//  683         if ( osal_memcmp( pId, &currEntry[PROXY_TBL_ENTRY_GPD_ID], Z_EXTADDR_LEN ) )
        ; Setup parameters for call to function osal_memcmp
        MOV       A,#0x10
        LCALL     ?XSTACK_DISP0_8
        MOV       R1,DPL
        MOV       R2,DPH
        MOV       ?V4,R1
        MOV       ?V5,R2
        MOV       ?V6,#0x0
        MOV       R0,#?V4
        LCALL     ?PUSH_XSTACK_I_THREE
          CFI CFA_XSP16 add(XSP16, 107)
        MOV       R4,#0x8
        LCALL     ??Subroutine62_0 & 0xFFFF
//  684         {
//  685           // Entry found
//  686           break;
//  687         }
//  688       }
//  689     }
//  690   }
??CrossCallReturnLabel_122:
        LCALL     ?DEALLOC_XSTACK8
          CFI CFA_XSP16 add(XSP16, 104)
        MOV       A,R1
        JNZ       ??gp_addPairedSinksToMsgQueue_1
??gp_addPairedSinksToMsgQueue_3:
        INC       R6
        MOV       A,R6
        CLR       C
        SUBB      A,#0x6
        JNC       $+5
        LJMP      ??gp_addPairedSinksToMsgQueue_0 & 0xFFFF
//  691   
//  692   dstAddr.endPoint = GREEN_POWER_INTERNAL_ENDPOINT;
??gp_addPairedSinksToMsgQueue_1:
        MOV       A,#0xb
        LCALL     ?XSTACK_DISP0_8
        LCALL     ?Subroutine14 & 0xFFFF
//  693   dstAddr.panId = _NIB.nwkPanId;
??CrossCallReturnLabel_78:
        MOV       A,#0xc
        LCALL     ?XSTACK_DISP0_8
        LCALL     ?Subroutine32 & 0xFFFF
//  694   
//  695   if ( PROXY_TBL_GET_LIGHTWIGHT_UNICAST( currEntry[PROXY_TBL_ENTRY_OPT] ) )
??CrossCallReturnLabel_39:
        MOV       A,#0xe
        LCALL     ?XSTACK_DISP0_8
        MOVX      A,@DPTR
        MOV       C,0xE0 /* A   */.6
        JC        $+5
        LJMP      ??gp_addPairedSinksToMsgQueue_6 & 0xFFFF
//  696   {
//  697     dstAddr.addrMode = afAddr16Bit;
        MOV       A,#0xa
        LCALL     ?XSTACK_DISP0_8
        MOV       A,#0x2
        MOVX      @DPTR,A
//  698     if ( !osal_memcmp( freeSinkEntry, &currEntry[PROXY_TBL_ENTRY_1ST_LSINK_ADDR], LSINK_ADDR_LEN ) )
        MOV       A,#0x4f
        LCALL     ?XSTACK_DISP100_8
        MOV       ?V0,R0
        MOV       ?V1,R1
        ; Setup parameters for call to function osal_memcmp
        MOV       A,#0x30
        LCALL     ?XSTACK_DISP0_8
        MOV       R1,DPL
        MOV       R2,DPH
        MOV       ?V4,R1
        MOV       ?V5,R2
        MOV       ?V6,#0x0
        MOV       R0,#?V4
        LCALL     ?PUSH_XSTACK_I_THREE
          CFI CFA_XSP16 add(XSP16, 107)
        LCALL     ?Subroutine40 & 0xFFFF
??CrossCallReturnLabel_119:
        LCALL     ?DEALLOC_XSTACK8
          CFI CFA_XSP16 add(XSP16, 104)
        MOV       A,R1
        JNZ       ??gp_addPairedSinksToMsgQueue_7
//  699     {
//  700       osal_memcpy( &dstAddr.addr.shortAddr, &currEntry[PROXY_TBL_ENTRY_1ST_LSINK_ADDR + Z_EXTADDR_LEN], sizeof ( uint16 ) );
        ; Setup parameters for call to function osal_memcpy
        MOV       A,#0x38
        LCALL     ?XSTACK_DISP0_8
        MOV       R1,DPL
        MOV       R2,DPH
        MOV       ?V4,R1
        MOV       ?V5,R2
        MOV       R0,#?V4
        LCALL     ?PUSH_XSTACK_I_THREE
          CFI CFA_XSP16 add(XSP16, 107)
        MOV       R4,#0x2
        MOV       R5,#0x0
        MOV       A,#0x5
        LCALL     ?XSTACK_DISP101_8
        LCALL     ??Subroutine72_0 & 0xFFFF
??CrossCallReturnLabel_193:
        LCALL     ?DEALLOC_XSTACK8
          CFI CFA_XSP16 add(XSP16, 104)
//  701       
//  702       pNotificationMsgCurr = gp_AddNotificationMsgNode( &pNotificationMsgHead, pMsg );
        ; Setup parameters for call to function gp_AddNotificationMsgNode
        MOV       DPL,?XSP + 0
        MOV       DPH,?XSP + 1
        LCALL     ??Subroutine63_0 & 0xFFFF
??CrossCallReturnLabel_125:
        MOV       R2,#pNotificationMsgHead & 0xff
        MOV       R3,#(pNotificationMsgHead >> 8) & 0xff
        LCALL     `??gp_AddNotificationMsgNode::?relay`; Banked call to: gp_AddNotificationMsgNode
        MOV       ?V4,R2
        MOV       ?V5,R3
        MOV       R4,?V4
        MOV       R5,?V5
//  703       if ( pNotificationMsgCurr != NULL )
        MOV       A,R2
        ORL       A,R5
        JZ        ??gp_addPairedSinksToMsgQueue_7
//  704       {
//  705         pNotificationMsgCurr->addr = dstAddr;
        MOV       A,#0x2
        LCALL     ?XSTACK_DISP0_8
        MOV       A,#0xc
        LCALL     ?MOVE_LONG8_XDATA_XDATA
//  706       }
//  707     }
//  708     if ( !osal_memcmp( freeSinkEntry, &currEntry[PROXY_TBL_ENTRY_2ND_LSINK_ADDR], LSINK_ADDR_LEN ) )
??gp_addPairedSinksToMsgQueue_7:
        ; Setup parameters for call to function osal_memcmp
        MOV       A,#0x3a
        LCALL     ?XSTACK_DISP0_8
        MOV       R1,DPL
        MOV       R2,DPH
        MOV       ?V4,R1
        MOV       ?V5,R2
        MOV       R0,#?V4
        LCALL     ?PUSH_XSTACK_I_THREE
          CFI CFA_XSP16 add(XSP16, 107)
        LCALL     ?Subroutine40 & 0xFFFF
??CrossCallReturnLabel_120:
        LCALL     ?DEALLOC_XSTACK8
          CFI CFA_XSP16 add(XSP16, 104)
        MOV       A,R1
        JNZ       ??gp_addPairedSinksToMsgQueue_6
//  709     {
//  710       osal_memcpy( &dstAddr.addr.shortAddr, &currEntry[PROXY_TBL_ENTRY_2ND_LSINK_ADDR + Z_EXTADDR_LEN], sizeof ( uint16 ) );   
        ; Setup parameters for call to function osal_memcpy
        MOV       A,#0x42
        LCALL     ?XSTACK_DISP0_8
        MOV       R1,DPL
        MOV       R2,DPH
        MOV       ?V0,R1
        MOV       ?V1,R2
        MOV       R0,#?V0
        LCALL     ?PUSH_XSTACK_I_THREE
          CFI CFA_XSP16 add(XSP16, 107)
        MOV       R4,#0x2
        MOV       R5,#0x0
        MOV       A,#0x5
        LCALL     ?XSTACK_DISP101_8
        LCALL     ??Subroutine72_0 & 0xFFFF
??CrossCallReturnLabel_194:
        LCALL     ?DEALLOC_XSTACK8
          CFI CFA_XSP16 add(XSP16, 104)
//  711       
//  712       pNotificationMsgCurr = gp_AddNotificationMsgNode( &pNotificationMsgHead, pMsg );
        ; Setup parameters for call to function gp_AddNotificationMsgNode
        LCALL     ?Subroutine8 & 0xFFFF
//  713       if ( pNotificationMsgCurr != NULL )
??CrossCallReturnLabel_0:
        JZ        ??gp_addPairedSinksToMsgQueue_6
//  714       {
//  715         pNotificationMsgCurr->addr = dstAddr;
        MOV       A,#0x2
        LCALL     ?XSTACK_DISP0_8
        MOV       A,#0xc
        LCALL     ?MOVE_LONG8_XDATA_XDATA
//  716       }
//  717     }
//  718   }
//  719      
//  720   if ( PROXY_TBL_GET_DGROUP( currEntry[PROXY_TBL_ENTRY_OPT] ) || PROXY_TBL_GET_CGROUP( currEntry[PROXY_TBL_ENTRY_OPT + 1] ) )
??gp_addPairedSinksToMsgQueue_6:
        MOV       A,#0xe
        LCALL     ?XSTACK_DISP0_8
        MOVX      A,@DPTR
        MOV       C,0xE0 /* A   */.7
        JC        ??gp_addPairedSinksToMsgQueue_8
        MOV       A,#0xf
        LCALL     ?XSTACK_DISP0_8
        MOVX      A,@DPTR
        MOV       C,0xE0 /* A   */.0
        JNC       ??gp_addPairedSinksToMsgQueue_4
//  721   {
//  722     dstAddr.addrMode = afAddrGroup;
??gp_addPairedSinksToMsgQueue_8:
        MOV       A,#0xa
        LCALL     ?XSTACK_DISP0_8
        MOV       A,#0x1
        MOVX      @DPTR,A
//  723     if ( GET_BIT( &currEntry[PROXY_TBL_ENTRY_GRP_TBL_ENTRIES], PROXY_TBL_ENTRY_1ST_GRP_BIT ) )
        MOV       A,#0x44
        LCALL     ?XSTACK_DISP0_8
        MOVX      A,@DPTR
        MOV       C,0xE0 /* A   */.0
        JNC       ??gp_addPairedSinksToMsgQueue_9
//  724     {
//  725       osal_memcpy( &dstAddr.addr.shortAddr, &currEntry[PROXY_TBL_ENTRY_1ST_GRP_ADDR], sizeof ( uint16 ) );   
        ; Setup parameters for call to function osal_memcpy
        MOV       A,#0x45
        LCALL     ?XSTACK_DISP0_8
        MOV       R1,DPL
        MOV       R2,DPH
        MOV       ?V0,R1
        MOV       ?V1,R2
        MOV       R0,#?V0
        LCALL     ?PUSH_XSTACK_I_THREE
          CFI CFA_XSP16 add(XSP16, 107)
        MOV       R4,#0x2
        MOV       R5,#0x0
        MOV       A,#0x5
        LCALL     ?XSTACK_DISP101_8
        LCALL     ??Subroutine72_0 & 0xFFFF
??CrossCallReturnLabel_195:
        LCALL     ?DEALLOC_XSTACK8
          CFI CFA_XSP16 add(XSP16, 104)
//  726       
//  727       pNotificationMsgCurr = gp_AddNotificationMsgNode( &pNotificationMsgHead, pMsg );
        ; Setup parameters for call to function gp_AddNotificationMsgNode
        LCALL     ?Subroutine8 & 0xFFFF
//  728       if ( pNotificationMsgCurr != NULL )
??CrossCallReturnLabel_1:
        JZ        ??gp_addPairedSinksToMsgQueue_9
//  729       {
//  730         pNotificationMsgCurr->addr = dstAddr;
        MOV       A,#0x2
        LCALL     ?XSTACK_DISP0_8
        MOV       A,#0xc
        LCALL     ?MOVE_LONG8_XDATA_XDATA
//  731       }
//  732     }
//  733     if ( GET_BIT( &currEntry[PROXY_TBL_ENTRY_GRP_TBL_ENTRIES], PROXY_TBL_ENTRY_2ND_GRP_BIT ) )
??gp_addPairedSinksToMsgQueue_9:
        MOV       A,#0x44
        LCALL     ?XSTACK_DISP0_8
        MOVX      A,@DPTR
        MOV       C,0xE0 /* A   */.1
        JNC       ??gp_addPairedSinksToMsgQueue_4
//  734     {
//  735       osal_memcpy( &dstAddr.addr.shortAddr, &currEntry[PROXY_TBL_ENTRY_2ND_GRP_ADDR], sizeof ( uint16 ) );   
        ; Setup parameters for call to function osal_memcpy
        MOV       A,#0x49
        LCALL     ?XSTACK_DISP0_8
        MOV       R1,DPL
        MOV       R2,DPH
        MOV       ?V0,R1
        MOV       ?V1,R2
        MOV       R0,#?V0
        LCALL     ?PUSH_XSTACK_I_THREE
          CFI CFA_XSP16 add(XSP16, 107)
        MOV       R4,#0x2
        MOV       R5,#0x0
        MOV       A,#0x5
        LCALL     ?XSTACK_DISP101_8
        LCALL     ??Subroutine72_0 & 0xFFFF
??CrossCallReturnLabel_196:
        LCALL     ?DEALLOC_XSTACK8
          CFI CFA_XSP16 add(XSP16, 104)
//  736       
//  737       pNotificationMsgCurr = gp_AddNotificationMsgNode( &pNotificationMsgHead, pMsg );
        ; Setup parameters for call to function gp_AddNotificationMsgNode
        LCALL     ?Subroutine8 & 0xFFFF
//  738       if ( pNotificationMsgCurr != NULL )
??CrossCallReturnLabel_2:
        JZ        ??gp_addPairedSinksToMsgQueue_4
//  739       {
//  740         pNotificationMsgCurr->addr = dstAddr;
        MOV       A,#0x2
        LCALL     ?XSTACK_DISP0_8
        MOV       A,#0xc
        LCALL     ?MOVE_LONG8_XDATA_XDATA
//  741       }
//  742     }
//  743   }
//  744 
//  745   return status;
??gp_addPairedSinksToMsgQueue_4:
        MOV       A,R7
        MOV       R1,A
        MOV       A,#0x59
        LJMP      ?Subroutine2 & 0xFFFF
//  746 }
          CFI EndBlock cfiBlock210

        RSEG BANKED_CODE:HUGECODE:NOROOT(0)
?Subroutine40:
          CFI Block cfiCond211 Using cfiCommon0
          CFI Function gp_addPairedSinksToMsgQueue
          CFI Conditional ??CrossCallReturnLabel_119
          CFI R6 load(1, XDATA, add(CFA_XSP16, literal(-15)))
          CFI VB load(1, XDATA, add(CFA_XSP16, literal(-14)))
          CFI V0 load(1, XDATA, add(CFA_XSP16, literal(-13)))
          CFI V1 load(1, XDATA, add(CFA_XSP16, literal(-12)))
          CFI V2 load(1, XDATA, add(CFA_XSP16, literal(-11)))
          CFI V3 load(1, XDATA, add(CFA_XSP16, literal(-10)))
          CFI V4 load(1, XDATA, add(CFA_XSP16, literal(-9)))
          CFI V5 load(1, XDATA, add(CFA_XSP16, literal(-8)))
          CFI V6 load(1, XDATA, add(CFA_XSP16, literal(-7)))
          CFI R7 load(1, XDATA, add(CFA_XSP16, literal(-6)))
          CFI ?RET_LOW load(1, XDATA, add(CFA_XSP16, literal(-5)))
          CFI ?RET_HIGH load(1, XDATA, add(CFA_XSP16, literal(-4)))
          CFI ?BRET_EXT load(1, XDATA, add(CFA_XSP16, literal(-3)))
          CFI DPL0 load(1, XDATA, add(CFA_XSP16, literal(-2)))
          CFI DPH0 load(1, XDATA, add(CFA_XSP16, literal(-1)))
          CFI CFA_SP SP+-2
          CFI CFA_XSP16 add(XSP16, 107)
          CFI Block cfiCond212 Using cfiCommon0
          CFI (cfiCond212) Function gp_addPairedSinksToMsgQueue
          CFI (cfiCond212) Conditional ??CrossCallReturnLabel_120
          CFI (cfiCond212) R6 load(1, XDATA, add(CFA_XSP16, literal(-15)))
          CFI (cfiCond212) VB load(1, XDATA, add(CFA_XSP16, literal(-14)))
          CFI (cfiCond212) V0 load(1, XDATA, add(CFA_XSP16, literal(-13)))
          CFI (cfiCond212) V1 load(1, XDATA, add(CFA_XSP16, literal(-12)))
          CFI (cfiCond212) V2 load(1, XDATA, add(CFA_XSP16, literal(-11)))
          CFI (cfiCond212) V3 load(1, XDATA, add(CFA_XSP16, literal(-10)))
          CFI (cfiCond212) V4 load(1, XDATA, add(CFA_XSP16, literal(-9)))
          CFI (cfiCond212) V5 load(1, XDATA, add(CFA_XSP16, literal(-8)))
          CFI (cfiCond212) V6 load(1, XDATA, add(CFA_XSP16, literal(-7)))
          CFI (cfiCond212) R7 load(1, XDATA, add(CFA_XSP16, literal(-6)))
          CFI (cfiCond212) ?RET_LOW load(1, XDATA, add(CFA_XSP16, literal(-5)))
          CFI (cfiCond212) ?RET_HIGH load(1, XDATA, add(CFA_XSP16, literal(-4)))
          CFI (cfiCond212) ?BRET_EXT load(1, XDATA, add(CFA_XSP16, literal(-3)))
          CFI (cfiCond212) DPL0 load(1, XDATA, add(CFA_XSP16, literal(-2)))
          CFI (cfiCond212) DPH0 load(1, XDATA, add(CFA_XSP16, literal(-1)))
          CFI (cfiCond212) CFA_SP SP+-2
          CFI (cfiCond212) CFA_XSP16 add(XSP16, 107)
          CFI Block cfiPicker213 Using cfiCommon1
          CFI (cfiPicker213) NoFunction
          CFI (cfiPicker213) Picker
        MOV       R4,#0xa
          CFI EndBlock cfiCond211
          CFI EndBlock cfiCond212
          CFI EndBlock cfiPicker213
        REQUIRE ??Subroutine62_0
        ; // Fall through to label ??Subroutine62_0

        RSEG BANKED_CODE:HUGECODE:NOROOT(0)
??Subroutine62_0:
          CFI Block cfiCond214 Using cfiCommon0
          CFI Function gp_addPairedSinksToMsgQueue
          CFI Conditional ??CrossCallReturnLabel_121
          CFI R6 load(1, XDATA, add(CFA_XSP16, literal(-15)))
          CFI VB load(1, XDATA, add(CFA_XSP16, literal(-14)))
          CFI V0 load(1, XDATA, add(CFA_XSP16, literal(-13)))
          CFI V1 load(1, XDATA, add(CFA_XSP16, literal(-12)))
          CFI V2 load(1, XDATA, add(CFA_XSP16, literal(-11)))
          CFI V3 load(1, XDATA, add(CFA_XSP16, literal(-10)))
          CFI V4 load(1, XDATA, add(CFA_XSP16, literal(-9)))
          CFI V5 load(1, XDATA, add(CFA_XSP16, literal(-8)))
          CFI V6 load(1, XDATA, add(CFA_XSP16, literal(-7)))
          CFI R7 load(1, XDATA, add(CFA_XSP16, literal(-6)))
          CFI ?RET_LOW load(1, XDATA, add(CFA_XSP16, literal(-5)))
          CFI ?RET_HIGH load(1, XDATA, add(CFA_XSP16, literal(-4)))
          CFI ?BRET_EXT load(1, XDATA, add(CFA_XSP16, literal(-3)))
          CFI DPL0 load(1, XDATA, add(CFA_XSP16, literal(-2)))
          CFI DPH0 load(1, XDATA, add(CFA_XSP16, literal(-1)))
          CFI CFA_SP SP+-2
          CFI CFA_XSP16 add(XSP16, 107)
          CFI Block cfiCond215 Using cfiCommon0
          CFI (cfiCond215) Function gp_addPairedSinksToMsgQueue
          CFI (cfiCond215) Conditional ??CrossCallReturnLabel_122
          CFI (cfiCond215) R6 load(1, XDATA, add(CFA_XSP16, literal(-15)))
          CFI (cfiCond215) VB load(1, XDATA, add(CFA_XSP16, literal(-14)))
          CFI (cfiCond215) V0 load(1, XDATA, add(CFA_XSP16, literal(-13)))
          CFI (cfiCond215) V1 load(1, XDATA, add(CFA_XSP16, literal(-12)))
          CFI (cfiCond215) V2 load(1, XDATA, add(CFA_XSP16, literal(-11)))
          CFI (cfiCond215) V3 load(1, XDATA, add(CFA_XSP16, literal(-10)))
          CFI (cfiCond215) V4 load(1, XDATA, add(CFA_XSP16, literal(-9)))
          CFI (cfiCond215) V5 load(1, XDATA, add(CFA_XSP16, literal(-8)))
          CFI (cfiCond215) V6 load(1, XDATA, add(CFA_XSP16, literal(-7)))
          CFI (cfiCond215) R7 load(1, XDATA, add(CFA_XSP16, literal(-6)))
          CFI (cfiCond215) ?RET_LOW load(1, XDATA, add(CFA_XSP16, literal(-5)))
          CFI (cfiCond215) ?RET_HIGH load(1, XDATA, add(CFA_XSP16, literal(-4)))
          CFI (cfiCond215) ?BRET_EXT load(1, XDATA, add(CFA_XSP16, literal(-3)))
          CFI (cfiCond215) DPL0 load(1, XDATA, add(CFA_XSP16, literal(-2)))
          CFI (cfiCond215) DPH0 load(1, XDATA, add(CFA_XSP16, literal(-1)))
          CFI (cfiCond215) CFA_SP SP+-2
          CFI (cfiCond215) CFA_XSP16 add(XSP16, 107)
          CFI Block cfiCond216 Using cfiCommon0
          CFI (cfiCond216) Function gp_addPairedSinksToMsgQueue
          CFI (cfiCond216) Conditional ??CrossCallReturnLabel_119
          CFI (cfiCond216) R6 load(1, XDATA, add(CFA_XSP16, literal(-15)))
          CFI (cfiCond216) VB load(1, XDATA, add(CFA_XSP16, literal(-14)))
          CFI (cfiCond216) V0 load(1, XDATA, add(CFA_XSP16, literal(-13)))
          CFI (cfiCond216) V1 load(1, XDATA, add(CFA_XSP16, literal(-12)))
          CFI (cfiCond216) V2 load(1, XDATA, add(CFA_XSP16, literal(-11)))
          CFI (cfiCond216) V3 load(1, XDATA, add(CFA_XSP16, literal(-10)))
          CFI (cfiCond216) V4 load(1, XDATA, add(CFA_XSP16, literal(-9)))
          CFI (cfiCond216) V5 load(1, XDATA, add(CFA_XSP16, literal(-8)))
          CFI (cfiCond216) V6 load(1, XDATA, add(CFA_XSP16, literal(-7)))
          CFI (cfiCond216) R7 load(1, XDATA, add(CFA_XSP16, literal(-6)))
          CFI (cfiCond216) ?RET_LOW load(1, XDATA, add(CFA_XSP16, literal(-5)))
          CFI (cfiCond216) ?RET_HIGH load(1, XDATA, add(CFA_XSP16, literal(-4)))
          CFI (cfiCond216) ?BRET_EXT load(1, XDATA, add(CFA_XSP16, literal(-3)))
          CFI (cfiCond216) DPL0 load(1, XDATA, add(CFA_XSP16, literal(-2)))
          CFI (cfiCond216) DPH0 load(1, XDATA, add(CFA_XSP16, literal(-1)))
          CFI (cfiCond216) CFA_SP SP+-2
          CFI (cfiCond216) CFA_XSP16 add(XSP16, 107)
          CFI Block cfiCond217 Using cfiCommon0
          CFI (cfiCond217) Function gp_addPairedSinksToMsgQueue
          CFI (cfiCond217) Conditional ??CrossCallReturnLabel_120
          CFI (cfiCond217) R6 load(1, XDATA, add(CFA_XSP16, literal(-15)))
          CFI (cfiCond217) VB load(1, XDATA, add(CFA_XSP16, literal(-14)))
          CFI (cfiCond217) V0 load(1, XDATA, add(CFA_XSP16, literal(-13)))
          CFI (cfiCond217) V1 load(1, XDATA, add(CFA_XSP16, literal(-12)))
          CFI (cfiCond217) V2 load(1, XDATA, add(CFA_XSP16, literal(-11)))
          CFI (cfiCond217) V3 load(1, XDATA, add(CFA_XSP16, literal(-10)))
          CFI (cfiCond217) V4 load(1, XDATA, add(CFA_XSP16, literal(-9)))
          CFI (cfiCond217) V5 load(1, XDATA, add(CFA_XSP16, literal(-8)))
          CFI (cfiCond217) V6 load(1, XDATA, add(CFA_XSP16, literal(-7)))
          CFI (cfiCond217) R7 load(1, XDATA, add(CFA_XSP16, literal(-6)))
          CFI (cfiCond217) ?RET_LOW load(1, XDATA, add(CFA_XSP16, literal(-5)))
          CFI (cfiCond217) ?RET_HIGH load(1, XDATA, add(CFA_XSP16, literal(-4)))
          CFI (cfiCond217) ?BRET_EXT load(1, XDATA, add(CFA_XSP16, literal(-3)))
          CFI (cfiCond217) DPL0 load(1, XDATA, add(CFA_XSP16, literal(-2)))
          CFI (cfiCond217) DPH0 load(1, XDATA, add(CFA_XSP16, literal(-1)))
          CFI (cfiCond217) CFA_SP SP+-2
          CFI (cfiCond217) CFA_XSP16 add(XSP16, 107)
          CFI Block cfiPicker218 Using cfiCommon1
          CFI (cfiPicker218) NoFunction
          CFI (cfiPicker218) Picker
        MOV       R5,#0x0
        MOV       R1,?V0
        MOV       R2,?V1
        MOV       R3,?V2
        LCALL     `??osal_memcmp::?relay`; Banked call to: osal_memcmp
        MOV       A,#0x3
        RET
          CFI EndBlock cfiCond214
          CFI EndBlock cfiCond215
          CFI EndBlock cfiCond216
          CFI EndBlock cfiCond217
          CFI EndBlock cfiPicker218

        RSEG BANKED_CODE:HUGECODE:NOROOT(0)
?Subroutine21:
          CFI Block cfiCond219 Using cfiCommon0
          CFI Function zclGp_HdlIncoming
          CFI Conditional ??CrossCallReturnLabel_126
          CFI R6 load(1, XDATA, add(CFA_XSP16, literal(-9)))
          CFI VB load(1, XDATA, add(CFA_XSP16, literal(-8)))
          CFI V0 load(1, XDATA, add(CFA_XSP16, literal(-7)))
          CFI R7 load(1, XDATA, add(CFA_XSP16, literal(-6)))
          CFI ?RET_LOW load(1, XDATA, add(CFA_XSP16, literal(-5)))
          CFI ?RET_HIGH load(1, XDATA, add(CFA_XSP16, literal(-4)))
          CFI ?BRET_EXT load(1, XDATA, add(CFA_XSP16, literal(-3)))
          CFI DPL0 load(1, XDATA, add(CFA_XSP16, literal(-2)))
          CFI DPH0 load(1, XDATA, add(CFA_XSP16, literal(-1)))
          CFI CFA_SP SP+-2
          CFI CFA_XSP16 add(XSP16, 9)
          CFI Block cfiCond220 Using cfiCommon0
          CFI (cfiCond220) Function zclGp_ProcessInProxyBasic
          CFI (cfiCond220) Conditional ??CrossCallReturnLabel_127
          CFI (cfiCond220) R6 load(1, XDATA, add(CFA_XSP16, literal(-15)))
          CFI (cfiCond220) VB load(1, XDATA, add(CFA_XSP16, literal(-14)))
          CFI (cfiCond220) V0 load(1, XDATA, add(CFA_XSP16, literal(-13)))
          CFI (cfiCond220) V1 load(1, XDATA, add(CFA_XSP16, literal(-12)))
          CFI (cfiCond220) V2 load(1, XDATA, add(CFA_XSP16, literal(-11)))
          CFI (cfiCond220) V3 load(1, XDATA, add(CFA_XSP16, literal(-10)))
          CFI (cfiCond220) V4 load(1, XDATA, add(CFA_XSP16, literal(-9)))
          CFI (cfiCond220) V5 load(1, XDATA, add(CFA_XSP16, literal(-8)))
          CFI (cfiCond220) V6 load(1, XDATA, add(CFA_XSP16, literal(-7)))
          CFI (cfiCond220) R7 load(1, XDATA, add(CFA_XSP16, literal(-6)))
          CFI (cfiCond220) ?RET_LOW load(1, XDATA, add(CFA_XSP16, literal(-5)))
          CFI (cfiCond220) ?RET_HIGH load(1, XDATA, add(CFA_XSP16, literal(-4)))
          CFI (cfiCond220) ?BRET_EXT load(1, XDATA, add(CFA_XSP16, literal(-3)))
          CFI (cfiCond220) DPL0 load(1, XDATA, add(CFA_XSP16, literal(-2)))
          CFI (cfiCond220) DPH0 load(1, XDATA, add(CFA_XSP16, literal(-1)))
          CFI (cfiCond220) CFA_SP SP+-2
          CFI (cfiCond220) CFA_XSP16 add(XSP16, 50)
          CFI Block cfiPicker221 Using cfiCommon1
          CFI (cfiPicker221) NoFunction
          CFI (cfiPicker221) Picker
        INC       DPTR
        INC       DPTR
        INC       DPTR
          CFI EndBlock cfiCond219
          CFI EndBlock cfiCond220
          CFI EndBlock cfiPicker221
        REQUIRE ??Subroutine63_0
        ; // Fall through to label ??Subroutine63_0

        RSEG BANKED_CODE:HUGECODE:NOROOT(0)
??Subroutine63_0:
          CFI Block cfiCond222 Using cfiCommon0
          CFI Function zclGp_SendGpNotificationCommand
          CFI Conditional ??CrossCallReturnLabel_123
          CFI R6 load(1, XDATA, add(CFA_XSP16, literal(-16)))
          CFI VB load(1, XDATA, add(CFA_XSP16, literal(-15)))
          CFI V0 load(1, XDATA, add(CFA_XSP16, literal(-14)))
          CFI V1 load(1, XDATA, add(CFA_XSP16, literal(-13)))
          CFI V2 load(1, XDATA, add(CFA_XSP16, literal(-12)))
          CFI V3 load(1, XDATA, add(CFA_XSP16, literal(-11)))
          CFI V4 load(1, XDATA, add(CFA_XSP16, literal(-10)))
          CFI V5 load(1, XDATA, add(CFA_XSP16, literal(-9)))
          CFI V6 load(1, XDATA, add(CFA_XSP16, literal(-8)))
          CFI V7 load(1, XDATA, add(CFA_XSP16, literal(-7)))
          CFI R7 load(1, XDATA, add(CFA_XSP16, literal(-6)))
          CFI ?RET_LOW load(1, XDATA, add(CFA_XSP16, literal(-5)))
          CFI ?RET_HIGH load(1, XDATA, add(CFA_XSP16, literal(-4)))
          CFI ?BRET_EXT load(1, XDATA, add(CFA_XSP16, literal(-3)))
          CFI DPL0 load(1, XDATA, add(CFA_XSP16, literal(-2)))
          CFI DPH0 load(1, XDATA, add(CFA_XSP16, literal(-1)))
          CFI CFA_SP SP+-2
          CFI CFA_XSP16 add(XSP16, 22)
          CFI Block cfiCond223 Using cfiCommon0
          CFI (cfiCond223) Function zclGp_SendGpProxyTableResponse
          CFI (cfiCond223) Conditional ??CrossCallReturnLabel_124
          CFI (cfiCond223) R6 load(1, XDATA, add(CFA_XSP16, literal(-16)))
          CFI (cfiCond223) VB load(1, XDATA, add(CFA_XSP16, literal(-15)))
          CFI (cfiCond223) V0 load(1, XDATA, add(CFA_XSP16, literal(-14)))
          CFI (cfiCond223) V1 load(1, XDATA, add(CFA_XSP16, literal(-13)))
          CFI (cfiCond223) V2 load(1, XDATA, add(CFA_XSP16, literal(-12)))
          CFI (cfiCond223) V3 load(1, XDATA, add(CFA_XSP16, literal(-11)))
          CFI (cfiCond223) V4 load(1, XDATA, add(CFA_XSP16, literal(-10)))
          CFI (cfiCond223) V5 load(1, XDATA, add(CFA_XSP16, literal(-9)))
          CFI (cfiCond223) V6 load(1, XDATA, add(CFA_XSP16, literal(-8)))
          CFI (cfiCond223) V7 load(1, XDATA, add(CFA_XSP16, literal(-7)))
          CFI (cfiCond223) R7 load(1, XDATA, add(CFA_XSP16, literal(-6)))
          CFI (cfiCond223) ?RET_LOW load(1, XDATA, add(CFA_XSP16, literal(-5)))
          CFI (cfiCond223) ?RET_HIGH load(1, XDATA, add(CFA_XSP16, literal(-4)))
          CFI (cfiCond223) ?BRET_EXT load(1, XDATA, add(CFA_XSP16, literal(-3)))
          CFI (cfiCond223) DPL0 load(1, XDATA, add(CFA_XSP16, literal(-2)))
          CFI (cfiCond223) DPH0 load(1, XDATA, add(CFA_XSP16, literal(-1)))
          CFI (cfiCond223) CFA_SP SP+-2
          CFI (cfiCond223) CFA_XSP16 add(XSP16, 27)
          CFI Block cfiCond224 Using cfiCommon0
          CFI (cfiCond224) Function gp_addPairedSinksToMsgQueue
          CFI (cfiCond224) Conditional ??CrossCallReturnLabel_125
          CFI (cfiCond224) R6 load(1, XDATA, add(CFA_XSP16, literal(-15)))
          CFI (cfiCond224) VB load(1, XDATA, add(CFA_XSP16, literal(-14)))
          CFI (cfiCond224) V0 load(1, XDATA, add(CFA_XSP16, literal(-13)))
          CFI (cfiCond224) V1 load(1, XDATA, add(CFA_XSP16, literal(-12)))
          CFI (cfiCond224) V2 load(1, XDATA, add(CFA_XSP16, literal(-11)))
          CFI (cfiCond224) V3 load(1, XDATA, add(CFA_XSP16, literal(-10)))
          CFI (cfiCond224) V4 load(1, XDATA, add(CFA_XSP16, literal(-9)))
          CFI (cfiCond224) V5 load(1, XDATA, add(CFA_XSP16, literal(-8)))
          CFI (cfiCond224) V6 load(1, XDATA, add(CFA_XSP16, literal(-7)))
          CFI (cfiCond224) R7 load(1, XDATA, add(CFA_XSP16, literal(-6)))
          CFI (cfiCond224) ?RET_LOW load(1, XDATA, add(CFA_XSP16, literal(-5)))
          CFI (cfiCond224) ?RET_HIGH load(1, XDATA, add(CFA_XSP16, literal(-4)))
          CFI (cfiCond224) ?BRET_EXT load(1, XDATA, add(CFA_XSP16, literal(-3)))
          CFI (cfiCond224) DPL0 load(1, XDATA, add(CFA_XSP16, literal(-2)))
          CFI (cfiCond224) DPH0 load(1, XDATA, add(CFA_XSP16, literal(-1)))
          CFI (cfiCond224) CFA_SP SP+-2
          CFI (cfiCond224) CFA_XSP16 add(XSP16, 104)
          CFI Block cfiCond225 Using cfiCommon0
          CFI (cfiCond225) Function zclGp_HdlIncoming
          CFI (cfiCond225) Conditional ??CrossCallReturnLabel_126
          CFI (cfiCond225) R6 load(1, XDATA, add(CFA_XSP16, literal(-9)))
          CFI (cfiCond225) VB load(1, XDATA, add(CFA_XSP16, literal(-8)))
          CFI (cfiCond225) V0 load(1, XDATA, add(CFA_XSP16, literal(-7)))
          CFI (cfiCond225) R7 load(1, XDATA, add(CFA_XSP16, literal(-6)))
          CFI (cfiCond225) ?RET_LOW load(1, XDATA, add(CFA_XSP16, literal(-5)))
          CFI (cfiCond225) ?RET_HIGH load(1, XDATA, add(CFA_XSP16, literal(-4)))
          CFI (cfiCond225) ?BRET_EXT load(1, XDATA, add(CFA_XSP16, literal(-3)))
          CFI (cfiCond225) DPL0 load(1, XDATA, add(CFA_XSP16, literal(-2)))
          CFI (cfiCond225) DPH0 load(1, XDATA, add(CFA_XSP16, literal(-1)))
          CFI (cfiCond225) CFA_SP SP+-2
          CFI (cfiCond225) CFA_XSP16 add(XSP16, 9)
          CFI Block cfiCond226 Using cfiCommon0
          CFI (cfiCond226) Function zclGp_ProcessInProxyBasic
          CFI (cfiCond226) Conditional ??CrossCallReturnLabel_127
          CFI (cfiCond226) R6 load(1, XDATA, add(CFA_XSP16, literal(-15)))
          CFI (cfiCond226) VB load(1, XDATA, add(CFA_XSP16, literal(-14)))
          CFI (cfiCond226) V0 load(1, XDATA, add(CFA_XSP16, literal(-13)))
          CFI (cfiCond226) V1 load(1, XDATA, add(CFA_XSP16, literal(-12)))
          CFI (cfiCond226) V2 load(1, XDATA, add(CFA_XSP16, literal(-11)))
          CFI (cfiCond226) V3 load(1, XDATA, add(CFA_XSP16, literal(-10)))
          CFI (cfiCond226) V4 load(1, XDATA, add(CFA_XSP16, literal(-9)))
          CFI (cfiCond226) V5 load(1, XDATA, add(CFA_XSP16, literal(-8)))
          CFI (cfiCond226) V6 load(1, XDATA, add(CFA_XSP16, literal(-7)))
          CFI (cfiCond226) R7 load(1, XDATA, add(CFA_XSP16, literal(-6)))
          CFI (cfiCond226) ?RET_LOW load(1, XDATA, add(CFA_XSP16, literal(-5)))
          CFI (cfiCond226) ?RET_HIGH load(1, XDATA, add(CFA_XSP16, literal(-4)))
          CFI (cfiCond226) ?BRET_EXT load(1, XDATA, add(CFA_XSP16, literal(-3)))
          CFI (cfiCond226) DPL0 load(1, XDATA, add(CFA_XSP16, literal(-2)))
          CFI (cfiCond226) DPH0 load(1, XDATA, add(CFA_XSP16, literal(-1)))
          CFI (cfiCond226) CFA_SP SP+-2
          CFI (cfiCond226) CFA_XSP16 add(XSP16, 50)
          CFI Block cfiPicker227 Using cfiCommon1
          CFI (cfiPicker227) NoFunction
          CFI (cfiPicker227) Picker
        MOVX      A,@DPTR
        MOV       R4,A
        INC       DPTR
        MOVX      A,@DPTR
        MOV       R5,A
        RET
          CFI EndBlock cfiCond222
          CFI EndBlock cfiCond223
          CFI EndBlock cfiCond224
          CFI EndBlock cfiCond225
          CFI EndBlock cfiCond226
          CFI EndBlock cfiPicker227

        RSEG BANKED_CODE:HUGECODE:NOROOT(0)
?Subroutine8:
          CFI Block cfiCond228 Using cfiCommon0
          CFI Function gp_addPairedSinksToMsgQueue
          CFI Conditional ??CrossCallReturnLabel_0
          CFI R6 load(1, XDATA, add(CFA_XSP16, literal(-15)))
          CFI VB load(1, XDATA, add(CFA_XSP16, literal(-14)))
          CFI V0 load(1, XDATA, add(CFA_XSP16, literal(-13)))
          CFI V1 load(1, XDATA, add(CFA_XSP16, literal(-12)))
          CFI V2 load(1, XDATA, add(CFA_XSP16, literal(-11)))
          CFI V3 load(1, XDATA, add(CFA_XSP16, literal(-10)))
          CFI V4 load(1, XDATA, add(CFA_XSP16, literal(-9)))
          CFI V5 load(1, XDATA, add(CFA_XSP16, literal(-8)))
          CFI V6 load(1, XDATA, add(CFA_XSP16, literal(-7)))
          CFI R7 load(1, XDATA, add(CFA_XSP16, literal(-6)))
          CFI ?RET_LOW load(1, XDATA, add(CFA_XSP16, literal(-5)))
          CFI ?RET_HIGH load(1, XDATA, add(CFA_XSP16, literal(-4)))
          CFI ?BRET_EXT load(1, XDATA, add(CFA_XSP16, literal(-3)))
          CFI DPL0 load(1, XDATA, add(CFA_XSP16, literal(-2)))
          CFI DPH0 load(1, XDATA, add(CFA_XSP16, literal(-1)))
          CFI CFA_SP SP+-2
          CFI CFA_XSP16 add(XSP16, 104)
          CFI Block cfiCond229 Using cfiCommon0
          CFI (cfiCond229) Function gp_addPairedSinksToMsgQueue
          CFI (cfiCond229) Conditional ??CrossCallReturnLabel_1
          CFI (cfiCond229) R6 load(1, XDATA, add(CFA_XSP16, literal(-15)))
          CFI (cfiCond229) VB load(1, XDATA, add(CFA_XSP16, literal(-14)))
          CFI (cfiCond229) V0 load(1, XDATA, add(CFA_XSP16, literal(-13)))
          CFI (cfiCond229) V1 load(1, XDATA, add(CFA_XSP16, literal(-12)))
          CFI (cfiCond229) V2 load(1, XDATA, add(CFA_XSP16, literal(-11)))
          CFI (cfiCond229) V3 load(1, XDATA, add(CFA_XSP16, literal(-10)))
          CFI (cfiCond229) V4 load(1, XDATA, add(CFA_XSP16, literal(-9)))
          CFI (cfiCond229) V5 load(1, XDATA, add(CFA_XSP16, literal(-8)))
          CFI (cfiCond229) V6 load(1, XDATA, add(CFA_XSP16, literal(-7)))
          CFI (cfiCond229) R7 load(1, XDATA, add(CFA_XSP16, literal(-6)))
          CFI (cfiCond229) ?RET_LOW load(1, XDATA, add(CFA_XSP16, literal(-5)))
          CFI (cfiCond229) ?RET_HIGH load(1, XDATA, add(CFA_XSP16, literal(-4)))
          CFI (cfiCond229) ?BRET_EXT load(1, XDATA, add(CFA_XSP16, literal(-3)))
          CFI (cfiCond229) DPL0 load(1, XDATA, add(CFA_XSP16, literal(-2)))
          CFI (cfiCond229) DPH0 load(1, XDATA, add(CFA_XSP16, literal(-1)))
          CFI (cfiCond229) CFA_SP SP+-2
          CFI (cfiCond229) CFA_XSP16 add(XSP16, 104)
          CFI Block cfiCond230 Using cfiCommon0
          CFI (cfiCond230) Function gp_addPairedSinksToMsgQueue
          CFI (cfiCond230) Conditional ??CrossCallReturnLabel_2
          CFI (cfiCond230) R6 load(1, XDATA, add(CFA_XSP16, literal(-15)))
          CFI (cfiCond230) VB load(1, XDATA, add(CFA_XSP16, literal(-14)))
          CFI (cfiCond230) V0 load(1, XDATA, add(CFA_XSP16, literal(-13)))
          CFI (cfiCond230) V1 load(1, XDATA, add(CFA_XSP16, literal(-12)))
          CFI (cfiCond230) V2 load(1, XDATA, add(CFA_XSP16, literal(-11)))
          CFI (cfiCond230) V3 load(1, XDATA, add(CFA_XSP16, literal(-10)))
          CFI (cfiCond230) V4 load(1, XDATA, add(CFA_XSP16, literal(-9)))
          CFI (cfiCond230) V5 load(1, XDATA, add(CFA_XSP16, literal(-8)))
          CFI (cfiCond230) V6 load(1, XDATA, add(CFA_XSP16, literal(-7)))
          CFI (cfiCond230) R7 load(1, XDATA, add(CFA_XSP16, literal(-6)))
          CFI (cfiCond230) ?RET_LOW load(1, XDATA, add(CFA_XSP16, literal(-5)))
          CFI (cfiCond230) ?RET_HIGH load(1, XDATA, add(CFA_XSP16, literal(-4)))
          CFI (cfiCond230) ?BRET_EXT load(1, XDATA, add(CFA_XSP16, literal(-3)))
          CFI (cfiCond230) DPL0 load(1, XDATA, add(CFA_XSP16, literal(-2)))
          CFI (cfiCond230) DPH0 load(1, XDATA, add(CFA_XSP16, literal(-1)))
          CFI (cfiCond230) CFA_SP SP+-2
          CFI (cfiCond230) CFA_XSP16 add(XSP16, 104)
          CFI Block cfiPicker231 Using cfiCommon1
          CFI (cfiPicker231) NoFunction
          CFI (cfiPicker231) Picker
        MOV       DPL,?XSP + 0
        MOV       DPH,?XSP + 1
        MOVX      A,@DPTR
        MOV       R4,A
        INC       DPTR
        MOVX      A,@DPTR
        MOV       R5,A
        MOV       R2,#pNotificationMsgHead & 0xff
        MOV       R3,#(pNotificationMsgHead >> 8) & 0xff
        LCALL     `??gp_AddNotificationMsgNode::?relay`; Banked call to: gp_AddNotificationMsgNode
        MOV       ?V0,R2
        MOV       ?V1,R3
        MOV       R4,?V0
        MOV       R5,?V1
        MOV       A,R2
        ORL       A,R5
        RET
          CFI EndBlock cfiCond228
          CFI EndBlock cfiCond229
          CFI EndBlock cfiCond230
          CFI EndBlock cfiPicker231

        RSEG XDATA_ROM_C:CONST:REORDER:NOROOT(0)
        DATA8
`?<Constant {{0}}>`:
        DATA16
        DW 0
        DB 0, 0, 0, 0, 0, 0
        DB 0, 0, 0, 0
//  747 
//  748 /*********************************************************************
//  749  * @fn      gp_CreateNotificationMsgList
//  750  *
//  751  * @brief   Create Notification Msg List for paired sinks if empty
//  752  *
//  753  * @param   pHead - pointer to a pointer of the list head
//  754  *
//  755  * @return  none
//  756  */

        RSEG BANKED_CODE:HUGECODE:NOROOT(0)
//  757 void gp_CreateNotificationMsgList( gpNotificationMsg_t **pHead )
gp_CreateNotificationMsgList:
          CFI Block cfiBlock232 Using cfiCommon0
          CFI Function gp_CreateNotificationMsgList
        CODE
//  758 {
        FUNCALL gp_CreateNotificationMsgList, osal_mem_alloc
        LOCFRAME ISTACK, 0, STACK
        LOCFRAME PSTACK, 0, STACK
        LOCFRAME XSTACK, 10, STACK
        LOCFRAME IOVERLAY, 0, STATIC
        LOCFRAME DOVERLAY, 0, STATIC
        ARGFRAME ISTACK, 0, STACK
        ARGFRAME PSTACK, 0, STACK
        ARGFRAME XSTACK, 10, STACK
        ARGFRAME IOVERLAY, 0, STATIC
        ARGFRAME DOVERLAY, 0, STATIC
        REQUIRE ?V0
        REQUIRE ?V1
        MOV       A,#-0xa
        LCALL     ?BANKED_ENTER_XDATA
          CFI DPH0 load(1, XDATA, add(CFA_XSP16, literal(-1)))
          CFI DPL0 load(1, XDATA, add(CFA_XSP16, literal(-2)))
          CFI ?BRET_EXT load(1, XDATA, add(CFA_XSP16, literal(-3)))
          CFI ?RET_HIGH load(1, XDATA, add(CFA_XSP16, literal(-4)))
          CFI ?RET_LOW load(1, XDATA, add(CFA_XSP16, literal(-5)))
          CFI R7 load(1, XDATA, add(CFA_XSP16, literal(-6)))
          CFI V1 load(1, XDATA, add(CFA_XSP16, literal(-7)))
          CFI V0 load(1, XDATA, add(CFA_XSP16, literal(-8)))
          CFI VB load(1, XDATA, add(CFA_XSP16, literal(-9)))
          CFI R6 load(1, XDATA, add(CFA_XSP16, literal(-10)))
          CFI CFA_SP SP+0
          CFI CFA_XSP16 add(XSP16, 10)
        ; Saved register size: 10
        ; Auto size: 0
        LCALL     ?Subroutine6 & 0xFFFF
//  759 
//  760   // Create the list if empty
//  761   if ( *pHead == NULL )
??CrossCallReturnLabel_140:
        JNZ       ??gp_CreateNotificationMsgList_0
//  762   {
//  763     *pHead = ( gpNotificationMsg_t* )osal_mem_alloc( sizeof( gpNotificationMsg_t ) );
        ; Setup parameters for call to function osal_mem_alloc
        MOV       R2,#0x11
        MOV       R3,#0x0
        LCALL     `??osal_mem_alloc::?relay`; Banked call to: osal_mem_alloc
        MOV       ?V1,R3
        MOV       R1,?V1
        LCALL     ?Subroutine35 & 0xFFFF
//  764     
//  765     if ( *pHead != NULL )
??CrossCallReturnLabel_132:
        MOV       A,R2
        ORL       A,R1
        JZ        ??gp_CreateNotificationMsgList_0
//  766     {
//  767       (*pHead)->pNext = NULL;
        MOV       A,R2
        ADD       A,#0xf
        MOV       DPL,A
        CLR       A
        ADDC      A,R1
        MOV       DPH,A
        CLR       A
        MOVX      @DPTR,A
        INC       DPTR
        MOVX      @DPTR,A
//  768     }
//  769   }
//  770   return;
??gp_CreateNotificationMsgList_0:
          CFI EndBlock cfiBlock232
        REQUIRE ?Subroutine4
        ; // Fall through to label ?Subroutine4
//  771 }

        RSEG BANKED_CODE:HUGECODE:NOROOT(0)
?Subroutine4:
          CFI Block cfiBlock233 Using cfiCommon0
          CFI NoFunction
          CFI CFA_SP SP+0
          CFI CFA_XSP16 add(XSP16, 10)
          CFI VB load(1, XDATA, add(CFA_XSP16, literal(-9)))
          CFI DPL0 load(1, XDATA, add(CFA_XSP16, literal(-2)))
          CFI DPH0 load(1, XDATA, add(CFA_XSP16, literal(-1)))
          CFI R6 load(1, XDATA, add(CFA_XSP16, literal(-10)))
          CFI R7 load(1, XDATA, add(CFA_XSP16, literal(-6)))
          CFI V0 load(1, XDATA, add(CFA_XSP16, literal(-8)))
          CFI V1 load(1, XDATA, add(CFA_XSP16, literal(-7)))
          CFI ?BRET_EXT load(1, XDATA, add(CFA_XSP16, literal(-3)))
          CFI ?RET_HIGH load(1, XDATA, add(CFA_XSP16, literal(-4)))
          CFI ?RET_LOW load(1, XDATA, add(CFA_XSP16, literal(-5)))
        MOV       R7,#0x2
        LJMP      ?BANKED_LEAVE_XDATA
          CFI EndBlock cfiBlock233

        RSEG BANKED_CODE:HUGECODE:NOROOT(0)
?Subroutine35:
          CFI Block cfiCond234 Using cfiCommon0
          CFI Function gp_CreateNotificationMsgList
          CFI Conditional ??CrossCallReturnLabel_132
          CFI R6 load(1, XDATA, add(CFA_XSP16, literal(-10)))
          CFI VB load(1, XDATA, add(CFA_XSP16, literal(-9)))
          CFI V0 load(1, XDATA, add(CFA_XSP16, literal(-8)))
          CFI V1 load(1, XDATA, add(CFA_XSP16, literal(-7)))
          CFI R7 load(1, XDATA, add(CFA_XSP16, literal(-6)))
          CFI ?RET_LOW load(1, XDATA, add(CFA_XSP16, literal(-5)))
          CFI ?RET_HIGH load(1, XDATA, add(CFA_XSP16, literal(-4)))
          CFI ?BRET_EXT load(1, XDATA, add(CFA_XSP16, literal(-3)))
          CFI DPL0 load(1, XDATA, add(CFA_XSP16, literal(-2)))
          CFI DPH0 load(1, XDATA, add(CFA_XSP16, literal(-1)))
          CFI CFA_SP SP+-2
          CFI CFA_XSP16 add(XSP16, 10)
          CFI Block cfiCond235 Using cfiCommon0
          CFI (cfiCond235) Function gp_AddNotificationMsgNode
          CFI (cfiCond235) Conditional ??CrossCallReturnLabel_133
          CFI (cfiCond235) R6 load(1, XDATA, add(CFA_XSP16, literal(-12)))
          CFI (cfiCond235) VB load(1, XDATA, add(CFA_XSP16, literal(-11)))
          CFI (cfiCond235) V0 load(1, XDATA, add(CFA_XSP16, literal(-10)))
          CFI (cfiCond235) V1 load(1, XDATA, add(CFA_XSP16, literal(-9)))
          CFI (cfiCond235) V2 load(1, XDATA, add(CFA_XSP16, literal(-8)))
          CFI (cfiCond235) V3 load(1, XDATA, add(CFA_XSP16, literal(-7)))
          CFI (cfiCond235) R7 load(1, XDATA, add(CFA_XSP16, literal(-6)))
          CFI (cfiCond235) ?RET_LOW load(1, XDATA, add(CFA_XSP16, literal(-5)))
          CFI (cfiCond235) ?RET_HIGH load(1, XDATA, add(CFA_XSP16, literal(-4)))
          CFI (cfiCond235) ?BRET_EXT load(1, XDATA, add(CFA_XSP16, literal(-3)))
          CFI (cfiCond235) DPL0 load(1, XDATA, add(CFA_XSP16, literal(-2)))
          CFI (cfiCond235) DPH0 load(1, XDATA, add(CFA_XSP16, literal(-1)))
          CFI (cfiCond235) CFA_SP SP+-2
          CFI (cfiCond235) CFA_XSP16 add(XSP16, 12)
          CFI Block cfiCond236 Using cfiCommon0
          CFI (cfiCond236) Function gp_AddCmdPayloadMsgNode
          CFI (cfiCond236) Conditional ??CrossCallReturnLabel_134
          CFI (cfiCond236) R6 load(1, XDATA, add(CFA_XSP16, literal(-14)))
          CFI (cfiCond236) VB load(1, XDATA, add(CFA_XSP16, literal(-13)))
          CFI (cfiCond236) V0 load(1, XDATA, add(CFA_XSP16, literal(-12)))
          CFI (cfiCond236) V1 load(1, XDATA, add(CFA_XSP16, literal(-11)))
          CFI (cfiCond236) V2 load(1, XDATA, add(CFA_XSP16, literal(-10)))
          CFI (cfiCond236) V3 load(1, XDATA, add(CFA_XSP16, literal(-9)))
          CFI (cfiCond236) V4 load(1, XDATA, add(CFA_XSP16, literal(-8)))
          CFI (cfiCond236) V5 load(1, XDATA, add(CFA_XSP16, literal(-7)))
          CFI (cfiCond236) R7 load(1, XDATA, add(CFA_XSP16, literal(-6)))
          CFI (cfiCond236) ?RET_LOW load(1, XDATA, add(CFA_XSP16, literal(-5)))
          CFI (cfiCond236) ?RET_HIGH load(1, XDATA, add(CFA_XSP16, literal(-4)))
          CFI (cfiCond236) ?BRET_EXT load(1, XDATA, add(CFA_XSP16, literal(-3)))
          CFI (cfiCond236) DPL0 load(1, XDATA, add(CFA_XSP16, literal(-2)))
          CFI (cfiCond236) DPH0 load(1, XDATA, add(CFA_XSP16, literal(-1)))
          CFI (cfiCond236) CFA_SP SP+-2
          CFI (cfiCond236) CFA_XSP16 add(XSP16, 14)
          CFI Block cfiPicker237 Using cfiCommon1
          CFI (cfiPicker237) NoFunction
          CFI (cfiPicker237) Picker
        MOV       DPL,R6
        MOV       DPH,R7
          CFI EndBlock cfiCond234
          CFI EndBlock cfiCond235
          CFI EndBlock cfiCond236
          CFI EndBlock cfiPicker237
        REQUIRE ??Subroutine64_0
        ; // Fall through to label ??Subroutine64_0

        RSEG BANKED_CODE:HUGECODE:NOROOT(0)
??Subroutine64_0:
          CFI Block cfiCond238 Using cfiCommon0
          CFI Function zclGp_ProcessInProxyBasic
          CFI Conditional ??CrossCallReturnLabel_128
          CFI R6 load(1, XDATA, add(CFA_XSP16, literal(-15)))
          CFI VB load(1, XDATA, add(CFA_XSP16, literal(-14)))
          CFI V0 load(1, XDATA, add(CFA_XSP16, literal(-13)))
          CFI V1 load(1, XDATA, add(CFA_XSP16, literal(-12)))
          CFI V2 load(1, XDATA, add(CFA_XSP16, literal(-11)))
          CFI V3 load(1, XDATA, add(CFA_XSP16, literal(-10)))
          CFI V4 load(1, XDATA, add(CFA_XSP16, literal(-9)))
          CFI V5 load(1, XDATA, add(CFA_XSP16, literal(-8)))
          CFI V6 load(1, XDATA, add(CFA_XSP16, literal(-7)))
          CFI R7 load(1, XDATA, add(CFA_XSP16, literal(-6)))
          CFI ?RET_LOW load(1, XDATA, add(CFA_XSP16, literal(-5)))
          CFI ?RET_HIGH load(1, XDATA, add(CFA_XSP16, literal(-4)))
          CFI ?BRET_EXT load(1, XDATA, add(CFA_XSP16, literal(-3)))
          CFI DPL0 load(1, XDATA, add(CFA_XSP16, literal(-2)))
          CFI DPH0 load(1, XDATA, add(CFA_XSP16, literal(-1)))
          CFI CFA_SP SP+-2
          CFI CFA_XSP16 add(XSP16, 43)
          CFI Block cfiCond239 Using cfiCommon0
          CFI (cfiCond239) Function zclGp_ProcessInProxyBasic
          CFI (cfiCond239) Conditional ??CrossCallReturnLabel_129
          CFI (cfiCond239) R6 load(1, XDATA, add(CFA_XSP16, literal(-15)))
          CFI (cfiCond239) VB load(1, XDATA, add(CFA_XSP16, literal(-14)))
          CFI (cfiCond239) V0 load(1, XDATA, add(CFA_XSP16, literal(-13)))
          CFI (cfiCond239) V1 load(1, XDATA, add(CFA_XSP16, literal(-12)))
          CFI (cfiCond239) V2 load(1, XDATA, add(CFA_XSP16, literal(-11)))
          CFI (cfiCond239) V3 load(1, XDATA, add(CFA_XSP16, literal(-10)))
          CFI (cfiCond239) V4 load(1, XDATA, add(CFA_XSP16, literal(-9)))
          CFI (cfiCond239) V5 load(1, XDATA, add(CFA_XSP16, literal(-8)))
          CFI (cfiCond239) V6 load(1, XDATA, add(CFA_XSP16, literal(-7)))
          CFI (cfiCond239) R7 load(1, XDATA, add(CFA_XSP16, literal(-6)))
          CFI (cfiCond239) ?RET_LOW load(1, XDATA, add(CFA_XSP16, literal(-5)))
          CFI (cfiCond239) ?RET_HIGH load(1, XDATA, add(CFA_XSP16, literal(-4)))
          CFI (cfiCond239) ?BRET_EXT load(1, XDATA, add(CFA_XSP16, literal(-3)))
          CFI (cfiCond239) DPL0 load(1, XDATA, add(CFA_XSP16, literal(-2)))
          CFI (cfiCond239) DPH0 load(1, XDATA, add(CFA_XSP16, literal(-1)))
          CFI (cfiCond239) CFA_SP SP+-2
          CFI (cfiCond239) CFA_XSP16 add(XSP16, 43)
          CFI Block cfiCond240 Using cfiCommon0
          CFI (cfiCond240) Function zclGp_ProcessInProxyBasic
          CFI (cfiCond240) Conditional ??CrossCallReturnLabel_130
          CFI (cfiCond240) R6 load(1, XDATA, add(CFA_XSP16, literal(-15)))
          CFI (cfiCond240) VB load(1, XDATA, add(CFA_XSP16, literal(-14)))
          CFI (cfiCond240) V0 load(1, XDATA, add(CFA_XSP16, literal(-13)))
          CFI (cfiCond240) V1 load(1, XDATA, add(CFA_XSP16, literal(-12)))
          CFI (cfiCond240) V2 load(1, XDATA, add(CFA_XSP16, literal(-11)))
          CFI (cfiCond240) V3 load(1, XDATA, add(CFA_XSP16, literal(-10)))
          CFI (cfiCond240) V4 load(1, XDATA, add(CFA_XSP16, literal(-9)))
          CFI (cfiCond240) V5 load(1, XDATA, add(CFA_XSP16, literal(-8)))
          CFI (cfiCond240) V6 load(1, XDATA, add(CFA_XSP16, literal(-7)))
          CFI (cfiCond240) R7 load(1, XDATA, add(CFA_XSP16, literal(-6)))
          CFI (cfiCond240) ?RET_LOW load(1, XDATA, add(CFA_XSP16, literal(-5)))
          CFI (cfiCond240) ?RET_HIGH load(1, XDATA, add(CFA_XSP16, literal(-4)))
          CFI (cfiCond240) ?BRET_EXT load(1, XDATA, add(CFA_XSP16, literal(-3)))
          CFI (cfiCond240) DPL0 load(1, XDATA, add(CFA_XSP16, literal(-2)))
          CFI (cfiCond240) DPH0 load(1, XDATA, add(CFA_XSP16, literal(-1)))
          CFI (cfiCond240) CFA_SP SP+-2
          CFI (cfiCond240) CFA_XSP16 add(XSP16, 43)
          CFI Block cfiCond241 Using cfiCommon0
          CFI (cfiCond241) Function zclGp_SendGpNotificationCommand
          CFI (cfiCond241) Conditional ??CrossCallReturnLabel_131
          CFI (cfiCond241) R6 load(1, XDATA, add(CFA_XSP16, literal(-16)))
          CFI (cfiCond241) VB load(1, XDATA, add(CFA_XSP16, literal(-15)))
          CFI (cfiCond241) V0 load(1, XDATA, add(CFA_XSP16, literal(-14)))
          CFI (cfiCond241) V1 load(1, XDATA, add(CFA_XSP16, literal(-13)))
          CFI (cfiCond241) V2 load(1, XDATA, add(CFA_XSP16, literal(-12)))
          CFI (cfiCond241) V3 load(1, XDATA, add(CFA_XSP16, literal(-11)))
          CFI (cfiCond241) V4 load(1, XDATA, add(CFA_XSP16, literal(-10)))
          CFI (cfiCond241) V5 load(1, XDATA, add(CFA_XSP16, literal(-9)))
          CFI (cfiCond241) V6 load(1, XDATA, add(CFA_XSP16, literal(-8)))
          CFI (cfiCond241) V7 load(1, XDATA, add(CFA_XSP16, literal(-7)))
          CFI (cfiCond241) R7 load(1, XDATA, add(CFA_XSP16, literal(-6)))
          CFI (cfiCond241) ?RET_LOW load(1, XDATA, add(CFA_XSP16, literal(-5)))
          CFI (cfiCond241) ?RET_HIGH load(1, XDATA, add(CFA_XSP16, literal(-4)))
          CFI (cfiCond241) ?BRET_EXT load(1, XDATA, add(CFA_XSP16, literal(-3)))
          CFI (cfiCond241) DPL0 load(1, XDATA, add(CFA_XSP16, literal(-2)))
          CFI (cfiCond241) DPH0 load(1, XDATA, add(CFA_XSP16, literal(-1)))
          CFI (cfiCond241) CFA_SP SP+-2
          CFI (cfiCond241) CFA_XSP16 add(XSP16, 22)
          CFI Block cfiCond242 Using cfiCommon0
          CFI (cfiCond242) Function gp_CreateNotificationMsgList
          CFI (cfiCond242) Conditional ??CrossCallReturnLabel_132
          CFI (cfiCond242) R6 load(1, XDATA, add(CFA_XSP16, literal(-10)))
          CFI (cfiCond242) VB load(1, XDATA, add(CFA_XSP16, literal(-9)))
          CFI (cfiCond242) V0 load(1, XDATA, add(CFA_XSP16, literal(-8)))
          CFI (cfiCond242) V1 load(1, XDATA, add(CFA_XSP16, literal(-7)))
          CFI (cfiCond242) R7 load(1, XDATA, add(CFA_XSP16, literal(-6)))
          CFI (cfiCond242) ?RET_LOW load(1, XDATA, add(CFA_XSP16, literal(-5)))
          CFI (cfiCond242) ?RET_HIGH load(1, XDATA, add(CFA_XSP16, literal(-4)))
          CFI (cfiCond242) ?BRET_EXT load(1, XDATA, add(CFA_XSP16, literal(-3)))
          CFI (cfiCond242) DPL0 load(1, XDATA, add(CFA_XSP16, literal(-2)))
          CFI (cfiCond242) DPH0 load(1, XDATA, add(CFA_XSP16, literal(-1)))
          CFI (cfiCond242) CFA_SP SP+-2
          CFI (cfiCond242) CFA_XSP16 add(XSP16, 10)
          CFI Block cfiCond243 Using cfiCommon0
          CFI (cfiCond243) Function gp_AddNotificationMsgNode
          CFI (cfiCond243) Conditional ??CrossCallReturnLabel_133
          CFI (cfiCond243) R6 load(1, XDATA, add(CFA_XSP16, literal(-12)))
          CFI (cfiCond243) VB load(1, XDATA, add(CFA_XSP16, literal(-11)))
          CFI (cfiCond243) V0 load(1, XDATA, add(CFA_XSP16, literal(-10)))
          CFI (cfiCond243) V1 load(1, XDATA, add(CFA_XSP16, literal(-9)))
          CFI (cfiCond243) V2 load(1, XDATA, add(CFA_XSP16, literal(-8)))
          CFI (cfiCond243) V3 load(1, XDATA, add(CFA_XSP16, literal(-7)))
          CFI (cfiCond243) R7 load(1, XDATA, add(CFA_XSP16, literal(-6)))
          CFI (cfiCond243) ?RET_LOW load(1, XDATA, add(CFA_XSP16, literal(-5)))
          CFI (cfiCond243) ?RET_HIGH load(1, XDATA, add(CFA_XSP16, literal(-4)))
          CFI (cfiCond243) ?BRET_EXT load(1, XDATA, add(CFA_XSP16, literal(-3)))
          CFI (cfiCond243) DPL0 load(1, XDATA, add(CFA_XSP16, literal(-2)))
          CFI (cfiCond243) DPH0 load(1, XDATA, add(CFA_XSP16, literal(-1)))
          CFI (cfiCond243) CFA_SP SP+-2
          CFI (cfiCond243) CFA_XSP16 add(XSP16, 12)
          CFI Block cfiCond244 Using cfiCommon0
          CFI (cfiCond244) Function gp_AddCmdPayloadMsgNode
          CFI (cfiCond244) Conditional ??CrossCallReturnLabel_134
          CFI (cfiCond244) R6 load(1, XDATA, add(CFA_XSP16, literal(-14)))
          CFI (cfiCond244) VB load(1, XDATA, add(CFA_XSP16, literal(-13)))
          CFI (cfiCond244) V0 load(1, XDATA, add(CFA_XSP16, literal(-12)))
          CFI (cfiCond244) V1 load(1, XDATA, add(CFA_XSP16, literal(-11)))
          CFI (cfiCond244) V2 load(1, XDATA, add(CFA_XSP16, literal(-10)))
          CFI (cfiCond244) V3 load(1, XDATA, add(CFA_XSP16, literal(-9)))
          CFI (cfiCond244) V4 load(1, XDATA, add(CFA_XSP16, literal(-8)))
          CFI (cfiCond244) V5 load(1, XDATA, add(CFA_XSP16, literal(-7)))
          CFI (cfiCond244) R7 load(1, XDATA, add(CFA_XSP16, literal(-6)))
          CFI (cfiCond244) ?RET_LOW load(1, XDATA, add(CFA_XSP16, literal(-5)))
          CFI (cfiCond244) ?RET_HIGH load(1, XDATA, add(CFA_XSP16, literal(-4)))
          CFI (cfiCond244) ?BRET_EXT load(1, XDATA, add(CFA_XSP16, literal(-3)))
          CFI (cfiCond244) DPL0 load(1, XDATA, add(CFA_XSP16, literal(-2)))
          CFI (cfiCond244) DPH0 load(1, XDATA, add(CFA_XSP16, literal(-1)))
          CFI (cfiCond244) CFA_SP SP+-2
          CFI (cfiCond244) CFA_XSP16 add(XSP16, 14)
          CFI Block cfiPicker245 Using cfiCommon1
          CFI (cfiPicker245) NoFunction
          CFI (cfiPicker245) Picker
        MOV       A,R2
        MOVX      @DPTR,A
        INC       DPTR
        MOV       A,R3
        MOVX      @DPTR,A
        RET
          CFI EndBlock cfiCond238
          CFI EndBlock cfiCond239
          CFI EndBlock cfiCond240
          CFI EndBlock cfiCond241
          CFI EndBlock cfiCond242
          CFI EndBlock cfiCond243
          CFI EndBlock cfiCond244
          CFI EndBlock cfiPicker245
//  772 
//  773 /*********************************************************************
//  774  * @fn      gp_CreateCmdPayloadMsgList
//  775  *
//  776  * @brief   Create Notification Msg List for paired sinks if empty
//  777  *
//  778  * @param   pHead - pointer to a pointer of the list head
//  779  *
//  780  * @return  none
//  781  */

        RSEG BANKED_CODE:HUGECODE:NOROOT(0)
//  782 void gp_CreateCmdPayloadMsgList( gpCmdPayloadMsg_t **pHead )
gp_CreateCmdPayloadMsgList:
          CFI Block cfiBlock246 Using cfiCommon0
          CFI Function gp_CreateCmdPayloadMsgList
        CODE
//  783 {
        FUNCALL gp_CreateCmdPayloadMsgList, osal_mem_alloc
        LOCFRAME ISTACK, 0, STACK
        LOCFRAME PSTACK, 0, STACK
        LOCFRAME XSTACK, 10, STACK
        LOCFRAME IOVERLAY, 0, STATIC
        LOCFRAME DOVERLAY, 0, STATIC
        ARGFRAME ISTACK, 0, STACK
        ARGFRAME PSTACK, 0, STACK
        ARGFRAME XSTACK, 10, STACK
        ARGFRAME IOVERLAY, 0, STATIC
        ARGFRAME DOVERLAY, 0, STATIC
        REQUIRE ?V0
        REQUIRE ?V1
        MOV       A,#-0xa
        LCALL     ?BANKED_ENTER_XDATA
          CFI DPH0 load(1, XDATA, add(CFA_XSP16, literal(-1)))
          CFI DPL0 load(1, XDATA, add(CFA_XSP16, literal(-2)))
          CFI ?BRET_EXT load(1, XDATA, add(CFA_XSP16, literal(-3)))
          CFI ?RET_HIGH load(1, XDATA, add(CFA_XSP16, literal(-4)))
          CFI ?RET_LOW load(1, XDATA, add(CFA_XSP16, literal(-5)))
          CFI R7 load(1, XDATA, add(CFA_XSP16, literal(-6)))
          CFI V1 load(1, XDATA, add(CFA_XSP16, literal(-7)))
          CFI V0 load(1, XDATA, add(CFA_XSP16, literal(-8)))
          CFI VB load(1, XDATA, add(CFA_XSP16, literal(-9)))
          CFI R6 load(1, XDATA, add(CFA_XSP16, literal(-10)))
          CFI CFA_SP SP+0
          CFI CFA_XSP16 add(XSP16, 10)
        ; Saved register size: 10
        ; Auto size: 0
        LCALL     ?Subroutine6 & 0xFFFF
//  784 
//  785   // Create the list if empty
//  786   if ( *pHead == NULL )
??CrossCallReturnLabel_141:
        JNZ       ??gp_CreateCmdPayloadMsgList_0
//  787   {
//  788     *pHead = ( gpCmdPayloadMsg_t* )osal_mem_alloc( sizeof( gpCmdPayloadMsg_t ) );
        ; Setup parameters for call to function osal_mem_alloc
        MOV       R2,#0x6
        MOV       R3,#0x0
        LCALL     `??osal_mem_alloc::?relay`; Banked call to: osal_mem_alloc
        MOV       ?V1,R3
        MOV       R1,?V1
        MOV       DPL,R6
        MOV       DPH,R7
        MOV       A,R2
        MOVX      @DPTR,A
        INC       DPTR
        MOV       A,R3
        LCALL     ?Subroutine33 & 0xFFFF
//  789     ( ( gpCmdPayloadMsg_t* )*pHead )->pMsg = NULL;
??CrossCallReturnLabel_43:
        CLR       A
        MOVX      @DPTR,A
        INC       DPTR
        MOVX      @DPTR,A
//  790     
//  791     if ( *pHead != NULL )
        MOV       A,R2
        ORL       A,R1
        JZ        ??gp_CreateCmdPayloadMsgList_0
//  792     {
//  793       (*pHead)->pNext = NULL;
        MOV       DPL,R2
        MOV       DPH,R3
        INC       DPTR
        INC       DPTR
        INC       DPTR
        INC       DPTR
        CLR       A
        MOVX      @DPTR,A
        INC       DPTR
        MOVX      @DPTR,A
//  794     }
//  795   }
//  796   return;
??gp_CreateCmdPayloadMsgList_0:
        SJMP      ?Subroutine4
//  797 }
          CFI EndBlock cfiBlock246

        RSEG BANKED_CODE:HUGECODE:NOROOT(0)
?Subroutine33:
          CFI Block cfiCond247 Using cfiCommon0
          CFI Function zclGp_RegisterCmdCallbacks
          CFI Conditional ??CrossCallReturnLabel_41
          CFI R6 load(1, XDATA, add(CFA_XSP16, literal(-12)))
          CFI VB load(1, XDATA, add(CFA_XSP16, literal(-11)))
          CFI V0 load(1, XDATA, add(CFA_XSP16, literal(-10)))
          CFI V1 load(1, XDATA, add(CFA_XSP16, literal(-9)))
          CFI V2 load(1, XDATA, add(CFA_XSP16, literal(-8)))
          CFI V3 load(1, XDATA, add(CFA_XSP16, literal(-7)))
          CFI R7 load(1, XDATA, add(CFA_XSP16, literal(-6)))
          CFI ?RET_LOW load(1, XDATA, add(CFA_XSP16, literal(-5)))
          CFI ?RET_HIGH load(1, XDATA, add(CFA_XSP16, literal(-4)))
          CFI ?BRET_EXT load(1, XDATA, add(CFA_XSP16, literal(-3)))
          CFI DPL0 load(1, XDATA, add(CFA_XSP16, literal(-2)))
          CFI DPH0 load(1, XDATA, add(CFA_XSP16, literal(-1)))
          CFI CFA_SP SP+-2
          CFI CFA_XSP16 add(XSP16, 12)
          CFI Block cfiCond248 Using cfiCommon0
          CFI (cfiCond248) Function zclGp_RegisterCmdCallbacks
          CFI (cfiCond248) Conditional ??CrossCallReturnLabel_42
          CFI (cfiCond248) R6 load(1, XDATA, add(CFA_XSP16, literal(-12)))
          CFI (cfiCond248) VB load(1, XDATA, add(CFA_XSP16, literal(-11)))
          CFI (cfiCond248) V0 load(1, XDATA, add(CFA_XSP16, literal(-10)))
          CFI (cfiCond248) V1 load(1, XDATA, add(CFA_XSP16, literal(-9)))
          CFI (cfiCond248) V2 load(1, XDATA, add(CFA_XSP16, literal(-8)))
          CFI (cfiCond248) V3 load(1, XDATA, add(CFA_XSP16, literal(-7)))
          CFI (cfiCond248) R7 load(1, XDATA, add(CFA_XSP16, literal(-6)))
          CFI (cfiCond248) ?RET_LOW load(1, XDATA, add(CFA_XSP16, literal(-5)))
          CFI (cfiCond248) ?RET_HIGH load(1, XDATA, add(CFA_XSP16, literal(-4)))
          CFI (cfiCond248) ?BRET_EXT load(1, XDATA, add(CFA_XSP16, literal(-3)))
          CFI (cfiCond248) DPL0 load(1, XDATA, add(CFA_XSP16, literal(-2)))
          CFI (cfiCond248) DPH0 load(1, XDATA, add(CFA_XSP16, literal(-1)))
          CFI (cfiCond248) CFA_SP SP+-2
          CFI (cfiCond248) CFA_XSP16 add(XSP16, 12)
          CFI Block cfiCond249 Using cfiCommon0
          CFI (cfiCond249) Function gp_CreateCmdPayloadMsgList
          CFI (cfiCond249) Conditional ??CrossCallReturnLabel_43
          CFI (cfiCond249) R6 load(1, XDATA, add(CFA_XSP16, literal(-10)))
          CFI (cfiCond249) VB load(1, XDATA, add(CFA_XSP16, literal(-9)))
          CFI (cfiCond249) V0 load(1, XDATA, add(CFA_XSP16, literal(-8)))
          CFI (cfiCond249) V1 load(1, XDATA, add(CFA_XSP16, literal(-7)))
          CFI (cfiCond249) R7 load(1, XDATA, add(CFA_XSP16, literal(-6)))
          CFI (cfiCond249) ?RET_LOW load(1, XDATA, add(CFA_XSP16, literal(-5)))
          CFI (cfiCond249) ?RET_HIGH load(1, XDATA, add(CFA_XSP16, literal(-4)))
          CFI (cfiCond249) ?BRET_EXT load(1, XDATA, add(CFA_XSP16, literal(-3)))
          CFI (cfiCond249) DPL0 load(1, XDATA, add(CFA_XSP16, literal(-2)))
          CFI (cfiCond249) DPH0 load(1, XDATA, add(CFA_XSP16, literal(-1)))
          CFI (cfiCond249) CFA_SP SP+-2
          CFI (cfiCond249) CFA_XSP16 add(XSP16, 10)
          CFI Block cfiPicker250 Using cfiCommon1
          CFI (cfiPicker250) NoFunction
          CFI (cfiPicker250) Picker
        MOVX      @DPTR,A
        MOV       DPL,R2
        MOV       DPH,R3
        INC       DPTR
        INC       DPTR
        RET
          CFI EndBlock cfiCond247
          CFI EndBlock cfiCond248
          CFI EndBlock cfiCond249
          CFI EndBlock cfiPicker250
//  798 
//  799 /*********************************************************************
//  800  * @fn      gp_AddNotificationMsgNode
//  801  *
//  802  * @brief   Add node to Notification Msg list
//  803  *
//  804  * @param   pHead - pointer to a pointer of the list head
//  805  *
//  806  * @return  pointer to new node
//  807  */

        RSEG BANKED_CODE:HUGECODE:NOROOT(0)
//  808 gpNotificationMsg_t* gp_AddNotificationMsgNode( gpNotificationMsg_t **pHead, gpCmdPayloadMsg_t *pMsg )
gp_AddNotificationMsgNode:
          CFI Block cfiBlock251 Using cfiCommon0
          CFI Function gp_AddNotificationMsgNode
        CODE
//  809 {
        FUNCALL gp_AddNotificationMsgNode, gp_CreateNotificationMsgList
        LOCFRAME ISTACK, 0, STACK
        LOCFRAME PSTACK, 0, STACK
        LOCFRAME XSTACK, 12, STACK
        LOCFRAME IOVERLAY, 0, STATIC
        LOCFRAME DOVERLAY, 0, STATIC
        ARGFRAME ISTACK, 0, STACK
        ARGFRAME PSTACK, 0, STACK
        ARGFRAME XSTACK, 12, STACK
        ARGFRAME IOVERLAY, 0, STATIC
        ARGFRAME DOVERLAY, 0, STATIC
        FUNCALL gp_AddNotificationMsgNode, osal_mem_alloc
        LOCFRAME ISTACK, 0, STACK
        LOCFRAME PSTACK, 0, STACK
        LOCFRAME XSTACK, 12, STACK
        LOCFRAME IOVERLAY, 0, STATIC
        LOCFRAME DOVERLAY, 0, STATIC
        ARGFRAME ISTACK, 0, STACK
        ARGFRAME PSTACK, 0, STACK
        ARGFRAME XSTACK, 12, STACK
        ARGFRAME IOVERLAY, 0, STATIC
        ARGFRAME DOVERLAY, 0, STATIC
        REQUIRE ?V0
        REQUIRE ?V1
        REQUIRE ?V2
        REQUIRE ?V3
        MOV       A,#-0xc
        LCALL     ?BANKED_ENTER_XDATA
          CFI DPH0 load(1, XDATA, add(CFA_XSP16, literal(-1)))
          CFI DPL0 load(1, XDATA, add(CFA_XSP16, literal(-2)))
          CFI ?BRET_EXT load(1, XDATA, add(CFA_XSP16, literal(-3)))
          CFI ?RET_HIGH load(1, XDATA, add(CFA_XSP16, literal(-4)))
          CFI ?RET_LOW load(1, XDATA, add(CFA_XSP16, literal(-5)))
          CFI R7 load(1, XDATA, add(CFA_XSP16, literal(-6)))
          CFI V3 load(1, XDATA, add(CFA_XSP16, literal(-7)))
          CFI V2 load(1, XDATA, add(CFA_XSP16, literal(-8)))
          CFI V1 load(1, XDATA, add(CFA_XSP16, literal(-9)))
          CFI V0 load(1, XDATA, add(CFA_XSP16, literal(-10)))
          CFI VB load(1, XDATA, add(CFA_XSP16, literal(-11)))
          CFI R6 load(1, XDATA, add(CFA_XSP16, literal(-12)))
          CFI CFA_SP SP+0
          CFI CFA_XSP16 add(XSP16, 12)
        ; Saved register size: 12
        ; Auto size: 0
        MOV       A,R2
        MOV       R6,A
        MOV       A,R3
        MOV       R7,A
        MOV       ?V0,R4
        MOV       ?V1,R5
//  810   gpNotificationMsg_t **pCurr;
//  811   
//  812     // Create respondent list if empty
//  813   if ( *pHead == NULL )
        LCALL     ??Subroutine66_0 & 0xFFFF
??CrossCallReturnLabel_154:
        JNZ       ??gp_AddNotificationMsgNode_0
//  814   {
//  815     gp_CreateNotificationMsgList( pHead );
        ; Setup parameters for call to function gp_CreateNotificationMsgList
        LCALL     `??gp_CreateNotificationMsgList::?relay`; Banked call to: gp_CreateNotificationMsgList
//  816     ( ( gpNotificationMsg_t* ) *pHead )->pMsg = ( uint8* )pMsg;
        SJMP      ??gp_AddNotificationMsgNode_1
//  817     return *pHead;
//  818   }
//  819   
//  820   pCurr = &((*pHead)->pNext);
//  821   
//  822   while ( *pCurr != NULL )
//  823   {
//  824     pCurr = &((*pCurr)->pNext);
??gp_AddNotificationMsgNode_0:
        MOV       A,R0
        ADD       A,#0xf
        MOV       R6,A
        CLR       A
        ADDC      A,R1
        MOV       R7,A
//  825   }
        MOV       DPL,R6
        MOV       DPH,R7
        LCALL     ??Subroutine68_0 & 0xFFFF
??CrossCallReturnLabel_149:
        JNZ       ??gp_AddNotificationMsgNode_0
//  826 
//  827   *pCurr = ( gpNotificationMsg_t* )osal_mem_alloc( sizeof( gpNotificationMsg_t ) );
        ; Setup parameters for call to function osal_mem_alloc
        MOV       R2,#0x11
        MOV       R3,#0x0
        LCALL     `??osal_mem_alloc::?relay`; Banked call to: osal_mem_alloc
        MOV       ?V3,R3
        MOV       R1,?V3
        LCALL     ?Subroutine35 & 0xFFFF
//  828     
//  829   if ( (*pCurr)->pNext != NULL )
??CrossCallReturnLabel_133:
        MOV       A,R2
        ADD       A,#0xf
        MOV       R0,A
        JNC       ??gp_AddNotificationMsgNode_2
        INC       R1
??gp_AddNotificationMsgNode_2:
        LCALL     ?Subroutine12 & 0xFFFF
??CrossCallReturnLabel_138:
        JZ        ??gp_AddNotificationMsgNode_1
//  830   {
//  831     (*pCurr)->pNext = NULL;
        MOV       DPL,R0
        MOV       DPH,R1
        CLR       A
        MOVX      @DPTR,A
        INC       DPTR
        MOVX      @DPTR,A
//  832   }
//  833   ( ( gpNotificationMsg_t* ) *pCurr )->pMsg = ( uint8* )pMsg;
??gp_AddNotificationMsgNode_1:
        LCALL     ?Subroutine27 & 0xFFFF
??CrossCallReturnLabel_168:
        MOV       A,R2
        ADD       A,#0xd
        MOV       DPL,A
        CLR       A
        ADDC      A,R3
        MOV       DPH,A
        MOV       A,?V0
        MOVX      @DPTR,A
        INC       DPTR
        MOV       A,?V1
        MOVX      @DPTR,A
//  834   return *pCurr;
        LJMP      ?Subroutine0 & 0xFFFF
//  835 }
          CFI EndBlock cfiBlock251

        RSEG BANKED_CODE:HUGECODE:NOROOT(0)
?Subroutine12:
          CFI Block cfiCond252 Using cfiCommon0
          CFI Function gp_AddNotificationMsgNode
          CFI Conditional ??CrossCallReturnLabel_138
          CFI R6 load(1, XDATA, add(CFA_XSP16, literal(-12)))
          CFI VB load(1, XDATA, add(CFA_XSP16, literal(-11)))
          CFI V0 load(1, XDATA, add(CFA_XSP16, literal(-10)))
          CFI V1 load(1, XDATA, add(CFA_XSP16, literal(-9)))
          CFI V2 load(1, XDATA, add(CFA_XSP16, literal(-8)))
          CFI V3 load(1, XDATA, add(CFA_XSP16, literal(-7)))
          CFI R7 load(1, XDATA, add(CFA_XSP16, literal(-6)))
          CFI ?RET_LOW load(1, XDATA, add(CFA_XSP16, literal(-5)))
          CFI ?RET_HIGH load(1, XDATA, add(CFA_XSP16, literal(-4)))
          CFI ?BRET_EXT load(1, XDATA, add(CFA_XSP16, literal(-3)))
          CFI DPL0 load(1, XDATA, add(CFA_XSP16, literal(-2)))
          CFI DPH0 load(1, XDATA, add(CFA_XSP16, literal(-1)))
          CFI CFA_SP SP+-2
          CFI CFA_XSP16 add(XSP16, 12)
          CFI Block cfiCond253 Using cfiCommon0
          CFI (cfiCond253) Function gp_AddCmdPayloadMsgNode
          CFI (cfiCond253) Conditional ??CrossCallReturnLabel_139
          CFI (cfiCond253) R6 load(1, XDATA, add(CFA_XSP16, literal(-14)))
          CFI (cfiCond253) VB load(1, XDATA, add(CFA_XSP16, literal(-13)))
          CFI (cfiCond253) V0 load(1, XDATA, add(CFA_XSP16, literal(-12)))
          CFI (cfiCond253) V1 load(1, XDATA, add(CFA_XSP16, literal(-11)))
          CFI (cfiCond253) V2 load(1, XDATA, add(CFA_XSP16, literal(-10)))
          CFI (cfiCond253) V3 load(1, XDATA, add(CFA_XSP16, literal(-9)))
          CFI (cfiCond253) V4 load(1, XDATA, add(CFA_XSP16, literal(-8)))
          CFI (cfiCond253) V5 load(1, XDATA, add(CFA_XSP16, literal(-7)))
          CFI (cfiCond253) R7 load(1, XDATA, add(CFA_XSP16, literal(-6)))
          CFI (cfiCond253) ?RET_LOW load(1, XDATA, add(CFA_XSP16, literal(-5)))
          CFI (cfiCond253) ?RET_HIGH load(1, XDATA, add(CFA_XSP16, literal(-4)))
          CFI (cfiCond253) ?BRET_EXT load(1, XDATA, add(CFA_XSP16, literal(-3)))
          CFI (cfiCond253) DPL0 load(1, XDATA, add(CFA_XSP16, literal(-2)))
          CFI (cfiCond253) DPH0 load(1, XDATA, add(CFA_XSP16, literal(-1)))
          CFI (cfiCond253) CFA_SP SP+-2
          CFI (cfiCond253) CFA_XSP16 add(XSP16, 14)
          CFI Block cfiPicker254 Using cfiCommon1
          CFI (cfiPicker254) NoFunction
          CFI (cfiPicker254) Picker
        MOV       DPL,A
        MOV       DPH,R1
          CFI EndBlock cfiCond252
          CFI EndBlock cfiCond253
          CFI EndBlock cfiPicker254
        REQUIRE ??Subroutine65_0
        ; // Fall through to label ??Subroutine65_0

        RSEG BANKED_CODE:HUGECODE:NOROOT(0)
??Subroutine65_0:
          CFI Block cfiCond255 Using cfiCommon0
          CFI Function zclGp_RegisterCmdCallbacks
          CFI Conditional ??CrossCallReturnLabel_135
          CFI R6 load(1, XDATA, add(CFA_XSP16, literal(-12)))
          CFI VB load(1, XDATA, add(CFA_XSP16, literal(-11)))
          CFI V0 load(1, XDATA, add(CFA_XSP16, literal(-10)))
          CFI V1 load(1, XDATA, add(CFA_XSP16, literal(-9)))
          CFI V2 load(1, XDATA, add(CFA_XSP16, literal(-8)))
          CFI V3 load(1, XDATA, add(CFA_XSP16, literal(-7)))
          CFI R7 load(1, XDATA, add(CFA_XSP16, literal(-6)))
          CFI ?RET_LOW load(1, XDATA, add(CFA_XSP16, literal(-5)))
          CFI ?RET_HIGH load(1, XDATA, add(CFA_XSP16, literal(-4)))
          CFI ?BRET_EXT load(1, XDATA, add(CFA_XSP16, literal(-3)))
          CFI DPL0 load(1, XDATA, add(CFA_XSP16, literal(-2)))
          CFI DPH0 load(1, XDATA, add(CFA_XSP16, literal(-1)))
          CFI CFA_SP SP+-2
          CFI CFA_XSP16 add(XSP16, 12)
          CFI Block cfiCond256 Using cfiCommon0
          CFI (cfiCond256) Function zclGp_RegisterCmdCallbacks
          CFI (cfiCond256) Conditional ??CrossCallReturnLabel_136
          CFI (cfiCond256) R6 load(1, XDATA, add(CFA_XSP16, literal(-12)))
          CFI (cfiCond256) VB load(1, XDATA, add(CFA_XSP16, literal(-11)))
          CFI (cfiCond256) V0 load(1, XDATA, add(CFA_XSP16, literal(-10)))
          CFI (cfiCond256) V1 load(1, XDATA, add(CFA_XSP16, literal(-9)))
          CFI (cfiCond256) V2 load(1, XDATA, add(CFA_XSP16, literal(-8)))
          CFI (cfiCond256) V3 load(1, XDATA, add(CFA_XSP16, literal(-7)))
          CFI (cfiCond256) R7 load(1, XDATA, add(CFA_XSP16, literal(-6)))
          CFI (cfiCond256) ?RET_LOW load(1, XDATA, add(CFA_XSP16, literal(-5)))
          CFI (cfiCond256) ?RET_HIGH load(1, XDATA, add(CFA_XSP16, literal(-4)))
          CFI (cfiCond256) ?BRET_EXT load(1, XDATA, add(CFA_XSP16, literal(-3)))
          CFI (cfiCond256) DPL0 load(1, XDATA, add(CFA_XSP16, literal(-2)))
          CFI (cfiCond256) DPH0 load(1, XDATA, add(CFA_XSP16, literal(-1)))
          CFI (cfiCond256) CFA_SP SP+-2
          CFI (cfiCond256) CFA_XSP16 add(XSP16, 12)
          CFI Block cfiCond257 Using cfiCommon0
          CFI (cfiCond257) Function zclGp_ProcessInProxyBasic
          CFI (cfiCond257) Conditional ??CrossCallReturnLabel_137
          CFI (cfiCond257) R6 load(1, XDATA, add(CFA_XSP16, literal(-15)))
          CFI (cfiCond257) VB load(1, XDATA, add(CFA_XSP16, literal(-14)))
          CFI (cfiCond257) V0 load(1, XDATA, add(CFA_XSP16, literal(-13)))
          CFI (cfiCond257) V1 load(1, XDATA, add(CFA_XSP16, literal(-12)))
          CFI (cfiCond257) V2 load(1, XDATA, add(CFA_XSP16, literal(-11)))
          CFI (cfiCond257) V3 load(1, XDATA, add(CFA_XSP16, literal(-10)))
          CFI (cfiCond257) V4 load(1, XDATA, add(CFA_XSP16, literal(-9)))
          CFI (cfiCond257) V5 load(1, XDATA, add(CFA_XSP16, literal(-8)))
          CFI (cfiCond257) V6 load(1, XDATA, add(CFA_XSP16, literal(-7)))
          CFI (cfiCond257) R7 load(1, XDATA, add(CFA_XSP16, literal(-6)))
          CFI (cfiCond257) ?RET_LOW load(1, XDATA, add(CFA_XSP16, literal(-5)))
          CFI (cfiCond257) ?RET_HIGH load(1, XDATA, add(CFA_XSP16, literal(-4)))
          CFI (cfiCond257) ?BRET_EXT load(1, XDATA, add(CFA_XSP16, literal(-3)))
          CFI (cfiCond257) DPL0 load(1, XDATA, add(CFA_XSP16, literal(-2)))
          CFI (cfiCond257) DPH0 load(1, XDATA, add(CFA_XSP16, literal(-1)))
          CFI (cfiCond257) CFA_SP SP+-2
          CFI (cfiCond257) CFA_XSP16 add(XSP16, 43)
          CFI Block cfiCond258 Using cfiCommon0
          CFI (cfiCond258) Function gp_AddNotificationMsgNode
          CFI (cfiCond258) Conditional ??CrossCallReturnLabel_138
          CFI (cfiCond258) R6 load(1, XDATA, add(CFA_XSP16, literal(-12)))
          CFI (cfiCond258) VB load(1, XDATA, add(CFA_XSP16, literal(-11)))
          CFI (cfiCond258) V0 load(1, XDATA, add(CFA_XSP16, literal(-10)))
          CFI (cfiCond258) V1 load(1, XDATA, add(CFA_XSP16, literal(-9)))
          CFI (cfiCond258) V2 load(1, XDATA, add(CFA_XSP16, literal(-8)))
          CFI (cfiCond258) V3 load(1, XDATA, add(CFA_XSP16, literal(-7)))
          CFI (cfiCond258) R7 load(1, XDATA, add(CFA_XSP16, literal(-6)))
          CFI (cfiCond258) ?RET_LOW load(1, XDATA, add(CFA_XSP16, literal(-5)))
          CFI (cfiCond258) ?RET_HIGH load(1, XDATA, add(CFA_XSP16, literal(-4)))
          CFI (cfiCond258) ?BRET_EXT load(1, XDATA, add(CFA_XSP16, literal(-3)))
          CFI (cfiCond258) DPL0 load(1, XDATA, add(CFA_XSP16, literal(-2)))
          CFI (cfiCond258) DPH0 load(1, XDATA, add(CFA_XSP16, literal(-1)))
          CFI (cfiCond258) CFA_SP SP+-2
          CFI (cfiCond258) CFA_XSP16 add(XSP16, 12)
          CFI Block cfiCond259 Using cfiCommon0
          CFI (cfiCond259) Function gp_AddCmdPayloadMsgNode
          CFI (cfiCond259) Conditional ??CrossCallReturnLabel_139
          CFI (cfiCond259) R6 load(1, XDATA, add(CFA_XSP16, literal(-14)))
          CFI (cfiCond259) VB load(1, XDATA, add(CFA_XSP16, literal(-13)))
          CFI (cfiCond259) V0 load(1, XDATA, add(CFA_XSP16, literal(-12)))
          CFI (cfiCond259) V1 load(1, XDATA, add(CFA_XSP16, literal(-11)))
          CFI (cfiCond259) V2 load(1, XDATA, add(CFA_XSP16, literal(-10)))
          CFI (cfiCond259) V3 load(1, XDATA, add(CFA_XSP16, literal(-9)))
          CFI (cfiCond259) V4 load(1, XDATA, add(CFA_XSP16, literal(-8)))
          CFI (cfiCond259) V5 load(1, XDATA, add(CFA_XSP16, literal(-7)))
          CFI (cfiCond259) R7 load(1, XDATA, add(CFA_XSP16, literal(-6)))
          CFI (cfiCond259) ?RET_LOW load(1, XDATA, add(CFA_XSP16, literal(-5)))
          CFI (cfiCond259) ?RET_HIGH load(1, XDATA, add(CFA_XSP16, literal(-4)))
          CFI (cfiCond259) ?BRET_EXT load(1, XDATA, add(CFA_XSP16, literal(-3)))
          CFI (cfiCond259) DPL0 load(1, XDATA, add(CFA_XSP16, literal(-2)))
          CFI (cfiCond259) DPH0 load(1, XDATA, add(CFA_XSP16, literal(-1)))
          CFI (cfiCond259) CFA_SP SP+-2
          CFI (cfiCond259) CFA_XSP16 add(XSP16, 14)
          CFI Block cfiPicker260 Using cfiCommon1
          CFI (cfiPicker260) NoFunction
          CFI (cfiPicker260) Picker
        LCALL     ?Subroutine44 & 0xFFFF
??CrossCallReturnLabel_172:
        MOV       A,R2
        ORL       A,R3
        RET
          CFI EndBlock cfiCond255
          CFI EndBlock cfiCond256
          CFI EndBlock cfiCond257
          CFI EndBlock cfiCond258
          CFI EndBlock cfiCond259
          CFI EndBlock cfiPicker260

        RSEG BANKED_CODE:HUGECODE:NOROOT(0)
?Subroutine6:
          CFI Block cfiCond261 Using cfiCommon0
          CFI Function gp_CreateNotificationMsgList
          CFI Conditional ??CrossCallReturnLabel_140
          CFI R6 load(1, XDATA, add(CFA_XSP16, literal(-10)))
          CFI VB load(1, XDATA, add(CFA_XSP16, literal(-9)))
          CFI V0 load(1, XDATA, add(CFA_XSP16, literal(-8)))
          CFI V1 load(1, XDATA, add(CFA_XSP16, literal(-7)))
          CFI R7 load(1, XDATA, add(CFA_XSP16, literal(-6)))
          CFI ?RET_LOW load(1, XDATA, add(CFA_XSP16, literal(-5)))
          CFI ?RET_HIGH load(1, XDATA, add(CFA_XSP16, literal(-4)))
          CFI ?BRET_EXT load(1, XDATA, add(CFA_XSP16, literal(-3)))
          CFI DPL0 load(1, XDATA, add(CFA_XSP16, literal(-2)))
          CFI DPH0 load(1, XDATA, add(CFA_XSP16, literal(-1)))
          CFI CFA_SP SP+-2
          CFI CFA_XSP16 add(XSP16, 10)
          CFI Block cfiCond262 Using cfiCommon0
          CFI (cfiCond262) Function gp_CreateCmdPayloadMsgList
          CFI (cfiCond262) Conditional ??CrossCallReturnLabel_141
          CFI (cfiCond262) R6 load(1, XDATA, add(CFA_XSP16, literal(-10)))
          CFI (cfiCond262) VB load(1, XDATA, add(CFA_XSP16, literal(-9)))
          CFI (cfiCond262) V0 load(1, XDATA, add(CFA_XSP16, literal(-8)))
          CFI (cfiCond262) V1 load(1, XDATA, add(CFA_XSP16, literal(-7)))
          CFI (cfiCond262) R7 load(1, XDATA, add(CFA_XSP16, literal(-6)))
          CFI (cfiCond262) ?RET_LOW load(1, XDATA, add(CFA_XSP16, literal(-5)))
          CFI (cfiCond262) ?RET_HIGH load(1, XDATA, add(CFA_XSP16, literal(-4)))
          CFI (cfiCond262) ?BRET_EXT load(1, XDATA, add(CFA_XSP16, literal(-3)))
          CFI (cfiCond262) DPL0 load(1, XDATA, add(CFA_XSP16, literal(-2)))
          CFI (cfiCond262) DPH0 load(1, XDATA, add(CFA_XSP16, literal(-1)))
          CFI (cfiCond262) CFA_SP SP+-2
          CFI (cfiCond262) CFA_XSP16 add(XSP16, 10)
          CFI Block cfiPicker263 Using cfiCommon1
          CFI (cfiPicker263) NoFunction
          CFI (cfiPicker263) Picker
        MOV       A,R2
        MOV       R6,A
        MOV       A,R3
        MOV       R7,A
          CFI EndBlock cfiCond261
          CFI EndBlock cfiCond262
          CFI EndBlock cfiPicker263
        REQUIRE ??Subroutine66_0
        ; // Fall through to label ??Subroutine66_0

        RSEG BANKED_CODE:HUGECODE:NOROOT(0)
??Subroutine66_0:
          CFI Block cfiCond264 Using cfiCommon0
          CFI Function gp_AddNotificationMsgNode
          CFI Conditional ??CrossCallReturnLabel_154
          CFI R6 load(1, XDATA, add(CFA_XSP16, literal(-12)))
          CFI VB load(1, XDATA, add(CFA_XSP16, literal(-11)))
          CFI V0 load(1, XDATA, add(CFA_XSP16, literal(-10)))
          CFI V1 load(1, XDATA, add(CFA_XSP16, literal(-9)))
          CFI V2 load(1, XDATA, add(CFA_XSP16, literal(-8)))
          CFI V3 load(1, XDATA, add(CFA_XSP16, literal(-7)))
          CFI R7 load(1, XDATA, add(CFA_XSP16, literal(-6)))
          CFI ?RET_LOW load(1, XDATA, add(CFA_XSP16, literal(-5)))
          CFI ?RET_HIGH load(1, XDATA, add(CFA_XSP16, literal(-4)))
          CFI ?BRET_EXT load(1, XDATA, add(CFA_XSP16, literal(-3)))
          CFI DPL0 load(1, XDATA, add(CFA_XSP16, literal(-2)))
          CFI DPH0 load(1, XDATA, add(CFA_XSP16, literal(-1)))
          CFI CFA_SP SP+-2
          CFI CFA_XSP16 add(XSP16, 12)
          CFI Block cfiCond265 Using cfiCommon0
          CFI (cfiCond265) Function gp_AddCmdPayloadMsgNode
          CFI (cfiCond265) Conditional ??CrossCallReturnLabel_155
          CFI (cfiCond265) R6 load(1, XDATA, add(CFA_XSP16, literal(-14)))
          CFI (cfiCond265) VB load(1, XDATA, add(CFA_XSP16, literal(-13)))
          CFI (cfiCond265) V0 load(1, XDATA, add(CFA_XSP16, literal(-12)))
          CFI (cfiCond265) V1 load(1, XDATA, add(CFA_XSP16, literal(-11)))
          CFI (cfiCond265) V2 load(1, XDATA, add(CFA_XSP16, literal(-10)))
          CFI (cfiCond265) V3 load(1, XDATA, add(CFA_XSP16, literal(-9)))
          CFI (cfiCond265) V4 load(1, XDATA, add(CFA_XSP16, literal(-8)))
          CFI (cfiCond265) V5 load(1, XDATA, add(CFA_XSP16, literal(-7)))
          CFI (cfiCond265) R7 load(1, XDATA, add(CFA_XSP16, literal(-6)))
          CFI (cfiCond265) ?RET_LOW load(1, XDATA, add(CFA_XSP16, literal(-5)))
          CFI (cfiCond265) ?RET_HIGH load(1, XDATA, add(CFA_XSP16, literal(-4)))
          CFI (cfiCond265) ?BRET_EXT load(1, XDATA, add(CFA_XSP16, literal(-3)))
          CFI (cfiCond265) DPL0 load(1, XDATA, add(CFA_XSP16, literal(-2)))
          CFI (cfiCond265) DPH0 load(1, XDATA, add(CFA_XSP16, literal(-1)))
          CFI (cfiCond265) CFA_SP SP+-2
          CFI (cfiCond265) CFA_XSP16 add(XSP16, 14)
          CFI Block cfiCond266 Using cfiCommon0
          CFI (cfiCond266) Function gp_CreateNotificationMsgList
          CFI (cfiCond266) Conditional ??CrossCallReturnLabel_140
          CFI (cfiCond266) R6 load(1, XDATA, add(CFA_XSP16, literal(-10)))
          CFI (cfiCond266) VB load(1, XDATA, add(CFA_XSP16, literal(-9)))
          CFI (cfiCond266) V0 load(1, XDATA, add(CFA_XSP16, literal(-8)))
          CFI (cfiCond266) V1 load(1, XDATA, add(CFA_XSP16, literal(-7)))
          CFI (cfiCond266) R7 load(1, XDATA, add(CFA_XSP16, literal(-6)))
          CFI (cfiCond266) ?RET_LOW load(1, XDATA, add(CFA_XSP16, literal(-5)))
          CFI (cfiCond266) ?RET_HIGH load(1, XDATA, add(CFA_XSP16, literal(-4)))
          CFI (cfiCond266) ?BRET_EXT load(1, XDATA, add(CFA_XSP16, literal(-3)))
          CFI (cfiCond266) DPL0 load(1, XDATA, add(CFA_XSP16, literal(-2)))
          CFI (cfiCond266) DPH0 load(1, XDATA, add(CFA_XSP16, literal(-1)))
          CFI (cfiCond266) CFA_SP SP+-2
          CFI (cfiCond266) CFA_XSP16 add(XSP16, 10)
          CFI Block cfiCond267 Using cfiCommon0
          CFI (cfiCond267) Function gp_CreateCmdPayloadMsgList
          CFI (cfiCond267) Conditional ??CrossCallReturnLabel_141
          CFI (cfiCond267) R6 load(1, XDATA, add(CFA_XSP16, literal(-10)))
          CFI (cfiCond267) VB load(1, XDATA, add(CFA_XSP16, literal(-9)))
          CFI (cfiCond267) V0 load(1, XDATA, add(CFA_XSP16, literal(-8)))
          CFI (cfiCond267) V1 load(1, XDATA, add(CFA_XSP16, literal(-7)))
          CFI (cfiCond267) R7 load(1, XDATA, add(CFA_XSP16, literal(-6)))
          CFI (cfiCond267) ?RET_LOW load(1, XDATA, add(CFA_XSP16, literal(-5)))
          CFI (cfiCond267) ?RET_HIGH load(1, XDATA, add(CFA_XSP16, literal(-4)))
          CFI (cfiCond267) ?BRET_EXT load(1, XDATA, add(CFA_XSP16, literal(-3)))
          CFI (cfiCond267) DPL0 load(1, XDATA, add(CFA_XSP16, literal(-2)))
          CFI (cfiCond267) DPH0 load(1, XDATA, add(CFA_XSP16, literal(-1)))
          CFI (cfiCond267) CFA_SP SP+-2
          CFI (cfiCond267) CFA_XSP16 add(XSP16, 10)
          CFI Block cfiPicker268 Using cfiCommon1
          CFI (cfiPicker268) NoFunction
          CFI (cfiPicker268) Picker
        MOV       DPL,R2
          CFI EndBlock cfiCond264
          CFI EndBlock cfiCond265
          CFI EndBlock cfiCond266
          CFI EndBlock cfiCond267
          CFI EndBlock cfiPicker268
        REQUIRE ??Subroutine67_0
        ; // Fall through to label ??Subroutine67_0

        RSEG BANKED_CODE:HUGECODE:NOROOT(0)
??Subroutine67_0:
          CFI Block cfiCond269 Using cfiCommon0
          CFI Function zclGp_ProcessInProxyBasic
          CFI Conditional ??CrossCallReturnLabel_152
          CFI R6 load(1, XDATA, add(CFA_XSP16, literal(-15)))
          CFI VB load(1, XDATA, add(CFA_XSP16, literal(-14)))
          CFI V0 load(1, XDATA, add(CFA_XSP16, literal(-13)))
          CFI V1 load(1, XDATA, add(CFA_XSP16, literal(-12)))
          CFI V2 load(1, XDATA, add(CFA_XSP16, literal(-11)))
          CFI V3 load(1, XDATA, add(CFA_XSP16, literal(-10)))
          CFI V4 load(1, XDATA, add(CFA_XSP16, literal(-9)))
          CFI V5 load(1, XDATA, add(CFA_XSP16, literal(-8)))
          CFI V6 load(1, XDATA, add(CFA_XSP16, literal(-7)))
          CFI R7 load(1, XDATA, add(CFA_XSP16, literal(-6)))
          CFI ?RET_LOW load(1, XDATA, add(CFA_XSP16, literal(-5)))
          CFI ?RET_HIGH load(1, XDATA, add(CFA_XSP16, literal(-4)))
          CFI ?BRET_EXT load(1, XDATA, add(CFA_XSP16, literal(-3)))
          CFI DPL0 load(1, XDATA, add(CFA_XSP16, literal(-2)))
          CFI DPH0 load(1, XDATA, add(CFA_XSP16, literal(-1)))
          CFI CFA_SP SP+-2
          CFI CFA_XSP16 add(XSP16, 43)
          CFI Block cfiCond270 Using cfiCommon0
          CFI (cfiCond270) Function zclGp_ProcessInProxyBasic
          CFI (cfiCond270) Conditional ??CrossCallReturnLabel_153
          CFI (cfiCond270) R6 load(1, XDATA, add(CFA_XSP16, literal(-15)))
          CFI (cfiCond270) VB load(1, XDATA, add(CFA_XSP16, literal(-14)))
          CFI (cfiCond270) V0 load(1, XDATA, add(CFA_XSP16, literal(-13)))
          CFI (cfiCond270) V1 load(1, XDATA, add(CFA_XSP16, literal(-12)))
          CFI (cfiCond270) V2 load(1, XDATA, add(CFA_XSP16, literal(-11)))
          CFI (cfiCond270) V3 load(1, XDATA, add(CFA_XSP16, literal(-10)))
          CFI (cfiCond270) V4 load(1, XDATA, add(CFA_XSP16, literal(-9)))
          CFI (cfiCond270) V5 load(1, XDATA, add(CFA_XSP16, literal(-8)))
          CFI (cfiCond270) V6 load(1, XDATA, add(CFA_XSP16, literal(-7)))
          CFI (cfiCond270) R7 load(1, XDATA, add(CFA_XSP16, literal(-6)))
          CFI (cfiCond270) ?RET_LOW load(1, XDATA, add(CFA_XSP16, literal(-5)))
          CFI (cfiCond270) ?RET_HIGH load(1, XDATA, add(CFA_XSP16, literal(-4)))
          CFI (cfiCond270) ?BRET_EXT load(1, XDATA, add(CFA_XSP16, literal(-3)))
          CFI (cfiCond270) DPL0 load(1, XDATA, add(CFA_XSP16, literal(-2)))
          CFI (cfiCond270) DPH0 load(1, XDATA, add(CFA_XSP16, literal(-1)))
          CFI (cfiCond270) CFA_SP SP+-2
          CFI (cfiCond270) CFA_XSP16 add(XSP16, 43)
          CFI Block cfiCond271 Using cfiCommon0
          CFI (cfiCond271) Function gp_AddNotificationMsgNode
          CFI (cfiCond271) Conditional ??CrossCallReturnLabel_154
          CFI (cfiCond271) R6 load(1, XDATA, add(CFA_XSP16, literal(-12)))
          CFI (cfiCond271) VB load(1, XDATA, add(CFA_XSP16, literal(-11)))
          CFI (cfiCond271) V0 load(1, XDATA, add(CFA_XSP16, literal(-10)))
          CFI (cfiCond271) V1 load(1, XDATA, add(CFA_XSP16, literal(-9)))
          CFI (cfiCond271) V2 load(1, XDATA, add(CFA_XSP16, literal(-8)))
          CFI (cfiCond271) V3 load(1, XDATA, add(CFA_XSP16, literal(-7)))
          CFI (cfiCond271) R7 load(1, XDATA, add(CFA_XSP16, literal(-6)))
          CFI (cfiCond271) ?RET_LOW load(1, XDATA, add(CFA_XSP16, literal(-5)))
          CFI (cfiCond271) ?RET_HIGH load(1, XDATA, add(CFA_XSP16, literal(-4)))
          CFI (cfiCond271) ?BRET_EXT load(1, XDATA, add(CFA_XSP16, literal(-3)))
          CFI (cfiCond271) DPL0 load(1, XDATA, add(CFA_XSP16, literal(-2)))
          CFI (cfiCond271) DPH0 load(1, XDATA, add(CFA_XSP16, literal(-1)))
          CFI (cfiCond271) CFA_SP SP+-2
          CFI (cfiCond271) CFA_XSP16 add(XSP16, 12)
          CFI Block cfiCond272 Using cfiCommon0
          CFI (cfiCond272) Function gp_AddCmdPayloadMsgNode
          CFI (cfiCond272) Conditional ??CrossCallReturnLabel_155
          CFI (cfiCond272) R6 load(1, XDATA, add(CFA_XSP16, literal(-14)))
          CFI (cfiCond272) VB load(1, XDATA, add(CFA_XSP16, literal(-13)))
          CFI (cfiCond272) V0 load(1, XDATA, add(CFA_XSP16, literal(-12)))
          CFI (cfiCond272) V1 load(1, XDATA, add(CFA_XSP16, literal(-11)))
          CFI (cfiCond272) V2 load(1, XDATA, add(CFA_XSP16, literal(-10)))
          CFI (cfiCond272) V3 load(1, XDATA, add(CFA_XSP16, literal(-9)))
          CFI (cfiCond272) V4 load(1, XDATA, add(CFA_XSP16, literal(-8)))
          CFI (cfiCond272) V5 load(1, XDATA, add(CFA_XSP16, literal(-7)))
          CFI (cfiCond272) R7 load(1, XDATA, add(CFA_XSP16, literal(-6)))
          CFI (cfiCond272) ?RET_LOW load(1, XDATA, add(CFA_XSP16, literal(-5)))
          CFI (cfiCond272) ?RET_HIGH load(1, XDATA, add(CFA_XSP16, literal(-4)))
          CFI (cfiCond272) ?BRET_EXT load(1, XDATA, add(CFA_XSP16, literal(-3)))
          CFI (cfiCond272) DPL0 load(1, XDATA, add(CFA_XSP16, literal(-2)))
          CFI (cfiCond272) DPH0 load(1, XDATA, add(CFA_XSP16, literal(-1)))
          CFI (cfiCond272) CFA_SP SP+-2
          CFI (cfiCond272) CFA_XSP16 add(XSP16, 14)
          CFI Block cfiCond273 Using cfiCommon0
          CFI (cfiCond273) Function gp_CreateNotificationMsgList
          CFI (cfiCond273) Conditional ??CrossCallReturnLabel_140
          CFI (cfiCond273) R6 load(1, XDATA, add(CFA_XSP16, literal(-10)))
          CFI (cfiCond273) VB load(1, XDATA, add(CFA_XSP16, literal(-9)))
          CFI (cfiCond273) V0 load(1, XDATA, add(CFA_XSP16, literal(-8)))
          CFI (cfiCond273) V1 load(1, XDATA, add(CFA_XSP16, literal(-7)))
          CFI (cfiCond273) R7 load(1, XDATA, add(CFA_XSP16, literal(-6)))
          CFI (cfiCond273) ?RET_LOW load(1, XDATA, add(CFA_XSP16, literal(-5)))
          CFI (cfiCond273) ?RET_HIGH load(1, XDATA, add(CFA_XSP16, literal(-4)))
          CFI (cfiCond273) ?BRET_EXT load(1, XDATA, add(CFA_XSP16, literal(-3)))
          CFI (cfiCond273) DPL0 load(1, XDATA, add(CFA_XSP16, literal(-2)))
          CFI (cfiCond273) DPH0 load(1, XDATA, add(CFA_XSP16, literal(-1)))
          CFI (cfiCond273) CFA_SP SP+-2
          CFI (cfiCond273) CFA_XSP16 add(XSP16, 10)
          CFI Block cfiCond274 Using cfiCommon0
          CFI (cfiCond274) Function gp_CreateCmdPayloadMsgList
          CFI (cfiCond274) Conditional ??CrossCallReturnLabel_141
          CFI (cfiCond274) R6 load(1, XDATA, add(CFA_XSP16, literal(-10)))
          CFI (cfiCond274) VB load(1, XDATA, add(CFA_XSP16, literal(-9)))
          CFI (cfiCond274) V0 load(1, XDATA, add(CFA_XSP16, literal(-8)))
          CFI (cfiCond274) V1 load(1, XDATA, add(CFA_XSP16, literal(-7)))
          CFI (cfiCond274) R7 load(1, XDATA, add(CFA_XSP16, literal(-6)))
          CFI (cfiCond274) ?RET_LOW load(1, XDATA, add(CFA_XSP16, literal(-5)))
          CFI (cfiCond274) ?RET_HIGH load(1, XDATA, add(CFA_XSP16, literal(-4)))
          CFI (cfiCond274) ?BRET_EXT load(1, XDATA, add(CFA_XSP16, literal(-3)))
          CFI (cfiCond274) DPL0 load(1, XDATA, add(CFA_XSP16, literal(-2)))
          CFI (cfiCond274) DPH0 load(1, XDATA, add(CFA_XSP16, literal(-1)))
          CFI (cfiCond274) CFA_SP SP+-2
          CFI (cfiCond274) CFA_XSP16 add(XSP16, 10)
          CFI Block cfiPicker275 Using cfiCommon1
          CFI (cfiPicker275) NoFunction
          CFI (cfiPicker275) Picker
        MOV       DPH,A
          CFI EndBlock cfiCond269
          CFI EndBlock cfiCond270
          CFI EndBlock cfiCond271
          CFI EndBlock cfiCond272
          CFI EndBlock cfiCond273
          CFI EndBlock cfiCond274
          CFI EndBlock cfiPicker275
        REQUIRE ??Subroutine68_0
        ; // Fall through to label ??Subroutine68_0

        RSEG BANKED_CODE:HUGECODE:NOROOT(0)
??Subroutine68_0:
          CFI Block cfiCond276 Using cfiCommon0
          CFI Function zclGp_HdlIncoming
          CFI Conditional ??CrossCallReturnLabel_142
          CFI R6 load(1, XDATA, add(CFA_XSP16, literal(-9)))
          CFI VB load(1, XDATA, add(CFA_XSP16, literal(-8)))
          CFI V0 load(1, XDATA, add(CFA_XSP16, literal(-7)))
          CFI R7 load(1, XDATA, add(CFA_XSP16, literal(-6)))
          CFI ?RET_LOW load(1, XDATA, add(CFA_XSP16, literal(-5)))
          CFI ?RET_HIGH load(1, XDATA, add(CFA_XSP16, literal(-4)))
          CFI ?BRET_EXT load(1, XDATA, add(CFA_XSP16, literal(-3)))
          CFI DPL0 load(1, XDATA, add(CFA_XSP16, literal(-2)))
          CFI DPH0 load(1, XDATA, add(CFA_XSP16, literal(-1)))
          CFI CFA_SP SP+-2
          CFI CFA_XSP16 add(XSP16, 9)
          CFI Block cfiCond277 Using cfiCommon0
          CFI (cfiCond277) Function zclGp_ProcessInProxyBasic
          CFI (cfiCond277) Conditional ??CrossCallReturnLabel_143
          CFI (cfiCond277) R6 load(1, XDATA, add(CFA_XSP16, literal(-15)))
          CFI (cfiCond277) VB load(1, XDATA, add(CFA_XSP16, literal(-14)))
          CFI (cfiCond277) V0 load(1, XDATA, add(CFA_XSP16, literal(-13)))
          CFI (cfiCond277) V1 load(1, XDATA, add(CFA_XSP16, literal(-12)))
          CFI (cfiCond277) V2 load(1, XDATA, add(CFA_XSP16, literal(-11)))
          CFI (cfiCond277) V3 load(1, XDATA, add(CFA_XSP16, literal(-10)))
          CFI (cfiCond277) V4 load(1, XDATA, add(CFA_XSP16, literal(-9)))
          CFI (cfiCond277) V5 load(1, XDATA, add(CFA_XSP16, literal(-8)))
          CFI (cfiCond277) V6 load(1, XDATA, add(CFA_XSP16, literal(-7)))
          CFI (cfiCond277) R7 load(1, XDATA, add(CFA_XSP16, literal(-6)))
          CFI (cfiCond277) ?RET_LOW load(1, XDATA, add(CFA_XSP16, literal(-5)))
          CFI (cfiCond277) ?RET_HIGH load(1, XDATA, add(CFA_XSP16, literal(-4)))
          CFI (cfiCond277) ?BRET_EXT load(1, XDATA, add(CFA_XSP16, literal(-3)))
          CFI (cfiCond277) DPL0 load(1, XDATA, add(CFA_XSP16, literal(-2)))
          CFI (cfiCond277) DPH0 load(1, XDATA, add(CFA_XSP16, literal(-1)))
          CFI (cfiCond277) CFA_SP SP+-2
          CFI (cfiCond277) CFA_XSP16 add(XSP16, 43)
          CFI Block cfiCond278 Using cfiCommon0
          CFI (cfiCond278) Function zclGp_ProcessInProxyBasic
          CFI (cfiCond278) Conditional ??CrossCallReturnLabel_144
          CFI (cfiCond278) R6 load(1, XDATA, add(CFA_XSP16, literal(-15)))
          CFI (cfiCond278) VB load(1, XDATA, add(CFA_XSP16, literal(-14)))
          CFI (cfiCond278) V0 load(1, XDATA, add(CFA_XSP16, literal(-13)))
          CFI (cfiCond278) V1 load(1, XDATA, add(CFA_XSP16, literal(-12)))
          CFI (cfiCond278) V2 load(1, XDATA, add(CFA_XSP16, literal(-11)))
          CFI (cfiCond278) V3 load(1, XDATA, add(CFA_XSP16, literal(-10)))
          CFI (cfiCond278) V4 load(1, XDATA, add(CFA_XSP16, literal(-9)))
          CFI (cfiCond278) V5 load(1, XDATA, add(CFA_XSP16, literal(-8)))
          CFI (cfiCond278) V6 load(1, XDATA, add(CFA_XSP16, literal(-7)))
          CFI (cfiCond278) R7 load(1, XDATA, add(CFA_XSP16, literal(-6)))
          CFI (cfiCond278) ?RET_LOW load(1, XDATA, add(CFA_XSP16, literal(-5)))
          CFI (cfiCond278) ?RET_HIGH load(1, XDATA, add(CFA_XSP16, literal(-4)))
          CFI (cfiCond278) ?BRET_EXT load(1, XDATA, add(CFA_XSP16, literal(-3)))
          CFI (cfiCond278) DPL0 load(1, XDATA, add(CFA_XSP16, literal(-2)))
          CFI (cfiCond278) DPH0 load(1, XDATA, add(CFA_XSP16, literal(-1)))
          CFI (cfiCond278) CFA_SP SP+-2
          CFI (cfiCond278) CFA_XSP16 add(XSP16, 43)
          CFI Block cfiCond279 Using cfiCommon0
          CFI (cfiCond279) Function zclGp_SendGpNotificationCommand
          CFI (cfiCond279) Conditional ??CrossCallReturnLabel_145
          CFI (cfiCond279) R6 load(1, XDATA, add(CFA_XSP16, literal(-16)))
          CFI (cfiCond279) VB load(1, XDATA, add(CFA_XSP16, literal(-15)))
          CFI (cfiCond279) V0 load(1, XDATA, add(CFA_XSP16, literal(-14)))
          CFI (cfiCond279) V1 load(1, XDATA, add(CFA_XSP16, literal(-13)))
          CFI (cfiCond279) V2 load(1, XDATA, add(CFA_XSP16, literal(-12)))
          CFI (cfiCond279) V3 load(1, XDATA, add(CFA_XSP16, literal(-11)))
          CFI (cfiCond279) V4 load(1, XDATA, add(CFA_XSP16, literal(-10)))
          CFI (cfiCond279) V5 load(1, XDATA, add(CFA_XSP16, literal(-9)))
          CFI (cfiCond279) V6 load(1, XDATA, add(CFA_XSP16, literal(-8)))
          CFI (cfiCond279) V7 load(1, XDATA, add(CFA_XSP16, literal(-7)))
          CFI (cfiCond279) R7 load(1, XDATA, add(CFA_XSP16, literal(-6)))
          CFI (cfiCond279) ?RET_LOW load(1, XDATA, add(CFA_XSP16, literal(-5)))
          CFI (cfiCond279) ?RET_HIGH load(1, XDATA, add(CFA_XSP16, literal(-4)))
          CFI (cfiCond279) ?BRET_EXT load(1, XDATA, add(CFA_XSP16, literal(-3)))
          CFI (cfiCond279) DPL0 load(1, XDATA, add(CFA_XSP16, literal(-2)))
          CFI (cfiCond279) DPH0 load(1, XDATA, add(CFA_XSP16, literal(-1)))
          CFI (cfiCond279) CFA_SP SP+-2
          CFI (cfiCond279) CFA_XSP16 add(XSP16, 22)
          CFI Block cfiCond280 Using cfiCommon0
          CFI (cfiCond280) Function zclGp_SendGpCommissioningNotificationCommand
          CFI (cfiCond280) Conditional ??CrossCallReturnLabel_146
          CFI (cfiCond280) R6 load(1, XDATA, add(CFA_XSP16, literal(-16)))
          CFI (cfiCond280) VB load(1, XDATA, add(CFA_XSP16, literal(-15)))
          CFI (cfiCond280) V0 load(1, XDATA, add(CFA_XSP16, literal(-14)))
          CFI (cfiCond280) V1 load(1, XDATA, add(CFA_XSP16, literal(-13)))
          CFI (cfiCond280) V2 load(1, XDATA, add(CFA_XSP16, literal(-12)))
          CFI (cfiCond280) V3 load(1, XDATA, add(CFA_XSP16, literal(-11)))
          CFI (cfiCond280) V4 load(1, XDATA, add(CFA_XSP16, literal(-10)))
          CFI (cfiCond280) V5 load(1, XDATA, add(CFA_XSP16, literal(-9)))
          CFI (cfiCond280) V6 load(1, XDATA, add(CFA_XSP16, literal(-8)))
          CFI (cfiCond280) V7 load(1, XDATA, add(CFA_XSP16, literal(-7)))
          CFI (cfiCond280) R7 load(1, XDATA, add(CFA_XSP16, literal(-6)))
          CFI (cfiCond280) ?RET_LOW load(1, XDATA, add(CFA_XSP16, literal(-5)))
          CFI (cfiCond280) ?RET_HIGH load(1, XDATA, add(CFA_XSP16, literal(-4)))
          CFI (cfiCond280) ?BRET_EXT load(1, XDATA, add(CFA_XSP16, literal(-3)))
          CFI (cfiCond280) DPL0 load(1, XDATA, add(CFA_XSP16, literal(-2)))
          CFI (cfiCond280) DPH0 load(1, XDATA, add(CFA_XSP16, literal(-1)))
          CFI (cfiCond280) CFA_SP SP+-2
          CFI (cfiCond280) CFA_XSP16 add(XSP16, 30)
          CFI Block cfiCond281 Using cfiCommon0
          CFI (cfiCond281) Function zclGp_SendGpProxyTableResponse
          CFI (cfiCond281) Conditional ??CrossCallReturnLabel_147
          CFI (cfiCond281) R6 load(1, XDATA, add(CFA_XSP16, literal(-16)))
          CFI (cfiCond281) VB load(1, XDATA, add(CFA_XSP16, literal(-15)))
          CFI (cfiCond281) V0 load(1, XDATA, add(CFA_XSP16, literal(-14)))
          CFI (cfiCond281) V1 load(1, XDATA, add(CFA_XSP16, literal(-13)))
          CFI (cfiCond281) V2 load(1, XDATA, add(CFA_XSP16, literal(-12)))
          CFI (cfiCond281) V3 load(1, XDATA, add(CFA_XSP16, literal(-11)))
          CFI (cfiCond281) V4 load(1, XDATA, add(CFA_XSP16, literal(-10)))
          CFI (cfiCond281) V5 load(1, XDATA, add(CFA_XSP16, literal(-9)))
          CFI (cfiCond281) V6 load(1, XDATA, add(CFA_XSP16, literal(-8)))
          CFI (cfiCond281) V7 load(1, XDATA, add(CFA_XSP16, literal(-7)))
          CFI (cfiCond281) R7 load(1, XDATA, add(CFA_XSP16, literal(-6)))
          CFI (cfiCond281) ?RET_LOW load(1, XDATA, add(CFA_XSP16, literal(-5)))
          CFI (cfiCond281) ?RET_HIGH load(1, XDATA, add(CFA_XSP16, literal(-4)))
          CFI (cfiCond281) ?BRET_EXT load(1, XDATA, add(CFA_XSP16, literal(-3)))
          CFI (cfiCond281) DPL0 load(1, XDATA, add(CFA_XSP16, literal(-2)))
          CFI (cfiCond281) DPH0 load(1, XDATA, add(CFA_XSP16, literal(-1)))
          CFI (cfiCond281) CFA_SP SP+-2
          CFI (cfiCond281) CFA_XSP16 add(XSP16, 24)
          CFI Block cfiCond282 Using cfiCommon0
          CFI (cfiCond282) Function zclGp_SendGpProxyTableResponse
          CFI (cfiCond282) Conditional ??CrossCallReturnLabel_148
          CFI (cfiCond282) R6 load(1, XDATA, add(CFA_XSP16, literal(-16)))
          CFI (cfiCond282) VB load(1, XDATA, add(CFA_XSP16, literal(-15)))
          CFI (cfiCond282) V0 load(1, XDATA, add(CFA_XSP16, literal(-14)))
          CFI (cfiCond282) V1 load(1, XDATA, add(CFA_XSP16, literal(-13)))
          CFI (cfiCond282) V2 load(1, XDATA, add(CFA_XSP16, literal(-12)))
          CFI (cfiCond282) V3 load(1, XDATA, add(CFA_XSP16, literal(-11)))
          CFI (cfiCond282) V4 load(1, XDATA, add(CFA_XSP16, literal(-10)))
          CFI (cfiCond282) V5 load(1, XDATA, add(CFA_XSP16, literal(-9)))
          CFI (cfiCond282) V6 load(1, XDATA, add(CFA_XSP16, literal(-8)))
          CFI (cfiCond282) V7 load(1, XDATA, add(CFA_XSP16, literal(-7)))
          CFI (cfiCond282) R7 load(1, XDATA, add(CFA_XSP16, literal(-6)))
          CFI (cfiCond282) ?RET_LOW load(1, XDATA, add(CFA_XSP16, literal(-5)))
          CFI (cfiCond282) ?RET_HIGH load(1, XDATA, add(CFA_XSP16, literal(-4)))
          CFI (cfiCond282) ?BRET_EXT load(1, XDATA, add(CFA_XSP16, literal(-3)))
          CFI (cfiCond282) DPL0 load(1, XDATA, add(CFA_XSP16, literal(-2)))
          CFI (cfiCond282) DPH0 load(1, XDATA, add(CFA_XSP16, literal(-1)))
          CFI (cfiCond282) CFA_SP SP+-2
          CFI (cfiCond282) CFA_XSP16 add(XSP16, 24)
          CFI Block cfiCond283 Using cfiCommon0
          CFI (cfiCond283) Function gp_AddNotificationMsgNode
          CFI (cfiCond283) Conditional ??CrossCallReturnLabel_149
          CFI (cfiCond283) R6 load(1, XDATA, add(CFA_XSP16, literal(-12)))
          CFI (cfiCond283) VB load(1, XDATA, add(CFA_XSP16, literal(-11)))
          CFI (cfiCond283) V0 load(1, XDATA, add(CFA_XSP16, literal(-10)))
          CFI (cfiCond283) V1 load(1, XDATA, add(CFA_XSP16, literal(-9)))
          CFI (cfiCond283) V2 load(1, XDATA, add(CFA_XSP16, literal(-8)))
          CFI (cfiCond283) V3 load(1, XDATA, add(CFA_XSP16, literal(-7)))
          CFI (cfiCond283) R7 load(1, XDATA, add(CFA_XSP16, literal(-6)))
          CFI (cfiCond283) ?RET_LOW load(1, XDATA, add(CFA_XSP16, literal(-5)))
          CFI (cfiCond283) ?RET_HIGH load(1, XDATA, add(CFA_XSP16, literal(-4)))
          CFI (cfiCond283) ?BRET_EXT load(1, XDATA, add(CFA_XSP16, literal(-3)))
          CFI (cfiCond283) DPL0 load(1, XDATA, add(CFA_XSP16, literal(-2)))
          CFI (cfiCond283) DPH0 load(1, XDATA, add(CFA_XSP16, literal(-1)))
          CFI (cfiCond283) CFA_SP SP+-2
          CFI (cfiCond283) CFA_XSP16 add(XSP16, 12)
          CFI Block cfiCond284 Using cfiCommon0
          CFI (cfiCond284) Function gp_AddCmdPayloadMsgNode
          CFI (cfiCond284) Conditional ??CrossCallReturnLabel_150
          CFI (cfiCond284) R6 load(1, XDATA, add(CFA_XSP16, literal(-14)))
          CFI (cfiCond284) VB load(1, XDATA, add(CFA_XSP16, literal(-13)))
          CFI (cfiCond284) V0 load(1, XDATA, add(CFA_XSP16, literal(-12)))
          CFI (cfiCond284) V1 load(1, XDATA, add(CFA_XSP16, literal(-11)))
          CFI (cfiCond284) V2 load(1, XDATA, add(CFA_XSP16, literal(-10)))
          CFI (cfiCond284) V3 load(1, XDATA, add(CFA_XSP16, literal(-9)))
          CFI (cfiCond284) V4 load(1, XDATA, add(CFA_XSP16, literal(-8)))
          CFI (cfiCond284) V5 load(1, XDATA, add(CFA_XSP16, literal(-7)))
          CFI (cfiCond284) R7 load(1, XDATA, add(CFA_XSP16, literal(-6)))
          CFI (cfiCond284) ?RET_LOW load(1, XDATA, add(CFA_XSP16, literal(-5)))
          CFI (cfiCond284) ?RET_HIGH load(1, XDATA, add(CFA_XSP16, literal(-4)))
          CFI (cfiCond284) ?BRET_EXT load(1, XDATA, add(CFA_XSP16, literal(-3)))
          CFI (cfiCond284) DPL0 load(1, XDATA, add(CFA_XSP16, literal(-2)))
          CFI (cfiCond284) DPH0 load(1, XDATA, add(CFA_XSP16, literal(-1)))
          CFI (cfiCond284) CFA_SP SP+-2
          CFI (cfiCond284) CFA_XSP16 add(XSP16, 14)
          CFI Block cfiCond285 Using cfiCommon0
          CFI (cfiCond285) Function gp_NotificationMsgClean
          CFI (cfiCond285) Conditional ??CrossCallReturnLabel_151
          CFI (cfiCond285) R6 load(1, XDATA, add(CFA_XSP16, literal(-12)))
          CFI (cfiCond285) VB load(1, XDATA, add(CFA_XSP16, literal(-11)))
          CFI (cfiCond285) V0 load(1, XDATA, add(CFA_XSP16, literal(-10)))
          CFI (cfiCond285) V1 load(1, XDATA, add(CFA_XSP16, literal(-9)))
          CFI (cfiCond285) V2 load(1, XDATA, add(CFA_XSP16, literal(-8)))
          CFI (cfiCond285) V3 load(1, XDATA, add(CFA_XSP16, literal(-7)))
          CFI (cfiCond285) R7 load(1, XDATA, add(CFA_XSP16, literal(-6)))
          CFI (cfiCond285) ?RET_LOW load(1, XDATA, add(CFA_XSP16, literal(-5)))
          CFI (cfiCond285) ?RET_HIGH load(1, XDATA, add(CFA_XSP16, literal(-4)))
          CFI (cfiCond285) ?BRET_EXT load(1, XDATA, add(CFA_XSP16, literal(-3)))
          CFI (cfiCond285) DPL0 load(1, XDATA, add(CFA_XSP16, literal(-2)))
          CFI (cfiCond285) DPH0 load(1, XDATA, add(CFA_XSP16, literal(-1)))
          CFI (cfiCond285) CFA_SP SP+-2
          CFI (cfiCond285) CFA_XSP16 add(XSP16, 12)
          CFI Block cfiCond286 Using cfiCommon0
          CFI (cfiCond286) Function zclGp_ProcessInProxyBasic
          CFI (cfiCond286) Conditional ??CrossCallReturnLabel_152
          CFI (cfiCond286) R6 load(1, XDATA, add(CFA_XSP16, literal(-15)))
          CFI (cfiCond286) VB load(1, XDATA, add(CFA_XSP16, literal(-14)))
          CFI (cfiCond286) V0 load(1, XDATA, add(CFA_XSP16, literal(-13)))
          CFI (cfiCond286) V1 load(1, XDATA, add(CFA_XSP16, literal(-12)))
          CFI (cfiCond286) V2 load(1, XDATA, add(CFA_XSP16, literal(-11)))
          CFI (cfiCond286) V3 load(1, XDATA, add(CFA_XSP16, literal(-10)))
          CFI (cfiCond286) V4 load(1, XDATA, add(CFA_XSP16, literal(-9)))
          CFI (cfiCond286) V5 load(1, XDATA, add(CFA_XSP16, literal(-8)))
          CFI (cfiCond286) V6 load(1, XDATA, add(CFA_XSP16, literal(-7)))
          CFI (cfiCond286) R7 load(1, XDATA, add(CFA_XSP16, literal(-6)))
          CFI (cfiCond286) ?RET_LOW load(1, XDATA, add(CFA_XSP16, literal(-5)))
          CFI (cfiCond286) ?RET_HIGH load(1, XDATA, add(CFA_XSP16, literal(-4)))
          CFI (cfiCond286) ?BRET_EXT load(1, XDATA, add(CFA_XSP16, literal(-3)))
          CFI (cfiCond286) DPL0 load(1, XDATA, add(CFA_XSP16, literal(-2)))
          CFI (cfiCond286) DPH0 load(1, XDATA, add(CFA_XSP16, literal(-1)))
          CFI (cfiCond286) CFA_SP SP+-2
          CFI (cfiCond286) CFA_XSP16 add(XSP16, 43)
          CFI Block cfiCond287 Using cfiCommon0
          CFI (cfiCond287) Function zclGp_ProcessInProxyBasic
          CFI (cfiCond287) Conditional ??CrossCallReturnLabel_153
          CFI (cfiCond287) R6 load(1, XDATA, add(CFA_XSP16, literal(-15)))
          CFI (cfiCond287) VB load(1, XDATA, add(CFA_XSP16, literal(-14)))
          CFI (cfiCond287) V0 load(1, XDATA, add(CFA_XSP16, literal(-13)))
          CFI (cfiCond287) V1 load(1, XDATA, add(CFA_XSP16, literal(-12)))
          CFI (cfiCond287) V2 load(1, XDATA, add(CFA_XSP16, literal(-11)))
          CFI (cfiCond287) V3 load(1, XDATA, add(CFA_XSP16, literal(-10)))
          CFI (cfiCond287) V4 load(1, XDATA, add(CFA_XSP16, literal(-9)))
          CFI (cfiCond287) V5 load(1, XDATA, add(CFA_XSP16, literal(-8)))
          CFI (cfiCond287) V6 load(1, XDATA, add(CFA_XSP16, literal(-7)))
          CFI (cfiCond287) R7 load(1, XDATA, add(CFA_XSP16, literal(-6)))
          CFI (cfiCond287) ?RET_LOW load(1, XDATA, add(CFA_XSP16, literal(-5)))
          CFI (cfiCond287) ?RET_HIGH load(1, XDATA, add(CFA_XSP16, literal(-4)))
          CFI (cfiCond287) ?BRET_EXT load(1, XDATA, add(CFA_XSP16, literal(-3)))
          CFI (cfiCond287) DPL0 load(1, XDATA, add(CFA_XSP16, literal(-2)))
          CFI (cfiCond287) DPH0 load(1, XDATA, add(CFA_XSP16, literal(-1)))
          CFI (cfiCond287) CFA_SP SP+-2
          CFI (cfiCond287) CFA_XSP16 add(XSP16, 43)
          CFI Block cfiCond288 Using cfiCommon0
          CFI (cfiCond288) Function gp_AddNotificationMsgNode
          CFI (cfiCond288) Conditional ??CrossCallReturnLabel_154
          CFI (cfiCond288) R6 load(1, XDATA, add(CFA_XSP16, literal(-12)))
          CFI (cfiCond288) VB load(1, XDATA, add(CFA_XSP16, literal(-11)))
          CFI (cfiCond288) V0 load(1, XDATA, add(CFA_XSP16, literal(-10)))
          CFI (cfiCond288) V1 load(1, XDATA, add(CFA_XSP16, literal(-9)))
          CFI (cfiCond288) V2 load(1, XDATA, add(CFA_XSP16, literal(-8)))
          CFI (cfiCond288) V3 load(1, XDATA, add(CFA_XSP16, literal(-7)))
          CFI (cfiCond288) R7 load(1, XDATA, add(CFA_XSP16, literal(-6)))
          CFI (cfiCond288) ?RET_LOW load(1, XDATA, add(CFA_XSP16, literal(-5)))
          CFI (cfiCond288) ?RET_HIGH load(1, XDATA, add(CFA_XSP16, literal(-4)))
          CFI (cfiCond288) ?BRET_EXT load(1, XDATA, add(CFA_XSP16, literal(-3)))
          CFI (cfiCond288) DPL0 load(1, XDATA, add(CFA_XSP16, literal(-2)))
          CFI (cfiCond288) DPH0 load(1, XDATA, add(CFA_XSP16, literal(-1)))
          CFI (cfiCond288) CFA_SP SP+-2
          CFI (cfiCond288) CFA_XSP16 add(XSP16, 12)
          CFI Block cfiCond289 Using cfiCommon0
          CFI (cfiCond289) Function gp_AddCmdPayloadMsgNode
          CFI (cfiCond289) Conditional ??CrossCallReturnLabel_155
          CFI (cfiCond289) R6 load(1, XDATA, add(CFA_XSP16, literal(-14)))
          CFI (cfiCond289) VB load(1, XDATA, add(CFA_XSP16, literal(-13)))
          CFI (cfiCond289) V0 load(1, XDATA, add(CFA_XSP16, literal(-12)))
          CFI (cfiCond289) V1 load(1, XDATA, add(CFA_XSP16, literal(-11)))
          CFI (cfiCond289) V2 load(1, XDATA, add(CFA_XSP16, literal(-10)))
          CFI (cfiCond289) V3 load(1, XDATA, add(CFA_XSP16, literal(-9)))
          CFI (cfiCond289) V4 load(1, XDATA, add(CFA_XSP16, literal(-8)))
          CFI (cfiCond289) V5 load(1, XDATA, add(CFA_XSP16, literal(-7)))
          CFI (cfiCond289) R7 load(1, XDATA, add(CFA_XSP16, literal(-6)))
          CFI (cfiCond289) ?RET_LOW load(1, XDATA, add(CFA_XSP16, literal(-5)))
          CFI (cfiCond289) ?RET_HIGH load(1, XDATA, add(CFA_XSP16, literal(-4)))
          CFI (cfiCond289) ?BRET_EXT load(1, XDATA, add(CFA_XSP16, literal(-3)))
          CFI (cfiCond289) DPL0 load(1, XDATA, add(CFA_XSP16, literal(-2)))
          CFI (cfiCond289) DPH0 load(1, XDATA, add(CFA_XSP16, literal(-1)))
          CFI (cfiCond289) CFA_SP SP+-2
          CFI (cfiCond289) CFA_XSP16 add(XSP16, 14)
          CFI Block cfiCond290 Using cfiCommon0
          CFI (cfiCond290) Function gp_CreateNotificationMsgList
          CFI (cfiCond290) Conditional ??CrossCallReturnLabel_140
          CFI (cfiCond290) R6 load(1, XDATA, add(CFA_XSP16, literal(-10)))
          CFI (cfiCond290) VB load(1, XDATA, add(CFA_XSP16, literal(-9)))
          CFI (cfiCond290) V0 load(1, XDATA, add(CFA_XSP16, literal(-8)))
          CFI (cfiCond290) V1 load(1, XDATA, add(CFA_XSP16, literal(-7)))
          CFI (cfiCond290) R7 load(1, XDATA, add(CFA_XSP16, literal(-6)))
          CFI (cfiCond290) ?RET_LOW load(1, XDATA, add(CFA_XSP16, literal(-5)))
          CFI (cfiCond290) ?RET_HIGH load(1, XDATA, add(CFA_XSP16, literal(-4)))
          CFI (cfiCond290) ?BRET_EXT load(1, XDATA, add(CFA_XSP16, literal(-3)))
          CFI (cfiCond290) DPL0 load(1, XDATA, add(CFA_XSP16, literal(-2)))
          CFI (cfiCond290) DPH0 load(1, XDATA, add(CFA_XSP16, literal(-1)))
          CFI (cfiCond290) CFA_SP SP+-2
          CFI (cfiCond290) CFA_XSP16 add(XSP16, 10)
          CFI Block cfiCond291 Using cfiCommon0
          CFI (cfiCond291) Function gp_CreateCmdPayloadMsgList
          CFI (cfiCond291) Conditional ??CrossCallReturnLabel_141
          CFI (cfiCond291) R6 load(1, XDATA, add(CFA_XSP16, literal(-10)))
          CFI (cfiCond291) VB load(1, XDATA, add(CFA_XSP16, literal(-9)))
          CFI (cfiCond291) V0 load(1, XDATA, add(CFA_XSP16, literal(-8)))
          CFI (cfiCond291) V1 load(1, XDATA, add(CFA_XSP16, literal(-7)))
          CFI (cfiCond291) R7 load(1, XDATA, add(CFA_XSP16, literal(-6)))
          CFI (cfiCond291) ?RET_LOW load(1, XDATA, add(CFA_XSP16, literal(-5)))
          CFI (cfiCond291) ?RET_HIGH load(1, XDATA, add(CFA_XSP16, literal(-4)))
          CFI (cfiCond291) ?BRET_EXT load(1, XDATA, add(CFA_XSP16, literal(-3)))
          CFI (cfiCond291) DPL0 load(1, XDATA, add(CFA_XSP16, literal(-2)))
          CFI (cfiCond291) DPH0 load(1, XDATA, add(CFA_XSP16, literal(-1)))
          CFI (cfiCond291) CFA_SP SP+-2
          CFI (cfiCond291) CFA_XSP16 add(XSP16, 10)
          CFI Block cfiPicker292 Using cfiCommon1
          CFI (cfiPicker292) NoFunction
          CFI (cfiPicker292) Picker
        LCALL     ?Subroutine45 & 0xFFFF
??CrossCallReturnLabel_161:
        MOV       R1,A
        MOV       A,R0
        ORL       A,R1
        RET
          CFI EndBlock cfiCond276
          CFI EndBlock cfiCond277
          CFI EndBlock cfiCond278
          CFI EndBlock cfiCond279
          CFI EndBlock cfiCond280
          CFI EndBlock cfiCond281
          CFI EndBlock cfiCond282
          CFI EndBlock cfiCond283
          CFI EndBlock cfiCond284
          CFI EndBlock cfiCond285
          CFI EndBlock cfiCond286
          CFI EndBlock cfiCond287
          CFI EndBlock cfiCond288
          CFI EndBlock cfiCond289
          CFI EndBlock cfiCond290
          CFI EndBlock cfiCond291
          CFI EndBlock cfiPicker292

        RSEG BANKED_CODE:HUGECODE:NOROOT(0)
?Subroutine45:
          CFI Block cfiCond293 Using cfiCommon0
          CFI Function zclGp_ProcessInProxyBasic
          CFI Conditional ??CrossCallReturnLabel_158, ??CrossCallReturnLabel_19
          CFI R6 load(1, XDATA, add(CFA_XSP16, literal(-15)))
          CFI VB load(1, XDATA, add(CFA_XSP16, literal(-14)))
          CFI V0 load(1, XDATA, add(CFA_XSP16, literal(-13)))
          CFI V1 load(1, XDATA, add(CFA_XSP16, literal(-12)))
          CFI V2 load(1, XDATA, add(CFA_XSP16, literal(-11)))
          CFI V3 load(1, XDATA, add(CFA_XSP16, literal(-10)))
          CFI V4 load(1, XDATA, add(CFA_XSP16, literal(-9)))
          CFI V5 load(1, XDATA, add(CFA_XSP16, literal(-8)))
          CFI V6 load(1, XDATA, add(CFA_XSP16, literal(-7)))
          CFI R7 load(1, XDATA, add(CFA_XSP16, literal(-6)))
          CFI ?RET_LOW load(1, XDATA, add(CFA_XSP16, literal(-5)))
          CFI ?RET_HIGH load(1, XDATA, add(CFA_XSP16, literal(-4)))
          CFI ?BRET_EXT load(1, XDATA, add(CFA_XSP16, literal(-3)))
          CFI DPL0 load(1, XDATA, add(CFA_XSP16, literal(-2)))
          CFI DPH0 load(1, XDATA, add(CFA_XSP16, literal(-1)))
          CFI CFA_SP SP+-4
          CFI CFA_XSP16 add(XSP16, 43)
          CFI Block cfiCond294 Using cfiCommon0
          CFI (cfiCond294) Function zclGp_ProcessInProxyBasic
          CFI (cfiCond294) Conditional ??CrossCallReturnLabel_158, ??CrossCallReturnLabel_20
          CFI (cfiCond294) R6 load(1, XDATA, add(CFA_XSP16, literal(-15)))
          CFI (cfiCond294) VB load(1, XDATA, add(CFA_XSP16, literal(-14)))
          CFI (cfiCond294) V0 load(1, XDATA, add(CFA_XSP16, literal(-13)))
          CFI (cfiCond294) V1 load(1, XDATA, add(CFA_XSP16, literal(-12)))
          CFI (cfiCond294) V2 load(1, XDATA, add(CFA_XSP16, literal(-11)))
          CFI (cfiCond294) V3 load(1, XDATA, add(CFA_XSP16, literal(-10)))
          CFI (cfiCond294) V4 load(1, XDATA, add(CFA_XSP16, literal(-9)))
          CFI (cfiCond294) V5 load(1, XDATA, add(CFA_XSP16, literal(-8)))
          CFI (cfiCond294) V6 load(1, XDATA, add(CFA_XSP16, literal(-7)))
          CFI (cfiCond294) R7 load(1, XDATA, add(CFA_XSP16, literal(-6)))
          CFI (cfiCond294) ?RET_LOW load(1, XDATA, add(CFA_XSP16, literal(-5)))
          CFI (cfiCond294) ?RET_HIGH load(1, XDATA, add(CFA_XSP16, literal(-4)))
          CFI (cfiCond294) ?BRET_EXT load(1, XDATA, add(CFA_XSP16, literal(-3)))
          CFI (cfiCond294) DPL0 load(1, XDATA, add(CFA_XSP16, literal(-2)))
          CFI (cfiCond294) DPH0 load(1, XDATA, add(CFA_XSP16, literal(-1)))
          CFI (cfiCond294) CFA_SP SP+-4
          CFI (cfiCond294) CFA_XSP16 add(XSP16, 43)
          CFI Block cfiCond295 Using cfiCommon0
          CFI (cfiCond295) Function zclGp_SendGpCommissioningNotificationCommand
          CFI (cfiCond295) Conditional ??CrossCallReturnLabel_159, ??CrossCallReturnLabel_77
          CFI (cfiCond295) R6 load(1, XDATA, add(CFA_XSP16, literal(-16)))
          CFI (cfiCond295) VB load(1, XDATA, add(CFA_XSP16, literal(-15)))
          CFI (cfiCond295) V0 load(1, XDATA, add(CFA_XSP16, literal(-14)))
          CFI (cfiCond295) V1 load(1, XDATA, add(CFA_XSP16, literal(-13)))
          CFI (cfiCond295) V2 load(1, XDATA, add(CFA_XSP16, literal(-12)))
          CFI (cfiCond295) V3 load(1, XDATA, add(CFA_XSP16, literal(-11)))
          CFI (cfiCond295) V4 load(1, XDATA, add(CFA_XSP16, literal(-10)))
          CFI (cfiCond295) V5 load(1, XDATA, add(CFA_XSP16, literal(-9)))
          CFI (cfiCond295) V6 load(1, XDATA, add(CFA_XSP16, literal(-8)))
          CFI (cfiCond295) V7 load(1, XDATA, add(CFA_XSP16, literal(-7)))
          CFI (cfiCond295) R7 load(1, XDATA, add(CFA_XSP16, literal(-6)))
          CFI (cfiCond295) ?RET_LOW load(1, XDATA, add(CFA_XSP16, literal(-5)))
          CFI (cfiCond295) ?RET_HIGH load(1, XDATA, add(CFA_XSP16, literal(-4)))
          CFI (cfiCond295) ?BRET_EXT load(1, XDATA, add(CFA_XSP16, literal(-3)))
          CFI (cfiCond295) DPL0 load(1, XDATA, add(CFA_XSP16, literal(-2)))
          CFI (cfiCond295) DPH0 load(1, XDATA, add(CFA_XSP16, literal(-1)))
          CFI (cfiCond295) CFA_SP SP+-4
          CFI (cfiCond295) CFA_XSP16 add(XSP16, 30)
          CFI Block cfiCond296 Using cfiCommon0
          CFI (cfiCond296) Function gp_addPairedSinksToMsgQueue
          CFI (cfiCond296) Conditional ??CrossCallReturnLabel_159, ??CrossCallReturnLabel_78
          CFI (cfiCond296) R6 load(1, XDATA, add(CFA_XSP16, literal(-15)))
          CFI (cfiCond296) VB load(1, XDATA, add(CFA_XSP16, literal(-14)))
          CFI (cfiCond296) V0 load(1, XDATA, add(CFA_XSP16, literal(-13)))
          CFI (cfiCond296) V1 load(1, XDATA, add(CFA_XSP16, literal(-12)))
          CFI (cfiCond296) V2 load(1, XDATA, add(CFA_XSP16, literal(-11)))
          CFI (cfiCond296) V3 load(1, XDATA, add(CFA_XSP16, literal(-10)))
          CFI (cfiCond296) V4 load(1, XDATA, add(CFA_XSP16, literal(-9)))
          CFI (cfiCond296) V5 load(1, XDATA, add(CFA_XSP16, literal(-8)))
          CFI (cfiCond296) V6 load(1, XDATA, add(CFA_XSP16, literal(-7)))
          CFI (cfiCond296) R7 load(1, XDATA, add(CFA_XSP16, literal(-6)))
          CFI (cfiCond296) ?RET_LOW load(1, XDATA, add(CFA_XSP16, literal(-5)))
          CFI (cfiCond296) ?RET_HIGH load(1, XDATA, add(CFA_XSP16, literal(-4)))
          CFI (cfiCond296) ?BRET_EXT load(1, XDATA, add(CFA_XSP16, literal(-3)))
          CFI (cfiCond296) DPL0 load(1, XDATA, add(CFA_XSP16, literal(-2)))
          CFI (cfiCond296) DPH0 load(1, XDATA, add(CFA_XSP16, literal(-1)))
          CFI (cfiCond296) CFA_SP SP+-4
          CFI (cfiCond296) CFA_XSP16 add(XSP16, 104)
          CFI Block cfiCond297 Using cfiCommon0
          CFI (cfiCond297) Function zclGp_HdlIncoming
          CFI (cfiCond297) Conditional ??CrossCallReturnLabel_159, ??CrossCallReturnLabel_79
          CFI (cfiCond297) R6 load(1, XDATA, add(CFA_XSP16, literal(-9)))
          CFI (cfiCond297) VB load(1, XDATA, add(CFA_XSP16, literal(-8)))
          CFI (cfiCond297) V0 load(1, XDATA, add(CFA_XSP16, literal(-7)))
          CFI (cfiCond297) R7 load(1, XDATA, add(CFA_XSP16, literal(-6)))
          CFI (cfiCond297) ?RET_LOW load(1, XDATA, add(CFA_XSP16, literal(-5)))
          CFI (cfiCond297) ?RET_HIGH load(1, XDATA, add(CFA_XSP16, literal(-4)))
          CFI (cfiCond297) ?BRET_EXT load(1, XDATA, add(CFA_XSP16, literal(-3)))
          CFI (cfiCond297) DPL0 load(1, XDATA, add(CFA_XSP16, literal(-2)))
          CFI (cfiCond297) DPH0 load(1, XDATA, add(CFA_XSP16, literal(-1)))
          CFI (cfiCond297) CFA_SP SP+-4
          CFI (cfiCond297) CFA_XSP16 add(XSP16, 9)
          CFI Block cfiCond298 Using cfiCommon0
          CFI (cfiCond298) Function zclGp_ProcessInProxyBasic
          CFI (cfiCond298) Conditional ??CrossCallReturnLabel_159, ??CrossCallReturnLabel_80
          CFI (cfiCond298) R6 load(1, XDATA, add(CFA_XSP16, literal(-15)))
          CFI (cfiCond298) VB load(1, XDATA, add(CFA_XSP16, literal(-14)))
          CFI (cfiCond298) V0 load(1, XDATA, add(CFA_XSP16, literal(-13)))
          CFI (cfiCond298) V1 load(1, XDATA, add(CFA_XSP16, literal(-12)))
          CFI (cfiCond298) V2 load(1, XDATA, add(CFA_XSP16, literal(-11)))
          CFI (cfiCond298) V3 load(1, XDATA, add(CFA_XSP16, literal(-10)))
          CFI (cfiCond298) V4 load(1, XDATA, add(CFA_XSP16, literal(-9)))
          CFI (cfiCond298) V5 load(1, XDATA, add(CFA_XSP16, literal(-8)))
          CFI (cfiCond298) V6 load(1, XDATA, add(CFA_XSP16, literal(-7)))
          CFI (cfiCond298) R7 load(1, XDATA, add(CFA_XSP16, literal(-6)))
          CFI (cfiCond298) ?RET_LOW load(1, XDATA, add(CFA_XSP16, literal(-5)))
          CFI (cfiCond298) ?RET_HIGH load(1, XDATA, add(CFA_XSP16, literal(-4)))
          CFI (cfiCond298) ?BRET_EXT load(1, XDATA, add(CFA_XSP16, literal(-3)))
          CFI (cfiCond298) DPL0 load(1, XDATA, add(CFA_XSP16, literal(-2)))
          CFI (cfiCond298) DPH0 load(1, XDATA, add(CFA_XSP16, literal(-1)))
          CFI (cfiCond298) CFA_SP SP+-4
          CFI (cfiCond298) CFA_XSP16 add(XSP16, 43)
          CFI Block cfiCond299 Using cfiCommon0
          CFI (cfiCond299) Function zclGp_ProcessInProxyBasic
          CFI (cfiCond299) Conditional ??CrossCallReturnLabel_159, ??CrossCallReturnLabel_81
          CFI (cfiCond299) R6 load(1, XDATA, add(CFA_XSP16, literal(-15)))
          CFI (cfiCond299) VB load(1, XDATA, add(CFA_XSP16, literal(-14)))
          CFI (cfiCond299) V0 load(1, XDATA, add(CFA_XSP16, literal(-13)))
          CFI (cfiCond299) V1 load(1, XDATA, add(CFA_XSP16, literal(-12)))
          CFI (cfiCond299) V2 load(1, XDATA, add(CFA_XSP16, literal(-11)))
          CFI (cfiCond299) V3 load(1, XDATA, add(CFA_XSP16, literal(-10)))
          CFI (cfiCond299) V4 load(1, XDATA, add(CFA_XSP16, literal(-9)))
          CFI (cfiCond299) V5 load(1, XDATA, add(CFA_XSP16, literal(-8)))
          CFI (cfiCond299) V6 load(1, XDATA, add(CFA_XSP16, literal(-7)))
          CFI (cfiCond299) R7 load(1, XDATA, add(CFA_XSP16, literal(-6)))
          CFI (cfiCond299) ?RET_LOW load(1, XDATA, add(CFA_XSP16, literal(-5)))
          CFI (cfiCond299) ?RET_HIGH load(1, XDATA, add(CFA_XSP16, literal(-4)))
          CFI (cfiCond299) ?BRET_EXT load(1, XDATA, add(CFA_XSP16, literal(-3)))
          CFI (cfiCond299) DPL0 load(1, XDATA, add(CFA_XSP16, literal(-2)))
          CFI (cfiCond299) DPH0 load(1, XDATA, add(CFA_XSP16, literal(-1)))
          CFI (cfiCond299) CFA_SP SP+-4
          CFI (cfiCond299) CFA_XSP16 add(XSP16, 43)
          CFI Block cfiCond300 Using cfiCommon0
          CFI (cfiCond300) Function zclGp_ProcessInProxyBasic
          CFI (cfiCond300) Conditional ??CrossCallReturnLabel_159, ??CrossCallReturnLabel_82
          CFI (cfiCond300) R6 load(1, XDATA, add(CFA_XSP16, literal(-15)))
          CFI (cfiCond300) VB load(1, XDATA, add(CFA_XSP16, literal(-14)))
          CFI (cfiCond300) V0 load(1, XDATA, add(CFA_XSP16, literal(-13)))
          CFI (cfiCond300) V1 load(1, XDATA, add(CFA_XSP16, literal(-12)))
          CFI (cfiCond300) V2 load(1, XDATA, add(CFA_XSP16, literal(-11)))
          CFI (cfiCond300) V3 load(1, XDATA, add(CFA_XSP16, literal(-10)))
          CFI (cfiCond300) V4 load(1, XDATA, add(CFA_XSP16, literal(-9)))
          CFI (cfiCond300) V5 load(1, XDATA, add(CFA_XSP16, literal(-8)))
          CFI (cfiCond300) V6 load(1, XDATA, add(CFA_XSP16, literal(-7)))
          CFI (cfiCond300) R7 load(1, XDATA, add(CFA_XSP16, literal(-6)))
          CFI (cfiCond300) ?RET_LOW load(1, XDATA, add(CFA_XSP16, literal(-5)))
          CFI (cfiCond300) ?RET_HIGH load(1, XDATA, add(CFA_XSP16, literal(-4)))
          CFI (cfiCond300) ?BRET_EXT load(1, XDATA, add(CFA_XSP16, literal(-3)))
          CFI (cfiCond300) DPL0 load(1, XDATA, add(CFA_XSP16, literal(-2)))
          CFI (cfiCond300) DPH0 load(1, XDATA, add(CFA_XSP16, literal(-1)))
          CFI (cfiCond300) CFA_SP SP+-4
          CFI (cfiCond300) CFA_XSP16 add(XSP16, 43)
          CFI Block cfiCond301 Using cfiCommon0
          CFI (cfiCond301) Function zclGp_SendGpCommissioningNotificationCommand
          CFI (cfiCond301) Conditional ??CrossCallReturnLabel_159, ??CrossCallReturnLabel_83
          CFI (cfiCond301) R6 load(1, XDATA, add(CFA_XSP16, literal(-16)))
          CFI (cfiCond301) VB load(1, XDATA, add(CFA_XSP16, literal(-15)))
          CFI (cfiCond301) V0 load(1, XDATA, add(CFA_XSP16, literal(-14)))
          CFI (cfiCond301) V1 load(1, XDATA, add(CFA_XSP16, literal(-13)))
          CFI (cfiCond301) V2 load(1, XDATA, add(CFA_XSP16, literal(-12)))
          CFI (cfiCond301) V3 load(1, XDATA, add(CFA_XSP16, literal(-11)))
          CFI (cfiCond301) V4 load(1, XDATA, add(CFA_XSP16, literal(-10)))
          CFI (cfiCond301) V5 load(1, XDATA, add(CFA_XSP16, literal(-9)))
          CFI (cfiCond301) V6 load(1, XDATA, add(CFA_XSP16, literal(-8)))
          CFI (cfiCond301) V7 load(1, XDATA, add(CFA_XSP16, literal(-7)))
          CFI (cfiCond301) R7 load(1, XDATA, add(CFA_XSP16, literal(-6)))
          CFI (cfiCond301) ?RET_LOW load(1, XDATA, add(CFA_XSP16, literal(-5)))
          CFI (cfiCond301) ?RET_HIGH load(1, XDATA, add(CFA_XSP16, literal(-4)))
          CFI (cfiCond301) ?BRET_EXT load(1, XDATA, add(CFA_XSP16, literal(-3)))
          CFI (cfiCond301) DPL0 load(1, XDATA, add(CFA_XSP16, literal(-2)))
          CFI (cfiCond301) DPH0 load(1, XDATA, add(CFA_XSP16, literal(-1)))
          CFI (cfiCond301) CFA_SP SP+-4
          CFI (cfiCond301) CFA_XSP16 add(XSP16, 30)
          CFI Block cfiCond302 Using cfiCommon0
          CFI (cfiCond302) Function gp_NotificationMsgClean
          CFI (cfiCond302) Conditional ??CrossCallReturnLabel_159, ??CrossCallReturnLabel_84
          CFI (cfiCond302) R6 load(1, XDATA, add(CFA_XSP16, literal(-12)))
          CFI (cfiCond302) VB load(1, XDATA, add(CFA_XSP16, literal(-11)))
          CFI (cfiCond302) V0 load(1, XDATA, add(CFA_XSP16, literal(-10)))
          CFI (cfiCond302) V1 load(1, XDATA, add(CFA_XSP16, literal(-9)))
          CFI (cfiCond302) V2 load(1, XDATA, add(CFA_XSP16, literal(-8)))
          CFI (cfiCond302) V3 load(1, XDATA, add(CFA_XSP16, literal(-7)))
          CFI (cfiCond302) R7 load(1, XDATA, add(CFA_XSP16, literal(-6)))
          CFI (cfiCond302) ?RET_LOW load(1, XDATA, add(CFA_XSP16, literal(-5)))
          CFI (cfiCond302) ?RET_HIGH load(1, XDATA, add(CFA_XSP16, literal(-4)))
          CFI (cfiCond302) ?BRET_EXT load(1, XDATA, add(CFA_XSP16, literal(-3)))
          CFI (cfiCond302) DPL0 load(1, XDATA, add(CFA_XSP16, literal(-2)))
          CFI (cfiCond302) DPH0 load(1, XDATA, add(CFA_XSP16, literal(-1)))
          CFI (cfiCond302) CFA_SP SP+-4
          CFI (cfiCond302) CFA_XSP16 add(XSP16, 12)
          CFI Block cfiCond303 Using cfiCommon0
          CFI (cfiCond303) Function zclGp_ProcessInProxyBasic
          CFI (cfiCond303) Conditional ??CrossCallReturnLabel_160, ??CrossCallReturnLabel_103
          CFI (cfiCond303) R6 load(1, XDATA, add(CFA_XSP16, literal(-15)))
          CFI (cfiCond303) VB load(1, XDATA, add(CFA_XSP16, literal(-14)))
          CFI (cfiCond303) V0 load(1, XDATA, add(CFA_XSP16, literal(-13)))
          CFI (cfiCond303) V1 load(1, XDATA, add(CFA_XSP16, literal(-12)))
          CFI (cfiCond303) V2 load(1, XDATA, add(CFA_XSP16, literal(-11)))
          CFI (cfiCond303) V3 load(1, XDATA, add(CFA_XSP16, literal(-10)))
          CFI (cfiCond303) V4 load(1, XDATA, add(CFA_XSP16, literal(-9)))
          CFI (cfiCond303) V5 load(1, XDATA, add(CFA_XSP16, literal(-8)))
          CFI (cfiCond303) V6 load(1, XDATA, add(CFA_XSP16, literal(-7)))
          CFI (cfiCond303) R7 load(1, XDATA, add(CFA_XSP16, literal(-6)))
          CFI (cfiCond303) ?RET_LOW load(1, XDATA, add(CFA_XSP16, literal(-5)))
          CFI (cfiCond303) ?RET_HIGH load(1, XDATA, add(CFA_XSP16, literal(-4)))
          CFI (cfiCond303) ?BRET_EXT load(1, XDATA, add(CFA_XSP16, literal(-3)))
          CFI (cfiCond303) DPL0 load(1, XDATA, add(CFA_XSP16, literal(-2)))
          CFI (cfiCond303) DPH0 load(1, XDATA, add(CFA_XSP16, literal(-1)))
          CFI (cfiCond303) CFA_SP SP+-4
          CFI (cfiCond303) CFA_XSP16 add(XSP16, 43)
          CFI Block cfiCond304 Using cfiCommon0
          CFI (cfiCond304) Function zclGp_SendGpProxyTableResponse
          CFI (cfiCond304) Conditional ??CrossCallReturnLabel_160, ??CrossCallReturnLabel_104
          CFI (cfiCond304) R6 load(1, XDATA, add(CFA_XSP16, literal(-16)))
          CFI (cfiCond304) VB load(1, XDATA, add(CFA_XSP16, literal(-15)))
          CFI (cfiCond304) V0 load(1, XDATA, add(CFA_XSP16, literal(-14)))
          CFI (cfiCond304) V1 load(1, XDATA, add(CFA_XSP16, literal(-13)))
          CFI (cfiCond304) V2 load(1, XDATA, add(CFA_XSP16, literal(-12)))
          CFI (cfiCond304) V3 load(1, XDATA, add(CFA_XSP16, literal(-11)))
          CFI (cfiCond304) V4 load(1, XDATA, add(CFA_XSP16, literal(-10)))
          CFI (cfiCond304) V5 load(1, XDATA, add(CFA_XSP16, literal(-9)))
          CFI (cfiCond304) V6 load(1, XDATA, add(CFA_XSP16, literal(-8)))
          CFI (cfiCond304) V7 load(1, XDATA, add(CFA_XSP16, literal(-7)))
          CFI (cfiCond304) R7 load(1, XDATA, add(CFA_XSP16, literal(-6)))
          CFI (cfiCond304) ?RET_LOW load(1, XDATA, add(CFA_XSP16, literal(-5)))
          CFI (cfiCond304) ?RET_HIGH load(1, XDATA, add(CFA_XSP16, literal(-4)))
          CFI (cfiCond304) ?BRET_EXT load(1, XDATA, add(CFA_XSP16, literal(-3)))
          CFI (cfiCond304) DPL0 load(1, XDATA, add(CFA_XSP16, literal(-2)))
          CFI (cfiCond304) DPH0 load(1, XDATA, add(CFA_XSP16, literal(-1)))
          CFI (cfiCond304) CFA_SP SP+-4
          CFI (cfiCond304) CFA_XSP16 add(XSP16, 24)
          CFI Block cfiCond305 Using cfiCommon0
          CFI (cfiCond305) Function zclGp_ProcessInProxyBasic
          CFI (cfiCond305) Conditional ??CrossCallReturnLabel_160, ??CrossCallReturnLabel_98
          CFI (cfiCond305) R6 load(1, XDATA, add(CFA_XSP16, literal(-15)))
          CFI (cfiCond305) VB load(1, XDATA, add(CFA_XSP16, literal(-14)))
          CFI (cfiCond305) V0 load(1, XDATA, add(CFA_XSP16, literal(-13)))
          CFI (cfiCond305) V1 load(1, XDATA, add(CFA_XSP16, literal(-12)))
          CFI (cfiCond305) V2 load(1, XDATA, add(CFA_XSP16, literal(-11)))
          CFI (cfiCond305) V3 load(1, XDATA, add(CFA_XSP16, literal(-10)))
          CFI (cfiCond305) V4 load(1, XDATA, add(CFA_XSP16, literal(-9)))
          CFI (cfiCond305) V5 load(1, XDATA, add(CFA_XSP16, literal(-8)))
          CFI (cfiCond305) V6 load(1, XDATA, add(CFA_XSP16, literal(-7)))
          CFI (cfiCond305) R7 load(1, XDATA, add(CFA_XSP16, literal(-6)))
          CFI (cfiCond305) ?RET_LOW load(1, XDATA, add(CFA_XSP16, literal(-5)))
          CFI (cfiCond305) ?RET_HIGH load(1, XDATA, add(CFA_XSP16, literal(-4)))
          CFI (cfiCond305) ?BRET_EXT load(1, XDATA, add(CFA_XSP16, literal(-3)))
          CFI (cfiCond305) DPL0 load(1, XDATA, add(CFA_XSP16, literal(-2)))
          CFI (cfiCond305) DPH0 load(1, XDATA, add(CFA_XSP16, literal(-1)))
          CFI (cfiCond305) CFA_SP SP+-4
          CFI (cfiCond305) CFA_XSP16 add(XSP16, 43)
          CFI Block cfiCond306 Using cfiCommon0
          CFI (cfiCond306) Function zclGp_ProcessInProxyBasic
          CFI (cfiCond306) Conditional ??CrossCallReturnLabel_160, ??CrossCallReturnLabel_99
          CFI (cfiCond306) R6 load(1, XDATA, add(CFA_XSP16, literal(-15)))
          CFI (cfiCond306) VB load(1, XDATA, add(CFA_XSP16, literal(-14)))
          CFI (cfiCond306) V0 load(1, XDATA, add(CFA_XSP16, literal(-13)))
          CFI (cfiCond306) V1 load(1, XDATA, add(CFA_XSP16, literal(-12)))
          CFI (cfiCond306) V2 load(1, XDATA, add(CFA_XSP16, literal(-11)))
          CFI (cfiCond306) V3 load(1, XDATA, add(CFA_XSP16, literal(-10)))
          CFI (cfiCond306) V4 load(1, XDATA, add(CFA_XSP16, literal(-9)))
          CFI (cfiCond306) V5 load(1, XDATA, add(CFA_XSP16, literal(-8)))
          CFI (cfiCond306) V6 load(1, XDATA, add(CFA_XSP16, literal(-7)))
          CFI (cfiCond306) R7 load(1, XDATA, add(CFA_XSP16, literal(-6)))
          CFI (cfiCond306) ?RET_LOW load(1, XDATA, add(CFA_XSP16, literal(-5)))
          CFI (cfiCond306) ?RET_HIGH load(1, XDATA, add(CFA_XSP16, literal(-4)))
          CFI (cfiCond306) ?BRET_EXT load(1, XDATA, add(CFA_XSP16, literal(-3)))
          CFI (cfiCond306) DPL0 load(1, XDATA, add(CFA_XSP16, literal(-2)))
          CFI (cfiCond306) DPH0 load(1, XDATA, add(CFA_XSP16, literal(-1)))
          CFI (cfiCond306) CFA_SP SP+-4
          CFI (cfiCond306) CFA_XSP16 add(XSP16, 43)
          CFI Block cfiCond307 Using cfiCommon0
          CFI (cfiCond307) Function zclGp_ProcessInProxyBasic
          CFI (cfiCond307) Conditional ??CrossCallReturnLabel_160, ??CrossCallReturnLabel_100
          CFI (cfiCond307) R6 load(1, XDATA, add(CFA_XSP16, literal(-15)))
          CFI (cfiCond307) VB load(1, XDATA, add(CFA_XSP16, literal(-14)))
          CFI (cfiCond307) V0 load(1, XDATA, add(CFA_XSP16, literal(-13)))
          CFI (cfiCond307) V1 load(1, XDATA, add(CFA_XSP16, literal(-12)))
          CFI (cfiCond307) V2 load(1, XDATA, add(CFA_XSP16, literal(-11)))
          CFI (cfiCond307) V3 load(1, XDATA, add(CFA_XSP16, literal(-10)))
          CFI (cfiCond307) V4 load(1, XDATA, add(CFA_XSP16, literal(-9)))
          CFI (cfiCond307) V5 load(1, XDATA, add(CFA_XSP16, literal(-8)))
          CFI (cfiCond307) V6 load(1, XDATA, add(CFA_XSP16, literal(-7)))
          CFI (cfiCond307) R7 load(1, XDATA, add(CFA_XSP16, literal(-6)))
          CFI (cfiCond307) ?RET_LOW load(1, XDATA, add(CFA_XSP16, literal(-5)))
          CFI (cfiCond307) ?RET_HIGH load(1, XDATA, add(CFA_XSP16, literal(-4)))
          CFI (cfiCond307) ?BRET_EXT load(1, XDATA, add(CFA_XSP16, literal(-3)))
          CFI (cfiCond307) DPL0 load(1, XDATA, add(CFA_XSP16, literal(-2)))
          CFI (cfiCond307) DPH0 load(1, XDATA, add(CFA_XSP16, literal(-1)))
          CFI (cfiCond307) CFA_SP SP+-4
          CFI (cfiCond307) CFA_XSP16 add(XSP16, 43)
          CFI Block cfiCond308 Using cfiCommon0
          CFI (cfiCond308) Function zclGp_SendGpProxyTableResponse
          CFI (cfiCond308) Conditional ??CrossCallReturnLabel_160, ??CrossCallReturnLabel_101
          CFI (cfiCond308) R6 load(1, XDATA, add(CFA_XSP16, literal(-16)))
          CFI (cfiCond308) VB load(1, XDATA, add(CFA_XSP16, literal(-15)))
          CFI (cfiCond308) V0 load(1, XDATA, add(CFA_XSP16, literal(-14)))
          CFI (cfiCond308) V1 load(1, XDATA, add(CFA_XSP16, literal(-13)))
          CFI (cfiCond308) V2 load(1, XDATA, add(CFA_XSP16, literal(-12)))
          CFI (cfiCond308) V3 load(1, XDATA, add(CFA_XSP16, literal(-11)))
          CFI (cfiCond308) V4 load(1, XDATA, add(CFA_XSP16, literal(-10)))
          CFI (cfiCond308) V5 load(1, XDATA, add(CFA_XSP16, literal(-9)))
          CFI (cfiCond308) V6 load(1, XDATA, add(CFA_XSP16, literal(-8)))
          CFI (cfiCond308) V7 load(1, XDATA, add(CFA_XSP16, literal(-7)))
          CFI (cfiCond308) R7 load(1, XDATA, add(CFA_XSP16, literal(-6)))
          CFI (cfiCond308) ?RET_LOW load(1, XDATA, add(CFA_XSP16, literal(-5)))
          CFI (cfiCond308) ?RET_HIGH load(1, XDATA, add(CFA_XSP16, literal(-4)))
          CFI (cfiCond308) ?BRET_EXT load(1, XDATA, add(CFA_XSP16, literal(-3)))
          CFI (cfiCond308) DPL0 load(1, XDATA, add(CFA_XSP16, literal(-2)))
          CFI (cfiCond308) DPH0 load(1, XDATA, add(CFA_XSP16, literal(-1)))
          CFI (cfiCond308) CFA_SP SP+-4
          CFI (cfiCond308) CFA_XSP16 add(XSP16, 24)
          CFI Block cfiCond309 Using cfiCommon0
          CFI (cfiCond309) Function zclGp_SendGpProxyTableResponse
          CFI (cfiCond309) Conditional ??CrossCallReturnLabel_160, ??CrossCallReturnLabel_102
          CFI (cfiCond309) R6 load(1, XDATA, add(CFA_XSP16, literal(-16)))
          CFI (cfiCond309) VB load(1, XDATA, add(CFA_XSP16, literal(-15)))
          CFI (cfiCond309) V0 load(1, XDATA, add(CFA_XSP16, literal(-14)))
          CFI (cfiCond309) V1 load(1, XDATA, add(CFA_XSP16, literal(-13)))
          CFI (cfiCond309) V2 load(1, XDATA, add(CFA_XSP16, literal(-12)))
          CFI (cfiCond309) V3 load(1, XDATA, add(CFA_XSP16, literal(-11)))
          CFI (cfiCond309) V4 load(1, XDATA, add(CFA_XSP16, literal(-10)))
          CFI (cfiCond309) V5 load(1, XDATA, add(CFA_XSP16, literal(-9)))
          CFI (cfiCond309) V6 load(1, XDATA, add(CFA_XSP16, literal(-8)))
          CFI (cfiCond309) V7 load(1, XDATA, add(CFA_XSP16, literal(-7)))
          CFI (cfiCond309) R7 load(1, XDATA, add(CFA_XSP16, literal(-6)))
          CFI (cfiCond309) ?RET_LOW load(1, XDATA, add(CFA_XSP16, literal(-5)))
          CFI (cfiCond309) ?RET_HIGH load(1, XDATA, add(CFA_XSP16, literal(-4)))
          CFI (cfiCond309) ?BRET_EXT load(1, XDATA, add(CFA_XSP16, literal(-3)))
          CFI (cfiCond309) DPL0 load(1, XDATA, add(CFA_XSP16, literal(-2)))
          CFI (cfiCond309) DPH0 load(1, XDATA, add(CFA_XSP16, literal(-1)))
          CFI (cfiCond309) CFA_SP SP+-4
          CFI (cfiCond309) CFA_XSP16 add(XSP16, 24)
          CFI Block cfiCond310 Using cfiCommon0
          CFI (cfiCond310) Function gp_CreateNotificationMsgList
          CFI (cfiCond310) Conditional ??CrossCallReturnLabel_161, ??CrossCallReturnLabel_140
          CFI (cfiCond310) R6 load(1, XDATA, add(CFA_XSP16, literal(-10)))
          CFI (cfiCond310) VB load(1, XDATA, add(CFA_XSP16, literal(-9)))
          CFI (cfiCond310) V0 load(1, XDATA, add(CFA_XSP16, literal(-8)))
          CFI (cfiCond310) V1 load(1, XDATA, add(CFA_XSP16, literal(-7)))
          CFI (cfiCond310) R7 load(1, XDATA, add(CFA_XSP16, literal(-6)))
          CFI (cfiCond310) ?RET_LOW load(1, XDATA, add(CFA_XSP16, literal(-5)))
          CFI (cfiCond310) ?RET_HIGH load(1, XDATA, add(CFA_XSP16, literal(-4)))
          CFI (cfiCond310) ?BRET_EXT load(1, XDATA, add(CFA_XSP16, literal(-3)))
          CFI (cfiCond310) DPL0 load(1, XDATA, add(CFA_XSP16, literal(-2)))
          CFI (cfiCond310) DPH0 load(1, XDATA, add(CFA_XSP16, literal(-1)))
          CFI (cfiCond310) CFA_SP SP+-4
          CFI (cfiCond310) CFA_XSP16 add(XSP16, 10)
          CFI Block cfiCond311 Using cfiCommon0
          CFI (cfiCond311) Function gp_CreateCmdPayloadMsgList
          CFI (cfiCond311) Conditional ??CrossCallReturnLabel_161, ??CrossCallReturnLabel_141
          CFI (cfiCond311) R6 load(1, XDATA, add(CFA_XSP16, literal(-10)))
          CFI (cfiCond311) VB load(1, XDATA, add(CFA_XSP16, literal(-9)))
          CFI (cfiCond311) V0 load(1, XDATA, add(CFA_XSP16, literal(-8)))
          CFI (cfiCond311) V1 load(1, XDATA, add(CFA_XSP16, literal(-7)))
          CFI (cfiCond311) R7 load(1, XDATA, add(CFA_XSP16, literal(-6)))
          CFI (cfiCond311) ?RET_LOW load(1, XDATA, add(CFA_XSP16, literal(-5)))
          CFI (cfiCond311) ?RET_HIGH load(1, XDATA, add(CFA_XSP16, literal(-4)))
          CFI (cfiCond311) ?BRET_EXT load(1, XDATA, add(CFA_XSP16, literal(-3)))
          CFI (cfiCond311) DPL0 load(1, XDATA, add(CFA_XSP16, literal(-2)))
          CFI (cfiCond311) DPH0 load(1, XDATA, add(CFA_XSP16, literal(-1)))
          CFI (cfiCond311) CFA_SP SP+-4
          CFI (cfiCond311) CFA_XSP16 add(XSP16, 10)
          CFI Block cfiCond312 Using cfiCommon0
          CFI (cfiCond312) Function gp_AddNotificationMsgNode
          CFI (cfiCond312) Conditional ??CrossCallReturnLabel_161, ??CrossCallReturnLabel_154
          CFI (cfiCond312) R6 load(1, XDATA, add(CFA_XSP16, literal(-12)))
          CFI (cfiCond312) VB load(1, XDATA, add(CFA_XSP16, literal(-11)))
          CFI (cfiCond312) V0 load(1, XDATA, add(CFA_XSP16, literal(-10)))
          CFI (cfiCond312) V1 load(1, XDATA, add(CFA_XSP16, literal(-9)))
          CFI (cfiCond312) V2 load(1, XDATA, add(CFA_XSP16, literal(-8)))
          CFI (cfiCond312) V3 load(1, XDATA, add(CFA_XSP16, literal(-7)))
          CFI (cfiCond312) R7 load(1, XDATA, add(CFA_XSP16, literal(-6)))
          CFI (cfiCond312) ?RET_LOW load(1, XDATA, add(CFA_XSP16, literal(-5)))
          CFI (cfiCond312) ?RET_HIGH load(1, XDATA, add(CFA_XSP16, literal(-4)))
          CFI (cfiCond312) ?BRET_EXT load(1, XDATA, add(CFA_XSP16, literal(-3)))
          CFI (cfiCond312) DPL0 load(1, XDATA, add(CFA_XSP16, literal(-2)))
          CFI (cfiCond312) DPH0 load(1, XDATA, add(CFA_XSP16, literal(-1)))
          CFI (cfiCond312) CFA_SP SP+-4
          CFI (cfiCond312) CFA_XSP16 add(XSP16, 12)
          CFI Block cfiCond313 Using cfiCommon0
          CFI (cfiCond313) Function gp_AddCmdPayloadMsgNode
          CFI (cfiCond313) Conditional ??CrossCallReturnLabel_161, ??CrossCallReturnLabel_155
          CFI (cfiCond313) R6 load(1, XDATA, add(CFA_XSP16, literal(-14)))
          CFI (cfiCond313) VB load(1, XDATA, add(CFA_XSP16, literal(-13)))
          CFI (cfiCond313) V0 load(1, XDATA, add(CFA_XSP16, literal(-12)))
          CFI (cfiCond313) V1 load(1, XDATA, add(CFA_XSP16, literal(-11)))
          CFI (cfiCond313) V2 load(1, XDATA, add(CFA_XSP16, literal(-10)))
          CFI (cfiCond313) V3 load(1, XDATA, add(CFA_XSP16, literal(-9)))
          CFI (cfiCond313) V4 load(1, XDATA, add(CFA_XSP16, literal(-8)))
          CFI (cfiCond313) V5 load(1, XDATA, add(CFA_XSP16, literal(-7)))
          CFI (cfiCond313) R7 load(1, XDATA, add(CFA_XSP16, literal(-6)))
          CFI (cfiCond313) ?RET_LOW load(1, XDATA, add(CFA_XSP16, literal(-5)))
          CFI (cfiCond313) ?RET_HIGH load(1, XDATA, add(CFA_XSP16, literal(-4)))
          CFI (cfiCond313) ?BRET_EXT load(1, XDATA, add(CFA_XSP16, literal(-3)))
          CFI (cfiCond313) DPL0 load(1, XDATA, add(CFA_XSP16, literal(-2)))
          CFI (cfiCond313) DPH0 load(1, XDATA, add(CFA_XSP16, literal(-1)))
          CFI (cfiCond313) CFA_SP SP+-4
          CFI (cfiCond313) CFA_XSP16 add(XSP16, 14)
          CFI Block cfiCond314 Using cfiCommon0
          CFI (cfiCond314) Function zclGp_ProcessInProxyBasic
          CFI (cfiCond314) Conditional ??CrossCallReturnLabel_161, ??CrossCallReturnLabel_152
          CFI (cfiCond314) R6 load(1, XDATA, add(CFA_XSP16, literal(-15)))
          CFI (cfiCond314) VB load(1, XDATA, add(CFA_XSP16, literal(-14)))
          CFI (cfiCond314) V0 load(1, XDATA, add(CFA_XSP16, literal(-13)))
          CFI (cfiCond314) V1 load(1, XDATA, add(CFA_XSP16, literal(-12)))
          CFI (cfiCond314) V2 load(1, XDATA, add(CFA_XSP16, literal(-11)))
          CFI (cfiCond314) V3 load(1, XDATA, add(CFA_XSP16, literal(-10)))
          CFI (cfiCond314) V4 load(1, XDATA, add(CFA_XSP16, literal(-9)))
          CFI (cfiCond314) V5 load(1, XDATA, add(CFA_XSP16, literal(-8)))
          CFI (cfiCond314) V6 load(1, XDATA, add(CFA_XSP16, literal(-7)))
          CFI (cfiCond314) R7 load(1, XDATA, add(CFA_XSP16, literal(-6)))
          CFI (cfiCond314) ?RET_LOW load(1, XDATA, add(CFA_XSP16, literal(-5)))
          CFI (cfiCond314) ?RET_HIGH load(1, XDATA, add(CFA_XSP16, literal(-4)))
          CFI (cfiCond314) ?BRET_EXT load(1, XDATA, add(CFA_XSP16, literal(-3)))
          CFI (cfiCond314) DPL0 load(1, XDATA, add(CFA_XSP16, literal(-2)))
          CFI (cfiCond314) DPH0 load(1, XDATA, add(CFA_XSP16, literal(-1)))
          CFI (cfiCond314) CFA_SP SP+-4
          CFI (cfiCond314) CFA_XSP16 add(XSP16, 43)
          CFI Block cfiCond315 Using cfiCommon0
          CFI (cfiCond315) Function zclGp_ProcessInProxyBasic
          CFI (cfiCond315) Conditional ??CrossCallReturnLabel_161, ??CrossCallReturnLabel_153
          CFI (cfiCond315) R6 load(1, XDATA, add(CFA_XSP16, literal(-15)))
          CFI (cfiCond315) VB load(1, XDATA, add(CFA_XSP16, literal(-14)))
          CFI (cfiCond315) V0 load(1, XDATA, add(CFA_XSP16, literal(-13)))
          CFI (cfiCond315) V1 load(1, XDATA, add(CFA_XSP16, literal(-12)))
          CFI (cfiCond315) V2 load(1, XDATA, add(CFA_XSP16, literal(-11)))
          CFI (cfiCond315) V3 load(1, XDATA, add(CFA_XSP16, literal(-10)))
          CFI (cfiCond315) V4 load(1, XDATA, add(CFA_XSP16, literal(-9)))
          CFI (cfiCond315) V5 load(1, XDATA, add(CFA_XSP16, literal(-8)))
          CFI (cfiCond315) V6 load(1, XDATA, add(CFA_XSP16, literal(-7)))
          CFI (cfiCond315) R7 load(1, XDATA, add(CFA_XSP16, literal(-6)))
          CFI (cfiCond315) ?RET_LOW load(1, XDATA, add(CFA_XSP16, literal(-5)))
          CFI (cfiCond315) ?RET_HIGH load(1, XDATA, add(CFA_XSP16, literal(-4)))
          CFI (cfiCond315) ?BRET_EXT load(1, XDATA, add(CFA_XSP16, literal(-3)))
          CFI (cfiCond315) DPL0 load(1, XDATA, add(CFA_XSP16, literal(-2)))
          CFI (cfiCond315) DPH0 load(1, XDATA, add(CFA_XSP16, literal(-1)))
          CFI (cfiCond315) CFA_SP SP+-4
          CFI (cfiCond315) CFA_XSP16 add(XSP16, 43)
          CFI Block cfiCond316 Using cfiCommon0
          CFI (cfiCond316) Function zclGp_HdlIncoming
          CFI (cfiCond316) Conditional ??CrossCallReturnLabel_161, ??CrossCallReturnLabel_142
          CFI (cfiCond316) R6 load(1, XDATA, add(CFA_XSP16, literal(-9)))
          CFI (cfiCond316) VB load(1, XDATA, add(CFA_XSP16, literal(-8)))
          CFI (cfiCond316) V0 load(1, XDATA, add(CFA_XSP16, literal(-7)))
          CFI (cfiCond316) R7 load(1, XDATA, add(CFA_XSP16, literal(-6)))
          CFI (cfiCond316) ?RET_LOW load(1, XDATA, add(CFA_XSP16, literal(-5)))
          CFI (cfiCond316) ?RET_HIGH load(1, XDATA, add(CFA_XSP16, literal(-4)))
          CFI (cfiCond316) ?BRET_EXT load(1, XDATA, add(CFA_XSP16, literal(-3)))
          CFI (cfiCond316) DPL0 load(1, XDATA, add(CFA_XSP16, literal(-2)))
          CFI (cfiCond316) DPH0 load(1, XDATA, add(CFA_XSP16, literal(-1)))
          CFI (cfiCond316) CFA_SP SP+-4
          CFI (cfiCond316) CFA_XSP16 add(XSP16, 9)
          CFI Block cfiCond317 Using cfiCommon0
          CFI (cfiCond317) Function zclGp_ProcessInProxyBasic
          CFI (cfiCond317) Conditional ??CrossCallReturnLabel_161, ??CrossCallReturnLabel_143
          CFI (cfiCond317) R6 load(1, XDATA, add(CFA_XSP16, literal(-15)))
          CFI (cfiCond317) VB load(1, XDATA, add(CFA_XSP16, literal(-14)))
          CFI (cfiCond317) V0 load(1, XDATA, add(CFA_XSP16, literal(-13)))
          CFI (cfiCond317) V1 load(1, XDATA, add(CFA_XSP16, literal(-12)))
          CFI (cfiCond317) V2 load(1, XDATA, add(CFA_XSP16, literal(-11)))
          CFI (cfiCond317) V3 load(1, XDATA, add(CFA_XSP16, literal(-10)))
          CFI (cfiCond317) V4 load(1, XDATA, add(CFA_XSP16, literal(-9)))
          CFI (cfiCond317) V5 load(1, XDATA, add(CFA_XSP16, literal(-8)))
          CFI (cfiCond317) V6 load(1, XDATA, add(CFA_XSP16, literal(-7)))
          CFI (cfiCond317) R7 load(1, XDATA, add(CFA_XSP16, literal(-6)))
          CFI (cfiCond317) ?RET_LOW load(1, XDATA, add(CFA_XSP16, literal(-5)))
          CFI (cfiCond317) ?RET_HIGH load(1, XDATA, add(CFA_XSP16, literal(-4)))
          CFI (cfiCond317) ?BRET_EXT load(1, XDATA, add(CFA_XSP16, literal(-3)))
          CFI (cfiCond317) DPL0 load(1, XDATA, add(CFA_XSP16, literal(-2)))
          CFI (cfiCond317) DPH0 load(1, XDATA, add(CFA_XSP16, literal(-1)))
          CFI (cfiCond317) CFA_SP SP+-4
          CFI (cfiCond317) CFA_XSP16 add(XSP16, 43)
          CFI Block cfiCond318 Using cfiCommon0
          CFI (cfiCond318) Function zclGp_ProcessInProxyBasic
          CFI (cfiCond318) Conditional ??CrossCallReturnLabel_161, ??CrossCallReturnLabel_144
          CFI (cfiCond318) R6 load(1, XDATA, add(CFA_XSP16, literal(-15)))
          CFI (cfiCond318) VB load(1, XDATA, add(CFA_XSP16, literal(-14)))
          CFI (cfiCond318) V0 load(1, XDATA, add(CFA_XSP16, literal(-13)))
          CFI (cfiCond318) V1 load(1, XDATA, add(CFA_XSP16, literal(-12)))
          CFI (cfiCond318) V2 load(1, XDATA, add(CFA_XSP16, literal(-11)))
          CFI (cfiCond318) V3 load(1, XDATA, add(CFA_XSP16, literal(-10)))
          CFI (cfiCond318) V4 load(1, XDATA, add(CFA_XSP16, literal(-9)))
          CFI (cfiCond318) V5 load(1, XDATA, add(CFA_XSP16, literal(-8)))
          CFI (cfiCond318) V6 load(1, XDATA, add(CFA_XSP16, literal(-7)))
          CFI (cfiCond318) R7 load(1, XDATA, add(CFA_XSP16, literal(-6)))
          CFI (cfiCond318) ?RET_LOW load(1, XDATA, add(CFA_XSP16, literal(-5)))
          CFI (cfiCond318) ?RET_HIGH load(1, XDATA, add(CFA_XSP16, literal(-4)))
          CFI (cfiCond318) ?BRET_EXT load(1, XDATA, add(CFA_XSP16, literal(-3)))
          CFI (cfiCond318) DPL0 load(1, XDATA, add(CFA_XSP16, literal(-2)))
          CFI (cfiCond318) DPH0 load(1, XDATA, add(CFA_XSP16, literal(-1)))
          CFI (cfiCond318) CFA_SP SP+-4
          CFI (cfiCond318) CFA_XSP16 add(XSP16, 43)
          CFI Block cfiCond319 Using cfiCommon0
          CFI (cfiCond319) Function zclGp_SendGpNotificationCommand
          CFI (cfiCond319) Conditional ??CrossCallReturnLabel_161, ??CrossCallReturnLabel_145
          CFI (cfiCond319) R6 load(1, XDATA, add(CFA_XSP16, literal(-16)))
          CFI (cfiCond319) VB load(1, XDATA, add(CFA_XSP16, literal(-15)))
          CFI (cfiCond319) V0 load(1, XDATA, add(CFA_XSP16, literal(-14)))
          CFI (cfiCond319) V1 load(1, XDATA, add(CFA_XSP16, literal(-13)))
          CFI (cfiCond319) V2 load(1, XDATA, add(CFA_XSP16, literal(-12)))
          CFI (cfiCond319) V3 load(1, XDATA, add(CFA_XSP16, literal(-11)))
          CFI (cfiCond319) V4 load(1, XDATA, add(CFA_XSP16, literal(-10)))
          CFI (cfiCond319) V5 load(1, XDATA, add(CFA_XSP16, literal(-9)))
          CFI (cfiCond319) V6 load(1, XDATA, add(CFA_XSP16, literal(-8)))
          CFI (cfiCond319) V7 load(1, XDATA, add(CFA_XSP16, literal(-7)))
          CFI (cfiCond319) R7 load(1, XDATA, add(CFA_XSP16, literal(-6)))
          CFI (cfiCond319) ?RET_LOW load(1, XDATA, add(CFA_XSP16, literal(-5)))
          CFI (cfiCond319) ?RET_HIGH load(1, XDATA, add(CFA_XSP16, literal(-4)))
          CFI (cfiCond319) ?BRET_EXT load(1, XDATA, add(CFA_XSP16, literal(-3)))
          CFI (cfiCond319) DPL0 load(1, XDATA, add(CFA_XSP16, literal(-2)))
          CFI (cfiCond319) DPH0 load(1, XDATA, add(CFA_XSP16, literal(-1)))
          CFI (cfiCond319) CFA_SP SP+-4
          CFI (cfiCond319) CFA_XSP16 add(XSP16, 22)
          CFI Block cfiCond320 Using cfiCommon0
          CFI (cfiCond320) Function zclGp_SendGpCommissioningNotificationCommand
          CFI (cfiCond320) Conditional ??CrossCallReturnLabel_161, ??CrossCallReturnLabel_146
          CFI (cfiCond320) R6 load(1, XDATA, add(CFA_XSP16, literal(-16)))
          CFI (cfiCond320) VB load(1, XDATA, add(CFA_XSP16, literal(-15)))
          CFI (cfiCond320) V0 load(1, XDATA, add(CFA_XSP16, literal(-14)))
          CFI (cfiCond320) V1 load(1, XDATA, add(CFA_XSP16, literal(-13)))
          CFI (cfiCond320) V2 load(1, XDATA, add(CFA_XSP16, literal(-12)))
          CFI (cfiCond320) V3 load(1, XDATA, add(CFA_XSP16, literal(-11)))
          CFI (cfiCond320) V4 load(1, XDATA, add(CFA_XSP16, literal(-10)))
          CFI (cfiCond320) V5 load(1, XDATA, add(CFA_XSP16, literal(-9)))
          CFI (cfiCond320) V6 load(1, XDATA, add(CFA_XSP16, literal(-8)))
          CFI (cfiCond320) V7 load(1, XDATA, add(CFA_XSP16, literal(-7)))
          CFI (cfiCond320) R7 load(1, XDATA, add(CFA_XSP16, literal(-6)))
          CFI (cfiCond320) ?RET_LOW load(1, XDATA, add(CFA_XSP16, literal(-5)))
          CFI (cfiCond320) ?RET_HIGH load(1, XDATA, add(CFA_XSP16, literal(-4)))
          CFI (cfiCond320) ?BRET_EXT load(1, XDATA, add(CFA_XSP16, literal(-3)))
          CFI (cfiCond320) DPL0 load(1, XDATA, add(CFA_XSP16, literal(-2)))
          CFI (cfiCond320) DPH0 load(1, XDATA, add(CFA_XSP16, literal(-1)))
          CFI (cfiCond320) CFA_SP SP+-4
          CFI (cfiCond320) CFA_XSP16 add(XSP16, 30)
          CFI Block cfiCond321 Using cfiCommon0
          CFI (cfiCond321) Function zclGp_SendGpProxyTableResponse
          CFI (cfiCond321) Conditional ??CrossCallReturnLabel_161, ??CrossCallReturnLabel_147
          CFI (cfiCond321) R6 load(1, XDATA, add(CFA_XSP16, literal(-16)))
          CFI (cfiCond321) VB load(1, XDATA, add(CFA_XSP16, literal(-15)))
          CFI (cfiCond321) V0 load(1, XDATA, add(CFA_XSP16, literal(-14)))
          CFI (cfiCond321) V1 load(1, XDATA, add(CFA_XSP16, literal(-13)))
          CFI (cfiCond321) V2 load(1, XDATA, add(CFA_XSP16, literal(-12)))
          CFI (cfiCond321) V3 load(1, XDATA, add(CFA_XSP16, literal(-11)))
          CFI (cfiCond321) V4 load(1, XDATA, add(CFA_XSP16, literal(-10)))
          CFI (cfiCond321) V5 load(1, XDATA, add(CFA_XSP16, literal(-9)))
          CFI (cfiCond321) V6 load(1, XDATA, add(CFA_XSP16, literal(-8)))
          CFI (cfiCond321) V7 load(1, XDATA, add(CFA_XSP16, literal(-7)))
          CFI (cfiCond321) R7 load(1, XDATA, add(CFA_XSP16, literal(-6)))
          CFI (cfiCond321) ?RET_LOW load(1, XDATA, add(CFA_XSP16, literal(-5)))
          CFI (cfiCond321) ?RET_HIGH load(1, XDATA, add(CFA_XSP16, literal(-4)))
          CFI (cfiCond321) ?BRET_EXT load(1, XDATA, add(CFA_XSP16, literal(-3)))
          CFI (cfiCond321) DPL0 load(1, XDATA, add(CFA_XSP16, literal(-2)))
          CFI (cfiCond321) DPH0 load(1, XDATA, add(CFA_XSP16, literal(-1)))
          CFI (cfiCond321) CFA_SP SP+-4
          CFI (cfiCond321) CFA_XSP16 add(XSP16, 24)
          CFI Block cfiCond322 Using cfiCommon0
          CFI (cfiCond322) Function zclGp_SendGpProxyTableResponse
          CFI (cfiCond322) Conditional ??CrossCallReturnLabel_161, ??CrossCallReturnLabel_148
          CFI (cfiCond322) R6 load(1, XDATA, add(CFA_XSP16, literal(-16)))
          CFI (cfiCond322) VB load(1, XDATA, add(CFA_XSP16, literal(-15)))
          CFI (cfiCond322) V0 load(1, XDATA, add(CFA_XSP16, literal(-14)))
          CFI (cfiCond322) V1 load(1, XDATA, add(CFA_XSP16, literal(-13)))
          CFI (cfiCond322) V2 load(1, XDATA, add(CFA_XSP16, literal(-12)))
          CFI (cfiCond322) V3 load(1, XDATA, add(CFA_XSP16, literal(-11)))
          CFI (cfiCond322) V4 load(1, XDATA, add(CFA_XSP16, literal(-10)))
          CFI (cfiCond322) V5 load(1, XDATA, add(CFA_XSP16, literal(-9)))
          CFI (cfiCond322) V6 load(1, XDATA, add(CFA_XSP16, literal(-8)))
          CFI (cfiCond322) V7 load(1, XDATA, add(CFA_XSP16, literal(-7)))
          CFI (cfiCond322) R7 load(1, XDATA, add(CFA_XSP16, literal(-6)))
          CFI (cfiCond322) ?RET_LOW load(1, XDATA, add(CFA_XSP16, literal(-5)))
          CFI (cfiCond322) ?RET_HIGH load(1, XDATA, add(CFA_XSP16, literal(-4)))
          CFI (cfiCond322) ?BRET_EXT load(1, XDATA, add(CFA_XSP16, literal(-3)))
          CFI (cfiCond322) DPL0 load(1, XDATA, add(CFA_XSP16, literal(-2)))
          CFI (cfiCond322) DPH0 load(1, XDATA, add(CFA_XSP16, literal(-1)))
          CFI (cfiCond322) CFA_SP SP+-4
          CFI (cfiCond322) CFA_XSP16 add(XSP16, 24)
          CFI Block cfiCond323 Using cfiCommon0
          CFI (cfiCond323) Function gp_AddNotificationMsgNode
          CFI (cfiCond323) Conditional ??CrossCallReturnLabel_161, ??CrossCallReturnLabel_149
          CFI (cfiCond323) R6 load(1, XDATA, add(CFA_XSP16, literal(-12)))
          CFI (cfiCond323) VB load(1, XDATA, add(CFA_XSP16, literal(-11)))
          CFI (cfiCond323) V0 load(1, XDATA, add(CFA_XSP16, literal(-10)))
          CFI (cfiCond323) V1 load(1, XDATA, add(CFA_XSP16, literal(-9)))
          CFI (cfiCond323) V2 load(1, XDATA, add(CFA_XSP16, literal(-8)))
          CFI (cfiCond323) V3 load(1, XDATA, add(CFA_XSP16, literal(-7)))
          CFI (cfiCond323) R7 load(1, XDATA, add(CFA_XSP16, literal(-6)))
          CFI (cfiCond323) ?RET_LOW load(1, XDATA, add(CFA_XSP16, literal(-5)))
          CFI (cfiCond323) ?RET_HIGH load(1, XDATA, add(CFA_XSP16, literal(-4)))
          CFI (cfiCond323) ?BRET_EXT load(1, XDATA, add(CFA_XSP16, literal(-3)))
          CFI (cfiCond323) DPL0 load(1, XDATA, add(CFA_XSP16, literal(-2)))
          CFI (cfiCond323) DPH0 load(1, XDATA, add(CFA_XSP16, literal(-1)))
          CFI (cfiCond323) CFA_SP SP+-4
          CFI (cfiCond323) CFA_XSP16 add(XSP16, 12)
          CFI Block cfiCond324 Using cfiCommon0
          CFI (cfiCond324) Function gp_AddCmdPayloadMsgNode
          CFI (cfiCond324) Conditional ??CrossCallReturnLabel_161, ??CrossCallReturnLabel_150
          CFI (cfiCond324) R6 load(1, XDATA, add(CFA_XSP16, literal(-14)))
          CFI (cfiCond324) VB load(1, XDATA, add(CFA_XSP16, literal(-13)))
          CFI (cfiCond324) V0 load(1, XDATA, add(CFA_XSP16, literal(-12)))
          CFI (cfiCond324) V1 load(1, XDATA, add(CFA_XSP16, literal(-11)))
          CFI (cfiCond324) V2 load(1, XDATA, add(CFA_XSP16, literal(-10)))
          CFI (cfiCond324) V3 load(1, XDATA, add(CFA_XSP16, literal(-9)))
          CFI (cfiCond324) V4 load(1, XDATA, add(CFA_XSP16, literal(-8)))
          CFI (cfiCond324) V5 load(1, XDATA, add(CFA_XSP16, literal(-7)))
          CFI (cfiCond324) R7 load(1, XDATA, add(CFA_XSP16, literal(-6)))
          CFI (cfiCond324) ?RET_LOW load(1, XDATA, add(CFA_XSP16, literal(-5)))
          CFI (cfiCond324) ?RET_HIGH load(1, XDATA, add(CFA_XSP16, literal(-4)))
          CFI (cfiCond324) ?BRET_EXT load(1, XDATA, add(CFA_XSP16, literal(-3)))
          CFI (cfiCond324) DPL0 load(1, XDATA, add(CFA_XSP16, literal(-2)))
          CFI (cfiCond324) DPH0 load(1, XDATA, add(CFA_XSP16, literal(-1)))
          CFI (cfiCond324) CFA_SP SP+-4
          CFI (cfiCond324) CFA_XSP16 add(XSP16, 14)
          CFI Block cfiCond325 Using cfiCommon0
          CFI (cfiCond325) Function gp_NotificationMsgClean
          CFI (cfiCond325) Conditional ??CrossCallReturnLabel_161, ??CrossCallReturnLabel_151
          CFI (cfiCond325) R6 load(1, XDATA, add(CFA_XSP16, literal(-12)))
          CFI (cfiCond325) VB load(1, XDATA, add(CFA_XSP16, literal(-11)))
          CFI (cfiCond325) V0 load(1, XDATA, add(CFA_XSP16, literal(-10)))
          CFI (cfiCond325) V1 load(1, XDATA, add(CFA_XSP16, literal(-9)))
          CFI (cfiCond325) V2 load(1, XDATA, add(CFA_XSP16, literal(-8)))
          CFI (cfiCond325) V3 load(1, XDATA, add(CFA_XSP16, literal(-7)))
          CFI (cfiCond325) R7 load(1, XDATA, add(CFA_XSP16, literal(-6)))
          CFI (cfiCond325) ?RET_LOW load(1, XDATA, add(CFA_XSP16, literal(-5)))
          CFI (cfiCond325) ?RET_HIGH load(1, XDATA, add(CFA_XSP16, literal(-4)))
          CFI (cfiCond325) ?BRET_EXT load(1, XDATA, add(CFA_XSP16, literal(-3)))
          CFI (cfiCond325) DPL0 load(1, XDATA, add(CFA_XSP16, literal(-2)))
          CFI (cfiCond325) DPH0 load(1, XDATA, add(CFA_XSP16, literal(-1)))
          CFI (cfiCond325) CFA_SP SP+-4
          CFI (cfiCond325) CFA_XSP16 add(XSP16, 12)
          CFI Block cfiCond326 Using cfiCommon0
          CFI (cfiCond326) Function gp_NotificationMsgClean
          CFI (cfiCond326) Conditional ??CrossCallReturnLabel_156
          CFI (cfiCond326) R6 load(1, XDATA, add(CFA_XSP16, literal(-12)))
          CFI (cfiCond326) VB load(1, XDATA, add(CFA_XSP16, literal(-11)))
          CFI (cfiCond326) V0 load(1, XDATA, add(CFA_XSP16, literal(-10)))
          CFI (cfiCond326) V1 load(1, XDATA, add(CFA_XSP16, literal(-9)))
          CFI (cfiCond326) V2 load(1, XDATA, add(CFA_XSP16, literal(-8)))
          CFI (cfiCond326) V3 load(1, XDATA, add(CFA_XSP16, literal(-7)))
          CFI (cfiCond326) R7 load(1, XDATA, add(CFA_XSP16, literal(-6)))
          CFI (cfiCond326) ?RET_LOW load(1, XDATA, add(CFA_XSP16, literal(-5)))
          CFI (cfiCond326) ?RET_HIGH load(1, XDATA, add(CFA_XSP16, literal(-4)))
          CFI (cfiCond326) ?BRET_EXT load(1, XDATA, add(CFA_XSP16, literal(-3)))
          CFI (cfiCond326) DPL0 load(1, XDATA, add(CFA_XSP16, literal(-2)))
          CFI (cfiCond326) DPH0 load(1, XDATA, add(CFA_XSP16, literal(-1)))
          CFI (cfiCond326) CFA_SP SP+-2
          CFI (cfiCond326) CFA_XSP16 add(XSP16, 12)
          CFI Block cfiCond327 Using cfiCommon0
          CFI (cfiCond327) Function gp_CmdPayloadMsgClean
          CFI (cfiCond327) Conditional ??CrossCallReturnLabel_157
          CFI (cfiCond327) R6 load(1, XDATA, add(CFA_XSP16, literal(-9)))
          CFI (cfiCond327) VB load(1, XDATA, add(CFA_XSP16, literal(-8)))
          CFI (cfiCond327) V0 load(1, XDATA, add(CFA_XSP16, literal(-7)))
          CFI (cfiCond327) R7 load(1, XDATA, add(CFA_XSP16, literal(-6)))
          CFI (cfiCond327) ?RET_LOW load(1, XDATA, add(CFA_XSP16, literal(-5)))
          CFI (cfiCond327) ?RET_HIGH load(1, XDATA, add(CFA_XSP16, literal(-4)))
          CFI (cfiCond327) ?BRET_EXT load(1, XDATA, add(CFA_XSP16, literal(-3)))
          CFI (cfiCond327) DPL0 load(1, XDATA, add(CFA_XSP16, literal(-2)))
          CFI (cfiCond327) DPH0 load(1, XDATA, add(CFA_XSP16, literal(-1)))
          CFI (cfiCond327) CFA_SP SP+-2
          CFI (cfiCond327) CFA_XSP16 add(XSP16, 9)
          CFI Block cfiPicker328 Using cfiCommon1
          CFI (cfiPicker328) NoFunction
          CFI (cfiPicker328) Picker
        MOVX      A,@DPTR
        MOV       R0,A
        INC       DPTR
        MOVX      A,@DPTR
        RET
          CFI EndBlock cfiCond293
          CFI EndBlock cfiCond294
          CFI EndBlock cfiCond295
          CFI EndBlock cfiCond296
          CFI EndBlock cfiCond297
          CFI EndBlock cfiCond298
          CFI EndBlock cfiCond299
          CFI EndBlock cfiCond300
          CFI EndBlock cfiCond301
          CFI EndBlock cfiCond302
          CFI EndBlock cfiCond303
          CFI EndBlock cfiCond304
          CFI EndBlock cfiCond305
          CFI EndBlock cfiCond306
          CFI EndBlock cfiCond307
          CFI EndBlock cfiCond308
          CFI EndBlock cfiCond309
          CFI EndBlock cfiCond310
          CFI EndBlock cfiCond311
          CFI EndBlock cfiCond312
          CFI EndBlock cfiCond313
          CFI EndBlock cfiCond314
          CFI EndBlock cfiCond315
          CFI EndBlock cfiCond316
          CFI EndBlock cfiCond317
          CFI EndBlock cfiCond318
          CFI EndBlock cfiCond319
          CFI EndBlock cfiCond320
          CFI EndBlock cfiCond321
          CFI EndBlock cfiCond322
          CFI EndBlock cfiCond323
          CFI EndBlock cfiCond324
          CFI EndBlock cfiCond325
          CFI EndBlock cfiCond326
          CFI EndBlock cfiCond327
          CFI EndBlock cfiPicker328
//  836 
//  837 /*********************************************************************
//  838  * @fn      gp_AddCmdPayloadMsgNode
//  839  *
//  840  * @brief   Add node to Notification Msg list
//  841  *
//  842  * @param   pHead - pointer to a pointer of the list head
//  843  *
//  844  * @return  pointer to new node
//  845  */

        RSEG BANKED_CODE:HUGECODE:NOROOT(0)
//  846 gpCmdPayloadMsg_t* gp_AddCmdPayloadMsgNode( gpCmdPayloadMsg_t **pHead, uint8* pBuf, uint8 len )
gp_AddCmdPayloadMsgNode:
          CFI Block cfiBlock329 Using cfiCommon0
          CFI Function gp_AddCmdPayloadMsgNode
        CODE
//  847 {
        FUNCALL gp_AddCmdPayloadMsgNode, gp_CreateCmdPayloadMsgList
        LOCFRAME ISTACK, 0, STACK
        LOCFRAME PSTACK, 0, STACK
        LOCFRAME XSTACK, 14, STACK
        LOCFRAME IOVERLAY, 0, STATIC
        LOCFRAME DOVERLAY, 0, STATIC
        ARGFRAME ISTACK, 0, STACK
        ARGFRAME PSTACK, 0, STACK
        ARGFRAME XSTACK, 14, STACK
        ARGFRAME IOVERLAY, 0, STATIC
        ARGFRAME DOVERLAY, 0, STATIC
        FUNCALL gp_AddCmdPayloadMsgNode, osal_mem_alloc
        LOCFRAME ISTACK, 0, STACK
        LOCFRAME PSTACK, 0, STACK
        LOCFRAME XSTACK, 14, STACK
        LOCFRAME IOVERLAY, 0, STATIC
        LOCFRAME DOVERLAY, 0, STATIC
        ARGFRAME ISTACK, 0, STACK
        ARGFRAME PSTACK, 0, STACK
        ARGFRAME XSTACK, 14, STACK
        ARGFRAME IOVERLAY, 0, STATIC
        ARGFRAME DOVERLAY, 0, STATIC
        REQUIRE ?V0
        REQUIRE ?V1
        REQUIRE ?V2
        REQUIRE ?V4
        REQUIRE ?V5
        MOV       A,#-0xe
        LCALL     ?BANKED_ENTER_XDATA
          CFI DPH0 load(1, XDATA, add(CFA_XSP16, literal(-1)))
          CFI DPL0 load(1, XDATA, add(CFA_XSP16, literal(-2)))
          CFI ?BRET_EXT load(1, XDATA, add(CFA_XSP16, literal(-3)))
          CFI ?RET_HIGH load(1, XDATA, add(CFA_XSP16, literal(-4)))
          CFI ?RET_LOW load(1, XDATA, add(CFA_XSP16, literal(-5)))
          CFI R7 load(1, XDATA, add(CFA_XSP16, literal(-6)))
          CFI V5 load(1, XDATA, add(CFA_XSP16, literal(-7)))
          CFI V4 load(1, XDATA, add(CFA_XSP16, literal(-8)))
          CFI V3 load(1, XDATA, add(CFA_XSP16, literal(-9)))
          CFI V2 load(1, XDATA, add(CFA_XSP16, literal(-10)))
          CFI V1 load(1, XDATA, add(CFA_XSP16, literal(-11)))
          CFI V0 load(1, XDATA, add(CFA_XSP16, literal(-12)))
          CFI VB load(1, XDATA, add(CFA_XSP16, literal(-13)))
          CFI R6 load(1, XDATA, add(CFA_XSP16, literal(-14)))
          CFI CFA_SP SP+0
          CFI CFA_XSP16 add(XSP16, 14)
        ; Saved register size: 14
        ; Auto size: 0
        MOV       A,R2
        MOV       R6,A
        MOV       A,R3
        MOV       R7,A
        MOV       ?V0,R4
        MOV       ?V1,R5
        MOV       ?V2,R1
//  848   gpCmdPayloadMsg_t **pCurr;
//  849   
//  850     // Create respondent list if empty
//  851   if ( *pHead == NULL )
        LCALL     ??Subroutine66_0 & 0xFFFF
??CrossCallReturnLabel_155:
        JNZ       ??gp_AddCmdPayloadMsgNode_0
//  852   {
//  853     gp_CreateCmdPayloadMsgList( pHead );
        ; Setup parameters for call to function gp_CreateCmdPayloadMsgList
        LCALL     `??gp_CreateCmdPayloadMsgList::?relay`; Banked call to: gp_CreateCmdPayloadMsgList
//  854     
//  855     if ( pHead != NULL )
        MOV       A,R6
        ORL       A,R7
        JZ        ??gp_AddCmdPayloadMsgNode_1
//  856     {
//  857       ( ( ( gpCmdPayloadMsg_t* ) *pHead )->lenght ) = len;
        LCALL     ?Subroutine16 & 0xFFFF
//  858       ( ( ( gpCmdPayloadMsg_t* ) *pHead )->pMsg ) = ( uint8* )pBuf;
//  859     }
??CrossCallReturnLabel_9:
        LCALL     ??Subroutine60_0 & 0xFFFF
??CrossCallReturnLabel_107:
        MOV       A,?V0
        MOVX      @DPTR,A
        INC       DPTR
        MOV       A,?V1
        MOVX      @DPTR,A
//  860     return *pHead;
??gp_AddCmdPayloadMsgNode_1:
        LCALL     ?Subroutine27 & 0xFFFF
//  861   }
??CrossCallReturnLabel_169:
        SJMP      ??gp_AddCmdPayloadMsgNode_2
//  862   
//  863   pCurr = &((*pHead)->pNext);
//  864   
//  865   while ( *pCurr != NULL )
//  866   {
//  867     pCurr = &((*pCurr)->pNext);
??gp_AddCmdPayloadMsgNode_0:
        MOV       A,R0
        ADD       A,#0x4
        MOV       R6,A
        CLR       A
        ADDC      A,R1
        MOV       R7,A
//  868   }
        MOV       DPL,R6
        MOV       DPH,R7
        LCALL     ??Subroutine68_0 & 0xFFFF
??CrossCallReturnLabel_150:
        JNZ       ??gp_AddCmdPayloadMsgNode_0
//  869 
//  870   *pCurr = ( gpCmdPayloadMsg_t* )osal_mem_alloc( sizeof( gpCmdPayloadMsg_t ) );
        ; Setup parameters for call to function osal_mem_alloc
        MOV       R2,#0x6
        MOV       R3,#0x0
        LCALL     `??osal_mem_alloc::?relay`; Banked call to: osal_mem_alloc
        MOV       ?V5,R3
        MOV       R1,?V5
        LCALL     ?Subroutine35 & 0xFFFF
//  871     
//  872   if ( (*pCurr)->pNext != NULL )
??CrossCallReturnLabel_134:
        MOV       A,R2
        ADD       A,#0x4
        MOV       R0,A
        JNC       ??gp_AddCmdPayloadMsgNode_3
        INC       R1
??gp_AddCmdPayloadMsgNode_3:
        LCALL     ?Subroutine12 & 0xFFFF
??CrossCallReturnLabel_139:
        JZ        ??gp_AddCmdPayloadMsgNode_4
//  873   {
//  874     (*pCurr)->pNext = NULL;
        MOV       DPL,R0
        MOV       DPH,R1
        CLR       A
        MOVX      @DPTR,A
        INC       DPTR
        MOVX      @DPTR,A
//  875   }
//  876   ( ( ( gpCmdPayloadMsg_t* ) *pCurr )->lenght ) = len;
??gp_AddCmdPayloadMsgNode_4:
        LCALL     ?Subroutine16 & 0xFFFF
//  877   ( ( ( gpCmdPayloadMsg_t* ) *pCurr )->pMsg ) = ( uint8* )pBuf;
??CrossCallReturnLabel_10:
        MOV       R2,A
        INC       DPTR
        MOVX      A,@DPTR
        MOV       R3,A
        MOV       DPL,R2
        MOV       DPH,A
        INC       DPTR
        INC       DPTR
        MOV       A,?V0
        MOVX      @DPTR,A
        INC       DPTR
        MOV       A,?V1
        MOVX      @DPTR,A
//  878   
//  879   return *pCurr;
??gp_AddCmdPayloadMsgNode_2:
        MOV       R7,#0x6
        LJMP      ?BANKED_LEAVE_XDATA
//  880 }
          CFI EndBlock cfiBlock329

        RSEG BANKED_CODE:HUGECODE:NOROOT(0)
?Subroutine16:
          CFI Block cfiCond330 Using cfiCommon0
          CFI Function gp_AddCmdPayloadMsgNode
          CFI Conditional ??CrossCallReturnLabel_9
          CFI R6 load(1, XDATA, add(CFA_XSP16, literal(-14)))
          CFI VB load(1, XDATA, add(CFA_XSP16, literal(-13)))
          CFI V0 load(1, XDATA, add(CFA_XSP16, literal(-12)))
          CFI V1 load(1, XDATA, add(CFA_XSP16, literal(-11)))
          CFI V2 load(1, XDATA, add(CFA_XSP16, literal(-10)))
          CFI V3 load(1, XDATA, add(CFA_XSP16, literal(-9)))
          CFI V4 load(1, XDATA, add(CFA_XSP16, literal(-8)))
          CFI V5 load(1, XDATA, add(CFA_XSP16, literal(-7)))
          CFI R7 load(1, XDATA, add(CFA_XSP16, literal(-6)))
          CFI ?RET_LOW load(1, XDATA, add(CFA_XSP16, literal(-5)))
          CFI ?RET_HIGH load(1, XDATA, add(CFA_XSP16, literal(-4)))
          CFI ?BRET_EXT load(1, XDATA, add(CFA_XSP16, literal(-3)))
          CFI DPL0 load(1, XDATA, add(CFA_XSP16, literal(-2)))
          CFI DPH0 load(1, XDATA, add(CFA_XSP16, literal(-1)))
          CFI CFA_SP SP+-2
          CFI CFA_XSP16 add(XSP16, 14)
          CFI Block cfiCond331 Using cfiCommon0
          CFI (cfiCond331) Function gp_AddCmdPayloadMsgNode
          CFI (cfiCond331) Conditional ??CrossCallReturnLabel_10
          CFI (cfiCond331) R6 load(1, XDATA, add(CFA_XSP16, literal(-14)))
          CFI (cfiCond331) VB load(1, XDATA, add(CFA_XSP16, literal(-13)))
          CFI (cfiCond331) V0 load(1, XDATA, add(CFA_XSP16, literal(-12)))
          CFI (cfiCond331) V1 load(1, XDATA, add(CFA_XSP16, literal(-11)))
          CFI (cfiCond331) V2 load(1, XDATA, add(CFA_XSP16, literal(-10)))
          CFI (cfiCond331) V3 load(1, XDATA, add(CFA_XSP16, literal(-9)))
          CFI (cfiCond331) V4 load(1, XDATA, add(CFA_XSP16, literal(-8)))
          CFI (cfiCond331) V5 load(1, XDATA, add(CFA_XSP16, literal(-7)))
          CFI (cfiCond331) R7 load(1, XDATA, add(CFA_XSP16, literal(-6)))
          CFI (cfiCond331) ?RET_LOW load(1, XDATA, add(CFA_XSP16, literal(-5)))
          CFI (cfiCond331) ?RET_HIGH load(1, XDATA, add(CFA_XSP16, literal(-4)))
          CFI (cfiCond331) ?BRET_EXT load(1, XDATA, add(CFA_XSP16, literal(-3)))
          CFI (cfiCond331) DPL0 load(1, XDATA, add(CFA_XSP16, literal(-2)))
          CFI (cfiCond331) DPH0 load(1, XDATA, add(CFA_XSP16, literal(-1)))
          CFI (cfiCond331) CFA_SP SP+-2
          CFI (cfiCond331) CFA_XSP16 add(XSP16, 14)
          CFI Block cfiPicker332 Using cfiCommon1
          CFI (cfiPicker332) NoFunction
          CFI (cfiPicker332) Picker
        MOV       DPL,R6
        MOV       DPH,R7
        LCALL     ?Subroutine42 & 0xFFFF
??CrossCallReturnLabel_52:
        MOV       A,?V2
        MOVX      @DPTR,A
        MOV       DPL,R6
        MOV       DPH,R7
        MOVX      A,@DPTR
        RET
          CFI EndBlock cfiCond330
          CFI EndBlock cfiCond331
          CFI EndBlock cfiPicker332

        RSEG BANKED_CODE:HUGECODE:NOROOT(0)
?Subroutine42:
          CFI Block cfiCond333 Using cfiCommon0
          CFI Function zclGp_ProcessInProxyBasic
          CFI Conditional ??CrossCallReturnLabel_53, ??CrossCallReturnLabel_13
          CFI R6 load(1, XDATA, add(CFA_XSP16, literal(-15)))
          CFI VB load(1, XDATA, add(CFA_XSP16, literal(-14)))
          CFI V0 load(1, XDATA, add(CFA_XSP16, literal(-13)))
          CFI V1 load(1, XDATA, add(CFA_XSP16, literal(-12)))
          CFI V2 load(1, XDATA, add(CFA_XSP16, literal(-11)))
          CFI V3 load(1, XDATA, add(CFA_XSP16, literal(-10)))
          CFI V4 load(1, XDATA, add(CFA_XSP16, literal(-9)))
          CFI V5 load(1, XDATA, add(CFA_XSP16, literal(-8)))
          CFI V6 load(1, XDATA, add(CFA_XSP16, literal(-7)))
          CFI R7 load(1, XDATA, add(CFA_XSP16, literal(-6)))
          CFI ?RET_LOW load(1, XDATA, add(CFA_XSP16, literal(-5)))
          CFI ?RET_HIGH load(1, XDATA, add(CFA_XSP16, literal(-4)))
          CFI ?BRET_EXT load(1, XDATA, add(CFA_XSP16, literal(-3)))
          CFI DPL0 load(1, XDATA, add(CFA_XSP16, literal(-2)))
          CFI DPH0 load(1, XDATA, add(CFA_XSP16, literal(-1)))
          CFI CFA_SP SP+-4
          CFI CFA_XSP16 add(XSP16, 43)
          CFI Block cfiCond334 Using cfiCommon0
          CFI (cfiCond334) Function zclGp_ProcessInProxyBasic
          CFI (cfiCond334) Conditional ??CrossCallReturnLabel_53, ??CrossCallReturnLabel_14
          CFI (cfiCond334) R6 load(1, XDATA, add(CFA_XSP16, literal(-15)))
          CFI (cfiCond334) VB load(1, XDATA, add(CFA_XSP16, literal(-14)))
          CFI (cfiCond334) V0 load(1, XDATA, add(CFA_XSP16, literal(-13)))
          CFI (cfiCond334) V1 load(1, XDATA, add(CFA_XSP16, literal(-12)))
          CFI (cfiCond334) V2 load(1, XDATA, add(CFA_XSP16, literal(-11)))
          CFI (cfiCond334) V3 load(1, XDATA, add(CFA_XSP16, literal(-10)))
          CFI (cfiCond334) V4 load(1, XDATA, add(CFA_XSP16, literal(-9)))
          CFI (cfiCond334) V5 load(1, XDATA, add(CFA_XSP16, literal(-8)))
          CFI (cfiCond334) V6 load(1, XDATA, add(CFA_XSP16, literal(-7)))
          CFI (cfiCond334) R7 load(1, XDATA, add(CFA_XSP16, literal(-6)))
          CFI (cfiCond334) ?RET_LOW load(1, XDATA, add(CFA_XSP16, literal(-5)))
          CFI (cfiCond334) ?RET_HIGH load(1, XDATA, add(CFA_XSP16, literal(-4)))
          CFI (cfiCond334) ?BRET_EXT load(1, XDATA, add(CFA_XSP16, literal(-3)))
          CFI (cfiCond334) DPL0 load(1, XDATA, add(CFA_XSP16, literal(-2)))
          CFI (cfiCond334) DPH0 load(1, XDATA, add(CFA_XSP16, literal(-1)))
          CFI (cfiCond334) CFA_SP SP+-4
          CFI (cfiCond334) CFA_XSP16 add(XSP16, 43)
          CFI Block cfiCond335 Using cfiCommon0
          CFI (cfiCond335) Function gp_AddCmdPayloadMsgNode
          CFI (cfiCond335) Conditional ??CrossCallReturnLabel_52, ??CrossCallReturnLabel_9
          CFI (cfiCond335) R6 load(1, XDATA, add(CFA_XSP16, literal(-14)))
          CFI (cfiCond335) VB load(1, XDATA, add(CFA_XSP16, literal(-13)))
          CFI (cfiCond335) V0 load(1, XDATA, add(CFA_XSP16, literal(-12)))
          CFI (cfiCond335) V1 load(1, XDATA, add(CFA_XSP16, literal(-11)))
          CFI (cfiCond335) V2 load(1, XDATA, add(CFA_XSP16, literal(-10)))
          CFI (cfiCond335) V3 load(1, XDATA, add(CFA_XSP16, literal(-9)))
          CFI (cfiCond335) V4 load(1, XDATA, add(CFA_XSP16, literal(-8)))
          CFI (cfiCond335) V5 load(1, XDATA, add(CFA_XSP16, literal(-7)))
          CFI (cfiCond335) R7 load(1, XDATA, add(CFA_XSP16, literal(-6)))
          CFI (cfiCond335) ?RET_LOW load(1, XDATA, add(CFA_XSP16, literal(-5)))
          CFI (cfiCond335) ?RET_HIGH load(1, XDATA, add(CFA_XSP16, literal(-4)))
          CFI (cfiCond335) ?BRET_EXT load(1, XDATA, add(CFA_XSP16, literal(-3)))
          CFI (cfiCond335) DPL0 load(1, XDATA, add(CFA_XSP16, literal(-2)))
          CFI (cfiCond335) DPH0 load(1, XDATA, add(CFA_XSP16, literal(-1)))
          CFI (cfiCond335) CFA_SP SP+-4
          CFI (cfiCond335) CFA_XSP16 add(XSP16, 14)
          CFI Block cfiCond336 Using cfiCommon0
          CFI (cfiCond336) Function gp_AddCmdPayloadMsgNode
          CFI (cfiCond336) Conditional ??CrossCallReturnLabel_52, ??CrossCallReturnLabel_10
          CFI (cfiCond336) R6 load(1, XDATA, add(CFA_XSP16, literal(-14)))
          CFI (cfiCond336) VB load(1, XDATA, add(CFA_XSP16, literal(-13)))
          CFI (cfiCond336) V0 load(1, XDATA, add(CFA_XSP16, literal(-12)))
          CFI (cfiCond336) V1 load(1, XDATA, add(CFA_XSP16, literal(-11)))
          CFI (cfiCond336) V2 load(1, XDATA, add(CFA_XSP16, literal(-10)))
          CFI (cfiCond336) V3 load(1, XDATA, add(CFA_XSP16, literal(-9)))
          CFI (cfiCond336) V4 load(1, XDATA, add(CFA_XSP16, literal(-8)))
          CFI (cfiCond336) V5 load(1, XDATA, add(CFA_XSP16, literal(-7)))
          CFI (cfiCond336) R7 load(1, XDATA, add(CFA_XSP16, literal(-6)))
          CFI (cfiCond336) ?RET_LOW load(1, XDATA, add(CFA_XSP16, literal(-5)))
          CFI (cfiCond336) ?RET_HIGH load(1, XDATA, add(CFA_XSP16, literal(-4)))
          CFI (cfiCond336) ?BRET_EXT load(1, XDATA, add(CFA_XSP16, literal(-3)))
          CFI (cfiCond336) DPL0 load(1, XDATA, add(CFA_XSP16, literal(-2)))
          CFI (cfiCond336) DPH0 load(1, XDATA, add(CFA_XSP16, literal(-1)))
          CFI (cfiCond336) CFA_SP SP+-4
          CFI (cfiCond336) CFA_XSP16 add(XSP16, 14)
          CFI Block cfiPicker337 Using cfiCommon1
          CFI (cfiPicker337) NoFunction
          CFI (cfiPicker337) Picker
        LCALL     ?Subroutine49 & 0xFFFF
??CrossCallReturnLabel_117:
        INC       DPTR
        RET
          CFI EndBlock cfiCond333
          CFI EndBlock cfiCond334
          CFI EndBlock cfiCond335
          CFI EndBlock cfiCond336
          CFI EndBlock cfiPicker337

        RSEG BANKED_CODE:HUGECODE:NOROOT(0)
?Subroutine49:
          CFI Block cfiCond338 Using cfiCommon0
          CFI Function zclGp_ProcessInProxyBasic
          CFI Conditional ??CrossCallReturnLabel_118, ??CrossCallReturnLabel_115, ??CrossCallReturnLabel_5
          CFI R6 load(1, XDATA, add(CFA_XSP16, literal(-15)))
          CFI VB load(1, XDATA, add(CFA_XSP16, literal(-14)))
          CFI V0 load(1, XDATA, add(CFA_XSP16, literal(-13)))
          CFI V1 load(1, XDATA, add(CFA_XSP16, literal(-12)))
          CFI V2 load(1, XDATA, add(CFA_XSP16, literal(-11)))
          CFI V3 load(1, XDATA, add(CFA_XSP16, literal(-10)))
          CFI V4 load(1, XDATA, add(CFA_XSP16, literal(-9)))
          CFI V5 load(1, XDATA, add(CFA_XSP16, literal(-8)))
          CFI V6 load(1, XDATA, add(CFA_XSP16, literal(-7)))
          CFI R7 load(1, XDATA, add(CFA_XSP16, literal(-6)))
          CFI ?RET_LOW load(1, XDATA, add(CFA_XSP16, literal(-5)))
          CFI ?RET_HIGH load(1, XDATA, add(CFA_XSP16, literal(-4)))
          CFI ?BRET_EXT load(1, XDATA, add(CFA_XSP16, literal(-3)))
          CFI DPL0 load(1, XDATA, add(CFA_XSP16, literal(-2)))
          CFI DPH0 load(1, XDATA, add(CFA_XSP16, literal(-1)))
          CFI CFA_SP SP+-6
          CFI CFA_XSP16 add(XSP16, 43)
          CFI Block cfiCond339 Using cfiCommon0
          CFI (cfiCond339) Function zclGp_ProcessInProxyBasic
          CFI (cfiCond339) Conditional ??CrossCallReturnLabel_118, ??CrossCallReturnLabel_115, ??CrossCallReturnLabel_6
          CFI (cfiCond339) R6 load(1, XDATA, add(CFA_XSP16, literal(-15)))
          CFI (cfiCond339) VB load(1, XDATA, add(CFA_XSP16, literal(-14)))
          CFI (cfiCond339) V0 load(1, XDATA, add(CFA_XSP16, literal(-13)))
          CFI (cfiCond339) V1 load(1, XDATA, add(CFA_XSP16, literal(-12)))
          CFI (cfiCond339) V2 load(1, XDATA, add(CFA_XSP16, literal(-11)))
          CFI (cfiCond339) V3 load(1, XDATA, add(CFA_XSP16, literal(-10)))
          CFI (cfiCond339) V4 load(1, XDATA, add(CFA_XSP16, literal(-9)))
          CFI (cfiCond339) V5 load(1, XDATA, add(CFA_XSP16, literal(-8)))
          CFI (cfiCond339) V6 load(1, XDATA, add(CFA_XSP16, literal(-7)))
          CFI (cfiCond339) R7 load(1, XDATA, add(CFA_XSP16, literal(-6)))
          CFI (cfiCond339) ?RET_LOW load(1, XDATA, add(CFA_XSP16, literal(-5)))
          CFI (cfiCond339) ?RET_HIGH load(1, XDATA, add(CFA_XSP16, literal(-4)))
          CFI (cfiCond339) ?BRET_EXT load(1, XDATA, add(CFA_XSP16, literal(-3)))
          CFI (cfiCond339) DPL0 load(1, XDATA, add(CFA_XSP16, literal(-2)))
          CFI (cfiCond339) DPH0 load(1, XDATA, add(CFA_XSP16, literal(-1)))
          CFI (cfiCond339) CFA_SP SP+-6
          CFI (cfiCond339) CFA_XSP16 add(XSP16, 43)
          CFI Block cfiCond340 Using cfiCommon0
          CFI (cfiCond340) Function zclGp_ProcessInProxyBasic
          CFI (cfiCond340) Conditional ??CrossCallReturnLabel_118, ??CrossCallReturnLabel_116, ??CrossCallReturnLabel_112
          CFI (cfiCond340) R6 load(1, XDATA, add(CFA_XSP16, literal(-15)))
          CFI (cfiCond340) VB load(1, XDATA, add(CFA_XSP16, literal(-14)))
          CFI (cfiCond340) V0 load(1, XDATA, add(CFA_XSP16, literal(-13)))
          CFI (cfiCond340) V1 load(1, XDATA, add(CFA_XSP16, literal(-12)))
          CFI (cfiCond340) V2 load(1, XDATA, add(CFA_XSP16, literal(-11)))
          CFI (cfiCond340) V3 load(1, XDATA, add(CFA_XSP16, literal(-10)))
          CFI (cfiCond340) V4 load(1, XDATA, add(CFA_XSP16, literal(-9)))
          CFI (cfiCond340) V5 load(1, XDATA, add(CFA_XSP16, literal(-8)))
          CFI (cfiCond340) V6 load(1, XDATA, add(CFA_XSP16, literal(-7)))
          CFI (cfiCond340) R7 load(1, XDATA, add(CFA_XSP16, literal(-6)))
          CFI (cfiCond340) ?RET_LOW load(1, XDATA, add(CFA_XSP16, literal(-5)))
          CFI (cfiCond340) ?RET_HIGH load(1, XDATA, add(CFA_XSP16, literal(-4)))
          CFI (cfiCond340) ?BRET_EXT load(1, XDATA, add(CFA_XSP16, literal(-3)))
          CFI (cfiCond340) DPL0 load(1, XDATA, add(CFA_XSP16, literal(-2)))
          CFI (cfiCond340) DPH0 load(1, XDATA, add(CFA_XSP16, literal(-1)))
          CFI (cfiCond340) CFA_SP SP+-6
          CFI (cfiCond340) CFA_XSP16 add(XSP16, 43)
          CFI Block cfiCond341 Using cfiCommon0
          CFI (cfiCond341) Function zclGp_ProcessInProxyBasic
          CFI (cfiCond341) Conditional ??CrossCallReturnLabel_118, ??CrossCallReturnLabel_116, ??CrossCallReturnLabel_113
          CFI (cfiCond341) R6 load(1, XDATA, add(CFA_XSP16, literal(-15)))
          CFI (cfiCond341) VB load(1, XDATA, add(CFA_XSP16, literal(-14)))
          CFI (cfiCond341) V0 load(1, XDATA, add(CFA_XSP16, literal(-13)))
          CFI (cfiCond341) V1 load(1, XDATA, add(CFA_XSP16, literal(-12)))
          CFI (cfiCond341) V2 load(1, XDATA, add(CFA_XSP16, literal(-11)))
          CFI (cfiCond341) V3 load(1, XDATA, add(CFA_XSP16, literal(-10)))
          CFI (cfiCond341) V4 load(1, XDATA, add(CFA_XSP16, literal(-9)))
          CFI (cfiCond341) V5 load(1, XDATA, add(CFA_XSP16, literal(-8)))
          CFI (cfiCond341) V6 load(1, XDATA, add(CFA_XSP16, literal(-7)))
          CFI (cfiCond341) R7 load(1, XDATA, add(CFA_XSP16, literal(-6)))
          CFI (cfiCond341) ?RET_LOW load(1, XDATA, add(CFA_XSP16, literal(-5)))
          CFI (cfiCond341) ?RET_HIGH load(1, XDATA, add(CFA_XSP16, literal(-4)))
          CFI (cfiCond341) ?BRET_EXT load(1, XDATA, add(CFA_XSP16, literal(-3)))
          CFI (cfiCond341) DPL0 load(1, XDATA, add(CFA_XSP16, literal(-2)))
          CFI (cfiCond341) DPH0 load(1, XDATA, add(CFA_XSP16, literal(-1)))
          CFI (cfiCond341) CFA_SP SP+-6
          CFI (cfiCond341) CFA_XSP16 add(XSP16, 43)
          CFI Block cfiCond342 Using cfiCommon0
          CFI (cfiCond342) Function zclGp_SendGpProxyTableResponse
          CFI (cfiCond342) Conditional ??CrossCallReturnLabel_118, ??CrossCallReturnLabel_116, ??CrossCallReturnLabel_114
          CFI (cfiCond342) R6 load(1, XDATA, add(CFA_XSP16, literal(-16)))
          CFI (cfiCond342) VB load(1, XDATA, add(CFA_XSP16, literal(-15)))
          CFI (cfiCond342) V0 load(1, XDATA, add(CFA_XSP16, literal(-14)))
          CFI (cfiCond342) V1 load(1, XDATA, add(CFA_XSP16, literal(-13)))
          CFI (cfiCond342) V2 load(1, XDATA, add(CFA_XSP16, literal(-12)))
          CFI (cfiCond342) V3 load(1, XDATA, add(CFA_XSP16, literal(-11)))
          CFI (cfiCond342) V4 load(1, XDATA, add(CFA_XSP16, literal(-10)))
          CFI (cfiCond342) V5 load(1, XDATA, add(CFA_XSP16, literal(-9)))
          CFI (cfiCond342) V6 load(1, XDATA, add(CFA_XSP16, literal(-8)))
          CFI (cfiCond342) V7 load(1, XDATA, add(CFA_XSP16, literal(-7)))
          CFI (cfiCond342) R7 load(1, XDATA, add(CFA_XSP16, literal(-6)))
          CFI (cfiCond342) ?RET_LOW load(1, XDATA, add(CFA_XSP16, literal(-5)))
          CFI (cfiCond342) ?RET_HIGH load(1, XDATA, add(CFA_XSP16, literal(-4)))
          CFI (cfiCond342) ?BRET_EXT load(1, XDATA, add(CFA_XSP16, literal(-3)))
          CFI (cfiCond342) DPL0 load(1, XDATA, add(CFA_XSP16, literal(-2)))
          CFI (cfiCond342) DPH0 load(1, XDATA, add(CFA_XSP16, literal(-1)))
          CFI (cfiCond342) CFA_SP SP+-6
          CFI (cfiCond342) CFA_XSP16 add(XSP16, 24)
          CFI Block cfiCond343 Using cfiCommon0
          CFI (cfiCond343) Function zclGp_ProcessInProxyBasic
          CFI (cfiCond343) Conditional ??CrossCallReturnLabel_118, ??CrossCallReturnLabel_116, ??CrossCallReturnLabel_108
          CFI (cfiCond343) R6 load(1, XDATA, add(CFA_XSP16, literal(-15)))
          CFI (cfiCond343) VB load(1, XDATA, add(CFA_XSP16, literal(-14)))
          CFI (cfiCond343) V0 load(1, XDATA, add(CFA_XSP16, literal(-13)))
          CFI (cfiCond343) V1 load(1, XDATA, add(CFA_XSP16, literal(-12)))
          CFI (cfiCond343) V2 load(1, XDATA, add(CFA_XSP16, literal(-11)))
          CFI (cfiCond343) V3 load(1, XDATA, add(CFA_XSP16, literal(-10)))
          CFI (cfiCond343) V4 load(1, XDATA, add(CFA_XSP16, literal(-9)))
          CFI (cfiCond343) V5 load(1, XDATA, add(CFA_XSP16, literal(-8)))
          CFI (cfiCond343) V6 load(1, XDATA, add(CFA_XSP16, literal(-7)))
          CFI (cfiCond343) R7 load(1, XDATA, add(CFA_XSP16, literal(-6)))
          CFI (cfiCond343) ?RET_LOW load(1, XDATA, add(CFA_XSP16, literal(-5)))
          CFI (cfiCond343) ?RET_HIGH load(1, XDATA, add(CFA_XSP16, literal(-4)))
          CFI (cfiCond343) ?BRET_EXT load(1, XDATA, add(CFA_XSP16, literal(-3)))
          CFI (cfiCond343) DPL0 load(1, XDATA, add(CFA_XSP16, literal(-2)))
          CFI (cfiCond343) DPH0 load(1, XDATA, add(CFA_XSP16, literal(-1)))
          CFI (cfiCond343) CFA_SP SP+-6
          CFI (cfiCond343) CFA_XSP16 add(XSP16, 43)
          CFI Block cfiCond344 Using cfiCommon0
          CFI (cfiCond344) Function zclGp_ProcessInProxyBasic
          CFI (cfiCond344) Conditional ??CrossCallReturnLabel_118, ??CrossCallReturnLabel_116, ??CrossCallReturnLabel_109
          CFI (cfiCond344) R6 load(1, XDATA, add(CFA_XSP16, literal(-15)))
          CFI (cfiCond344) VB load(1, XDATA, add(CFA_XSP16, literal(-14)))
          CFI (cfiCond344) V0 load(1, XDATA, add(CFA_XSP16, literal(-13)))
          CFI (cfiCond344) V1 load(1, XDATA, add(CFA_XSP16, literal(-12)))
          CFI (cfiCond344) V2 load(1, XDATA, add(CFA_XSP16, literal(-11)))
          CFI (cfiCond344) V3 load(1, XDATA, add(CFA_XSP16, literal(-10)))
          CFI (cfiCond344) V4 load(1, XDATA, add(CFA_XSP16, literal(-9)))
          CFI (cfiCond344) V5 load(1, XDATA, add(CFA_XSP16, literal(-8)))
          CFI (cfiCond344) V6 load(1, XDATA, add(CFA_XSP16, literal(-7)))
          CFI (cfiCond344) R7 load(1, XDATA, add(CFA_XSP16, literal(-6)))
          CFI (cfiCond344) ?RET_LOW load(1, XDATA, add(CFA_XSP16, literal(-5)))
          CFI (cfiCond344) ?RET_HIGH load(1, XDATA, add(CFA_XSP16, literal(-4)))
          CFI (cfiCond344) ?BRET_EXT load(1, XDATA, add(CFA_XSP16, literal(-3)))
          CFI (cfiCond344) DPL0 load(1, XDATA, add(CFA_XSP16, literal(-2)))
          CFI (cfiCond344) DPH0 load(1, XDATA, add(CFA_XSP16, literal(-1)))
          CFI (cfiCond344) CFA_SP SP+-6
          CFI (cfiCond344) CFA_XSP16 add(XSP16, 43)
          CFI Block cfiCond345 Using cfiCommon0
          CFI (cfiCond345) Function zclGp_ProcessInProxyBasic
          CFI (cfiCond345) Conditional ??CrossCallReturnLabel_118, ??CrossCallReturnLabel_116, ??CrossCallReturnLabel_110
          CFI (cfiCond345) R6 load(1, XDATA, add(CFA_XSP16, literal(-15)))
          CFI (cfiCond345) VB load(1, XDATA, add(CFA_XSP16, literal(-14)))
          CFI (cfiCond345) V0 load(1, XDATA, add(CFA_XSP16, literal(-13)))
          CFI (cfiCond345) V1 load(1, XDATA, add(CFA_XSP16, literal(-12)))
          CFI (cfiCond345) V2 load(1, XDATA, add(CFA_XSP16, literal(-11)))
          CFI (cfiCond345) V3 load(1, XDATA, add(CFA_XSP16, literal(-10)))
          CFI (cfiCond345) V4 load(1, XDATA, add(CFA_XSP16, literal(-9)))
          CFI (cfiCond345) V5 load(1, XDATA, add(CFA_XSP16, literal(-8)))
          CFI (cfiCond345) V6 load(1, XDATA, add(CFA_XSP16, literal(-7)))
          CFI (cfiCond345) R7 load(1, XDATA, add(CFA_XSP16, literal(-6)))
          CFI (cfiCond345) ?RET_LOW load(1, XDATA, add(CFA_XSP16, literal(-5)))
          CFI (cfiCond345) ?RET_HIGH load(1, XDATA, add(CFA_XSP16, literal(-4)))
          CFI (cfiCond345) ?BRET_EXT load(1, XDATA, add(CFA_XSP16, literal(-3)))
          CFI (cfiCond345) DPL0 load(1, XDATA, add(CFA_XSP16, literal(-2)))
          CFI (cfiCond345) DPH0 load(1, XDATA, add(CFA_XSP16, literal(-1)))
          CFI (cfiCond345) CFA_SP SP+-6
          CFI (cfiCond345) CFA_XSP16 add(XSP16, 43)
          CFI Block cfiCond346 Using cfiCommon0
          CFI (cfiCond346) Function zclGp_ProcessInProxyBasic
          CFI (cfiCond346) Conditional ??CrossCallReturnLabel_118, ??CrossCallReturnLabel_116, ??CrossCallReturnLabel_111
          CFI (cfiCond346) R6 load(1, XDATA, add(CFA_XSP16, literal(-15)))
          CFI (cfiCond346) VB load(1, XDATA, add(CFA_XSP16, literal(-14)))
          CFI (cfiCond346) V0 load(1, XDATA, add(CFA_XSP16, literal(-13)))
          CFI (cfiCond346) V1 load(1, XDATA, add(CFA_XSP16, literal(-12)))
          CFI (cfiCond346) V2 load(1, XDATA, add(CFA_XSP16, literal(-11)))
          CFI (cfiCond346) V3 load(1, XDATA, add(CFA_XSP16, literal(-10)))
          CFI (cfiCond346) V4 load(1, XDATA, add(CFA_XSP16, literal(-9)))
          CFI (cfiCond346) V5 load(1, XDATA, add(CFA_XSP16, literal(-8)))
          CFI (cfiCond346) V6 load(1, XDATA, add(CFA_XSP16, literal(-7)))
          CFI (cfiCond346) R7 load(1, XDATA, add(CFA_XSP16, literal(-6)))
          CFI (cfiCond346) ?RET_LOW load(1, XDATA, add(CFA_XSP16, literal(-5)))
          CFI (cfiCond346) ?RET_HIGH load(1, XDATA, add(CFA_XSP16, literal(-4)))
          CFI (cfiCond346) ?BRET_EXT load(1, XDATA, add(CFA_XSP16, literal(-3)))
          CFI (cfiCond346) DPL0 load(1, XDATA, add(CFA_XSP16, literal(-2)))
          CFI (cfiCond346) DPH0 load(1, XDATA, add(CFA_XSP16, literal(-1)))
          CFI (cfiCond346) CFA_SP SP+-6
          CFI (cfiCond346) CFA_XSP16 add(XSP16, 43)
          CFI Block cfiCond347 Using cfiCommon0
          CFI (cfiCond347) Function zclGp_ProcessInProxyBasic
          CFI (cfiCond347) Conditional ??CrossCallReturnLabel_117, ??CrossCallReturnLabel_53, ??CrossCallReturnLabel_13
          CFI (cfiCond347) R6 load(1, XDATA, add(CFA_XSP16, literal(-15)))
          CFI (cfiCond347) VB load(1, XDATA, add(CFA_XSP16, literal(-14)))
          CFI (cfiCond347) V0 load(1, XDATA, add(CFA_XSP16, literal(-13)))
          CFI (cfiCond347) V1 load(1, XDATA, add(CFA_XSP16, literal(-12)))
          CFI (cfiCond347) V2 load(1, XDATA, add(CFA_XSP16, literal(-11)))
          CFI (cfiCond347) V3 load(1, XDATA, add(CFA_XSP16, literal(-10)))
          CFI (cfiCond347) V4 load(1, XDATA, add(CFA_XSP16, literal(-9)))
          CFI (cfiCond347) V5 load(1, XDATA, add(CFA_XSP16, literal(-8)))
          CFI (cfiCond347) V6 load(1, XDATA, add(CFA_XSP16, literal(-7)))
          CFI (cfiCond347) R7 load(1, XDATA, add(CFA_XSP16, literal(-6)))
          CFI (cfiCond347) ?RET_LOW load(1, XDATA, add(CFA_XSP16, literal(-5)))
          CFI (cfiCond347) ?RET_HIGH load(1, XDATA, add(CFA_XSP16, literal(-4)))
          CFI (cfiCond347) ?BRET_EXT load(1, XDATA, add(CFA_XSP16, literal(-3)))
          CFI (cfiCond347) DPL0 load(1, XDATA, add(CFA_XSP16, literal(-2)))
          CFI (cfiCond347) DPH0 load(1, XDATA, add(CFA_XSP16, literal(-1)))
          CFI (cfiCond347) CFA_SP SP+-6
          CFI (cfiCond347) CFA_XSP16 add(XSP16, 43)
          CFI Block cfiCond348 Using cfiCommon0
          CFI (cfiCond348) Function zclGp_ProcessInProxyBasic
          CFI (cfiCond348) Conditional ??CrossCallReturnLabel_117, ??CrossCallReturnLabel_53, ??CrossCallReturnLabel_14
          CFI (cfiCond348) R6 load(1, XDATA, add(CFA_XSP16, literal(-15)))
          CFI (cfiCond348) VB load(1, XDATA, add(CFA_XSP16, literal(-14)))
          CFI (cfiCond348) V0 load(1, XDATA, add(CFA_XSP16, literal(-13)))
          CFI (cfiCond348) V1 load(1, XDATA, add(CFA_XSP16, literal(-12)))
          CFI (cfiCond348) V2 load(1, XDATA, add(CFA_XSP16, literal(-11)))
          CFI (cfiCond348) V3 load(1, XDATA, add(CFA_XSP16, literal(-10)))
          CFI (cfiCond348) V4 load(1, XDATA, add(CFA_XSP16, literal(-9)))
          CFI (cfiCond348) V5 load(1, XDATA, add(CFA_XSP16, literal(-8)))
          CFI (cfiCond348) V6 load(1, XDATA, add(CFA_XSP16, literal(-7)))
          CFI (cfiCond348) R7 load(1, XDATA, add(CFA_XSP16, literal(-6)))
          CFI (cfiCond348) ?RET_LOW load(1, XDATA, add(CFA_XSP16, literal(-5)))
          CFI (cfiCond348) ?RET_HIGH load(1, XDATA, add(CFA_XSP16, literal(-4)))
          CFI (cfiCond348) ?BRET_EXT load(1, XDATA, add(CFA_XSP16, literal(-3)))
          CFI (cfiCond348) DPL0 load(1, XDATA, add(CFA_XSP16, literal(-2)))
          CFI (cfiCond348) DPH0 load(1, XDATA, add(CFA_XSP16, literal(-1)))
          CFI (cfiCond348) CFA_SP SP+-6
          CFI (cfiCond348) CFA_XSP16 add(XSP16, 43)
          CFI Block cfiCond349 Using cfiCommon0
          CFI (cfiCond349) Function gp_AddCmdPayloadMsgNode
          CFI (cfiCond349) Conditional ??CrossCallReturnLabel_117, ??CrossCallReturnLabel_52, ??CrossCallReturnLabel_9
          CFI (cfiCond349) R6 load(1, XDATA, add(CFA_XSP16, literal(-14)))
          CFI (cfiCond349) VB load(1, XDATA, add(CFA_XSP16, literal(-13)))
          CFI (cfiCond349) V0 load(1, XDATA, add(CFA_XSP16, literal(-12)))
          CFI (cfiCond349) V1 load(1, XDATA, add(CFA_XSP16, literal(-11)))
          CFI (cfiCond349) V2 load(1, XDATA, add(CFA_XSP16, literal(-10)))
          CFI (cfiCond349) V3 load(1, XDATA, add(CFA_XSP16, literal(-9)))
          CFI (cfiCond349) V4 load(1, XDATA, add(CFA_XSP16, literal(-8)))
          CFI (cfiCond349) V5 load(1, XDATA, add(CFA_XSP16, literal(-7)))
          CFI (cfiCond349) R7 load(1, XDATA, add(CFA_XSP16, literal(-6)))
          CFI (cfiCond349) ?RET_LOW load(1, XDATA, add(CFA_XSP16, literal(-5)))
          CFI (cfiCond349) ?RET_HIGH load(1, XDATA, add(CFA_XSP16, literal(-4)))
          CFI (cfiCond349) ?BRET_EXT load(1, XDATA, add(CFA_XSP16, literal(-3)))
          CFI (cfiCond349) DPL0 load(1, XDATA, add(CFA_XSP16, literal(-2)))
          CFI (cfiCond349) DPH0 load(1, XDATA, add(CFA_XSP16, literal(-1)))
          CFI (cfiCond349) CFA_SP SP+-6
          CFI (cfiCond349) CFA_XSP16 add(XSP16, 14)
          CFI Block cfiCond350 Using cfiCommon0
          CFI (cfiCond350) Function gp_AddCmdPayloadMsgNode
          CFI (cfiCond350) Conditional ??CrossCallReturnLabel_117, ??CrossCallReturnLabel_52, ??CrossCallReturnLabel_10
          CFI (cfiCond350) R6 load(1, XDATA, add(CFA_XSP16, literal(-14)))
          CFI (cfiCond350) VB load(1, XDATA, add(CFA_XSP16, literal(-13)))
          CFI (cfiCond350) V0 load(1, XDATA, add(CFA_XSP16, literal(-12)))
          CFI (cfiCond350) V1 load(1, XDATA, add(CFA_XSP16, literal(-11)))
          CFI (cfiCond350) V2 load(1, XDATA, add(CFA_XSP16, literal(-10)))
          CFI (cfiCond350) V3 load(1, XDATA, add(CFA_XSP16, literal(-9)))
          CFI (cfiCond350) V4 load(1, XDATA, add(CFA_XSP16, literal(-8)))
          CFI (cfiCond350) V5 load(1, XDATA, add(CFA_XSP16, literal(-7)))
          CFI (cfiCond350) R7 load(1, XDATA, add(CFA_XSP16, literal(-6)))
          CFI (cfiCond350) ?RET_LOW load(1, XDATA, add(CFA_XSP16, literal(-5)))
          CFI (cfiCond350) ?RET_HIGH load(1, XDATA, add(CFA_XSP16, literal(-4)))
          CFI (cfiCond350) ?BRET_EXT load(1, XDATA, add(CFA_XSP16, literal(-3)))
          CFI (cfiCond350) DPL0 load(1, XDATA, add(CFA_XSP16, literal(-2)))
          CFI (cfiCond350) DPH0 load(1, XDATA, add(CFA_XSP16, literal(-1)))
          CFI (cfiCond350) CFA_SP SP+-6
          CFI (cfiCond350) CFA_XSP16 add(XSP16, 14)
          CFI Block cfiPicker351 Using cfiCommon1
          CFI (cfiPicker351) NoFunction
          CFI (cfiPicker351) Picker
        MOVX      A,@DPTR
        MOV       R0,A
        INC       DPTR
        MOVX      A,@DPTR
        MOV       DPH,A
        MOV       DPL,R0
        RET
          CFI EndBlock cfiCond338
          CFI EndBlock cfiCond339
          CFI EndBlock cfiCond340
          CFI EndBlock cfiCond341
          CFI EndBlock cfiCond342
          CFI EndBlock cfiCond343
          CFI EndBlock cfiCond344
          CFI EndBlock cfiCond345
          CFI EndBlock cfiCond346
          CFI EndBlock cfiCond347
          CFI EndBlock cfiCond348
          CFI EndBlock cfiCond349
          CFI EndBlock cfiCond350
          CFI EndBlock cfiPicker351
//  881 
//  882 /*********************************************************************
//  883  * @fn      gp_GetHeadNotificationMsg
//  884  *
//  885  * @brief   Returns head pointer for  finding and binding respondent list
//  886  *
//  887  * @param   none
//  888  *
//  889  * @return  pointer to head
//  890  */

        RSEG BANKED_CODE:HUGECODE:NOROOT(0)
//  891 gpNotificationMsg_t* gp_GetHeadNotificationMsg(void)
gp_GetHeadNotificationMsg:
          CFI Block cfiBlock352 Using cfiCommon0
          CFI Function gp_GetHeadNotificationMsg
        CODE
//  892 {
        PUSH      DPL
          CFI DPL0 Frame(CFA_SP, 4)
          CFI CFA_SP SP+-4
        PUSH      DPH
          CFI DPH0 Frame(CFA_SP, 5)
          CFI CFA_SP SP+-5
        ; Saved register size: 2
        ; Auto size: 0
//  893   return ( pNotificationMsgHead );
        MOV       DPTR,#pNotificationMsgHead
          CFI EndBlock cfiBlock352
        REQUIRE ?Subroutine5
        ; // Fall through to label ?Subroutine5
//  894 }

        RSEG BANKED_CODE:HUGECODE:NOROOT(0)
?Subroutine5:
          CFI Block cfiBlock353 Using cfiCommon0
          CFI NoFunction
          CFI CFA_SP SP+-5
          CFI DPL0 Frame(CFA_SP, 4)
          CFI DPH0 Frame(CFA_SP, 5)
        LCALL     ??Subroutine69_0 & 0xFFFF
??CrossCallReturnLabel_167:
        POP       DPH
          CFI CFA_SP SP+-4
          CFI DPH0 SameValue
        POP       DPL
          CFI CFA_SP SP+-3
          CFI DPL0 SameValue
        LJMP      ?BRET
          CFI EndBlock cfiBlock353
//  895 
//  896 /*********************************************************************
//  897  * @fn      gp_GetPHeadNotification
//  898  *
//  899  * @brief   Returns head pointer for  finding and binding respondent list
//  900  *
//  901  * @param   none
//  902  *
//  903  * @return  pointer to head
//  904  */

        RSEG BANKED_CODE:HUGECODE:NOROOT(0)
//  905 gpNotificationMsg_t** gp_GetPHeadNotification(void)
gp_GetPHeadNotification:
          CFI Block cfiBlock354 Using cfiCommon0
          CFI Function gp_GetPHeadNotification
        CODE
//  906 {
        ; Saved register size: 0
        ; Auto size: 0
//  907   return ( &pNotificationMsgHead );
        MOV       R2,#pNotificationMsgHead & 0xff
        MOV       R3,#(pNotificationMsgHead >> 8) & 0xff
        LJMP      ?BRET
//  908 }
          CFI EndBlock cfiBlock354
//  909 
//  910 /*********************************************************************
//  911  * @fn      gp_GetHeadCmdPayloadMsg
//  912  *
//  913  * @brief   Returns head pointer for  finding and binding respondent list
//  914  *
//  915  * @param   none
//  916  *
//  917  * @return  pointer to head
//  918  */

        RSEG BANKED_CODE:HUGECODE:NOROOT(0)
//  919 gpCmdPayloadMsg_t* gp_GetHeadCmdPayloadMsg(void)
gp_GetHeadCmdPayloadMsg:
          CFI Block cfiBlock355 Using cfiCommon0
          CFI Function gp_GetHeadCmdPayloadMsg
        CODE
//  920 {
        PUSH      DPL
          CFI DPL0 Frame(CFA_SP, 4)
          CFI CFA_SP SP+-4
        PUSH      DPH
          CFI DPH0 Frame(CFA_SP, 5)
          CFI CFA_SP SP+-5
        ; Saved register size: 2
        ; Auto size: 0
//  921   return ( pCmdPayloadMsgHead );
        MOV       DPTR,#pCmdPayloadMsgHead
        SJMP      ?Subroutine5
//  922 }
          CFI EndBlock cfiBlock355
//  923 
//  924 /*********************************************************************
//  925  * @fn      gp_GetHeadCmdPayloadMsg
//  926  *
//  927  * @brief   Returns head pointer for  finding and binding respondent list
//  928  *
//  929  * @param   none
//  930  *
//  931  * @return  pointer to head
//  932  */

        RSEG BANKED_CODE:HUGECODE:NOROOT(0)
//  933 gpCmdPayloadMsg_t** gp_GetPHeadCmdPayload(void)
gp_GetPHeadCmdPayload:
          CFI Block cfiBlock356 Using cfiCommon0
          CFI Function gp_GetPHeadCmdPayload
        CODE
//  934 {
        ; Saved register size: 0
        ; Auto size: 0
//  935   return ( &pCmdPayloadMsgHead );
        MOV       R2,#pCmdPayloadMsgHead & 0xff
        MOV       R3,#(pCmdPayloadMsgHead >> 8) & 0xff
        LJMP      ?BRET
//  936 }
          CFI EndBlock cfiBlock356
//  937 
//  938 /*********************************************************************
//  939  * @fn      gp_NotificationMsgClean
//  940  *
//  941  * @brief   This function free reserved memory for respondent list
//  942  *
//  943  * @param   pHead - begin of the Notification Msg list
//  944  *
//  945  * @return  status
//  946  */

        RSEG BANKED_CODE:HUGECODE:NOROOT(0)
//  947 void gp_NotificationMsgClean( gpNotificationMsg_t **pHead )
gp_NotificationMsgClean:
          CFI Block cfiBlock357 Using cfiCommon0
          CFI Function gp_NotificationMsgClean
        CODE
//  948 {
        FUNCALL gp_NotificationMsgClean, gp_CmdPayloadMsgClean
        LOCFRAME ISTACK, 0, STACK
        LOCFRAME PSTACK, 0, STACK
        LOCFRAME XSTACK, 12, STACK
        LOCFRAME IOVERLAY, 0, STATIC
        LOCFRAME DOVERLAY, 0, STATIC
        ARGFRAME ISTACK, 0, STACK
        ARGFRAME PSTACK, 0, STACK
        ARGFRAME XSTACK, 12, STACK
        ARGFRAME IOVERLAY, 0, STATIC
        ARGFRAME DOVERLAY, 0, STATIC
        FUNCALL gp_NotificationMsgClean, osal_mem_free
        LOCFRAME ISTACK, 0, STACK
        LOCFRAME PSTACK, 0, STACK
        LOCFRAME XSTACK, 12, STACK
        LOCFRAME IOVERLAY, 0, STATIC
        LOCFRAME DOVERLAY, 0, STATIC
        ARGFRAME ISTACK, 0, STACK
        ARGFRAME PSTACK, 0, STACK
        ARGFRAME XSTACK, 12, STACK
        ARGFRAME IOVERLAY, 0, STATIC
        ARGFRAME DOVERLAY, 0, STATIC
        REQUIRE ?V0
        REQUIRE ?V1
        REQUIRE ?V2
        REQUIRE ?V3
        MOV       A,#-0xc
        LCALL     ?BANKED_ENTER_XDATA
          CFI DPH0 load(1, XDATA, add(CFA_XSP16, literal(-1)))
          CFI DPL0 load(1, XDATA, add(CFA_XSP16, literal(-2)))
          CFI ?BRET_EXT load(1, XDATA, add(CFA_XSP16, literal(-3)))
          CFI ?RET_HIGH load(1, XDATA, add(CFA_XSP16, literal(-4)))
          CFI ?RET_LOW load(1, XDATA, add(CFA_XSP16, literal(-5)))
          CFI R7 load(1, XDATA, add(CFA_XSP16, literal(-6)))
          CFI V3 load(1, XDATA, add(CFA_XSP16, literal(-7)))
          CFI V2 load(1, XDATA, add(CFA_XSP16, literal(-8)))
          CFI V1 load(1, XDATA, add(CFA_XSP16, literal(-9)))
          CFI V0 load(1, XDATA, add(CFA_XSP16, literal(-10)))
          CFI VB load(1, XDATA, add(CFA_XSP16, literal(-11)))
          CFI R6 load(1, XDATA, add(CFA_XSP16, literal(-12)))
          CFI CFA_SP SP+0
          CFI CFA_XSP16 add(XSP16, 12)
        ; Saved register size: 12
        ; Auto size: 0
        MOV       ?V0,R2
        MOV       ?V1,R3
//  949   gpNotificationMsg_t **pCurr;
//  950   gpNotificationMsg_t **pNext;
//  951   
//  952   if ( *pHead == NULL )
        MOV       DPL,R2
        MOV       DPH,R3
        LCALL     ??Subroutine68_0 & 0xFFFF
??CrossCallReturnLabel_151:
        JZ        ??CrossCallReturnLabel_40
//  953   {
//  954     return;
//  955   }
//  956   
//  957   pCurr = pHead;
        MOV       R6,?V0
        MOV       R7,?V1
//  958   
//  959   if( *pCurr != NULL )
        MOV       A,R0
        ORL       A,R1
        JZ        ??gp_NotificationMsgClean_0
//  960   {
//  961     pNext = &((*pCurr)->pNext);
        MOV       A,R0
        ADD       A,#0xf
        MOV       ?V2,A
        CLR       A
        ADDC      A,R1
        MOV       ?V3,A
//  962     if ( ( ( gpNotificationMsg_t* ) *pCurr )->pMsg != ( ( gpNotificationMsg_t* ) *pNext )->pMsg )
        MOV       A,R0
        ADD       A,#0xd
        MOV       DPL,A
        CLR       A
        ADDC      A,R1
        MOV       DPH,A
        LCALL     ??Subroutine69_0 & 0xFFFF
??CrossCallReturnLabel_165:
        MOV       DPL,?V2
        MOV       DPH,?V3
        LCALL     ?Subroutine45 & 0xFFFF
??CrossCallReturnLabel_156:
        XCH       A,R0
        ADD       A,#0xd
        MOV       DPL,A
        CLR       A
        ADDC      A,R0
        MOV       DPH,A
        MOVX      A,@DPTR
        XRL       A,R2
        JNZ       ??gp_NotificationMsgClean_1
        INC       DPTR
        MOVX      A,@DPTR
        XRL       A,R3
??gp_NotificationMsgClean_1:
        JZ        ??gp_NotificationMsgClean_2
//  963     {
//  964       gp_CmdPayloadMsgClean( gp_GetPHeadCmdPayload( ) );
        ; Setup parameters for call to function gp_CmdPayloadMsgClean
        MOV       R2,#pCmdPayloadMsgHead & 0xff
        MOV       R3,#(pCmdPayloadMsgHead >> 8) & 0xff
        LCALL     `??gp_CmdPayloadMsgClean::?relay`; Banked call to: gp_CmdPayloadMsgClean
//  965     }
//  966     osal_mem_free( *pCurr );
??gp_NotificationMsgClean_2:
        ; Setup parameters for call to function osal_mem_free
        MOV       DPL,R6
        MOV       DPH,R7
        LCALL     ?Subroutine20 & 0xFFFF
//  967     *pCurr = ( gpNotificationMsg_t* )NULL;
??CrossCallReturnLabel_17:
        CLR       A
        MOVX      @DPTR,A
        INC       DPTR
        MOVX      @DPTR,A
//  968     pCurr = pNext;
        MOV       R6,?V2
        MOV       R7,?V3
//  969   }
//  970   *pHead = *pCurr;
??gp_NotificationMsgClean_0:
        MOV       DPL,R6
        MOV       DPH,R7
        LCALL     ??Subroutine56_0 & 0xFFFF
??CrossCallReturnLabel_84:
        MOV       DPL,?V0
        MOV       DPH,?V1
        LCALL     ?Subroutine32 & 0xFFFF
//  971 }
??CrossCallReturnLabel_40:
        LJMP      ?Subroutine0 & 0xFFFF
          CFI EndBlock cfiBlock357

        RSEG BANKED_CODE:HUGECODE:NOROOT(0)
?Subroutine27:
          CFI Block cfiCond358 Using cfiCommon0
          CFI Function gp_AddNotificationMsgNode
          CFI Conditional ??CrossCallReturnLabel_168
          CFI R6 load(1, XDATA, add(CFA_XSP16, literal(-12)))
          CFI VB load(1, XDATA, add(CFA_XSP16, literal(-11)))
          CFI V0 load(1, XDATA, add(CFA_XSP16, literal(-10)))
          CFI V1 load(1, XDATA, add(CFA_XSP16, literal(-9)))
          CFI V2 load(1, XDATA, add(CFA_XSP16, literal(-8)))
          CFI V3 load(1, XDATA, add(CFA_XSP16, literal(-7)))
          CFI R7 load(1, XDATA, add(CFA_XSP16, literal(-6)))
          CFI ?RET_LOW load(1, XDATA, add(CFA_XSP16, literal(-5)))
          CFI ?RET_HIGH load(1, XDATA, add(CFA_XSP16, literal(-4)))
          CFI ?BRET_EXT load(1, XDATA, add(CFA_XSP16, literal(-3)))
          CFI DPL0 load(1, XDATA, add(CFA_XSP16, literal(-2)))
          CFI DPH0 load(1, XDATA, add(CFA_XSP16, literal(-1)))
          CFI CFA_SP SP+-2
          CFI CFA_XSP16 add(XSP16, 12)
          CFI Block cfiCond359 Using cfiCommon0
          CFI (cfiCond359) Function gp_AddCmdPayloadMsgNode
          CFI (cfiCond359) Conditional ??CrossCallReturnLabel_169
          CFI (cfiCond359) R6 load(1, XDATA, add(CFA_XSP16, literal(-14)))
          CFI (cfiCond359) VB load(1, XDATA, add(CFA_XSP16, literal(-13)))
          CFI (cfiCond359) V0 load(1, XDATA, add(CFA_XSP16, literal(-12)))
          CFI (cfiCond359) V1 load(1, XDATA, add(CFA_XSP16, literal(-11)))
          CFI (cfiCond359) V2 load(1, XDATA, add(CFA_XSP16, literal(-10)))
          CFI (cfiCond359) V3 load(1, XDATA, add(CFA_XSP16, literal(-9)))
          CFI (cfiCond359) V4 load(1, XDATA, add(CFA_XSP16, literal(-8)))
          CFI (cfiCond359) V5 load(1, XDATA, add(CFA_XSP16, literal(-7)))
          CFI (cfiCond359) R7 load(1, XDATA, add(CFA_XSP16, literal(-6)))
          CFI (cfiCond359) ?RET_LOW load(1, XDATA, add(CFA_XSP16, literal(-5)))
          CFI (cfiCond359) ?RET_HIGH load(1, XDATA, add(CFA_XSP16, literal(-4)))
          CFI (cfiCond359) ?BRET_EXT load(1, XDATA, add(CFA_XSP16, literal(-3)))
          CFI (cfiCond359) DPL0 load(1, XDATA, add(CFA_XSP16, literal(-2)))
          CFI (cfiCond359) DPH0 load(1, XDATA, add(CFA_XSP16, literal(-1)))
          CFI (cfiCond359) CFA_SP SP+-2
          CFI (cfiCond359) CFA_XSP16 add(XSP16, 14)
          CFI Block cfiPicker360 Using cfiCommon1
          CFI (cfiPicker360) NoFunction
          CFI (cfiPicker360) Picker
        MOV       DPL,R6
        MOV       DPH,R7
          CFI EndBlock cfiCond358
          CFI EndBlock cfiCond359
          CFI EndBlock cfiPicker360
        REQUIRE ??Subroutine69_0
        ; // Fall through to label ??Subroutine69_0

        RSEG BANKED_CODE:HUGECODE:NOROOT(0)
??Subroutine69_0:
          CFI Block cfiCond361 Using cfiCommon0
          CFI Function zclGp_SendGpNotificationCommand
          CFI Conditional ??CrossCallReturnLabel_162
          CFI R6 load(1, XDATA, add(CFA_XSP16, literal(-16)))
          CFI VB load(1, XDATA, add(CFA_XSP16, literal(-15)))
          CFI V0 load(1, XDATA, add(CFA_XSP16, literal(-14)))
          CFI V1 load(1, XDATA, add(CFA_XSP16, literal(-13)))
          CFI V2 load(1, XDATA, add(CFA_XSP16, literal(-12)))
          CFI V3 load(1, XDATA, add(CFA_XSP16, literal(-11)))
          CFI V4 load(1, XDATA, add(CFA_XSP16, literal(-10)))
          CFI V5 load(1, XDATA, add(CFA_XSP16, literal(-9)))
          CFI V6 load(1, XDATA, add(CFA_XSP16, literal(-8)))
          CFI V7 load(1, XDATA, add(CFA_XSP16, literal(-7)))
          CFI R7 load(1, XDATA, add(CFA_XSP16, literal(-6)))
          CFI ?RET_LOW load(1, XDATA, add(CFA_XSP16, literal(-5)))
          CFI ?RET_HIGH load(1, XDATA, add(CFA_XSP16, literal(-4)))
          CFI ?BRET_EXT load(1, XDATA, add(CFA_XSP16, literal(-3)))
          CFI DPL0 load(1, XDATA, add(CFA_XSP16, literal(-2)))
          CFI DPH0 load(1, XDATA, add(CFA_XSP16, literal(-1)))
          CFI CFA_SP SP+-2
          CFI CFA_XSP16 add(XSP16, 22)
          CFI Block cfiCond362 Using cfiCommon0
          CFI (cfiCond362) Function zclGp_SendGpCommissioningNotificationCommand
          CFI (cfiCond362) Conditional ??CrossCallReturnLabel_163
          CFI (cfiCond362) R6 load(1, XDATA, add(CFA_XSP16, literal(-16)))
          CFI (cfiCond362) VB load(1, XDATA, add(CFA_XSP16, literal(-15)))
          CFI (cfiCond362) V0 load(1, XDATA, add(CFA_XSP16, literal(-14)))
          CFI (cfiCond362) V1 load(1, XDATA, add(CFA_XSP16, literal(-13)))
          CFI (cfiCond362) V2 load(1, XDATA, add(CFA_XSP16, literal(-12)))
          CFI (cfiCond362) V3 load(1, XDATA, add(CFA_XSP16, literal(-11)))
          CFI (cfiCond362) V4 load(1, XDATA, add(CFA_XSP16, literal(-10)))
          CFI (cfiCond362) V5 load(1, XDATA, add(CFA_XSP16, literal(-9)))
          CFI (cfiCond362) V6 load(1, XDATA, add(CFA_XSP16, literal(-8)))
          CFI (cfiCond362) V7 load(1, XDATA, add(CFA_XSP16, literal(-7)))
          CFI (cfiCond362) R7 load(1, XDATA, add(CFA_XSP16, literal(-6)))
          CFI (cfiCond362) ?RET_LOW load(1, XDATA, add(CFA_XSP16, literal(-5)))
          CFI (cfiCond362) ?RET_HIGH load(1, XDATA, add(CFA_XSP16, literal(-4)))
          CFI (cfiCond362) ?BRET_EXT load(1, XDATA, add(CFA_XSP16, literal(-3)))
          CFI (cfiCond362) DPL0 load(1, XDATA, add(CFA_XSP16, literal(-2)))
          CFI (cfiCond362) DPH0 load(1, XDATA, add(CFA_XSP16, literal(-1)))
          CFI (cfiCond362) CFA_SP SP+-2
          CFI (cfiCond362) CFA_XSP16 add(XSP16, 30)
          CFI Block cfiCond363 Using cfiCommon0
          CFI (cfiCond363) Function zclGp_SendGpProxyTableResponse
          CFI (cfiCond363) Conditional ??CrossCallReturnLabel_164
          CFI (cfiCond363) R6 load(1, XDATA, add(CFA_XSP16, literal(-16)))
          CFI (cfiCond363) VB load(1, XDATA, add(CFA_XSP16, literal(-15)))
          CFI (cfiCond363) V0 load(1, XDATA, add(CFA_XSP16, literal(-14)))
          CFI (cfiCond363) V1 load(1, XDATA, add(CFA_XSP16, literal(-13)))
          CFI (cfiCond363) V2 load(1, XDATA, add(CFA_XSP16, literal(-12)))
          CFI (cfiCond363) V3 load(1, XDATA, add(CFA_XSP16, literal(-11)))
          CFI (cfiCond363) V4 load(1, XDATA, add(CFA_XSP16, literal(-10)))
          CFI (cfiCond363) V5 load(1, XDATA, add(CFA_XSP16, literal(-9)))
          CFI (cfiCond363) V6 load(1, XDATA, add(CFA_XSP16, literal(-8)))
          CFI (cfiCond363) V7 load(1, XDATA, add(CFA_XSP16, literal(-7)))
          CFI (cfiCond363) R7 load(1, XDATA, add(CFA_XSP16, literal(-6)))
          CFI (cfiCond363) ?RET_LOW load(1, XDATA, add(CFA_XSP16, literal(-5)))
          CFI (cfiCond363) ?RET_HIGH load(1, XDATA, add(CFA_XSP16, literal(-4)))
          CFI (cfiCond363) ?BRET_EXT load(1, XDATA, add(CFA_XSP16, literal(-3)))
          CFI (cfiCond363) DPL0 load(1, XDATA, add(CFA_XSP16, literal(-2)))
          CFI (cfiCond363) DPH0 load(1, XDATA, add(CFA_XSP16, literal(-1)))
          CFI (cfiCond363) CFA_SP SP+-2
          CFI (cfiCond363) CFA_XSP16 add(XSP16, 35)
          CFI Block cfiCond364 Using cfiCommon0
          CFI (cfiCond364) Function gp_GetHeadNotificationMsg
          CFI (cfiCond364) Conditional ??CrossCallReturnLabel_167
          CFI (cfiCond364) DPL0 Frame(CFA_SP, 4)
          CFI (cfiCond364) DPH0 Frame(CFA_SP, 5)
          CFI (cfiCond364) CFA_SP SP+-7
          CFI Block cfiCond365 Using cfiCommon0
          CFI (cfiCond365) Function gp_GetHeadCmdPayloadMsg
          CFI (cfiCond365) Conditional ??CrossCallReturnLabel_167
          CFI (cfiCond365) DPL0 Frame(CFA_SP, 4)
          CFI (cfiCond365) DPH0 Frame(CFA_SP, 5)
          CFI (cfiCond365) CFA_SP SP+-7
          CFI Block cfiCond366 Using cfiCommon0
          CFI (cfiCond366) Function gp_NotificationMsgClean
          CFI (cfiCond366) Conditional ??CrossCallReturnLabel_165
          CFI (cfiCond366) R6 load(1, XDATA, add(CFA_XSP16, literal(-12)))
          CFI (cfiCond366) VB load(1, XDATA, add(CFA_XSP16, literal(-11)))
          CFI (cfiCond366) V0 load(1, XDATA, add(CFA_XSP16, literal(-10)))
          CFI (cfiCond366) V1 load(1, XDATA, add(CFA_XSP16, literal(-9)))
          CFI (cfiCond366) V2 load(1, XDATA, add(CFA_XSP16, literal(-8)))
          CFI (cfiCond366) V3 load(1, XDATA, add(CFA_XSP16, literal(-7)))
          CFI (cfiCond366) R7 load(1, XDATA, add(CFA_XSP16, literal(-6)))
          CFI (cfiCond366) ?RET_LOW load(1, XDATA, add(CFA_XSP16, literal(-5)))
          CFI (cfiCond366) ?RET_HIGH load(1, XDATA, add(CFA_XSP16, literal(-4)))
          CFI (cfiCond366) ?BRET_EXT load(1, XDATA, add(CFA_XSP16, literal(-3)))
          CFI (cfiCond366) DPL0 load(1, XDATA, add(CFA_XSP16, literal(-2)))
          CFI (cfiCond366) DPH0 load(1, XDATA, add(CFA_XSP16, literal(-1)))
          CFI (cfiCond366) CFA_SP SP+-2
          CFI (cfiCond366) CFA_XSP16 add(XSP16, 12)
          CFI Block cfiCond367 Using cfiCommon0
          CFI (cfiCond367) Function gp_CmdPayloadMsgClean
          CFI (cfiCond367) Conditional ??CrossCallReturnLabel_166
          CFI (cfiCond367) R6 load(1, XDATA, add(CFA_XSP16, literal(-9)))
          CFI (cfiCond367) VB load(1, XDATA, add(CFA_XSP16, literal(-8)))
          CFI (cfiCond367) V0 load(1, XDATA, add(CFA_XSP16, literal(-7)))
          CFI (cfiCond367) R7 load(1, XDATA, add(CFA_XSP16, literal(-6)))
          CFI (cfiCond367) ?RET_LOW load(1, XDATA, add(CFA_XSP16, literal(-5)))
          CFI (cfiCond367) ?RET_HIGH load(1, XDATA, add(CFA_XSP16, literal(-4)))
          CFI (cfiCond367) ?BRET_EXT load(1, XDATA, add(CFA_XSP16, literal(-3)))
          CFI (cfiCond367) DPL0 load(1, XDATA, add(CFA_XSP16, literal(-2)))
          CFI (cfiCond367) DPH0 load(1, XDATA, add(CFA_XSP16, literal(-1)))
          CFI (cfiCond367) CFA_SP SP+-2
          CFI (cfiCond367) CFA_XSP16 add(XSP16, 9)
          CFI Block cfiCond368 Using cfiCommon0
          CFI (cfiCond368) Function gp_AddNotificationMsgNode
          CFI (cfiCond368) Conditional ??CrossCallReturnLabel_168
          CFI (cfiCond368) R6 load(1, XDATA, add(CFA_XSP16, literal(-12)))
          CFI (cfiCond368) VB load(1, XDATA, add(CFA_XSP16, literal(-11)))
          CFI (cfiCond368) V0 load(1, XDATA, add(CFA_XSP16, literal(-10)))
          CFI (cfiCond368) V1 load(1, XDATA, add(CFA_XSP16, literal(-9)))
          CFI (cfiCond368) V2 load(1, XDATA, add(CFA_XSP16, literal(-8)))
          CFI (cfiCond368) V3 load(1, XDATA, add(CFA_XSP16, literal(-7)))
          CFI (cfiCond368) R7 load(1, XDATA, add(CFA_XSP16, literal(-6)))
          CFI (cfiCond368) ?RET_LOW load(1, XDATA, add(CFA_XSP16, literal(-5)))
          CFI (cfiCond368) ?RET_HIGH load(1, XDATA, add(CFA_XSP16, literal(-4)))
          CFI (cfiCond368) ?BRET_EXT load(1, XDATA, add(CFA_XSP16, literal(-3)))
          CFI (cfiCond368) DPL0 load(1, XDATA, add(CFA_XSP16, literal(-2)))
          CFI (cfiCond368) DPH0 load(1, XDATA, add(CFA_XSP16, literal(-1)))
          CFI (cfiCond368) CFA_SP SP+-2
          CFI (cfiCond368) CFA_XSP16 add(XSP16, 12)
          CFI Block cfiCond369 Using cfiCommon0
          CFI (cfiCond369) Function gp_AddCmdPayloadMsgNode
          CFI (cfiCond369) Conditional ??CrossCallReturnLabel_169
          CFI (cfiCond369) R6 load(1, XDATA, add(CFA_XSP16, literal(-14)))
          CFI (cfiCond369) VB load(1, XDATA, add(CFA_XSP16, literal(-13)))
          CFI (cfiCond369) V0 load(1, XDATA, add(CFA_XSP16, literal(-12)))
          CFI (cfiCond369) V1 load(1, XDATA, add(CFA_XSP16, literal(-11)))
          CFI (cfiCond369) V2 load(1, XDATA, add(CFA_XSP16, literal(-10)))
          CFI (cfiCond369) V3 load(1, XDATA, add(CFA_XSP16, literal(-9)))
          CFI (cfiCond369) V4 load(1, XDATA, add(CFA_XSP16, literal(-8)))
          CFI (cfiCond369) V5 load(1, XDATA, add(CFA_XSP16, literal(-7)))
          CFI (cfiCond369) R7 load(1, XDATA, add(CFA_XSP16, literal(-6)))
          CFI (cfiCond369) ?RET_LOW load(1, XDATA, add(CFA_XSP16, literal(-5)))
          CFI (cfiCond369) ?RET_HIGH load(1, XDATA, add(CFA_XSP16, literal(-4)))
          CFI (cfiCond369) ?BRET_EXT load(1, XDATA, add(CFA_XSP16, literal(-3)))
          CFI (cfiCond369) DPL0 load(1, XDATA, add(CFA_XSP16, literal(-2)))
          CFI (cfiCond369) DPH0 load(1, XDATA, add(CFA_XSP16, literal(-1)))
          CFI (cfiCond369) CFA_SP SP+-2
          CFI (cfiCond369) CFA_XSP16 add(XSP16, 14)
          CFI Block cfiPicker370 Using cfiCommon1
          CFI (cfiPicker370) NoFunction
          CFI (cfiPicker370) Picker
        LCALL     ?Subroutine44 & 0xFFFF
??CrossCallReturnLabel_173:
        RET
          CFI EndBlock cfiCond361
          CFI EndBlock cfiCond362
          CFI EndBlock cfiCond363
          CFI EndBlock cfiCond364
          CFI EndBlock cfiCond365
          CFI EndBlock cfiCond366
          CFI EndBlock cfiCond367
          CFI EndBlock cfiCond368
          CFI EndBlock cfiCond369
          CFI EndBlock cfiPicker370

        RSEG BANKED_CODE:HUGECODE:NOROOT(0)
?Subroutine44:
          CFI Block cfiCond371 Using cfiCommon0
          CFI Function zclGp_SendGpNotificationCommand
          CFI Conditional ??CrossCallReturnLabel_171, ??CrossCallReturnLabel_23
          CFI R6 load(1, XDATA, add(CFA_XSP16, literal(-16)))
          CFI VB load(1, XDATA, add(CFA_XSP16, literal(-15)))
          CFI V0 load(1, XDATA, add(CFA_XSP16, literal(-14)))
          CFI V1 load(1, XDATA, add(CFA_XSP16, literal(-13)))
          CFI V2 load(1, XDATA, add(CFA_XSP16, literal(-12)))
          CFI V3 load(1, XDATA, add(CFA_XSP16, literal(-11)))
          CFI V4 load(1, XDATA, add(CFA_XSP16, literal(-10)))
          CFI V5 load(1, XDATA, add(CFA_XSP16, literal(-9)))
          CFI V6 load(1, XDATA, add(CFA_XSP16, literal(-8)))
          CFI V7 load(1, XDATA, add(CFA_XSP16, literal(-7)))
          CFI R7 load(1, XDATA, add(CFA_XSP16, literal(-6)))
          CFI ?RET_LOW load(1, XDATA, add(CFA_XSP16, literal(-5)))
          CFI ?RET_HIGH load(1, XDATA, add(CFA_XSP16, literal(-4)))
          CFI ?BRET_EXT load(1, XDATA, add(CFA_XSP16, literal(-3)))
          CFI DPL0 load(1, XDATA, add(CFA_XSP16, literal(-2)))
          CFI DPH0 load(1, XDATA, add(CFA_XSP16, literal(-1)))
          CFI CFA_SP SP+-4
          CFI CFA_XSP16 add(XSP16, 25)
          CFI Block cfiCond372 Using cfiCommon0
          CFI (cfiCond372) Function zclGp_SendGpCommissioningNotificationCommand
          CFI (cfiCond372) Conditional ??CrossCallReturnLabel_171, ??CrossCallReturnLabel_24
          CFI (cfiCond372) R6 load(1, XDATA, add(CFA_XSP16, literal(-16)))
          CFI (cfiCond372) VB load(1, XDATA, add(CFA_XSP16, literal(-15)))
          CFI (cfiCond372) V0 load(1, XDATA, add(CFA_XSP16, literal(-14)))
          CFI (cfiCond372) V1 load(1, XDATA, add(CFA_XSP16, literal(-13)))
          CFI (cfiCond372) V2 load(1, XDATA, add(CFA_XSP16, literal(-12)))
          CFI (cfiCond372) V3 load(1, XDATA, add(CFA_XSP16, literal(-11)))
          CFI (cfiCond372) V4 load(1, XDATA, add(CFA_XSP16, literal(-10)))
          CFI (cfiCond372) V5 load(1, XDATA, add(CFA_XSP16, literal(-9)))
          CFI (cfiCond372) V6 load(1, XDATA, add(CFA_XSP16, literal(-8)))
          CFI (cfiCond372) V7 load(1, XDATA, add(CFA_XSP16, literal(-7)))
          CFI (cfiCond372) R7 load(1, XDATA, add(CFA_XSP16, literal(-6)))
          CFI (cfiCond372) ?RET_LOW load(1, XDATA, add(CFA_XSP16, literal(-5)))
          CFI (cfiCond372) ?RET_HIGH load(1, XDATA, add(CFA_XSP16, literal(-4)))
          CFI (cfiCond372) ?BRET_EXT load(1, XDATA, add(CFA_XSP16, literal(-3)))
          CFI (cfiCond372) DPL0 load(1, XDATA, add(CFA_XSP16, literal(-2)))
          CFI (cfiCond372) DPH0 load(1, XDATA, add(CFA_XSP16, literal(-1)))
          CFI (cfiCond372) CFA_SP SP+-4
          CFI (cfiCond372) CFA_XSP16 add(XSP16, 33)
          CFI Block cfiCond373 Using cfiCommon0
          CFI (cfiCond373) Function gp_AddNotificationMsgNode
          CFI (cfiCond373) Conditional ??CrossCallReturnLabel_172, ??CrossCallReturnLabel_138
          CFI (cfiCond373) R6 load(1, XDATA, add(CFA_XSP16, literal(-12)))
          CFI (cfiCond373) VB load(1, XDATA, add(CFA_XSP16, literal(-11)))
          CFI (cfiCond373) V0 load(1, XDATA, add(CFA_XSP16, literal(-10)))
          CFI (cfiCond373) V1 load(1, XDATA, add(CFA_XSP16, literal(-9)))
          CFI (cfiCond373) V2 load(1, XDATA, add(CFA_XSP16, literal(-8)))
          CFI (cfiCond373) V3 load(1, XDATA, add(CFA_XSP16, literal(-7)))
          CFI (cfiCond373) R7 load(1, XDATA, add(CFA_XSP16, literal(-6)))
          CFI (cfiCond373) ?RET_LOW load(1, XDATA, add(CFA_XSP16, literal(-5)))
          CFI (cfiCond373) ?RET_HIGH load(1, XDATA, add(CFA_XSP16, literal(-4)))
          CFI (cfiCond373) ?BRET_EXT load(1, XDATA, add(CFA_XSP16, literal(-3)))
          CFI (cfiCond373) DPL0 load(1, XDATA, add(CFA_XSP16, literal(-2)))
          CFI (cfiCond373) DPH0 load(1, XDATA, add(CFA_XSP16, literal(-1)))
          CFI (cfiCond373) CFA_SP SP+-4
          CFI (cfiCond373) CFA_XSP16 add(XSP16, 12)
          CFI Block cfiCond374 Using cfiCommon0
          CFI (cfiCond374) Function gp_AddCmdPayloadMsgNode
          CFI (cfiCond374) Conditional ??CrossCallReturnLabel_172, ??CrossCallReturnLabel_139
          CFI (cfiCond374) R6 load(1, XDATA, add(CFA_XSP16, literal(-14)))
          CFI (cfiCond374) VB load(1, XDATA, add(CFA_XSP16, literal(-13)))
          CFI (cfiCond374) V0 load(1, XDATA, add(CFA_XSP16, literal(-12)))
          CFI (cfiCond374) V1 load(1, XDATA, add(CFA_XSP16, literal(-11)))
          CFI (cfiCond374) V2 load(1, XDATA, add(CFA_XSP16, literal(-10)))
          CFI (cfiCond374) V3 load(1, XDATA, add(CFA_XSP16, literal(-9)))
          CFI (cfiCond374) V4 load(1, XDATA, add(CFA_XSP16, literal(-8)))
          CFI (cfiCond374) V5 load(1, XDATA, add(CFA_XSP16, literal(-7)))
          CFI (cfiCond374) R7 load(1, XDATA, add(CFA_XSP16, literal(-6)))
          CFI (cfiCond374) ?RET_LOW load(1, XDATA, add(CFA_XSP16, literal(-5)))
          CFI (cfiCond374) ?RET_HIGH load(1, XDATA, add(CFA_XSP16, literal(-4)))
          CFI (cfiCond374) ?BRET_EXT load(1, XDATA, add(CFA_XSP16, literal(-3)))
          CFI (cfiCond374) DPL0 load(1, XDATA, add(CFA_XSP16, literal(-2)))
          CFI (cfiCond374) DPH0 load(1, XDATA, add(CFA_XSP16, literal(-1)))
          CFI (cfiCond374) CFA_SP SP+-4
          CFI (cfiCond374) CFA_XSP16 add(XSP16, 14)
          CFI Block cfiCond375 Using cfiCommon0
          CFI (cfiCond375) Function zclGp_RegisterCmdCallbacks
          CFI (cfiCond375) Conditional ??CrossCallReturnLabel_172, ??CrossCallReturnLabel_135
          CFI (cfiCond375) R6 load(1, XDATA, add(CFA_XSP16, literal(-12)))
          CFI (cfiCond375) VB load(1, XDATA, add(CFA_XSP16, literal(-11)))
          CFI (cfiCond375) V0 load(1, XDATA, add(CFA_XSP16, literal(-10)))
          CFI (cfiCond375) V1 load(1, XDATA, add(CFA_XSP16, literal(-9)))
          CFI (cfiCond375) V2 load(1, XDATA, add(CFA_XSP16, literal(-8)))
          CFI (cfiCond375) V3 load(1, XDATA, add(CFA_XSP16, literal(-7)))
          CFI (cfiCond375) R7 load(1, XDATA, add(CFA_XSP16, literal(-6)))
          CFI (cfiCond375) ?RET_LOW load(1, XDATA, add(CFA_XSP16, literal(-5)))
          CFI (cfiCond375) ?RET_HIGH load(1, XDATA, add(CFA_XSP16, literal(-4)))
          CFI (cfiCond375) ?BRET_EXT load(1, XDATA, add(CFA_XSP16, literal(-3)))
          CFI (cfiCond375) DPL0 load(1, XDATA, add(CFA_XSP16, literal(-2)))
          CFI (cfiCond375) DPH0 load(1, XDATA, add(CFA_XSP16, literal(-1)))
          CFI (cfiCond375) CFA_SP SP+-4
          CFI (cfiCond375) CFA_XSP16 add(XSP16, 12)
          CFI Block cfiCond376 Using cfiCommon0
          CFI (cfiCond376) Function zclGp_RegisterCmdCallbacks
          CFI (cfiCond376) Conditional ??CrossCallReturnLabel_172, ??CrossCallReturnLabel_136
          CFI (cfiCond376) R6 load(1, XDATA, add(CFA_XSP16, literal(-12)))
          CFI (cfiCond376) VB load(1, XDATA, add(CFA_XSP16, literal(-11)))
          CFI (cfiCond376) V0 load(1, XDATA, add(CFA_XSP16, literal(-10)))
          CFI (cfiCond376) V1 load(1, XDATA, add(CFA_XSP16, literal(-9)))
          CFI (cfiCond376) V2 load(1, XDATA, add(CFA_XSP16, literal(-8)))
          CFI (cfiCond376) V3 load(1, XDATA, add(CFA_XSP16, literal(-7)))
          CFI (cfiCond376) R7 load(1, XDATA, add(CFA_XSP16, literal(-6)))
          CFI (cfiCond376) ?RET_LOW load(1, XDATA, add(CFA_XSP16, literal(-5)))
          CFI (cfiCond376) ?RET_HIGH load(1, XDATA, add(CFA_XSP16, literal(-4)))
          CFI (cfiCond376) ?BRET_EXT load(1, XDATA, add(CFA_XSP16, literal(-3)))
          CFI (cfiCond376) DPL0 load(1, XDATA, add(CFA_XSP16, literal(-2)))
          CFI (cfiCond376) DPH0 load(1, XDATA, add(CFA_XSP16, literal(-1)))
          CFI (cfiCond376) CFA_SP SP+-4
          CFI (cfiCond376) CFA_XSP16 add(XSP16, 12)
          CFI Block cfiCond377 Using cfiCommon0
          CFI (cfiCond377) Function zclGp_ProcessInProxyBasic
          CFI (cfiCond377) Conditional ??CrossCallReturnLabel_172, ??CrossCallReturnLabel_137
          CFI (cfiCond377) R6 load(1, XDATA, add(CFA_XSP16, literal(-15)))
          CFI (cfiCond377) VB load(1, XDATA, add(CFA_XSP16, literal(-14)))
          CFI (cfiCond377) V0 load(1, XDATA, add(CFA_XSP16, literal(-13)))
          CFI (cfiCond377) V1 load(1, XDATA, add(CFA_XSP16, literal(-12)))
          CFI (cfiCond377) V2 load(1, XDATA, add(CFA_XSP16, literal(-11)))
          CFI (cfiCond377) V3 load(1, XDATA, add(CFA_XSP16, literal(-10)))
          CFI (cfiCond377) V4 load(1, XDATA, add(CFA_XSP16, literal(-9)))
          CFI (cfiCond377) V5 load(1, XDATA, add(CFA_XSP16, literal(-8)))
          CFI (cfiCond377) V6 load(1, XDATA, add(CFA_XSP16, literal(-7)))
          CFI (cfiCond377) R7 load(1, XDATA, add(CFA_XSP16, literal(-6)))
          CFI (cfiCond377) ?RET_LOW load(1, XDATA, add(CFA_XSP16, literal(-5)))
          CFI (cfiCond377) ?RET_HIGH load(1, XDATA, add(CFA_XSP16, literal(-4)))
          CFI (cfiCond377) ?BRET_EXT load(1, XDATA, add(CFA_XSP16, literal(-3)))
          CFI (cfiCond377) DPL0 load(1, XDATA, add(CFA_XSP16, literal(-2)))
          CFI (cfiCond377) DPH0 load(1, XDATA, add(CFA_XSP16, literal(-1)))
          CFI (cfiCond377) CFA_SP SP+-4
          CFI (cfiCond377) CFA_XSP16 add(XSP16, 43)
          CFI Block cfiCond378 Using cfiCommon0
          CFI (cfiCond378) Function gp_AddNotificationMsgNode
          CFI (cfiCond378) Conditional ??CrossCallReturnLabel_173, ??CrossCallReturnLabel_168
          CFI (cfiCond378) R6 load(1, XDATA, add(CFA_XSP16, literal(-12)))
          CFI (cfiCond378) VB load(1, XDATA, add(CFA_XSP16, literal(-11)))
          CFI (cfiCond378) V0 load(1, XDATA, add(CFA_XSP16, literal(-10)))
          CFI (cfiCond378) V1 load(1, XDATA, add(CFA_XSP16, literal(-9)))
          CFI (cfiCond378) V2 load(1, XDATA, add(CFA_XSP16, literal(-8)))
          CFI (cfiCond378) V3 load(1, XDATA, add(CFA_XSP16, literal(-7)))
          CFI (cfiCond378) R7 load(1, XDATA, add(CFA_XSP16, literal(-6)))
          CFI (cfiCond378) ?RET_LOW load(1, XDATA, add(CFA_XSP16, literal(-5)))
          CFI (cfiCond378) ?RET_HIGH load(1, XDATA, add(CFA_XSP16, literal(-4)))
          CFI (cfiCond378) ?BRET_EXT load(1, XDATA, add(CFA_XSP16, literal(-3)))
          CFI (cfiCond378) DPL0 load(1, XDATA, add(CFA_XSP16, literal(-2)))
          CFI (cfiCond378) DPH0 load(1, XDATA, add(CFA_XSP16, literal(-1)))
          CFI (cfiCond378) CFA_SP SP+-4
          CFI (cfiCond378) CFA_XSP16 add(XSP16, 12)
          CFI Block cfiCond379 Using cfiCommon0
          CFI (cfiCond379) Function gp_AddCmdPayloadMsgNode
          CFI (cfiCond379) Conditional ??CrossCallReturnLabel_173, ??CrossCallReturnLabel_169
          CFI (cfiCond379) R6 load(1, XDATA, add(CFA_XSP16, literal(-14)))
          CFI (cfiCond379) VB load(1, XDATA, add(CFA_XSP16, literal(-13)))
          CFI (cfiCond379) V0 load(1, XDATA, add(CFA_XSP16, literal(-12)))
          CFI (cfiCond379) V1 load(1, XDATA, add(CFA_XSP16, literal(-11)))
          CFI (cfiCond379) V2 load(1, XDATA, add(CFA_XSP16, literal(-10)))
          CFI (cfiCond379) V3 load(1, XDATA, add(CFA_XSP16, literal(-9)))
          CFI (cfiCond379) V4 load(1, XDATA, add(CFA_XSP16, literal(-8)))
          CFI (cfiCond379) V5 load(1, XDATA, add(CFA_XSP16, literal(-7)))
          CFI (cfiCond379) R7 load(1, XDATA, add(CFA_XSP16, literal(-6)))
          CFI (cfiCond379) ?RET_LOW load(1, XDATA, add(CFA_XSP16, literal(-5)))
          CFI (cfiCond379) ?RET_HIGH load(1, XDATA, add(CFA_XSP16, literal(-4)))
          CFI (cfiCond379) ?BRET_EXT load(1, XDATA, add(CFA_XSP16, literal(-3)))
          CFI (cfiCond379) DPL0 load(1, XDATA, add(CFA_XSP16, literal(-2)))
          CFI (cfiCond379) DPH0 load(1, XDATA, add(CFA_XSP16, literal(-1)))
          CFI (cfiCond379) CFA_SP SP+-4
          CFI (cfiCond379) CFA_XSP16 add(XSP16, 14)
          CFI Block cfiCond380 Using cfiCommon0
          CFI (cfiCond380) Function zclGp_SendGpNotificationCommand
          CFI (cfiCond380) Conditional ??CrossCallReturnLabel_173, ??CrossCallReturnLabel_162
          CFI (cfiCond380) R6 load(1, XDATA, add(CFA_XSP16, literal(-16)))
          CFI (cfiCond380) VB load(1, XDATA, add(CFA_XSP16, literal(-15)))
          CFI (cfiCond380) V0 load(1, XDATA, add(CFA_XSP16, literal(-14)))
          CFI (cfiCond380) V1 load(1, XDATA, add(CFA_XSP16, literal(-13)))
          CFI (cfiCond380) V2 load(1, XDATA, add(CFA_XSP16, literal(-12)))
          CFI (cfiCond380) V3 load(1, XDATA, add(CFA_XSP16, literal(-11)))
          CFI (cfiCond380) V4 load(1, XDATA, add(CFA_XSP16, literal(-10)))
          CFI (cfiCond380) V5 load(1, XDATA, add(CFA_XSP16, literal(-9)))
          CFI (cfiCond380) V6 load(1, XDATA, add(CFA_XSP16, literal(-8)))
          CFI (cfiCond380) V7 load(1, XDATA, add(CFA_XSP16, literal(-7)))
          CFI (cfiCond380) R7 load(1, XDATA, add(CFA_XSP16, literal(-6)))
          CFI (cfiCond380) ?RET_LOW load(1, XDATA, add(CFA_XSP16, literal(-5)))
          CFI (cfiCond380) ?RET_HIGH load(1, XDATA, add(CFA_XSP16, literal(-4)))
          CFI (cfiCond380) ?BRET_EXT load(1, XDATA, add(CFA_XSP16, literal(-3)))
          CFI (cfiCond380) DPL0 load(1, XDATA, add(CFA_XSP16, literal(-2)))
          CFI (cfiCond380) DPH0 load(1, XDATA, add(CFA_XSP16, literal(-1)))
          CFI (cfiCond380) CFA_SP SP+-4
          CFI (cfiCond380) CFA_XSP16 add(XSP16, 22)
          CFI Block cfiCond381 Using cfiCommon0
          CFI (cfiCond381) Function zclGp_SendGpCommissioningNotificationCommand
          CFI (cfiCond381) Conditional ??CrossCallReturnLabel_173, ??CrossCallReturnLabel_163
          CFI (cfiCond381) R6 load(1, XDATA, add(CFA_XSP16, literal(-16)))
          CFI (cfiCond381) VB load(1, XDATA, add(CFA_XSP16, literal(-15)))
          CFI (cfiCond381) V0 load(1, XDATA, add(CFA_XSP16, literal(-14)))
          CFI (cfiCond381) V1 load(1, XDATA, add(CFA_XSP16, literal(-13)))
          CFI (cfiCond381) V2 load(1, XDATA, add(CFA_XSP16, literal(-12)))
          CFI (cfiCond381) V3 load(1, XDATA, add(CFA_XSP16, literal(-11)))
          CFI (cfiCond381) V4 load(1, XDATA, add(CFA_XSP16, literal(-10)))
          CFI (cfiCond381) V5 load(1, XDATA, add(CFA_XSP16, literal(-9)))
          CFI (cfiCond381) V6 load(1, XDATA, add(CFA_XSP16, literal(-8)))
          CFI (cfiCond381) V7 load(1, XDATA, add(CFA_XSP16, literal(-7)))
          CFI (cfiCond381) R7 load(1, XDATA, add(CFA_XSP16, literal(-6)))
          CFI (cfiCond381) ?RET_LOW load(1, XDATA, add(CFA_XSP16, literal(-5)))
          CFI (cfiCond381) ?RET_HIGH load(1, XDATA, add(CFA_XSP16, literal(-4)))
          CFI (cfiCond381) ?BRET_EXT load(1, XDATA, add(CFA_XSP16, literal(-3)))
          CFI (cfiCond381) DPL0 load(1, XDATA, add(CFA_XSP16, literal(-2)))
          CFI (cfiCond381) DPH0 load(1, XDATA, add(CFA_XSP16, literal(-1)))
          CFI (cfiCond381) CFA_SP SP+-4
          CFI (cfiCond381) CFA_XSP16 add(XSP16, 30)
          CFI Block cfiCond382 Using cfiCommon0
          CFI (cfiCond382) Function zclGp_SendGpProxyTableResponse
          CFI (cfiCond382) Conditional ??CrossCallReturnLabel_173, ??CrossCallReturnLabel_164
          CFI (cfiCond382) R6 load(1, XDATA, add(CFA_XSP16, literal(-16)))
          CFI (cfiCond382) VB load(1, XDATA, add(CFA_XSP16, literal(-15)))
          CFI (cfiCond382) V0 load(1, XDATA, add(CFA_XSP16, literal(-14)))
          CFI (cfiCond382) V1 load(1, XDATA, add(CFA_XSP16, literal(-13)))
          CFI (cfiCond382) V2 load(1, XDATA, add(CFA_XSP16, literal(-12)))
          CFI (cfiCond382) V3 load(1, XDATA, add(CFA_XSP16, literal(-11)))
          CFI (cfiCond382) V4 load(1, XDATA, add(CFA_XSP16, literal(-10)))
          CFI (cfiCond382) V5 load(1, XDATA, add(CFA_XSP16, literal(-9)))
          CFI (cfiCond382) V6 load(1, XDATA, add(CFA_XSP16, literal(-8)))
          CFI (cfiCond382) V7 load(1, XDATA, add(CFA_XSP16, literal(-7)))
          CFI (cfiCond382) R7 load(1, XDATA, add(CFA_XSP16, literal(-6)))
          CFI (cfiCond382) ?RET_LOW load(1, XDATA, add(CFA_XSP16, literal(-5)))
          CFI (cfiCond382) ?RET_HIGH load(1, XDATA, add(CFA_XSP16, literal(-4)))
          CFI (cfiCond382) ?BRET_EXT load(1, XDATA, add(CFA_XSP16, literal(-3)))
          CFI (cfiCond382) DPL0 load(1, XDATA, add(CFA_XSP16, literal(-2)))
          CFI (cfiCond382) DPH0 load(1, XDATA, add(CFA_XSP16, literal(-1)))
          CFI (cfiCond382) CFA_SP SP+-4
          CFI (cfiCond382) CFA_XSP16 add(XSP16, 35)
          CFI Block cfiCond383 Using cfiCommon0
          CFI (cfiCond383) Function gp_GetHeadNotificationMsg
          CFI (cfiCond383) Conditional ??CrossCallReturnLabel_173, ??CrossCallReturnLabel_167
          CFI (cfiCond383) DPL0 Frame(CFA_SP, 4)
          CFI (cfiCond383) DPH0 Frame(CFA_SP, 5)
          CFI (cfiCond383) CFA_SP SP+-9
          CFI Block cfiCond384 Using cfiCommon0
          CFI (cfiCond384) Function gp_GetHeadCmdPayloadMsg
          CFI (cfiCond384) Conditional ??CrossCallReturnLabel_173, ??CrossCallReturnLabel_167
          CFI (cfiCond384) DPL0 Frame(CFA_SP, 4)
          CFI (cfiCond384) DPH0 Frame(CFA_SP, 5)
          CFI (cfiCond384) CFA_SP SP+-9
          CFI Block cfiCond385 Using cfiCommon0
          CFI (cfiCond385) Function gp_NotificationMsgClean
          CFI (cfiCond385) Conditional ??CrossCallReturnLabel_173, ??CrossCallReturnLabel_165
          CFI (cfiCond385) R6 load(1, XDATA, add(CFA_XSP16, literal(-12)))
          CFI (cfiCond385) VB load(1, XDATA, add(CFA_XSP16, literal(-11)))
          CFI (cfiCond385) V0 load(1, XDATA, add(CFA_XSP16, literal(-10)))
          CFI (cfiCond385) V1 load(1, XDATA, add(CFA_XSP16, literal(-9)))
          CFI (cfiCond385) V2 load(1, XDATA, add(CFA_XSP16, literal(-8)))
          CFI (cfiCond385) V3 load(1, XDATA, add(CFA_XSP16, literal(-7)))
          CFI (cfiCond385) R7 load(1, XDATA, add(CFA_XSP16, literal(-6)))
          CFI (cfiCond385) ?RET_LOW load(1, XDATA, add(CFA_XSP16, literal(-5)))
          CFI (cfiCond385) ?RET_HIGH load(1, XDATA, add(CFA_XSP16, literal(-4)))
          CFI (cfiCond385) ?BRET_EXT load(1, XDATA, add(CFA_XSP16, literal(-3)))
          CFI (cfiCond385) DPL0 load(1, XDATA, add(CFA_XSP16, literal(-2)))
          CFI (cfiCond385) DPH0 load(1, XDATA, add(CFA_XSP16, literal(-1)))
          CFI (cfiCond385) CFA_SP SP+-4
          CFI (cfiCond385) CFA_XSP16 add(XSP16, 12)
          CFI Block cfiCond386 Using cfiCommon0
          CFI (cfiCond386) Function gp_CmdPayloadMsgClean
          CFI (cfiCond386) Conditional ??CrossCallReturnLabel_173, ??CrossCallReturnLabel_166
          CFI (cfiCond386) R6 load(1, XDATA, add(CFA_XSP16, literal(-9)))
          CFI (cfiCond386) VB load(1, XDATA, add(CFA_XSP16, literal(-8)))
          CFI (cfiCond386) V0 load(1, XDATA, add(CFA_XSP16, literal(-7)))
          CFI (cfiCond386) R7 load(1, XDATA, add(CFA_XSP16, literal(-6)))
          CFI (cfiCond386) ?RET_LOW load(1, XDATA, add(CFA_XSP16, literal(-5)))
          CFI (cfiCond386) ?RET_HIGH load(1, XDATA, add(CFA_XSP16, literal(-4)))
          CFI (cfiCond386) ?BRET_EXT load(1, XDATA, add(CFA_XSP16, literal(-3)))
          CFI (cfiCond386) DPL0 load(1, XDATA, add(CFA_XSP16, literal(-2)))
          CFI (cfiCond386) DPH0 load(1, XDATA, add(CFA_XSP16, literal(-1)))
          CFI (cfiCond386) CFA_SP SP+-4
          CFI (cfiCond386) CFA_XSP16 add(XSP16, 9)
          CFI Block cfiCond387 Using cfiCommon0
          CFI (cfiCond387) Function gp_NotificationMsgClean
          CFI (cfiCond387) Conditional ??CrossCallReturnLabel_170, ??CrossCallReturnLabel_17
          CFI (cfiCond387) R6 load(1, XDATA, add(CFA_XSP16, literal(-12)))
          CFI (cfiCond387) VB load(1, XDATA, add(CFA_XSP16, literal(-11)))
          CFI (cfiCond387) V0 load(1, XDATA, add(CFA_XSP16, literal(-10)))
          CFI (cfiCond387) V1 load(1, XDATA, add(CFA_XSP16, literal(-9)))
          CFI (cfiCond387) V2 load(1, XDATA, add(CFA_XSP16, literal(-8)))
          CFI (cfiCond387) V3 load(1, XDATA, add(CFA_XSP16, literal(-7)))
          CFI (cfiCond387) R7 load(1, XDATA, add(CFA_XSP16, literal(-6)))
          CFI (cfiCond387) ?RET_LOW load(1, XDATA, add(CFA_XSP16, literal(-5)))
          CFI (cfiCond387) ?RET_HIGH load(1, XDATA, add(CFA_XSP16, literal(-4)))
          CFI (cfiCond387) ?BRET_EXT load(1, XDATA, add(CFA_XSP16, literal(-3)))
          CFI (cfiCond387) DPL0 load(1, XDATA, add(CFA_XSP16, literal(-2)))
          CFI (cfiCond387) DPH0 load(1, XDATA, add(CFA_XSP16, literal(-1)))
          CFI (cfiCond387) CFA_SP SP+-4
          CFI (cfiCond387) CFA_XSP16 add(XSP16, 12)
          CFI Block cfiCond388 Using cfiCommon0
          CFI (cfiCond388) Function gp_CmdPayloadMsgClean
          CFI (cfiCond388) Conditional ??CrossCallReturnLabel_170, ??CrossCallReturnLabel_18
          CFI (cfiCond388) R6 load(1, XDATA, add(CFA_XSP16, literal(-9)))
          CFI (cfiCond388) VB load(1, XDATA, add(CFA_XSP16, literal(-8)))
          CFI (cfiCond388) V0 load(1, XDATA, add(CFA_XSP16, literal(-7)))
          CFI (cfiCond388) R7 load(1, XDATA, add(CFA_XSP16, literal(-6)))
          CFI (cfiCond388) ?RET_LOW load(1, XDATA, add(CFA_XSP16, literal(-5)))
          CFI (cfiCond388) ?RET_HIGH load(1, XDATA, add(CFA_XSP16, literal(-4)))
          CFI (cfiCond388) ?BRET_EXT load(1, XDATA, add(CFA_XSP16, literal(-3)))
          CFI (cfiCond388) DPL0 load(1, XDATA, add(CFA_XSP16, literal(-2)))
          CFI (cfiCond388) DPH0 load(1, XDATA, add(CFA_XSP16, literal(-1)))
          CFI (cfiCond388) CFA_SP SP+-4
          CFI (cfiCond388) CFA_XSP16 add(XSP16, 9)
          CFI Block cfiPicker389 Using cfiCommon1
          CFI (cfiPicker389) NoFunction
          CFI (cfiPicker389) Picker
        MOVX      A,@DPTR
        MOV       R2,A
        INC       DPTR
        MOVX      A,@DPTR
        MOV       R3,A
        RET
          CFI EndBlock cfiCond371
          CFI EndBlock cfiCond372
          CFI EndBlock cfiCond373
          CFI EndBlock cfiCond374
          CFI EndBlock cfiCond375
          CFI EndBlock cfiCond376
          CFI EndBlock cfiCond377
          CFI EndBlock cfiCond378
          CFI EndBlock cfiCond379
          CFI EndBlock cfiCond380
          CFI EndBlock cfiCond381
          CFI EndBlock cfiCond382
          CFI EndBlock cfiCond383
          CFI EndBlock cfiCond384
          CFI EndBlock cfiCond385
          CFI EndBlock cfiCond386
          CFI EndBlock cfiCond387
          CFI EndBlock cfiCond388
          CFI EndBlock cfiPicker389
//  972 
//  973 /*********************************************************************
//  974  * @fn      gp_NotificationMsgClean
//  975  *
//  976  * @brief   This function free reserved memory for respondent list
//  977  *
//  978  * @param   pHead - begin of the Notification Msg list
//  979  *
//  980  * @return
//  981  */

        RSEG BANKED_CODE:HUGECODE:NOROOT(0)
//  982 void gp_CmdPayloadMsgClean( gpCmdPayloadMsg_t **pHead )
gp_CmdPayloadMsgClean:
          CFI Block cfiBlock390 Using cfiCommon0
          CFI Function gp_CmdPayloadMsgClean
        CODE
//  983 {
        FUNCALL gp_CmdPayloadMsgClean, osal_mem_free
        LOCFRAME ISTACK, 0, STACK
        LOCFRAME PSTACK, 0, STACK
        LOCFRAME XSTACK, 9, STACK
        LOCFRAME IOVERLAY, 0, STATIC
        LOCFRAME DOVERLAY, 0, STATIC
        ARGFRAME ISTACK, 0, STACK
        ARGFRAME PSTACK, 0, STACK
        ARGFRAME XSTACK, 9, STACK
        ARGFRAME IOVERLAY, 0, STATIC
        ARGFRAME DOVERLAY, 0, STATIC
        FUNCALL gp_CmdPayloadMsgClean, osal_mem_free
        LOCFRAME ISTACK, 0, STACK
        LOCFRAME PSTACK, 0, STACK
        LOCFRAME XSTACK, 9, STACK
        LOCFRAME IOVERLAY, 0, STATIC
        LOCFRAME DOVERLAY, 0, STATIC
        ARGFRAME ISTACK, 0, STACK
        ARGFRAME PSTACK, 0, STACK
        ARGFRAME XSTACK, 9, STACK
        ARGFRAME IOVERLAY, 0, STATIC
        ARGFRAME DOVERLAY, 0, STATIC
        MOV       A,#-0x9
        LCALL     ?BANKED_ENTER_XDATA
          CFI DPH0 load(1, XDATA, add(CFA_XSP16, literal(-1)))
          CFI DPL0 load(1, XDATA, add(CFA_XSP16, literal(-2)))
          CFI ?BRET_EXT load(1, XDATA, add(CFA_XSP16, literal(-3)))
          CFI ?RET_HIGH load(1, XDATA, add(CFA_XSP16, literal(-4)))
          CFI ?RET_LOW load(1, XDATA, add(CFA_XSP16, literal(-5)))
          CFI R7 load(1, XDATA, add(CFA_XSP16, literal(-6)))
          CFI V0 load(1, XDATA, add(CFA_XSP16, literal(-7)))
          CFI VB load(1, XDATA, add(CFA_XSP16, literal(-8)))
          CFI R6 load(1, XDATA, add(CFA_XSP16, literal(-9)))
          CFI CFA_SP SP+0
          CFI CFA_XSP16 add(XSP16, 9)
        ; Saved register size: 9
        ; Auto size: 0
        MOV       A,R2
        MOV       R6,A
        MOV       A,R3
        MOV       R7,A
//  984   gpCmdPayloadMsg_t **pCurr;
//  985   gpCmdPayloadMsg_t **pNext;
//  986   
//  987   if ( *pHead == NULL )
        MOV       DPL,R2
        MOV       DPH,A
        LCALL     ?Subroutine45 & 0xFFFF
??CrossCallReturnLabel_157:
        MOV       DPL,R0
        MOV       DPH,A
        MOV       A,DPL
        ORL       A,DPH
        JZ        ??gp_CmdPayloadMsgClean_0
//  988   {
//  989     return;
//  990   }
//  991   
//  992   pCurr = pHead;
//  993   
//  994   if( *pCurr != NULL )
//  995   {
//  996     pNext = &((*pCurr)->pNext);
//  997     osal_mem_free ( ( ( gpCmdPayloadMsg_t* ) *pCurr )->pMsg );
        ; Setup parameters for call to function osal_mem_free
        INC       DPTR
        INC       DPTR
        LCALL     ?Subroutine20 & 0xFFFF
//  998     ( ( gpCmdPayloadMsg_t* ) *pCurr )->pMsg = NULL;
??CrossCallReturnLabel_18:
        LCALL     ??Subroutine69_0 & 0xFFFF
??CrossCallReturnLabel_166:
        MOV       DPL,R2
        MOV       DPH,A
        INC       DPTR
        INC       DPTR
        CLR       A
        MOVX      @DPTR,A
        INC       DPTR
        MOVX      @DPTR,A
//  999     osal_mem_free( *pCurr );
        ; Setup parameters for call to function osal_mem_free
        LCALL     `??osal_mem_free::?relay`; Banked call to: osal_mem_free
// 1000     *pCurr = ( gpCmdPayloadMsg_t* )NULL;
        MOV       DPL,R6
        MOV       DPH,R7
        CLR       A
        MOVX      @DPTR,A
        INC       DPTR
        MOVX      @DPTR,A
// 1001     pCurr = pNext;
// 1002   }
// 1003   pHead = pCurr;
// 1004 }
??gp_CmdPayloadMsgClean_0:
        LJMP      ?Subroutine1 & 0xFFFF
          CFI EndBlock cfiBlock390

        RSEG BANKED_CODE:HUGECODE:NOROOT(0)
?Subroutine20:
          CFI Block cfiCond391 Using cfiCommon0
          CFI Function gp_NotificationMsgClean
          CFI Conditional ??CrossCallReturnLabel_17
          CFI R6 load(1, XDATA, add(CFA_XSP16, literal(-12)))
          CFI VB load(1, XDATA, add(CFA_XSP16, literal(-11)))
          CFI V0 load(1, XDATA, add(CFA_XSP16, literal(-10)))
          CFI V1 load(1, XDATA, add(CFA_XSP16, literal(-9)))
          CFI V2 load(1, XDATA, add(CFA_XSP16, literal(-8)))
          CFI V3 load(1, XDATA, add(CFA_XSP16, literal(-7)))
          CFI R7 load(1, XDATA, add(CFA_XSP16, literal(-6)))
          CFI ?RET_LOW load(1, XDATA, add(CFA_XSP16, literal(-5)))
          CFI ?RET_HIGH load(1, XDATA, add(CFA_XSP16, literal(-4)))
          CFI ?BRET_EXT load(1, XDATA, add(CFA_XSP16, literal(-3)))
          CFI DPL0 load(1, XDATA, add(CFA_XSP16, literal(-2)))
          CFI DPH0 load(1, XDATA, add(CFA_XSP16, literal(-1)))
          CFI CFA_SP SP+-2
          CFI CFA_XSP16 add(XSP16, 12)
          CFI Block cfiCond392 Using cfiCommon0
          CFI (cfiCond392) Function gp_CmdPayloadMsgClean
          CFI (cfiCond392) Conditional ??CrossCallReturnLabel_18
          CFI (cfiCond392) R6 load(1, XDATA, add(CFA_XSP16, literal(-9)))
          CFI (cfiCond392) VB load(1, XDATA, add(CFA_XSP16, literal(-8)))
          CFI (cfiCond392) V0 load(1, XDATA, add(CFA_XSP16, literal(-7)))
          CFI (cfiCond392) R7 load(1, XDATA, add(CFA_XSP16, literal(-6)))
          CFI (cfiCond392) ?RET_LOW load(1, XDATA, add(CFA_XSP16, literal(-5)))
          CFI (cfiCond392) ?RET_HIGH load(1, XDATA, add(CFA_XSP16, literal(-4)))
          CFI (cfiCond392) ?BRET_EXT load(1, XDATA, add(CFA_XSP16, literal(-3)))
          CFI (cfiCond392) DPL0 load(1, XDATA, add(CFA_XSP16, literal(-2)))
          CFI (cfiCond392) DPH0 load(1, XDATA, add(CFA_XSP16, literal(-1)))
          CFI (cfiCond392) CFA_SP SP+-2
          CFI (cfiCond392) CFA_XSP16 add(XSP16, 9)
          CFI Block cfiPicker393 Using cfiCommon1
          CFI (cfiPicker393) NoFunction
          CFI (cfiPicker393) Picker
        LCALL     ?Subroutine44 & 0xFFFF
??CrossCallReturnLabel_170:
        LCALL     `??osal_mem_free::?relay`; Banked call to: osal_mem_free
        MOV       DPL,R6
        MOV       DPH,R7
        RET
          CFI EndBlock cfiCond391
          CFI EndBlock cfiCond392
          CFI EndBlock cfiPicker393
// 1005 
// 1006 /*********************************************************************
// 1007  * @fn      gp_ResetProxyBasicTblEntry
// 1008  *
// 1009  * @brief   This function removes data of the given entry
// 1010  *
// 1011  * @param   pHead - begin of the Notification Msg list
// 1012  *
// 1013  * @return
// 1014  */

        RSEG BANKED_CODE:HUGECODE:NOROOT(0)
// 1015 void gp_ResetProxyBasicTblEntry( uint8* entry )
gp_ResetProxyBasicTblEntry:
          CFI Block cfiBlock394 Using cfiCommon0
          CFI Function gp_ResetProxyBasicTblEntry
        CODE
// 1016 {
        FUNCALL gp_ResetProxyBasicTblEntry, osal_memcpy
        LOCFRAME ISTACK, 0, STACK
        LOCFRAME PSTACK, 0, STACK
        LOCFRAME XSTACK, 79, STACK
        LOCFRAME IOVERLAY, 0, STATIC
        LOCFRAME DOVERLAY, 0, STATIC
        ARGFRAME ISTACK, 0, STACK
        ARGFRAME PSTACK, 0, STACK
        ARGFRAME XSTACK, 79, STACK
        ARGFRAME IOVERLAY, 0, STATIC
        ARGFRAME DOVERLAY, 0, STATIC
        REQUIRE ?V0
        REQUIRE ?V1
        REQUIRE ?V2
        MOV       A,#-0xb
        LCALL     ?BANKED_ENTER_XDATA
          CFI DPH0 load(1, XDATA, add(CFA_XSP16, literal(-1)))
          CFI DPL0 load(1, XDATA, add(CFA_XSP16, literal(-2)))
          CFI ?BRET_EXT load(1, XDATA, add(CFA_XSP16, literal(-3)))
          CFI ?RET_HIGH load(1, XDATA, add(CFA_XSP16, literal(-4)))
          CFI ?RET_LOW load(1, XDATA, add(CFA_XSP16, literal(-5)))
          CFI R7 load(1, XDATA, add(CFA_XSP16, literal(-6)))
          CFI V2 load(1, XDATA, add(CFA_XSP16, literal(-7)))
          CFI V1 load(1, XDATA, add(CFA_XSP16, literal(-8)))
          CFI V0 load(1, XDATA, add(CFA_XSP16, literal(-9)))
          CFI VB load(1, XDATA, add(CFA_XSP16, literal(-10)))
          CFI R6 load(1, XDATA, add(CFA_XSP16, literal(-11)))
          CFI CFA_SP SP+0
          CFI CFA_XSP16 add(XSP16, 11)
        ; Saved register size: 11
        ; Auto size: 65
        MOV       A,#-0x41
        LCALL     ?ALLOC_XSTACK8
          CFI CFA_XSP16 add(XSP16, 76)
// 1017   uint8 emptyEntry[PROXY_TBL_ENTRY_LEN] = PROXY_BASIC_TBL_EMPTY_ENTRY;
        MOV       DPTR,#`?<Constant {255, 255, 255, 255, 255, 255, 255,_2`
        MOV       R4,?XSP + 0
        MOV       R5,?XSP + 1
        MOV       A,#0x41
        LCALL     ?MOVE_LONG8_XDATA_XDATA
// 1018   
// 1019   osal_memcpy( entry, emptyEntry, PROXY_TBL_ENTRY_LEN );
        ; Setup parameters for call to function osal_memcpy
        MOV       R0,?XSP + 0
        MOV       R1,?XSP + 1
        MOV       ?V0,R0
        MOV       ?V1,R1
        MOV       ?V2,A
        MOV       R0,#?V0
        LCALL     ?PUSH_XSTACK_I_THREE
          CFI CFA_XSP16 add(XSP16, 79)
        MOV       R4,#0x41
        MOV       R5,#0x0
        LCALL     ??Subroutine72_0 & 0xFFFF
??CrossCallReturnLabel_197:
        LCALL     ?DEALLOC_XSTACK8
          CFI CFA_XSP16 add(XSP16, 76)
// 1020 }
        MOV       A,#0x41
        LCALL     ?DEALLOC_XSTACK8
          CFI CFA_XSP16 add(XSP16, 11)
        MOV       R7,#0x3
        LJMP      ?BANKED_LEAVE_XDATA
          CFI EndBlock cfiBlock394

        RSEG BANKED_CODE:HUGECODE:NOROOT(0)
?Subroutine38:
          CFI Block cfiCond395 Using cfiCommon0
          CFI Function zclGp_SendGpNotificationCommand
          CFI Conditional ??CrossCallReturnLabel_174
          CFI R6 load(1, XDATA, add(CFA_XSP16, literal(-16)))
          CFI VB load(1, XDATA, add(CFA_XSP16, literal(-15)))
          CFI V0 load(1, XDATA, add(CFA_XSP16, literal(-14)))
          CFI V1 load(1, XDATA, add(CFA_XSP16, literal(-13)))
          CFI V2 load(1, XDATA, add(CFA_XSP16, literal(-12)))
          CFI V3 load(1, XDATA, add(CFA_XSP16, literal(-11)))
          CFI V4 load(1, XDATA, add(CFA_XSP16, literal(-10)))
          CFI V5 load(1, XDATA, add(CFA_XSP16, literal(-9)))
          CFI V6 load(1, XDATA, add(CFA_XSP16, literal(-8)))
          CFI V7 load(1, XDATA, add(CFA_XSP16, literal(-7)))
          CFI R7 load(1, XDATA, add(CFA_XSP16, literal(-6)))
          CFI ?RET_LOW load(1, XDATA, add(CFA_XSP16, literal(-5)))
          CFI ?RET_HIGH load(1, XDATA, add(CFA_XSP16, literal(-4)))
          CFI ?BRET_EXT load(1, XDATA, add(CFA_XSP16, literal(-3)))
          CFI DPL0 load(1, XDATA, add(CFA_XSP16, literal(-2)))
          CFI DPH0 load(1, XDATA, add(CFA_XSP16, literal(-1)))
          CFI CFA_SP SP+-2
          CFI CFA_XSP16 add(XSP16, 25)
          CFI Block cfiCond396 Using cfiCommon0
          CFI (cfiCond396) Function zclGp_SendGpNotificationCommand
          CFI (cfiCond396) Conditional ??CrossCallReturnLabel_175
          CFI (cfiCond396) R6 load(1, XDATA, add(CFA_XSP16, literal(-16)))
          CFI (cfiCond396) VB load(1, XDATA, add(CFA_XSP16, literal(-15)))
          CFI (cfiCond396) V0 load(1, XDATA, add(CFA_XSP16, literal(-14)))
          CFI (cfiCond396) V1 load(1, XDATA, add(CFA_XSP16, literal(-13)))
          CFI (cfiCond396) V2 load(1, XDATA, add(CFA_XSP16, literal(-12)))
          CFI (cfiCond396) V3 load(1, XDATA, add(CFA_XSP16, literal(-11)))
          CFI (cfiCond396) V4 load(1, XDATA, add(CFA_XSP16, literal(-10)))
          CFI (cfiCond396) V5 load(1, XDATA, add(CFA_XSP16, literal(-9)))
          CFI (cfiCond396) V6 load(1, XDATA, add(CFA_XSP16, literal(-8)))
          CFI (cfiCond396) V7 load(1, XDATA, add(CFA_XSP16, literal(-7)))
          CFI (cfiCond396) R7 load(1, XDATA, add(CFA_XSP16, literal(-6)))
          CFI (cfiCond396) ?RET_LOW load(1, XDATA, add(CFA_XSP16, literal(-5)))
          CFI (cfiCond396) ?RET_HIGH load(1, XDATA, add(CFA_XSP16, literal(-4)))
          CFI (cfiCond396) ?BRET_EXT load(1, XDATA, add(CFA_XSP16, literal(-3)))
          CFI (cfiCond396) DPL0 load(1, XDATA, add(CFA_XSP16, literal(-2)))
          CFI (cfiCond396) DPH0 load(1, XDATA, add(CFA_XSP16, literal(-1)))
          CFI (cfiCond396) CFA_SP SP+-2
          CFI (cfiCond396) CFA_XSP16 add(XSP16, 25)
          CFI Block cfiCond397 Using cfiCommon0
          CFI (cfiCond397) Function zclGp_SendGpCommissioningNotificationCommand
          CFI (cfiCond397) Conditional ??CrossCallReturnLabel_176
          CFI (cfiCond397) R6 load(1, XDATA, add(CFA_XSP16, literal(-16)))
          CFI (cfiCond397) VB load(1, XDATA, add(CFA_XSP16, literal(-15)))
          CFI (cfiCond397) V0 load(1, XDATA, add(CFA_XSP16, literal(-14)))
          CFI (cfiCond397) V1 load(1, XDATA, add(CFA_XSP16, literal(-13)))
          CFI (cfiCond397) V2 load(1, XDATA, add(CFA_XSP16, literal(-12)))
          CFI (cfiCond397) V3 load(1, XDATA, add(CFA_XSP16, literal(-11)))
          CFI (cfiCond397) V4 load(1, XDATA, add(CFA_XSP16, literal(-10)))
          CFI (cfiCond397) V5 load(1, XDATA, add(CFA_XSP16, literal(-9)))
          CFI (cfiCond397) V6 load(1, XDATA, add(CFA_XSP16, literal(-8)))
          CFI (cfiCond397) V7 load(1, XDATA, add(CFA_XSP16, literal(-7)))
          CFI (cfiCond397) R7 load(1, XDATA, add(CFA_XSP16, literal(-6)))
          CFI (cfiCond397) ?RET_LOW load(1, XDATA, add(CFA_XSP16, literal(-5)))
          CFI (cfiCond397) ?RET_HIGH load(1, XDATA, add(CFA_XSP16, literal(-4)))
          CFI (cfiCond397) ?BRET_EXT load(1, XDATA, add(CFA_XSP16, literal(-3)))
          CFI (cfiCond397) DPL0 load(1, XDATA, add(CFA_XSP16, literal(-2)))
          CFI (cfiCond397) DPH0 load(1, XDATA, add(CFA_XSP16, literal(-1)))
          CFI (cfiCond397) CFA_SP SP+-2
          CFI (cfiCond397) CFA_XSP16 add(XSP16, 33)
          CFI Block cfiCond398 Using cfiCommon0
          CFI (cfiCond398) Function zclGp_SendGpCommissioningNotificationCommand
          CFI (cfiCond398) Conditional ??CrossCallReturnLabel_177
          CFI (cfiCond398) R6 load(1, XDATA, add(CFA_XSP16, literal(-16)))
          CFI (cfiCond398) VB load(1, XDATA, add(CFA_XSP16, literal(-15)))
          CFI (cfiCond398) V0 load(1, XDATA, add(CFA_XSP16, literal(-14)))
          CFI (cfiCond398) V1 load(1, XDATA, add(CFA_XSP16, literal(-13)))
          CFI (cfiCond398) V2 load(1, XDATA, add(CFA_XSP16, literal(-12)))
          CFI (cfiCond398) V3 load(1, XDATA, add(CFA_XSP16, literal(-11)))
          CFI (cfiCond398) V4 load(1, XDATA, add(CFA_XSP16, literal(-10)))
          CFI (cfiCond398) V5 load(1, XDATA, add(CFA_XSP16, literal(-9)))
          CFI (cfiCond398) V6 load(1, XDATA, add(CFA_XSP16, literal(-8)))
          CFI (cfiCond398) V7 load(1, XDATA, add(CFA_XSP16, literal(-7)))
          CFI (cfiCond398) R7 load(1, XDATA, add(CFA_XSP16, literal(-6)))
          CFI (cfiCond398) ?RET_LOW load(1, XDATA, add(CFA_XSP16, literal(-5)))
          CFI (cfiCond398) ?RET_HIGH load(1, XDATA, add(CFA_XSP16, literal(-4)))
          CFI (cfiCond398) ?BRET_EXT load(1, XDATA, add(CFA_XSP16, literal(-3)))
          CFI (cfiCond398) DPL0 load(1, XDATA, add(CFA_XSP16, literal(-2)))
          CFI (cfiCond398) DPH0 load(1, XDATA, add(CFA_XSP16, literal(-1)))
          CFI (cfiCond398) CFA_SP SP+-2
          CFI (cfiCond398) CFA_XSP16 add(XSP16, 33)
          CFI Block cfiPicker399 Using cfiCommon1
          CFI (cfiPicker399) NoFunction
          CFI (cfiPicker399) Picker
        MOV       R4,#0x4
          CFI EndBlock cfiCond395
          CFI EndBlock cfiCond396
          CFI EndBlock cfiCond397
          CFI EndBlock cfiCond398
          CFI EndBlock cfiPicker399
        REQUIRE ??Subroutine70_0
        ; // Fall through to label ??Subroutine70_0

        RSEG BANKED_CODE:HUGECODE:NOROOT(0)
??Subroutine70_0:
          CFI Block cfiCond400 Using cfiCommon0
          CFI Function zclGp_SendGpNotificationCommand
          CFI Conditional ??CrossCallReturnLabel_178
          CFI R6 load(1, XDATA, add(CFA_XSP16, literal(-16)))
          CFI VB load(1, XDATA, add(CFA_XSP16, literal(-15)))
          CFI V0 load(1, XDATA, add(CFA_XSP16, literal(-14)))
          CFI V1 load(1, XDATA, add(CFA_XSP16, literal(-13)))
          CFI V2 load(1, XDATA, add(CFA_XSP16, literal(-12)))
          CFI V3 load(1, XDATA, add(CFA_XSP16, literal(-11)))
          CFI V4 load(1, XDATA, add(CFA_XSP16, literal(-10)))
          CFI V5 load(1, XDATA, add(CFA_XSP16, literal(-9)))
          CFI V6 load(1, XDATA, add(CFA_XSP16, literal(-8)))
          CFI V7 load(1, XDATA, add(CFA_XSP16, literal(-7)))
          CFI R7 load(1, XDATA, add(CFA_XSP16, literal(-6)))
          CFI ?RET_LOW load(1, XDATA, add(CFA_XSP16, literal(-5)))
          CFI ?RET_HIGH load(1, XDATA, add(CFA_XSP16, literal(-4)))
          CFI ?BRET_EXT load(1, XDATA, add(CFA_XSP16, literal(-3)))
          CFI DPL0 load(1, XDATA, add(CFA_XSP16, literal(-2)))
          CFI DPH0 load(1, XDATA, add(CFA_XSP16, literal(-1)))
          CFI CFA_SP SP+-2
          CFI CFA_XSP16 add(XSP16, 25)
          CFI Block cfiCond401 Using cfiCommon0
          CFI (cfiCond401) Function zclGp_SendGpNotificationCommand
          CFI (cfiCond401) Conditional ??CrossCallReturnLabel_179
          CFI (cfiCond401) R6 load(1, XDATA, add(CFA_XSP16, literal(-16)))
          CFI (cfiCond401) VB load(1, XDATA, add(CFA_XSP16, literal(-15)))
          CFI (cfiCond401) V0 load(1, XDATA, add(CFA_XSP16, literal(-14)))
          CFI (cfiCond401) V1 load(1, XDATA, add(CFA_XSP16, literal(-13)))
          CFI (cfiCond401) V2 load(1, XDATA, add(CFA_XSP16, literal(-12)))
          CFI (cfiCond401) V3 load(1, XDATA, add(CFA_XSP16, literal(-11)))
          CFI (cfiCond401) V4 load(1, XDATA, add(CFA_XSP16, literal(-10)))
          CFI (cfiCond401) V5 load(1, XDATA, add(CFA_XSP16, literal(-9)))
          CFI (cfiCond401) V6 load(1, XDATA, add(CFA_XSP16, literal(-8)))
          CFI (cfiCond401) V7 load(1, XDATA, add(CFA_XSP16, literal(-7)))
          CFI (cfiCond401) R7 load(1, XDATA, add(CFA_XSP16, literal(-6)))
          CFI (cfiCond401) ?RET_LOW load(1, XDATA, add(CFA_XSP16, literal(-5)))
          CFI (cfiCond401) ?RET_HIGH load(1, XDATA, add(CFA_XSP16, literal(-4)))
          CFI (cfiCond401) ?BRET_EXT load(1, XDATA, add(CFA_XSP16, literal(-3)))
          CFI (cfiCond401) DPL0 load(1, XDATA, add(CFA_XSP16, literal(-2)))
          CFI (cfiCond401) DPH0 load(1, XDATA, add(CFA_XSP16, literal(-1)))
          CFI (cfiCond401) CFA_SP SP+-2
          CFI (cfiCond401) CFA_XSP16 add(XSP16, 25)
          CFI Block cfiCond402 Using cfiCommon0
          CFI (cfiCond402) Function zclGp_SendGpNotificationCommand
          CFI (cfiCond402) Conditional ??CrossCallReturnLabel_180
          CFI (cfiCond402) R6 load(1, XDATA, add(CFA_XSP16, literal(-16)))
          CFI (cfiCond402) VB load(1, XDATA, add(CFA_XSP16, literal(-15)))
          CFI (cfiCond402) V0 load(1, XDATA, add(CFA_XSP16, literal(-14)))
          CFI (cfiCond402) V1 load(1, XDATA, add(CFA_XSP16, literal(-13)))
          CFI (cfiCond402) V2 load(1, XDATA, add(CFA_XSP16, literal(-12)))
          CFI (cfiCond402) V3 load(1, XDATA, add(CFA_XSP16, literal(-11)))
          CFI (cfiCond402) V4 load(1, XDATA, add(CFA_XSP16, literal(-10)))
          CFI (cfiCond402) V5 load(1, XDATA, add(CFA_XSP16, literal(-9)))
          CFI (cfiCond402) V6 load(1, XDATA, add(CFA_XSP16, literal(-8)))
          CFI (cfiCond402) V7 load(1, XDATA, add(CFA_XSP16, literal(-7)))
          CFI (cfiCond402) R7 load(1, XDATA, add(CFA_XSP16, literal(-6)))
          CFI (cfiCond402) ?RET_LOW load(1, XDATA, add(CFA_XSP16, literal(-5)))
          CFI (cfiCond402) ?RET_HIGH load(1, XDATA, add(CFA_XSP16, literal(-4)))
          CFI (cfiCond402) ?BRET_EXT load(1, XDATA, add(CFA_XSP16, literal(-3)))
          CFI (cfiCond402) DPL0 load(1, XDATA, add(CFA_XSP16, literal(-2)))
          CFI (cfiCond402) DPH0 load(1, XDATA, add(CFA_XSP16, literal(-1)))
          CFI (cfiCond402) CFA_SP SP+-2
          CFI (cfiCond402) CFA_XSP16 add(XSP16, 25)
          CFI Block cfiCond403 Using cfiCommon0
          CFI (cfiCond403) Function zclGp_SendGpCommissioningNotificationCommand
          CFI (cfiCond403) Conditional ??CrossCallReturnLabel_181
          CFI (cfiCond403) R6 load(1, XDATA, add(CFA_XSP16, literal(-16)))
          CFI (cfiCond403) VB load(1, XDATA, add(CFA_XSP16, literal(-15)))
          CFI (cfiCond403) V0 load(1, XDATA, add(CFA_XSP16, literal(-14)))
          CFI (cfiCond403) V1 load(1, XDATA, add(CFA_XSP16, literal(-13)))
          CFI (cfiCond403) V2 load(1, XDATA, add(CFA_XSP16, literal(-12)))
          CFI (cfiCond403) V3 load(1, XDATA, add(CFA_XSP16, literal(-11)))
          CFI (cfiCond403) V4 load(1, XDATA, add(CFA_XSP16, literal(-10)))
          CFI (cfiCond403) V5 load(1, XDATA, add(CFA_XSP16, literal(-9)))
          CFI (cfiCond403) V6 load(1, XDATA, add(CFA_XSP16, literal(-8)))
          CFI (cfiCond403) V7 load(1, XDATA, add(CFA_XSP16, literal(-7)))
          CFI (cfiCond403) R7 load(1, XDATA, add(CFA_XSP16, literal(-6)))
          CFI (cfiCond403) ?RET_LOW load(1, XDATA, add(CFA_XSP16, literal(-5)))
          CFI (cfiCond403) ?RET_HIGH load(1, XDATA, add(CFA_XSP16, literal(-4)))
          CFI (cfiCond403) ?BRET_EXT load(1, XDATA, add(CFA_XSP16, literal(-3)))
          CFI (cfiCond403) DPL0 load(1, XDATA, add(CFA_XSP16, literal(-2)))
          CFI (cfiCond403) DPH0 load(1, XDATA, add(CFA_XSP16, literal(-1)))
          CFI (cfiCond403) CFA_SP SP+-2
          CFI (cfiCond403) CFA_XSP16 add(XSP16, 33)
          CFI Block cfiCond404 Using cfiCommon0
          CFI (cfiCond404) Function zclGp_SendGpCommissioningNotificationCommand
          CFI (cfiCond404) Conditional ??CrossCallReturnLabel_182
          CFI (cfiCond404) R6 load(1, XDATA, add(CFA_XSP16, literal(-16)))
          CFI (cfiCond404) VB load(1, XDATA, add(CFA_XSP16, literal(-15)))
          CFI (cfiCond404) V0 load(1, XDATA, add(CFA_XSP16, literal(-14)))
          CFI (cfiCond404) V1 load(1, XDATA, add(CFA_XSP16, literal(-13)))
          CFI (cfiCond404) V2 load(1, XDATA, add(CFA_XSP16, literal(-12)))
          CFI (cfiCond404) V3 load(1, XDATA, add(CFA_XSP16, literal(-11)))
          CFI (cfiCond404) V4 load(1, XDATA, add(CFA_XSP16, literal(-10)))
          CFI (cfiCond404) V5 load(1, XDATA, add(CFA_XSP16, literal(-9)))
          CFI (cfiCond404) V6 load(1, XDATA, add(CFA_XSP16, literal(-8)))
          CFI (cfiCond404) V7 load(1, XDATA, add(CFA_XSP16, literal(-7)))
          CFI (cfiCond404) R7 load(1, XDATA, add(CFA_XSP16, literal(-6)))
          CFI (cfiCond404) ?RET_LOW load(1, XDATA, add(CFA_XSP16, literal(-5)))
          CFI (cfiCond404) ?RET_HIGH load(1, XDATA, add(CFA_XSP16, literal(-4)))
          CFI (cfiCond404) ?BRET_EXT load(1, XDATA, add(CFA_XSP16, literal(-3)))
          CFI (cfiCond404) DPL0 load(1, XDATA, add(CFA_XSP16, literal(-2)))
          CFI (cfiCond404) DPH0 load(1, XDATA, add(CFA_XSP16, literal(-1)))
          CFI (cfiCond404) CFA_SP SP+-2
          CFI (cfiCond404) CFA_XSP16 add(XSP16, 33)
          CFI Block cfiCond405 Using cfiCommon0
          CFI (cfiCond405) Function zclGp_SendGpCommissioningNotificationCommand
          CFI (cfiCond405) Conditional ??CrossCallReturnLabel_183
          CFI (cfiCond405) R6 load(1, XDATA, add(CFA_XSP16, literal(-16)))
          CFI (cfiCond405) VB load(1, XDATA, add(CFA_XSP16, literal(-15)))
          CFI (cfiCond405) V0 load(1, XDATA, add(CFA_XSP16, literal(-14)))
          CFI (cfiCond405) V1 load(1, XDATA, add(CFA_XSP16, literal(-13)))
          CFI (cfiCond405) V2 load(1, XDATA, add(CFA_XSP16, literal(-12)))
          CFI (cfiCond405) V3 load(1, XDATA, add(CFA_XSP16, literal(-11)))
          CFI (cfiCond405) V4 load(1, XDATA, add(CFA_XSP16, literal(-10)))
          CFI (cfiCond405) V5 load(1, XDATA, add(CFA_XSP16, literal(-9)))
          CFI (cfiCond405) V6 load(1, XDATA, add(CFA_XSP16, literal(-8)))
          CFI (cfiCond405) V7 load(1, XDATA, add(CFA_XSP16, literal(-7)))
          CFI (cfiCond405) R7 load(1, XDATA, add(CFA_XSP16, literal(-6)))
          CFI (cfiCond405) ?RET_LOW load(1, XDATA, add(CFA_XSP16, literal(-5)))
          CFI (cfiCond405) ?RET_HIGH load(1, XDATA, add(CFA_XSP16, literal(-4)))
          CFI (cfiCond405) ?BRET_EXT load(1, XDATA, add(CFA_XSP16, literal(-3)))
          CFI (cfiCond405) DPL0 load(1, XDATA, add(CFA_XSP16, literal(-2)))
          CFI (cfiCond405) DPH0 load(1, XDATA, add(CFA_XSP16, literal(-1)))
          CFI (cfiCond405) CFA_SP SP+-2
          CFI (cfiCond405) CFA_XSP16 add(XSP16, 33)
          CFI Block cfiCond406 Using cfiCommon0
          CFI (cfiCond406) Function zclGp_SendGpNotificationCommand
          CFI (cfiCond406) Conditional ??CrossCallReturnLabel_174
          CFI (cfiCond406) R6 load(1, XDATA, add(CFA_XSP16, literal(-16)))
          CFI (cfiCond406) VB load(1, XDATA, add(CFA_XSP16, literal(-15)))
          CFI (cfiCond406) V0 load(1, XDATA, add(CFA_XSP16, literal(-14)))
          CFI (cfiCond406) V1 load(1, XDATA, add(CFA_XSP16, literal(-13)))
          CFI (cfiCond406) V2 load(1, XDATA, add(CFA_XSP16, literal(-12)))
          CFI (cfiCond406) V3 load(1, XDATA, add(CFA_XSP16, literal(-11)))
          CFI (cfiCond406) V4 load(1, XDATA, add(CFA_XSP16, literal(-10)))
          CFI (cfiCond406) V5 load(1, XDATA, add(CFA_XSP16, literal(-9)))
          CFI (cfiCond406) V6 load(1, XDATA, add(CFA_XSP16, literal(-8)))
          CFI (cfiCond406) V7 load(1, XDATA, add(CFA_XSP16, literal(-7)))
          CFI (cfiCond406) R7 load(1, XDATA, add(CFA_XSP16, literal(-6)))
          CFI (cfiCond406) ?RET_LOW load(1, XDATA, add(CFA_XSP16, literal(-5)))
          CFI (cfiCond406) ?RET_HIGH load(1, XDATA, add(CFA_XSP16, literal(-4)))
          CFI (cfiCond406) ?BRET_EXT load(1, XDATA, add(CFA_XSP16, literal(-3)))
          CFI (cfiCond406) DPL0 load(1, XDATA, add(CFA_XSP16, literal(-2)))
          CFI (cfiCond406) DPH0 load(1, XDATA, add(CFA_XSP16, literal(-1)))
          CFI (cfiCond406) CFA_SP SP+-2
          CFI (cfiCond406) CFA_XSP16 add(XSP16, 25)
          CFI Block cfiCond407 Using cfiCommon0
          CFI (cfiCond407) Function zclGp_SendGpNotificationCommand
          CFI (cfiCond407) Conditional ??CrossCallReturnLabel_175
          CFI (cfiCond407) R6 load(1, XDATA, add(CFA_XSP16, literal(-16)))
          CFI (cfiCond407) VB load(1, XDATA, add(CFA_XSP16, literal(-15)))
          CFI (cfiCond407) V0 load(1, XDATA, add(CFA_XSP16, literal(-14)))
          CFI (cfiCond407) V1 load(1, XDATA, add(CFA_XSP16, literal(-13)))
          CFI (cfiCond407) V2 load(1, XDATA, add(CFA_XSP16, literal(-12)))
          CFI (cfiCond407) V3 load(1, XDATA, add(CFA_XSP16, literal(-11)))
          CFI (cfiCond407) V4 load(1, XDATA, add(CFA_XSP16, literal(-10)))
          CFI (cfiCond407) V5 load(1, XDATA, add(CFA_XSP16, literal(-9)))
          CFI (cfiCond407) V6 load(1, XDATA, add(CFA_XSP16, literal(-8)))
          CFI (cfiCond407) V7 load(1, XDATA, add(CFA_XSP16, literal(-7)))
          CFI (cfiCond407) R7 load(1, XDATA, add(CFA_XSP16, literal(-6)))
          CFI (cfiCond407) ?RET_LOW load(1, XDATA, add(CFA_XSP16, literal(-5)))
          CFI (cfiCond407) ?RET_HIGH load(1, XDATA, add(CFA_XSP16, literal(-4)))
          CFI (cfiCond407) ?BRET_EXT load(1, XDATA, add(CFA_XSP16, literal(-3)))
          CFI (cfiCond407) DPL0 load(1, XDATA, add(CFA_XSP16, literal(-2)))
          CFI (cfiCond407) DPH0 load(1, XDATA, add(CFA_XSP16, literal(-1)))
          CFI (cfiCond407) CFA_SP SP+-2
          CFI (cfiCond407) CFA_XSP16 add(XSP16, 25)
          CFI Block cfiCond408 Using cfiCommon0
          CFI (cfiCond408) Function zclGp_SendGpCommissioningNotificationCommand
          CFI (cfiCond408) Conditional ??CrossCallReturnLabel_176
          CFI (cfiCond408) R6 load(1, XDATA, add(CFA_XSP16, literal(-16)))
          CFI (cfiCond408) VB load(1, XDATA, add(CFA_XSP16, literal(-15)))
          CFI (cfiCond408) V0 load(1, XDATA, add(CFA_XSP16, literal(-14)))
          CFI (cfiCond408) V1 load(1, XDATA, add(CFA_XSP16, literal(-13)))
          CFI (cfiCond408) V2 load(1, XDATA, add(CFA_XSP16, literal(-12)))
          CFI (cfiCond408) V3 load(1, XDATA, add(CFA_XSP16, literal(-11)))
          CFI (cfiCond408) V4 load(1, XDATA, add(CFA_XSP16, literal(-10)))
          CFI (cfiCond408) V5 load(1, XDATA, add(CFA_XSP16, literal(-9)))
          CFI (cfiCond408) V6 load(1, XDATA, add(CFA_XSP16, literal(-8)))
          CFI (cfiCond408) V7 load(1, XDATA, add(CFA_XSP16, literal(-7)))
          CFI (cfiCond408) R7 load(1, XDATA, add(CFA_XSP16, literal(-6)))
          CFI (cfiCond408) ?RET_LOW load(1, XDATA, add(CFA_XSP16, literal(-5)))
          CFI (cfiCond408) ?RET_HIGH load(1, XDATA, add(CFA_XSP16, literal(-4)))
          CFI (cfiCond408) ?BRET_EXT load(1, XDATA, add(CFA_XSP16, literal(-3)))
          CFI (cfiCond408) DPL0 load(1, XDATA, add(CFA_XSP16, literal(-2)))
          CFI (cfiCond408) DPH0 load(1, XDATA, add(CFA_XSP16, literal(-1)))
          CFI (cfiCond408) CFA_SP SP+-2
          CFI (cfiCond408) CFA_XSP16 add(XSP16, 33)
          CFI Block cfiCond409 Using cfiCommon0
          CFI (cfiCond409) Function zclGp_SendGpCommissioningNotificationCommand
          CFI (cfiCond409) Conditional ??CrossCallReturnLabel_177
          CFI (cfiCond409) R6 load(1, XDATA, add(CFA_XSP16, literal(-16)))
          CFI (cfiCond409) VB load(1, XDATA, add(CFA_XSP16, literal(-15)))
          CFI (cfiCond409) V0 load(1, XDATA, add(CFA_XSP16, literal(-14)))
          CFI (cfiCond409) V1 load(1, XDATA, add(CFA_XSP16, literal(-13)))
          CFI (cfiCond409) V2 load(1, XDATA, add(CFA_XSP16, literal(-12)))
          CFI (cfiCond409) V3 load(1, XDATA, add(CFA_XSP16, literal(-11)))
          CFI (cfiCond409) V4 load(1, XDATA, add(CFA_XSP16, literal(-10)))
          CFI (cfiCond409) V5 load(1, XDATA, add(CFA_XSP16, literal(-9)))
          CFI (cfiCond409) V6 load(1, XDATA, add(CFA_XSP16, literal(-8)))
          CFI (cfiCond409) V7 load(1, XDATA, add(CFA_XSP16, literal(-7)))
          CFI (cfiCond409) R7 load(1, XDATA, add(CFA_XSP16, literal(-6)))
          CFI (cfiCond409) ?RET_LOW load(1, XDATA, add(CFA_XSP16, literal(-5)))
          CFI (cfiCond409) ?RET_HIGH load(1, XDATA, add(CFA_XSP16, literal(-4)))
          CFI (cfiCond409) ?BRET_EXT load(1, XDATA, add(CFA_XSP16, literal(-3)))
          CFI (cfiCond409) DPL0 load(1, XDATA, add(CFA_XSP16, literal(-2)))
          CFI (cfiCond409) DPH0 load(1, XDATA, add(CFA_XSP16, literal(-1)))
          CFI (cfiCond409) CFA_SP SP+-2
          CFI (cfiCond409) CFA_XSP16 add(XSP16, 33)
          CFI Block cfiPicker410 Using cfiCommon1
          CFI (cfiPicker410) NoFunction
          CFI (cfiPicker410) Picker
        MOV       R5,#0x0
        MOV       A,R6
        MOV       R2,A
        MOV       A,R7
          CFI EndBlock cfiCond400
          CFI EndBlock cfiCond401
          CFI EndBlock cfiCond402
          CFI EndBlock cfiCond403
          CFI EndBlock cfiCond404
          CFI EndBlock cfiCond405
          CFI EndBlock cfiCond406
          CFI EndBlock cfiCond407
          CFI EndBlock cfiCond408
          CFI EndBlock cfiCond409
          CFI EndBlock cfiPicker410
        REQUIRE ??Subroutine71_0
        ; // Fall through to label ??Subroutine71_0

        RSEG BANKED_CODE:HUGECODE:NOROOT(0)
??Subroutine71_0:
          CFI Block cfiCond411 Using cfiCommon0
          CFI Function zclGp_SendGpProxyTableResponse
          CFI Conditional ??CrossCallReturnLabel_184
          CFI R6 load(1, XDATA, add(CFA_XSP16, literal(-16)))
          CFI VB load(1, XDATA, add(CFA_XSP16, literal(-15)))
          CFI V0 load(1, XDATA, add(CFA_XSP16, literal(-14)))
          CFI V1 load(1, XDATA, add(CFA_XSP16, literal(-13)))
          CFI V2 load(1, XDATA, add(CFA_XSP16, literal(-12)))
          CFI V3 load(1, XDATA, add(CFA_XSP16, literal(-11)))
          CFI V4 load(1, XDATA, add(CFA_XSP16, literal(-10)))
          CFI V5 load(1, XDATA, add(CFA_XSP16, literal(-9)))
          CFI V6 load(1, XDATA, add(CFA_XSP16, literal(-8)))
          CFI V7 load(1, XDATA, add(CFA_XSP16, literal(-7)))
          CFI R7 load(1, XDATA, add(CFA_XSP16, literal(-6)))
          CFI ?RET_LOW load(1, XDATA, add(CFA_XSP16, literal(-5)))
          CFI ?RET_HIGH load(1, XDATA, add(CFA_XSP16, literal(-4)))
          CFI ?BRET_EXT load(1, XDATA, add(CFA_XSP16, literal(-3)))
          CFI DPL0 load(1, XDATA, add(CFA_XSP16, literal(-2)))
          CFI DPH0 load(1, XDATA, add(CFA_XSP16, literal(-1)))
          CFI CFA_SP SP+-2
          CFI CFA_XSP16 add(XSP16, 27)
          CFI Block cfiCond412 Using cfiCommon0
          CFI (cfiCond412) Function zclGp_SendGpNotificationCommand
          CFI (cfiCond412) Conditional ??CrossCallReturnLabel_178
          CFI (cfiCond412) R6 load(1, XDATA, add(CFA_XSP16, literal(-16)))
          CFI (cfiCond412) VB load(1, XDATA, add(CFA_XSP16, literal(-15)))
          CFI (cfiCond412) V0 load(1, XDATA, add(CFA_XSP16, literal(-14)))
          CFI (cfiCond412) V1 load(1, XDATA, add(CFA_XSP16, literal(-13)))
          CFI (cfiCond412) V2 load(1, XDATA, add(CFA_XSP16, literal(-12)))
          CFI (cfiCond412) V3 load(1, XDATA, add(CFA_XSP16, literal(-11)))
          CFI (cfiCond412) V4 load(1, XDATA, add(CFA_XSP16, literal(-10)))
          CFI (cfiCond412) V5 load(1, XDATA, add(CFA_XSP16, literal(-9)))
          CFI (cfiCond412) V6 load(1, XDATA, add(CFA_XSP16, literal(-8)))
          CFI (cfiCond412) V7 load(1, XDATA, add(CFA_XSP16, literal(-7)))
          CFI (cfiCond412) R7 load(1, XDATA, add(CFA_XSP16, literal(-6)))
          CFI (cfiCond412) ?RET_LOW load(1, XDATA, add(CFA_XSP16, literal(-5)))
          CFI (cfiCond412) ?RET_HIGH load(1, XDATA, add(CFA_XSP16, literal(-4)))
          CFI (cfiCond412) ?BRET_EXT load(1, XDATA, add(CFA_XSP16, literal(-3)))
          CFI (cfiCond412) DPL0 load(1, XDATA, add(CFA_XSP16, literal(-2)))
          CFI (cfiCond412) DPH0 load(1, XDATA, add(CFA_XSP16, literal(-1)))
          CFI (cfiCond412) CFA_SP SP+-2
          CFI (cfiCond412) CFA_XSP16 add(XSP16, 25)
          CFI Block cfiCond413 Using cfiCommon0
          CFI (cfiCond413) Function zclGp_SendGpNotificationCommand
          CFI (cfiCond413) Conditional ??CrossCallReturnLabel_179
          CFI (cfiCond413) R6 load(1, XDATA, add(CFA_XSP16, literal(-16)))
          CFI (cfiCond413) VB load(1, XDATA, add(CFA_XSP16, literal(-15)))
          CFI (cfiCond413) V0 load(1, XDATA, add(CFA_XSP16, literal(-14)))
          CFI (cfiCond413) V1 load(1, XDATA, add(CFA_XSP16, literal(-13)))
          CFI (cfiCond413) V2 load(1, XDATA, add(CFA_XSP16, literal(-12)))
          CFI (cfiCond413) V3 load(1, XDATA, add(CFA_XSP16, literal(-11)))
          CFI (cfiCond413) V4 load(1, XDATA, add(CFA_XSP16, literal(-10)))
          CFI (cfiCond413) V5 load(1, XDATA, add(CFA_XSP16, literal(-9)))
          CFI (cfiCond413) V6 load(1, XDATA, add(CFA_XSP16, literal(-8)))
          CFI (cfiCond413) V7 load(1, XDATA, add(CFA_XSP16, literal(-7)))
          CFI (cfiCond413) R7 load(1, XDATA, add(CFA_XSP16, literal(-6)))
          CFI (cfiCond413) ?RET_LOW load(1, XDATA, add(CFA_XSP16, literal(-5)))
          CFI (cfiCond413) ?RET_HIGH load(1, XDATA, add(CFA_XSP16, literal(-4)))
          CFI (cfiCond413) ?BRET_EXT load(1, XDATA, add(CFA_XSP16, literal(-3)))
          CFI (cfiCond413) DPL0 load(1, XDATA, add(CFA_XSP16, literal(-2)))
          CFI (cfiCond413) DPH0 load(1, XDATA, add(CFA_XSP16, literal(-1)))
          CFI (cfiCond413) CFA_SP SP+-2
          CFI (cfiCond413) CFA_XSP16 add(XSP16, 25)
          CFI Block cfiCond414 Using cfiCommon0
          CFI (cfiCond414) Function zclGp_SendGpNotificationCommand
          CFI (cfiCond414) Conditional ??CrossCallReturnLabel_180
          CFI (cfiCond414) R6 load(1, XDATA, add(CFA_XSP16, literal(-16)))
          CFI (cfiCond414) VB load(1, XDATA, add(CFA_XSP16, literal(-15)))
          CFI (cfiCond414) V0 load(1, XDATA, add(CFA_XSP16, literal(-14)))
          CFI (cfiCond414) V1 load(1, XDATA, add(CFA_XSP16, literal(-13)))
          CFI (cfiCond414) V2 load(1, XDATA, add(CFA_XSP16, literal(-12)))
          CFI (cfiCond414) V3 load(1, XDATA, add(CFA_XSP16, literal(-11)))
          CFI (cfiCond414) V4 load(1, XDATA, add(CFA_XSP16, literal(-10)))
          CFI (cfiCond414) V5 load(1, XDATA, add(CFA_XSP16, literal(-9)))
          CFI (cfiCond414) V6 load(1, XDATA, add(CFA_XSP16, literal(-8)))
          CFI (cfiCond414) V7 load(1, XDATA, add(CFA_XSP16, literal(-7)))
          CFI (cfiCond414) R7 load(1, XDATA, add(CFA_XSP16, literal(-6)))
          CFI (cfiCond414) ?RET_LOW load(1, XDATA, add(CFA_XSP16, literal(-5)))
          CFI (cfiCond414) ?RET_HIGH load(1, XDATA, add(CFA_XSP16, literal(-4)))
          CFI (cfiCond414) ?BRET_EXT load(1, XDATA, add(CFA_XSP16, literal(-3)))
          CFI (cfiCond414) DPL0 load(1, XDATA, add(CFA_XSP16, literal(-2)))
          CFI (cfiCond414) DPH0 load(1, XDATA, add(CFA_XSP16, literal(-1)))
          CFI (cfiCond414) CFA_SP SP+-2
          CFI (cfiCond414) CFA_XSP16 add(XSP16, 25)
          CFI Block cfiCond415 Using cfiCommon0
          CFI (cfiCond415) Function zclGp_SendGpCommissioningNotificationCommand
          CFI (cfiCond415) Conditional ??CrossCallReturnLabel_181
          CFI (cfiCond415) R6 load(1, XDATA, add(CFA_XSP16, literal(-16)))
          CFI (cfiCond415) VB load(1, XDATA, add(CFA_XSP16, literal(-15)))
          CFI (cfiCond415) V0 load(1, XDATA, add(CFA_XSP16, literal(-14)))
          CFI (cfiCond415) V1 load(1, XDATA, add(CFA_XSP16, literal(-13)))
          CFI (cfiCond415) V2 load(1, XDATA, add(CFA_XSP16, literal(-12)))
          CFI (cfiCond415) V3 load(1, XDATA, add(CFA_XSP16, literal(-11)))
          CFI (cfiCond415) V4 load(1, XDATA, add(CFA_XSP16, literal(-10)))
          CFI (cfiCond415) V5 load(1, XDATA, add(CFA_XSP16, literal(-9)))
          CFI (cfiCond415) V6 load(1, XDATA, add(CFA_XSP16, literal(-8)))
          CFI (cfiCond415) V7 load(1, XDATA, add(CFA_XSP16, literal(-7)))
          CFI (cfiCond415) R7 load(1, XDATA, add(CFA_XSP16, literal(-6)))
          CFI (cfiCond415) ?RET_LOW load(1, XDATA, add(CFA_XSP16, literal(-5)))
          CFI (cfiCond415) ?RET_HIGH load(1, XDATA, add(CFA_XSP16, literal(-4)))
          CFI (cfiCond415) ?BRET_EXT load(1, XDATA, add(CFA_XSP16, literal(-3)))
          CFI (cfiCond415) DPL0 load(1, XDATA, add(CFA_XSP16, literal(-2)))
          CFI (cfiCond415) DPH0 load(1, XDATA, add(CFA_XSP16, literal(-1)))
          CFI (cfiCond415) CFA_SP SP+-2
          CFI (cfiCond415) CFA_XSP16 add(XSP16, 33)
          CFI Block cfiCond416 Using cfiCommon0
          CFI (cfiCond416) Function zclGp_SendGpCommissioningNotificationCommand
          CFI (cfiCond416) Conditional ??CrossCallReturnLabel_182
          CFI (cfiCond416) R6 load(1, XDATA, add(CFA_XSP16, literal(-16)))
          CFI (cfiCond416) VB load(1, XDATA, add(CFA_XSP16, literal(-15)))
          CFI (cfiCond416) V0 load(1, XDATA, add(CFA_XSP16, literal(-14)))
          CFI (cfiCond416) V1 load(1, XDATA, add(CFA_XSP16, literal(-13)))
          CFI (cfiCond416) V2 load(1, XDATA, add(CFA_XSP16, literal(-12)))
          CFI (cfiCond416) V3 load(1, XDATA, add(CFA_XSP16, literal(-11)))
          CFI (cfiCond416) V4 load(1, XDATA, add(CFA_XSP16, literal(-10)))
          CFI (cfiCond416) V5 load(1, XDATA, add(CFA_XSP16, literal(-9)))
          CFI (cfiCond416) V6 load(1, XDATA, add(CFA_XSP16, literal(-8)))
          CFI (cfiCond416) V7 load(1, XDATA, add(CFA_XSP16, literal(-7)))
          CFI (cfiCond416) R7 load(1, XDATA, add(CFA_XSP16, literal(-6)))
          CFI (cfiCond416) ?RET_LOW load(1, XDATA, add(CFA_XSP16, literal(-5)))
          CFI (cfiCond416) ?RET_HIGH load(1, XDATA, add(CFA_XSP16, literal(-4)))
          CFI (cfiCond416) ?BRET_EXT load(1, XDATA, add(CFA_XSP16, literal(-3)))
          CFI (cfiCond416) DPL0 load(1, XDATA, add(CFA_XSP16, literal(-2)))
          CFI (cfiCond416) DPH0 load(1, XDATA, add(CFA_XSP16, literal(-1)))
          CFI (cfiCond416) CFA_SP SP+-2
          CFI (cfiCond416) CFA_XSP16 add(XSP16, 33)
          CFI Block cfiCond417 Using cfiCommon0
          CFI (cfiCond417) Function zclGp_SendGpCommissioningNotificationCommand
          CFI (cfiCond417) Conditional ??CrossCallReturnLabel_183
          CFI (cfiCond417) R6 load(1, XDATA, add(CFA_XSP16, literal(-16)))
          CFI (cfiCond417) VB load(1, XDATA, add(CFA_XSP16, literal(-15)))
          CFI (cfiCond417) V0 load(1, XDATA, add(CFA_XSP16, literal(-14)))
          CFI (cfiCond417) V1 load(1, XDATA, add(CFA_XSP16, literal(-13)))
          CFI (cfiCond417) V2 load(1, XDATA, add(CFA_XSP16, literal(-12)))
          CFI (cfiCond417) V3 load(1, XDATA, add(CFA_XSP16, literal(-11)))
          CFI (cfiCond417) V4 load(1, XDATA, add(CFA_XSP16, literal(-10)))
          CFI (cfiCond417) V5 load(1, XDATA, add(CFA_XSP16, literal(-9)))
          CFI (cfiCond417) V6 load(1, XDATA, add(CFA_XSP16, literal(-8)))
          CFI (cfiCond417) V7 load(1, XDATA, add(CFA_XSP16, literal(-7)))
          CFI (cfiCond417) R7 load(1, XDATA, add(CFA_XSP16, literal(-6)))
          CFI (cfiCond417) ?RET_LOW load(1, XDATA, add(CFA_XSP16, literal(-5)))
          CFI (cfiCond417) ?RET_HIGH load(1, XDATA, add(CFA_XSP16, literal(-4)))
          CFI (cfiCond417) ?BRET_EXT load(1, XDATA, add(CFA_XSP16, literal(-3)))
          CFI (cfiCond417) DPL0 load(1, XDATA, add(CFA_XSP16, literal(-2)))
          CFI (cfiCond417) DPH0 load(1, XDATA, add(CFA_XSP16, literal(-1)))
          CFI (cfiCond417) CFA_SP SP+-2
          CFI (cfiCond417) CFA_XSP16 add(XSP16, 33)
          CFI Block cfiCond418 Using cfiCommon0
          CFI (cfiCond418) Function zclGp_SendGpNotificationCommand
          CFI (cfiCond418) Conditional ??CrossCallReturnLabel_174
          CFI (cfiCond418) R6 load(1, XDATA, add(CFA_XSP16, literal(-16)))
          CFI (cfiCond418) VB load(1, XDATA, add(CFA_XSP16, literal(-15)))
          CFI (cfiCond418) V0 load(1, XDATA, add(CFA_XSP16, literal(-14)))
          CFI (cfiCond418) V1 load(1, XDATA, add(CFA_XSP16, literal(-13)))
          CFI (cfiCond418) V2 load(1, XDATA, add(CFA_XSP16, literal(-12)))
          CFI (cfiCond418) V3 load(1, XDATA, add(CFA_XSP16, literal(-11)))
          CFI (cfiCond418) V4 load(1, XDATA, add(CFA_XSP16, literal(-10)))
          CFI (cfiCond418) V5 load(1, XDATA, add(CFA_XSP16, literal(-9)))
          CFI (cfiCond418) V6 load(1, XDATA, add(CFA_XSP16, literal(-8)))
          CFI (cfiCond418) V7 load(1, XDATA, add(CFA_XSP16, literal(-7)))
          CFI (cfiCond418) R7 load(1, XDATA, add(CFA_XSP16, literal(-6)))
          CFI (cfiCond418) ?RET_LOW load(1, XDATA, add(CFA_XSP16, literal(-5)))
          CFI (cfiCond418) ?RET_HIGH load(1, XDATA, add(CFA_XSP16, literal(-4)))
          CFI (cfiCond418) ?BRET_EXT load(1, XDATA, add(CFA_XSP16, literal(-3)))
          CFI (cfiCond418) DPL0 load(1, XDATA, add(CFA_XSP16, literal(-2)))
          CFI (cfiCond418) DPH0 load(1, XDATA, add(CFA_XSP16, literal(-1)))
          CFI (cfiCond418) CFA_SP SP+-2
          CFI (cfiCond418) CFA_XSP16 add(XSP16, 25)
          CFI Block cfiCond419 Using cfiCommon0
          CFI (cfiCond419) Function zclGp_SendGpNotificationCommand
          CFI (cfiCond419) Conditional ??CrossCallReturnLabel_175
          CFI (cfiCond419) R6 load(1, XDATA, add(CFA_XSP16, literal(-16)))
          CFI (cfiCond419) VB load(1, XDATA, add(CFA_XSP16, literal(-15)))
          CFI (cfiCond419) V0 load(1, XDATA, add(CFA_XSP16, literal(-14)))
          CFI (cfiCond419) V1 load(1, XDATA, add(CFA_XSP16, literal(-13)))
          CFI (cfiCond419) V2 load(1, XDATA, add(CFA_XSP16, literal(-12)))
          CFI (cfiCond419) V3 load(1, XDATA, add(CFA_XSP16, literal(-11)))
          CFI (cfiCond419) V4 load(1, XDATA, add(CFA_XSP16, literal(-10)))
          CFI (cfiCond419) V5 load(1, XDATA, add(CFA_XSP16, literal(-9)))
          CFI (cfiCond419) V6 load(1, XDATA, add(CFA_XSP16, literal(-8)))
          CFI (cfiCond419) V7 load(1, XDATA, add(CFA_XSP16, literal(-7)))
          CFI (cfiCond419) R7 load(1, XDATA, add(CFA_XSP16, literal(-6)))
          CFI (cfiCond419) ?RET_LOW load(1, XDATA, add(CFA_XSP16, literal(-5)))
          CFI (cfiCond419) ?RET_HIGH load(1, XDATA, add(CFA_XSP16, literal(-4)))
          CFI (cfiCond419) ?BRET_EXT load(1, XDATA, add(CFA_XSP16, literal(-3)))
          CFI (cfiCond419) DPL0 load(1, XDATA, add(CFA_XSP16, literal(-2)))
          CFI (cfiCond419) DPH0 load(1, XDATA, add(CFA_XSP16, literal(-1)))
          CFI (cfiCond419) CFA_SP SP+-2
          CFI (cfiCond419) CFA_XSP16 add(XSP16, 25)
          CFI Block cfiCond420 Using cfiCommon0
          CFI (cfiCond420) Function zclGp_SendGpCommissioningNotificationCommand
          CFI (cfiCond420) Conditional ??CrossCallReturnLabel_176
          CFI (cfiCond420) R6 load(1, XDATA, add(CFA_XSP16, literal(-16)))
          CFI (cfiCond420) VB load(1, XDATA, add(CFA_XSP16, literal(-15)))
          CFI (cfiCond420) V0 load(1, XDATA, add(CFA_XSP16, literal(-14)))
          CFI (cfiCond420) V1 load(1, XDATA, add(CFA_XSP16, literal(-13)))
          CFI (cfiCond420) V2 load(1, XDATA, add(CFA_XSP16, literal(-12)))
          CFI (cfiCond420) V3 load(1, XDATA, add(CFA_XSP16, literal(-11)))
          CFI (cfiCond420) V4 load(1, XDATA, add(CFA_XSP16, literal(-10)))
          CFI (cfiCond420) V5 load(1, XDATA, add(CFA_XSP16, literal(-9)))
          CFI (cfiCond420) V6 load(1, XDATA, add(CFA_XSP16, literal(-8)))
          CFI (cfiCond420) V7 load(1, XDATA, add(CFA_XSP16, literal(-7)))
          CFI (cfiCond420) R7 load(1, XDATA, add(CFA_XSP16, literal(-6)))
          CFI (cfiCond420) ?RET_LOW load(1, XDATA, add(CFA_XSP16, literal(-5)))
          CFI (cfiCond420) ?RET_HIGH load(1, XDATA, add(CFA_XSP16, literal(-4)))
          CFI (cfiCond420) ?BRET_EXT load(1, XDATA, add(CFA_XSP16, literal(-3)))
          CFI (cfiCond420) DPL0 load(1, XDATA, add(CFA_XSP16, literal(-2)))
          CFI (cfiCond420) DPH0 load(1, XDATA, add(CFA_XSP16, literal(-1)))
          CFI (cfiCond420) CFA_SP SP+-2
          CFI (cfiCond420) CFA_XSP16 add(XSP16, 33)
          CFI Block cfiCond421 Using cfiCommon0
          CFI (cfiCond421) Function zclGp_SendGpCommissioningNotificationCommand
          CFI (cfiCond421) Conditional ??CrossCallReturnLabel_177
          CFI (cfiCond421) R6 load(1, XDATA, add(CFA_XSP16, literal(-16)))
          CFI (cfiCond421) VB load(1, XDATA, add(CFA_XSP16, literal(-15)))
          CFI (cfiCond421) V0 load(1, XDATA, add(CFA_XSP16, literal(-14)))
          CFI (cfiCond421) V1 load(1, XDATA, add(CFA_XSP16, literal(-13)))
          CFI (cfiCond421) V2 load(1, XDATA, add(CFA_XSP16, literal(-12)))
          CFI (cfiCond421) V3 load(1, XDATA, add(CFA_XSP16, literal(-11)))
          CFI (cfiCond421) V4 load(1, XDATA, add(CFA_XSP16, literal(-10)))
          CFI (cfiCond421) V5 load(1, XDATA, add(CFA_XSP16, literal(-9)))
          CFI (cfiCond421) V6 load(1, XDATA, add(CFA_XSP16, literal(-8)))
          CFI (cfiCond421) V7 load(1, XDATA, add(CFA_XSP16, literal(-7)))
          CFI (cfiCond421) R7 load(1, XDATA, add(CFA_XSP16, literal(-6)))
          CFI (cfiCond421) ?RET_LOW load(1, XDATA, add(CFA_XSP16, literal(-5)))
          CFI (cfiCond421) ?RET_HIGH load(1, XDATA, add(CFA_XSP16, literal(-4)))
          CFI (cfiCond421) ?BRET_EXT load(1, XDATA, add(CFA_XSP16, literal(-3)))
          CFI (cfiCond421) DPL0 load(1, XDATA, add(CFA_XSP16, literal(-2)))
          CFI (cfiCond421) DPH0 load(1, XDATA, add(CFA_XSP16, literal(-1)))
          CFI (cfiCond421) CFA_SP SP+-2
          CFI (cfiCond421) CFA_XSP16 add(XSP16, 33)
          CFI Block cfiPicker422 Using cfiCommon1
          CFI (cfiPicker422) NoFunction
          CFI (cfiPicker422) Picker
        MOV       R3,A
          CFI EndBlock cfiCond411
          CFI EndBlock cfiCond412
          CFI EndBlock cfiCond413
          CFI EndBlock cfiCond414
          CFI EndBlock cfiCond415
          CFI EndBlock cfiCond416
          CFI EndBlock cfiCond417
          CFI EndBlock cfiCond418
          CFI EndBlock cfiCond419
          CFI EndBlock cfiCond420
          CFI EndBlock cfiCond421
          CFI EndBlock cfiPicker422
        REQUIRE ??Subroutine72_0
        ; // Fall through to label ??Subroutine72_0

        RSEG BANKED_CODE:HUGECODE:NOROOT(0)
??Subroutine72_0:
          CFI Block cfiCond423 Using cfiCommon0
          CFI Function zclGp_ProcessInProxyBasic
          CFI Conditional ??CrossCallReturnLabel_185
          CFI R6 load(1, XDATA, add(CFA_XSP16, literal(-15)))
          CFI VB load(1, XDATA, add(CFA_XSP16, literal(-14)))
          CFI V0 load(1, XDATA, add(CFA_XSP16, literal(-13)))
          CFI V1 load(1, XDATA, add(CFA_XSP16, literal(-12)))
          CFI V2 load(1, XDATA, add(CFA_XSP16, literal(-11)))
          CFI V3 load(1, XDATA, add(CFA_XSP16, literal(-10)))
          CFI V4 load(1, XDATA, add(CFA_XSP16, literal(-9)))
          CFI V5 load(1, XDATA, add(CFA_XSP16, literal(-8)))
          CFI V6 load(1, XDATA, add(CFA_XSP16, literal(-7)))
          CFI R7 load(1, XDATA, add(CFA_XSP16, literal(-6)))
          CFI ?RET_LOW load(1, XDATA, add(CFA_XSP16, literal(-5)))
          CFI ?RET_HIGH load(1, XDATA, add(CFA_XSP16, literal(-4)))
          CFI ?BRET_EXT load(1, XDATA, add(CFA_XSP16, literal(-3)))
          CFI DPL0 load(1, XDATA, add(CFA_XSP16, literal(-2)))
          CFI DPH0 load(1, XDATA, add(CFA_XSP16, literal(-1)))
          CFI CFA_SP SP+-2
          CFI CFA_XSP16 add(XSP16, 46)
          CFI Block cfiCond424 Using cfiCommon0
          CFI (cfiCond424) Function zclGp_ProcessInProxyBasic
          CFI (cfiCond424) Conditional ??CrossCallReturnLabel_186
          CFI (cfiCond424) R6 load(1, XDATA, add(CFA_XSP16, literal(-15)))
          CFI (cfiCond424) VB load(1, XDATA, add(CFA_XSP16, literal(-14)))
          CFI (cfiCond424) V0 load(1, XDATA, add(CFA_XSP16, literal(-13)))
          CFI (cfiCond424) V1 load(1, XDATA, add(CFA_XSP16, literal(-12)))
          CFI (cfiCond424) V2 load(1, XDATA, add(CFA_XSP16, literal(-11)))
          CFI (cfiCond424) V3 load(1, XDATA, add(CFA_XSP16, literal(-10)))
          CFI (cfiCond424) V4 load(1, XDATA, add(CFA_XSP16, literal(-9)))
          CFI (cfiCond424) V5 load(1, XDATA, add(CFA_XSP16, literal(-8)))
          CFI (cfiCond424) V6 load(1, XDATA, add(CFA_XSP16, literal(-7)))
          CFI (cfiCond424) R7 load(1, XDATA, add(CFA_XSP16, literal(-6)))
          CFI (cfiCond424) ?RET_LOW load(1, XDATA, add(CFA_XSP16, literal(-5)))
          CFI (cfiCond424) ?RET_HIGH load(1, XDATA, add(CFA_XSP16, literal(-4)))
          CFI (cfiCond424) ?BRET_EXT load(1, XDATA, add(CFA_XSP16, literal(-3)))
          CFI (cfiCond424) DPL0 load(1, XDATA, add(CFA_XSP16, literal(-2)))
          CFI (cfiCond424) DPH0 load(1, XDATA, add(CFA_XSP16, literal(-1)))
          CFI (cfiCond424) CFA_SP SP+-2
          CFI (cfiCond424) CFA_XSP16 add(XSP16, 46)
          CFI Block cfiCond425 Using cfiCommon0
          CFI (cfiCond425) Function zclGp_ProcessInProxyBasic
          CFI (cfiCond425) Conditional ??CrossCallReturnLabel_187
          CFI (cfiCond425) R6 load(1, XDATA, add(CFA_XSP16, literal(-15)))
          CFI (cfiCond425) VB load(1, XDATA, add(CFA_XSP16, literal(-14)))
          CFI (cfiCond425) V0 load(1, XDATA, add(CFA_XSP16, literal(-13)))
          CFI (cfiCond425) V1 load(1, XDATA, add(CFA_XSP16, literal(-12)))
          CFI (cfiCond425) V2 load(1, XDATA, add(CFA_XSP16, literal(-11)))
          CFI (cfiCond425) V3 load(1, XDATA, add(CFA_XSP16, literal(-10)))
          CFI (cfiCond425) V4 load(1, XDATA, add(CFA_XSP16, literal(-9)))
          CFI (cfiCond425) V5 load(1, XDATA, add(CFA_XSP16, literal(-8)))
          CFI (cfiCond425) V6 load(1, XDATA, add(CFA_XSP16, literal(-7)))
          CFI (cfiCond425) R7 load(1, XDATA, add(CFA_XSP16, literal(-6)))
          CFI (cfiCond425) ?RET_LOW load(1, XDATA, add(CFA_XSP16, literal(-5)))
          CFI (cfiCond425) ?RET_HIGH load(1, XDATA, add(CFA_XSP16, literal(-4)))
          CFI (cfiCond425) ?BRET_EXT load(1, XDATA, add(CFA_XSP16, literal(-3)))
          CFI (cfiCond425) DPL0 load(1, XDATA, add(CFA_XSP16, literal(-2)))
          CFI (cfiCond425) DPH0 load(1, XDATA, add(CFA_XSP16, literal(-1)))
          CFI (cfiCond425) CFA_SP SP+-2
          CFI (cfiCond425) CFA_XSP16 add(XSP16, 46)
          CFI Block cfiCond426 Using cfiCommon0
          CFI (cfiCond426) Function zclGp_ProcessInProxyBasic
          CFI (cfiCond426) Conditional ??CrossCallReturnLabel_188
          CFI (cfiCond426) R6 load(1, XDATA, add(CFA_XSP16, literal(-15)))
          CFI (cfiCond426) VB load(1, XDATA, add(CFA_XSP16, literal(-14)))
          CFI (cfiCond426) V0 load(1, XDATA, add(CFA_XSP16, literal(-13)))
          CFI (cfiCond426) V1 load(1, XDATA, add(CFA_XSP16, literal(-12)))
          CFI (cfiCond426) V2 load(1, XDATA, add(CFA_XSP16, literal(-11)))
          CFI (cfiCond426) V3 load(1, XDATA, add(CFA_XSP16, literal(-10)))
          CFI (cfiCond426) V4 load(1, XDATA, add(CFA_XSP16, literal(-9)))
          CFI (cfiCond426) V5 load(1, XDATA, add(CFA_XSP16, literal(-8)))
          CFI (cfiCond426) V6 load(1, XDATA, add(CFA_XSP16, literal(-7)))
          CFI (cfiCond426) R7 load(1, XDATA, add(CFA_XSP16, literal(-6)))
          CFI (cfiCond426) ?RET_LOW load(1, XDATA, add(CFA_XSP16, literal(-5)))
          CFI (cfiCond426) ?RET_HIGH load(1, XDATA, add(CFA_XSP16, literal(-4)))
          CFI (cfiCond426) ?BRET_EXT load(1, XDATA, add(CFA_XSP16, literal(-3)))
          CFI (cfiCond426) DPL0 load(1, XDATA, add(CFA_XSP16, literal(-2)))
          CFI (cfiCond426) DPH0 load(1, XDATA, add(CFA_XSP16, literal(-1)))
          CFI (cfiCond426) CFA_SP SP+-2
          CFI (cfiCond426) CFA_XSP16 add(XSP16, 46)
          CFI Block cfiCond427 Using cfiCommon0
          CFI (cfiCond427) Function zclGp_ProcessInProxyBasic
          CFI (cfiCond427) Conditional ??CrossCallReturnLabel_189
          CFI (cfiCond427) R6 load(1, XDATA, add(CFA_XSP16, literal(-15)))
          CFI (cfiCond427) VB load(1, XDATA, add(CFA_XSP16, literal(-14)))
          CFI (cfiCond427) V0 load(1, XDATA, add(CFA_XSP16, literal(-13)))
          CFI (cfiCond427) V1 load(1, XDATA, add(CFA_XSP16, literal(-12)))
          CFI (cfiCond427) V2 load(1, XDATA, add(CFA_XSP16, literal(-11)))
          CFI (cfiCond427) V3 load(1, XDATA, add(CFA_XSP16, literal(-10)))
          CFI (cfiCond427) V4 load(1, XDATA, add(CFA_XSP16, literal(-9)))
          CFI (cfiCond427) V5 load(1, XDATA, add(CFA_XSP16, literal(-8)))
          CFI (cfiCond427) V6 load(1, XDATA, add(CFA_XSP16, literal(-7)))
          CFI (cfiCond427) R7 load(1, XDATA, add(CFA_XSP16, literal(-6)))
          CFI (cfiCond427) ?RET_LOW load(1, XDATA, add(CFA_XSP16, literal(-5)))
          CFI (cfiCond427) ?RET_HIGH load(1, XDATA, add(CFA_XSP16, literal(-4)))
          CFI (cfiCond427) ?BRET_EXT load(1, XDATA, add(CFA_XSP16, literal(-3)))
          CFI (cfiCond427) DPL0 load(1, XDATA, add(CFA_XSP16, literal(-2)))
          CFI (cfiCond427) DPH0 load(1, XDATA, add(CFA_XSP16, literal(-1)))
          CFI (cfiCond427) CFA_SP SP+-2
          CFI (cfiCond427) CFA_XSP16 add(XSP16, 46)
          CFI Block cfiCond428 Using cfiCommon0
          CFI (cfiCond428) Function zclGp_ProcessInProxyBasic
          CFI (cfiCond428) Conditional ??CrossCallReturnLabel_190
          CFI (cfiCond428) R6 load(1, XDATA, add(CFA_XSP16, literal(-15)))
          CFI (cfiCond428) VB load(1, XDATA, add(CFA_XSP16, literal(-14)))
          CFI (cfiCond428) V0 load(1, XDATA, add(CFA_XSP16, literal(-13)))
          CFI (cfiCond428) V1 load(1, XDATA, add(CFA_XSP16, literal(-12)))
          CFI (cfiCond428) V2 load(1, XDATA, add(CFA_XSP16, literal(-11)))
          CFI (cfiCond428) V3 load(1, XDATA, add(CFA_XSP16, literal(-10)))
          CFI (cfiCond428) V4 load(1, XDATA, add(CFA_XSP16, literal(-9)))
          CFI (cfiCond428) V5 load(1, XDATA, add(CFA_XSP16, literal(-8)))
          CFI (cfiCond428) V6 load(1, XDATA, add(CFA_XSP16, literal(-7)))
          CFI (cfiCond428) R7 load(1, XDATA, add(CFA_XSP16, literal(-6)))
          CFI (cfiCond428) ?RET_LOW load(1, XDATA, add(CFA_XSP16, literal(-5)))
          CFI (cfiCond428) ?RET_HIGH load(1, XDATA, add(CFA_XSP16, literal(-4)))
          CFI (cfiCond428) ?BRET_EXT load(1, XDATA, add(CFA_XSP16, literal(-3)))
          CFI (cfiCond428) DPL0 load(1, XDATA, add(CFA_XSP16, literal(-2)))
          CFI (cfiCond428) DPH0 load(1, XDATA, add(CFA_XSP16, literal(-1)))
          CFI (cfiCond428) CFA_SP SP+-2
          CFI (cfiCond428) CFA_XSP16 add(XSP16, 46)
          CFI Block cfiCond429 Using cfiCommon0
          CFI (cfiCond429) Function zclGp_ProcessInProxyBasic
          CFI (cfiCond429) Conditional ??CrossCallReturnLabel_191
          CFI (cfiCond429) R6 load(1, XDATA, add(CFA_XSP16, literal(-15)))
          CFI (cfiCond429) VB load(1, XDATA, add(CFA_XSP16, literal(-14)))
          CFI (cfiCond429) V0 load(1, XDATA, add(CFA_XSP16, literal(-13)))
          CFI (cfiCond429) V1 load(1, XDATA, add(CFA_XSP16, literal(-12)))
          CFI (cfiCond429) V2 load(1, XDATA, add(CFA_XSP16, literal(-11)))
          CFI (cfiCond429) V3 load(1, XDATA, add(CFA_XSP16, literal(-10)))
          CFI (cfiCond429) V4 load(1, XDATA, add(CFA_XSP16, literal(-9)))
          CFI (cfiCond429) V5 load(1, XDATA, add(CFA_XSP16, literal(-8)))
          CFI (cfiCond429) V6 load(1, XDATA, add(CFA_XSP16, literal(-7)))
          CFI (cfiCond429) R7 load(1, XDATA, add(CFA_XSP16, literal(-6)))
          CFI (cfiCond429) ?RET_LOW load(1, XDATA, add(CFA_XSP16, literal(-5)))
          CFI (cfiCond429) ?RET_HIGH load(1, XDATA, add(CFA_XSP16, literal(-4)))
          CFI (cfiCond429) ?BRET_EXT load(1, XDATA, add(CFA_XSP16, literal(-3)))
          CFI (cfiCond429) DPL0 load(1, XDATA, add(CFA_XSP16, literal(-2)))
          CFI (cfiCond429) DPH0 load(1, XDATA, add(CFA_XSP16, literal(-1)))
          CFI (cfiCond429) CFA_SP SP+-2
          CFI (cfiCond429) CFA_XSP16 add(XSP16, 46)
          CFI Block cfiCond430 Using cfiCommon0
          CFI (cfiCond430) Function zclGp_SendGpProxyTableResponse
          CFI (cfiCond430) Conditional ??CrossCallReturnLabel_192
          CFI (cfiCond430) R6 load(1, XDATA, add(CFA_XSP16, literal(-16)))
          CFI (cfiCond430) VB load(1, XDATA, add(CFA_XSP16, literal(-15)))
          CFI (cfiCond430) V0 load(1, XDATA, add(CFA_XSP16, literal(-14)))
          CFI (cfiCond430) V1 load(1, XDATA, add(CFA_XSP16, literal(-13)))
          CFI (cfiCond430) V2 load(1, XDATA, add(CFA_XSP16, literal(-12)))
          CFI (cfiCond430) V3 load(1, XDATA, add(CFA_XSP16, literal(-11)))
          CFI (cfiCond430) V4 load(1, XDATA, add(CFA_XSP16, literal(-10)))
          CFI (cfiCond430) V5 load(1, XDATA, add(CFA_XSP16, literal(-9)))
          CFI (cfiCond430) V6 load(1, XDATA, add(CFA_XSP16, literal(-8)))
          CFI (cfiCond430) V7 load(1, XDATA, add(CFA_XSP16, literal(-7)))
          CFI (cfiCond430) R7 load(1, XDATA, add(CFA_XSP16, literal(-6)))
          CFI (cfiCond430) ?RET_LOW load(1, XDATA, add(CFA_XSP16, literal(-5)))
          CFI (cfiCond430) ?RET_HIGH load(1, XDATA, add(CFA_XSP16, literal(-4)))
          CFI (cfiCond430) ?BRET_EXT load(1, XDATA, add(CFA_XSP16, literal(-3)))
          CFI (cfiCond430) DPL0 load(1, XDATA, add(CFA_XSP16, literal(-2)))
          CFI (cfiCond430) DPH0 load(1, XDATA, add(CFA_XSP16, literal(-1)))
          CFI (cfiCond430) CFA_SP SP+-2
          CFI (cfiCond430) CFA_XSP16 add(XSP16, 27)
          CFI Block cfiCond431 Using cfiCommon0
          CFI (cfiCond431) Function gp_addPairedSinksToMsgQueue
          CFI (cfiCond431) Conditional ??CrossCallReturnLabel_193
          CFI (cfiCond431) R6 load(1, XDATA, add(CFA_XSP16, literal(-15)))
          CFI (cfiCond431) VB load(1, XDATA, add(CFA_XSP16, literal(-14)))
          CFI (cfiCond431) V0 load(1, XDATA, add(CFA_XSP16, literal(-13)))
          CFI (cfiCond431) V1 load(1, XDATA, add(CFA_XSP16, literal(-12)))
          CFI (cfiCond431) V2 load(1, XDATA, add(CFA_XSP16, literal(-11)))
          CFI (cfiCond431) V3 load(1, XDATA, add(CFA_XSP16, literal(-10)))
          CFI (cfiCond431) V4 load(1, XDATA, add(CFA_XSP16, literal(-9)))
          CFI (cfiCond431) V5 load(1, XDATA, add(CFA_XSP16, literal(-8)))
          CFI (cfiCond431) V6 load(1, XDATA, add(CFA_XSP16, literal(-7)))
          CFI (cfiCond431) R7 load(1, XDATA, add(CFA_XSP16, literal(-6)))
          CFI (cfiCond431) ?RET_LOW load(1, XDATA, add(CFA_XSP16, literal(-5)))
          CFI (cfiCond431) ?RET_HIGH load(1, XDATA, add(CFA_XSP16, literal(-4)))
          CFI (cfiCond431) ?BRET_EXT load(1, XDATA, add(CFA_XSP16, literal(-3)))
          CFI (cfiCond431) DPL0 load(1, XDATA, add(CFA_XSP16, literal(-2)))
          CFI (cfiCond431) DPH0 load(1, XDATA, add(CFA_XSP16, literal(-1)))
          CFI (cfiCond431) CFA_SP SP+-2
          CFI (cfiCond431) CFA_XSP16 add(XSP16, 107)
          CFI Block cfiCond432 Using cfiCommon0
          CFI (cfiCond432) Function gp_addPairedSinksToMsgQueue
          CFI (cfiCond432) Conditional ??CrossCallReturnLabel_194
          CFI (cfiCond432) R6 load(1, XDATA, add(CFA_XSP16, literal(-15)))
          CFI (cfiCond432) VB load(1, XDATA, add(CFA_XSP16, literal(-14)))
          CFI (cfiCond432) V0 load(1, XDATA, add(CFA_XSP16, literal(-13)))
          CFI (cfiCond432) V1 load(1, XDATA, add(CFA_XSP16, literal(-12)))
          CFI (cfiCond432) V2 load(1, XDATA, add(CFA_XSP16, literal(-11)))
          CFI (cfiCond432) V3 load(1, XDATA, add(CFA_XSP16, literal(-10)))
          CFI (cfiCond432) V4 load(1, XDATA, add(CFA_XSP16, literal(-9)))
          CFI (cfiCond432) V5 load(1, XDATA, add(CFA_XSP16, literal(-8)))
          CFI (cfiCond432) V6 load(1, XDATA, add(CFA_XSP16, literal(-7)))
          CFI (cfiCond432) R7 load(1, XDATA, add(CFA_XSP16, literal(-6)))
          CFI (cfiCond432) ?RET_LOW load(1, XDATA, add(CFA_XSP16, literal(-5)))
          CFI (cfiCond432) ?RET_HIGH load(1, XDATA, add(CFA_XSP16, literal(-4)))
          CFI (cfiCond432) ?BRET_EXT load(1, XDATA, add(CFA_XSP16, literal(-3)))
          CFI (cfiCond432) DPL0 load(1, XDATA, add(CFA_XSP16, literal(-2)))
          CFI (cfiCond432) DPH0 load(1, XDATA, add(CFA_XSP16, literal(-1)))
          CFI (cfiCond432) CFA_SP SP+-2
          CFI (cfiCond432) CFA_XSP16 add(XSP16, 107)
          CFI Block cfiCond433 Using cfiCommon0
          CFI (cfiCond433) Function gp_addPairedSinksToMsgQueue
          CFI (cfiCond433) Conditional ??CrossCallReturnLabel_195
          CFI (cfiCond433) R6 load(1, XDATA, add(CFA_XSP16, literal(-15)))
          CFI (cfiCond433) VB load(1, XDATA, add(CFA_XSP16, literal(-14)))
          CFI (cfiCond433) V0 load(1, XDATA, add(CFA_XSP16, literal(-13)))
          CFI (cfiCond433) V1 load(1, XDATA, add(CFA_XSP16, literal(-12)))
          CFI (cfiCond433) V2 load(1, XDATA, add(CFA_XSP16, literal(-11)))
          CFI (cfiCond433) V3 load(1, XDATA, add(CFA_XSP16, literal(-10)))
          CFI (cfiCond433) V4 load(1, XDATA, add(CFA_XSP16, literal(-9)))
          CFI (cfiCond433) V5 load(1, XDATA, add(CFA_XSP16, literal(-8)))
          CFI (cfiCond433) V6 load(1, XDATA, add(CFA_XSP16, literal(-7)))
          CFI (cfiCond433) R7 load(1, XDATA, add(CFA_XSP16, literal(-6)))
          CFI (cfiCond433) ?RET_LOW load(1, XDATA, add(CFA_XSP16, literal(-5)))
          CFI (cfiCond433) ?RET_HIGH load(1, XDATA, add(CFA_XSP16, literal(-4)))
          CFI (cfiCond433) ?BRET_EXT load(1, XDATA, add(CFA_XSP16, literal(-3)))
          CFI (cfiCond433) DPL0 load(1, XDATA, add(CFA_XSP16, literal(-2)))
          CFI (cfiCond433) DPH0 load(1, XDATA, add(CFA_XSP16, literal(-1)))
          CFI (cfiCond433) CFA_SP SP+-2
          CFI (cfiCond433) CFA_XSP16 add(XSP16, 107)
          CFI Block cfiCond434 Using cfiCommon0
          CFI (cfiCond434) Function gp_addPairedSinksToMsgQueue
          CFI (cfiCond434) Conditional ??CrossCallReturnLabel_196
          CFI (cfiCond434) R6 load(1, XDATA, add(CFA_XSP16, literal(-15)))
          CFI (cfiCond434) VB load(1, XDATA, add(CFA_XSP16, literal(-14)))
          CFI (cfiCond434) V0 load(1, XDATA, add(CFA_XSP16, literal(-13)))
          CFI (cfiCond434) V1 load(1, XDATA, add(CFA_XSP16, literal(-12)))
          CFI (cfiCond434) V2 load(1, XDATA, add(CFA_XSP16, literal(-11)))
          CFI (cfiCond434) V3 load(1, XDATA, add(CFA_XSP16, literal(-10)))
          CFI (cfiCond434) V4 load(1, XDATA, add(CFA_XSP16, literal(-9)))
          CFI (cfiCond434) V5 load(1, XDATA, add(CFA_XSP16, literal(-8)))
          CFI (cfiCond434) V6 load(1, XDATA, add(CFA_XSP16, literal(-7)))
          CFI (cfiCond434) R7 load(1, XDATA, add(CFA_XSP16, literal(-6)))
          CFI (cfiCond434) ?RET_LOW load(1, XDATA, add(CFA_XSP16, literal(-5)))
          CFI (cfiCond434) ?RET_HIGH load(1, XDATA, add(CFA_XSP16, literal(-4)))
          CFI (cfiCond434) ?BRET_EXT load(1, XDATA, add(CFA_XSP16, literal(-3)))
          CFI (cfiCond434) DPL0 load(1, XDATA, add(CFA_XSP16, literal(-2)))
          CFI (cfiCond434) DPH0 load(1, XDATA, add(CFA_XSP16, literal(-1)))
          CFI (cfiCond434) CFA_SP SP+-2
          CFI (cfiCond434) CFA_XSP16 add(XSP16, 107)
          CFI Block cfiCond435 Using cfiCommon0
          CFI (cfiCond435) Function gp_ResetProxyBasicTblEntry
          CFI (cfiCond435) Conditional ??CrossCallReturnLabel_197
          CFI (cfiCond435) R6 load(1, XDATA, add(CFA_XSP16, literal(-11)))
          CFI (cfiCond435) VB load(1, XDATA, add(CFA_XSP16, literal(-10)))
          CFI (cfiCond435) V0 load(1, XDATA, add(CFA_XSP16, literal(-9)))
          CFI (cfiCond435) V1 load(1, XDATA, add(CFA_XSP16, literal(-8)))
          CFI (cfiCond435) V2 load(1, XDATA, add(CFA_XSP16, literal(-7)))
          CFI (cfiCond435) R7 load(1, XDATA, add(CFA_XSP16, literal(-6)))
          CFI (cfiCond435) ?RET_LOW load(1, XDATA, add(CFA_XSP16, literal(-5)))
          CFI (cfiCond435) ?RET_HIGH load(1, XDATA, add(CFA_XSP16, literal(-4)))
          CFI (cfiCond435) ?BRET_EXT load(1, XDATA, add(CFA_XSP16, literal(-3)))
          CFI (cfiCond435) DPL0 load(1, XDATA, add(CFA_XSP16, literal(-2)))
          CFI (cfiCond435) DPH0 load(1, XDATA, add(CFA_XSP16, literal(-1)))
          CFI (cfiCond435) CFA_SP SP+-2
          CFI (cfiCond435) CFA_XSP16 add(XSP16, 79)
          CFI Block cfiCond436 Using cfiCommon0
          CFI (cfiCond436) Function zclGp_SendGpProxyTableResponse
          CFI (cfiCond436) Conditional ??CrossCallReturnLabel_184
          CFI (cfiCond436) R6 load(1, XDATA, add(CFA_XSP16, literal(-16)))
          CFI (cfiCond436) VB load(1, XDATA, add(CFA_XSP16, literal(-15)))
          CFI (cfiCond436) V0 load(1, XDATA, add(CFA_XSP16, literal(-14)))
          CFI (cfiCond436) V1 load(1, XDATA, add(CFA_XSP16, literal(-13)))
          CFI (cfiCond436) V2 load(1, XDATA, add(CFA_XSP16, literal(-12)))
          CFI (cfiCond436) V3 load(1, XDATA, add(CFA_XSP16, literal(-11)))
          CFI (cfiCond436) V4 load(1, XDATA, add(CFA_XSP16, literal(-10)))
          CFI (cfiCond436) V5 load(1, XDATA, add(CFA_XSP16, literal(-9)))
          CFI (cfiCond436) V6 load(1, XDATA, add(CFA_XSP16, literal(-8)))
          CFI (cfiCond436) V7 load(1, XDATA, add(CFA_XSP16, literal(-7)))
          CFI (cfiCond436) R7 load(1, XDATA, add(CFA_XSP16, literal(-6)))
          CFI (cfiCond436) ?RET_LOW load(1, XDATA, add(CFA_XSP16, literal(-5)))
          CFI (cfiCond436) ?RET_HIGH load(1, XDATA, add(CFA_XSP16, literal(-4)))
          CFI (cfiCond436) ?BRET_EXT load(1, XDATA, add(CFA_XSP16, literal(-3)))
          CFI (cfiCond436) DPL0 load(1, XDATA, add(CFA_XSP16, literal(-2)))
          CFI (cfiCond436) DPH0 load(1, XDATA, add(CFA_XSP16, literal(-1)))
          CFI (cfiCond436) CFA_SP SP+-2
          CFI (cfiCond436) CFA_XSP16 add(XSP16, 27)
          CFI Block cfiCond437 Using cfiCommon0
          CFI (cfiCond437) Function zclGp_SendGpNotificationCommand
          CFI (cfiCond437) Conditional ??CrossCallReturnLabel_178
          CFI (cfiCond437) R6 load(1, XDATA, add(CFA_XSP16, literal(-16)))
          CFI (cfiCond437) VB load(1, XDATA, add(CFA_XSP16, literal(-15)))
          CFI (cfiCond437) V0 load(1, XDATA, add(CFA_XSP16, literal(-14)))
          CFI (cfiCond437) V1 load(1, XDATA, add(CFA_XSP16, literal(-13)))
          CFI (cfiCond437) V2 load(1, XDATA, add(CFA_XSP16, literal(-12)))
          CFI (cfiCond437) V3 load(1, XDATA, add(CFA_XSP16, literal(-11)))
          CFI (cfiCond437) V4 load(1, XDATA, add(CFA_XSP16, literal(-10)))
          CFI (cfiCond437) V5 load(1, XDATA, add(CFA_XSP16, literal(-9)))
          CFI (cfiCond437) V6 load(1, XDATA, add(CFA_XSP16, literal(-8)))
          CFI (cfiCond437) V7 load(1, XDATA, add(CFA_XSP16, literal(-7)))
          CFI (cfiCond437) R7 load(1, XDATA, add(CFA_XSP16, literal(-6)))
          CFI (cfiCond437) ?RET_LOW load(1, XDATA, add(CFA_XSP16, literal(-5)))
          CFI (cfiCond437) ?RET_HIGH load(1, XDATA, add(CFA_XSP16, literal(-4)))
          CFI (cfiCond437) ?BRET_EXT load(1, XDATA, add(CFA_XSP16, literal(-3)))
          CFI (cfiCond437) DPL0 load(1, XDATA, add(CFA_XSP16, literal(-2)))
          CFI (cfiCond437) DPH0 load(1, XDATA, add(CFA_XSP16, literal(-1)))
          CFI (cfiCond437) CFA_SP SP+-2
          CFI (cfiCond437) CFA_XSP16 add(XSP16, 25)
          CFI Block cfiCond438 Using cfiCommon0
          CFI (cfiCond438) Function zclGp_SendGpNotificationCommand
          CFI (cfiCond438) Conditional ??CrossCallReturnLabel_179
          CFI (cfiCond438) R6 load(1, XDATA, add(CFA_XSP16, literal(-16)))
          CFI (cfiCond438) VB load(1, XDATA, add(CFA_XSP16, literal(-15)))
          CFI (cfiCond438) V0 load(1, XDATA, add(CFA_XSP16, literal(-14)))
          CFI (cfiCond438) V1 load(1, XDATA, add(CFA_XSP16, literal(-13)))
          CFI (cfiCond438) V2 load(1, XDATA, add(CFA_XSP16, literal(-12)))
          CFI (cfiCond438) V3 load(1, XDATA, add(CFA_XSP16, literal(-11)))
          CFI (cfiCond438) V4 load(1, XDATA, add(CFA_XSP16, literal(-10)))
          CFI (cfiCond438) V5 load(1, XDATA, add(CFA_XSP16, literal(-9)))
          CFI (cfiCond438) V6 load(1, XDATA, add(CFA_XSP16, literal(-8)))
          CFI (cfiCond438) V7 load(1, XDATA, add(CFA_XSP16, literal(-7)))
          CFI (cfiCond438) R7 load(1, XDATA, add(CFA_XSP16, literal(-6)))
          CFI (cfiCond438) ?RET_LOW load(1, XDATA, add(CFA_XSP16, literal(-5)))
          CFI (cfiCond438) ?RET_HIGH load(1, XDATA, add(CFA_XSP16, literal(-4)))
          CFI (cfiCond438) ?BRET_EXT load(1, XDATA, add(CFA_XSP16, literal(-3)))
          CFI (cfiCond438) DPL0 load(1, XDATA, add(CFA_XSP16, literal(-2)))
          CFI (cfiCond438) DPH0 load(1, XDATA, add(CFA_XSP16, literal(-1)))
          CFI (cfiCond438) CFA_SP SP+-2
          CFI (cfiCond438) CFA_XSP16 add(XSP16, 25)
          CFI Block cfiCond439 Using cfiCommon0
          CFI (cfiCond439) Function zclGp_SendGpNotificationCommand
          CFI (cfiCond439) Conditional ??CrossCallReturnLabel_180
          CFI (cfiCond439) R6 load(1, XDATA, add(CFA_XSP16, literal(-16)))
          CFI (cfiCond439) VB load(1, XDATA, add(CFA_XSP16, literal(-15)))
          CFI (cfiCond439) V0 load(1, XDATA, add(CFA_XSP16, literal(-14)))
          CFI (cfiCond439) V1 load(1, XDATA, add(CFA_XSP16, literal(-13)))
          CFI (cfiCond439) V2 load(1, XDATA, add(CFA_XSP16, literal(-12)))
          CFI (cfiCond439) V3 load(1, XDATA, add(CFA_XSP16, literal(-11)))
          CFI (cfiCond439) V4 load(1, XDATA, add(CFA_XSP16, literal(-10)))
          CFI (cfiCond439) V5 load(1, XDATA, add(CFA_XSP16, literal(-9)))
          CFI (cfiCond439) V6 load(1, XDATA, add(CFA_XSP16, literal(-8)))
          CFI (cfiCond439) V7 load(1, XDATA, add(CFA_XSP16, literal(-7)))
          CFI (cfiCond439) R7 load(1, XDATA, add(CFA_XSP16, literal(-6)))
          CFI (cfiCond439) ?RET_LOW load(1, XDATA, add(CFA_XSP16, literal(-5)))
          CFI (cfiCond439) ?RET_HIGH load(1, XDATA, add(CFA_XSP16, literal(-4)))
          CFI (cfiCond439) ?BRET_EXT load(1, XDATA, add(CFA_XSP16, literal(-3)))
          CFI (cfiCond439) DPL0 load(1, XDATA, add(CFA_XSP16, literal(-2)))
          CFI (cfiCond439) DPH0 load(1, XDATA, add(CFA_XSP16, literal(-1)))
          CFI (cfiCond439) CFA_SP SP+-2
          CFI (cfiCond439) CFA_XSP16 add(XSP16, 25)
          CFI Block cfiCond440 Using cfiCommon0
          CFI (cfiCond440) Function zclGp_SendGpCommissioningNotificationCommand
          CFI (cfiCond440) Conditional ??CrossCallReturnLabel_181
          CFI (cfiCond440) R6 load(1, XDATA, add(CFA_XSP16, literal(-16)))
          CFI (cfiCond440) VB load(1, XDATA, add(CFA_XSP16, literal(-15)))
          CFI (cfiCond440) V0 load(1, XDATA, add(CFA_XSP16, literal(-14)))
          CFI (cfiCond440) V1 load(1, XDATA, add(CFA_XSP16, literal(-13)))
          CFI (cfiCond440) V2 load(1, XDATA, add(CFA_XSP16, literal(-12)))
          CFI (cfiCond440) V3 load(1, XDATA, add(CFA_XSP16, literal(-11)))
          CFI (cfiCond440) V4 load(1, XDATA, add(CFA_XSP16, literal(-10)))
          CFI (cfiCond440) V5 load(1, XDATA, add(CFA_XSP16, literal(-9)))
          CFI (cfiCond440) V6 load(1, XDATA, add(CFA_XSP16, literal(-8)))
          CFI (cfiCond440) V7 load(1, XDATA, add(CFA_XSP16, literal(-7)))
          CFI (cfiCond440) R7 load(1, XDATA, add(CFA_XSP16, literal(-6)))
          CFI (cfiCond440) ?RET_LOW load(1, XDATA, add(CFA_XSP16, literal(-5)))
          CFI (cfiCond440) ?RET_HIGH load(1, XDATA, add(CFA_XSP16, literal(-4)))
          CFI (cfiCond440) ?BRET_EXT load(1, XDATA, add(CFA_XSP16, literal(-3)))
          CFI (cfiCond440) DPL0 load(1, XDATA, add(CFA_XSP16, literal(-2)))
          CFI (cfiCond440) DPH0 load(1, XDATA, add(CFA_XSP16, literal(-1)))
          CFI (cfiCond440) CFA_SP SP+-2
          CFI (cfiCond440) CFA_XSP16 add(XSP16, 33)
          CFI Block cfiCond441 Using cfiCommon0
          CFI (cfiCond441) Function zclGp_SendGpCommissioningNotificationCommand
          CFI (cfiCond441) Conditional ??CrossCallReturnLabel_182
          CFI (cfiCond441) R6 load(1, XDATA, add(CFA_XSP16, literal(-16)))
          CFI (cfiCond441) VB load(1, XDATA, add(CFA_XSP16, literal(-15)))
          CFI (cfiCond441) V0 load(1, XDATA, add(CFA_XSP16, literal(-14)))
          CFI (cfiCond441) V1 load(1, XDATA, add(CFA_XSP16, literal(-13)))
          CFI (cfiCond441) V2 load(1, XDATA, add(CFA_XSP16, literal(-12)))
          CFI (cfiCond441) V3 load(1, XDATA, add(CFA_XSP16, literal(-11)))
          CFI (cfiCond441) V4 load(1, XDATA, add(CFA_XSP16, literal(-10)))
          CFI (cfiCond441) V5 load(1, XDATA, add(CFA_XSP16, literal(-9)))
          CFI (cfiCond441) V6 load(1, XDATA, add(CFA_XSP16, literal(-8)))
          CFI (cfiCond441) V7 load(1, XDATA, add(CFA_XSP16, literal(-7)))
          CFI (cfiCond441) R7 load(1, XDATA, add(CFA_XSP16, literal(-6)))
          CFI (cfiCond441) ?RET_LOW load(1, XDATA, add(CFA_XSP16, literal(-5)))
          CFI (cfiCond441) ?RET_HIGH load(1, XDATA, add(CFA_XSP16, literal(-4)))
          CFI (cfiCond441) ?BRET_EXT load(1, XDATA, add(CFA_XSP16, literal(-3)))
          CFI (cfiCond441) DPL0 load(1, XDATA, add(CFA_XSP16, literal(-2)))
          CFI (cfiCond441) DPH0 load(1, XDATA, add(CFA_XSP16, literal(-1)))
          CFI (cfiCond441) CFA_SP SP+-2
          CFI (cfiCond441) CFA_XSP16 add(XSP16, 33)
          CFI Block cfiCond442 Using cfiCommon0
          CFI (cfiCond442) Function zclGp_SendGpCommissioningNotificationCommand
          CFI (cfiCond442) Conditional ??CrossCallReturnLabel_183
          CFI (cfiCond442) R6 load(1, XDATA, add(CFA_XSP16, literal(-16)))
          CFI (cfiCond442) VB load(1, XDATA, add(CFA_XSP16, literal(-15)))
          CFI (cfiCond442) V0 load(1, XDATA, add(CFA_XSP16, literal(-14)))
          CFI (cfiCond442) V1 load(1, XDATA, add(CFA_XSP16, literal(-13)))
          CFI (cfiCond442) V2 load(1, XDATA, add(CFA_XSP16, literal(-12)))
          CFI (cfiCond442) V3 load(1, XDATA, add(CFA_XSP16, literal(-11)))
          CFI (cfiCond442) V4 load(1, XDATA, add(CFA_XSP16, literal(-10)))
          CFI (cfiCond442) V5 load(1, XDATA, add(CFA_XSP16, literal(-9)))
          CFI (cfiCond442) V6 load(1, XDATA, add(CFA_XSP16, literal(-8)))
          CFI (cfiCond442) V7 load(1, XDATA, add(CFA_XSP16, literal(-7)))
          CFI (cfiCond442) R7 load(1, XDATA, add(CFA_XSP16, literal(-6)))
          CFI (cfiCond442) ?RET_LOW load(1, XDATA, add(CFA_XSP16, literal(-5)))
          CFI (cfiCond442) ?RET_HIGH load(1, XDATA, add(CFA_XSP16, literal(-4)))
          CFI (cfiCond442) ?BRET_EXT load(1, XDATA, add(CFA_XSP16, literal(-3)))
          CFI (cfiCond442) DPL0 load(1, XDATA, add(CFA_XSP16, literal(-2)))
          CFI (cfiCond442) DPH0 load(1, XDATA, add(CFA_XSP16, literal(-1)))
          CFI (cfiCond442) CFA_SP SP+-2
          CFI (cfiCond442) CFA_XSP16 add(XSP16, 33)
          CFI Block cfiCond443 Using cfiCommon0
          CFI (cfiCond443) Function zclGp_SendGpNotificationCommand
          CFI (cfiCond443) Conditional ??CrossCallReturnLabel_174
          CFI (cfiCond443) R6 load(1, XDATA, add(CFA_XSP16, literal(-16)))
          CFI (cfiCond443) VB load(1, XDATA, add(CFA_XSP16, literal(-15)))
          CFI (cfiCond443) V0 load(1, XDATA, add(CFA_XSP16, literal(-14)))
          CFI (cfiCond443) V1 load(1, XDATA, add(CFA_XSP16, literal(-13)))
          CFI (cfiCond443) V2 load(1, XDATA, add(CFA_XSP16, literal(-12)))
          CFI (cfiCond443) V3 load(1, XDATA, add(CFA_XSP16, literal(-11)))
          CFI (cfiCond443) V4 load(1, XDATA, add(CFA_XSP16, literal(-10)))
          CFI (cfiCond443) V5 load(1, XDATA, add(CFA_XSP16, literal(-9)))
          CFI (cfiCond443) V6 load(1, XDATA, add(CFA_XSP16, literal(-8)))
          CFI (cfiCond443) V7 load(1, XDATA, add(CFA_XSP16, literal(-7)))
          CFI (cfiCond443) R7 load(1, XDATA, add(CFA_XSP16, literal(-6)))
          CFI (cfiCond443) ?RET_LOW load(1, XDATA, add(CFA_XSP16, literal(-5)))
          CFI (cfiCond443) ?RET_HIGH load(1, XDATA, add(CFA_XSP16, literal(-4)))
          CFI (cfiCond443) ?BRET_EXT load(1, XDATA, add(CFA_XSP16, literal(-3)))
          CFI (cfiCond443) DPL0 load(1, XDATA, add(CFA_XSP16, literal(-2)))
          CFI (cfiCond443) DPH0 load(1, XDATA, add(CFA_XSP16, literal(-1)))
          CFI (cfiCond443) CFA_SP SP+-2
          CFI (cfiCond443) CFA_XSP16 add(XSP16, 25)
          CFI Block cfiCond444 Using cfiCommon0
          CFI (cfiCond444) Function zclGp_SendGpNotificationCommand
          CFI (cfiCond444) Conditional ??CrossCallReturnLabel_175
          CFI (cfiCond444) R6 load(1, XDATA, add(CFA_XSP16, literal(-16)))
          CFI (cfiCond444) VB load(1, XDATA, add(CFA_XSP16, literal(-15)))
          CFI (cfiCond444) V0 load(1, XDATA, add(CFA_XSP16, literal(-14)))
          CFI (cfiCond444) V1 load(1, XDATA, add(CFA_XSP16, literal(-13)))
          CFI (cfiCond444) V2 load(1, XDATA, add(CFA_XSP16, literal(-12)))
          CFI (cfiCond444) V3 load(1, XDATA, add(CFA_XSP16, literal(-11)))
          CFI (cfiCond444) V4 load(1, XDATA, add(CFA_XSP16, literal(-10)))
          CFI (cfiCond444) V5 load(1, XDATA, add(CFA_XSP16, literal(-9)))
          CFI (cfiCond444) V6 load(1, XDATA, add(CFA_XSP16, literal(-8)))
          CFI (cfiCond444) V7 load(1, XDATA, add(CFA_XSP16, literal(-7)))
          CFI (cfiCond444) R7 load(1, XDATA, add(CFA_XSP16, literal(-6)))
          CFI (cfiCond444) ?RET_LOW load(1, XDATA, add(CFA_XSP16, literal(-5)))
          CFI (cfiCond444) ?RET_HIGH load(1, XDATA, add(CFA_XSP16, literal(-4)))
          CFI (cfiCond444) ?BRET_EXT load(1, XDATA, add(CFA_XSP16, literal(-3)))
          CFI (cfiCond444) DPL0 load(1, XDATA, add(CFA_XSP16, literal(-2)))
          CFI (cfiCond444) DPH0 load(1, XDATA, add(CFA_XSP16, literal(-1)))
          CFI (cfiCond444) CFA_SP SP+-2
          CFI (cfiCond444) CFA_XSP16 add(XSP16, 25)
          CFI Block cfiCond445 Using cfiCommon0
          CFI (cfiCond445) Function zclGp_SendGpCommissioningNotificationCommand
          CFI (cfiCond445) Conditional ??CrossCallReturnLabel_176
          CFI (cfiCond445) R6 load(1, XDATA, add(CFA_XSP16, literal(-16)))
          CFI (cfiCond445) VB load(1, XDATA, add(CFA_XSP16, literal(-15)))
          CFI (cfiCond445) V0 load(1, XDATA, add(CFA_XSP16, literal(-14)))
          CFI (cfiCond445) V1 load(1, XDATA, add(CFA_XSP16, literal(-13)))
          CFI (cfiCond445) V2 load(1, XDATA, add(CFA_XSP16, literal(-12)))
          CFI (cfiCond445) V3 load(1, XDATA, add(CFA_XSP16, literal(-11)))
          CFI (cfiCond445) V4 load(1, XDATA, add(CFA_XSP16, literal(-10)))
          CFI (cfiCond445) V5 load(1, XDATA, add(CFA_XSP16, literal(-9)))
          CFI (cfiCond445) V6 load(1, XDATA, add(CFA_XSP16, literal(-8)))
          CFI (cfiCond445) V7 load(1, XDATA, add(CFA_XSP16, literal(-7)))
          CFI (cfiCond445) R7 load(1, XDATA, add(CFA_XSP16, literal(-6)))
          CFI (cfiCond445) ?RET_LOW load(1, XDATA, add(CFA_XSP16, literal(-5)))
          CFI (cfiCond445) ?RET_HIGH load(1, XDATA, add(CFA_XSP16, literal(-4)))
          CFI (cfiCond445) ?BRET_EXT load(1, XDATA, add(CFA_XSP16, literal(-3)))
          CFI (cfiCond445) DPL0 load(1, XDATA, add(CFA_XSP16, literal(-2)))
          CFI (cfiCond445) DPH0 load(1, XDATA, add(CFA_XSP16, literal(-1)))
          CFI (cfiCond445) CFA_SP SP+-2
          CFI (cfiCond445) CFA_XSP16 add(XSP16, 33)
          CFI Block cfiCond446 Using cfiCommon0
          CFI (cfiCond446) Function zclGp_SendGpCommissioningNotificationCommand
          CFI (cfiCond446) Conditional ??CrossCallReturnLabel_177
          CFI (cfiCond446) R6 load(1, XDATA, add(CFA_XSP16, literal(-16)))
          CFI (cfiCond446) VB load(1, XDATA, add(CFA_XSP16, literal(-15)))
          CFI (cfiCond446) V0 load(1, XDATA, add(CFA_XSP16, literal(-14)))
          CFI (cfiCond446) V1 load(1, XDATA, add(CFA_XSP16, literal(-13)))
          CFI (cfiCond446) V2 load(1, XDATA, add(CFA_XSP16, literal(-12)))
          CFI (cfiCond446) V3 load(1, XDATA, add(CFA_XSP16, literal(-11)))
          CFI (cfiCond446) V4 load(1, XDATA, add(CFA_XSP16, literal(-10)))
          CFI (cfiCond446) V5 load(1, XDATA, add(CFA_XSP16, literal(-9)))
          CFI (cfiCond446) V6 load(1, XDATA, add(CFA_XSP16, literal(-8)))
          CFI (cfiCond446) V7 load(1, XDATA, add(CFA_XSP16, literal(-7)))
          CFI (cfiCond446) R7 load(1, XDATA, add(CFA_XSP16, literal(-6)))
          CFI (cfiCond446) ?RET_LOW load(1, XDATA, add(CFA_XSP16, literal(-5)))
          CFI (cfiCond446) ?RET_HIGH load(1, XDATA, add(CFA_XSP16, literal(-4)))
          CFI (cfiCond446) ?BRET_EXT load(1, XDATA, add(CFA_XSP16, literal(-3)))
          CFI (cfiCond446) DPL0 load(1, XDATA, add(CFA_XSP16, literal(-2)))
          CFI (cfiCond446) DPH0 load(1, XDATA, add(CFA_XSP16, literal(-1)))
          CFI (cfiCond446) CFA_SP SP+-2
          CFI (cfiCond446) CFA_XSP16 add(XSP16, 33)
          CFI Block cfiPicker447 Using cfiCommon1
          CFI (cfiPicker447) NoFunction
          CFI (cfiPicker447) Picker
        LCALL     `??osal_memcpy::?relay`; Banked call to: osal_memcpy
        MOV       A,#0x3
        RET
          CFI EndBlock cfiCond423
          CFI EndBlock cfiCond424
          CFI EndBlock cfiCond425
          CFI EndBlock cfiCond426
          CFI EndBlock cfiCond427
          CFI EndBlock cfiCond428
          CFI EndBlock cfiCond429
          CFI EndBlock cfiCond430
          CFI EndBlock cfiCond431
          CFI EndBlock cfiCond432
          CFI EndBlock cfiCond433
          CFI EndBlock cfiCond434
          CFI EndBlock cfiCond435
          CFI EndBlock cfiCond436
          CFI EndBlock cfiCond437
          CFI EndBlock cfiCond438
          CFI EndBlock cfiCond439
          CFI EndBlock cfiCond440
          CFI EndBlock cfiCond441
          CFI EndBlock cfiCond442
          CFI EndBlock cfiCond443
          CFI EndBlock cfiCond444
          CFI EndBlock cfiCond445
          CFI EndBlock cfiCond446
          CFI EndBlock cfiPicker447

        RSEG BANK_RELAYS:CODE:REORDER:NOROOT(0)
`??zclGp_RegisterCmdCallbacks::?relay`:
        CODE
        LCALL   ?BDISPATCH
        DATA24
        DC24    zclGp_RegisterCmdCallbacks

        RSEG BANK_RELAYS:CODE:REORDER:NOROOT(0)
`??zclGp_HdlIncoming::?relay`:
        CODE
        LCALL   ?BDISPATCH
        DATA24
        DC24    zclGp_HdlIncoming

        RSEG BANK_RELAYS:CODE:REORDER:NOROOT(0)
`??zclGp_ProcessInProxyBasic::?relay`:
        CODE
        LCALL   ?BDISPATCH
        DATA24
        DC24    zclGp_ProcessInProxyBasic

        RSEG BANK_RELAYS:CODE:REORDER:NOROOT(0)
`??zclGp_SendGpNotificationCommand::?relay`:
        CODE
        LCALL   ?BDISPATCH
        DATA24
        DC24    zclGp_SendGpNotificationCommand

        RSEG BANK_RELAYS:CODE:REORDER:NOROOT(0)
`??zclGp_SendGpCommissioningNotificationCommand:`:
        CODE
        LCALL   ?BDISPATCH
        DATA24
        DC24    zclGp_SendGpCommissioningNotificationCommand

        RSEG BANK_RELAYS:CODE:REORDER:NOROOT(0)
`??zclGp_SendGpProxyTableResponse::?relay`:
        CODE
        LCALL   ?BDISPATCH
        DATA24
        DC24    zclGp_SendGpProxyTableResponse

        RSEG BANK_RELAYS:CODE:REORDER:NOROOT(0)
`??gp_addPairedSinksToMsgQueue::?relay`:
        CODE
        LCALL   ?BDISPATCH
        DATA24
        DC24    gp_addPairedSinksToMsgQueue

        RSEG BANK_RELAYS:CODE:REORDER:NOROOT(0)
`??gp_CreateNotificationMsgList::?relay`:
        CODE
        LCALL   ?BDISPATCH
        DATA24
        DC24    gp_CreateNotificationMsgList

        RSEG BANK_RELAYS:CODE:REORDER:NOROOT(0)
`??gp_CreateCmdPayloadMsgList::?relay`:
        CODE
        LCALL   ?BDISPATCH
        DATA24
        DC24    gp_CreateCmdPayloadMsgList

        RSEG BANK_RELAYS:CODE:REORDER:NOROOT(0)
`??gp_AddNotificationMsgNode::?relay`:
        CODE
        LCALL   ?BDISPATCH
        DATA24
        DC24    gp_AddNotificationMsgNode

        RSEG BANK_RELAYS:CODE:REORDER:NOROOT(0)
`??gp_AddCmdPayloadMsgNode::?relay`:
        CODE
        LCALL   ?BDISPATCH
        DATA24
        DC24    gp_AddCmdPayloadMsgNode

        RSEG BANK_RELAYS:CODE:REORDER:NOROOT(0)
`??gp_GetHeadNotificationMsg::?relay`:
        CODE
        LCALL   ?BDISPATCH
        DATA24
        DC24    gp_GetHeadNotificationMsg

        RSEG BANK_RELAYS:CODE:REORDER:NOROOT(0)
`??gp_GetPHeadNotification::?relay`:
        CODE
        LCALL   ?BDISPATCH
        DATA24
        DC24    gp_GetPHeadNotification

        RSEG BANK_RELAYS:CODE:REORDER:NOROOT(0)
`??gp_GetHeadCmdPayloadMsg::?relay`:
        CODE
        LCALL   ?BDISPATCH
        DATA24
        DC24    gp_GetHeadCmdPayloadMsg

        RSEG BANK_RELAYS:CODE:REORDER:NOROOT(0)
`??gp_GetPHeadCmdPayload::?relay`:
        CODE
        LCALL   ?BDISPATCH
        DATA24
        DC24    gp_GetPHeadCmdPayload

        RSEG BANK_RELAYS:CODE:REORDER:NOROOT(0)
`??gp_NotificationMsgClean::?relay`:
        CODE
        LCALL   ?BDISPATCH
        DATA24
        DC24    gp_NotificationMsgClean

        RSEG BANK_RELAYS:CODE:REORDER:NOROOT(0)
`??gp_CmdPayloadMsgClean::?relay`:
        CODE
        LCALL   ?BDISPATCH
        DATA24
        DC24    gp_CmdPayloadMsgClean

        RSEG BANK_RELAYS:CODE:REORDER:NOROOT(0)
`??gp_ResetProxyBasicTblEntry::?relay`:
        CODE
        LCALL   ?BDISPATCH
        DATA24
        DC24    gp_ResetProxyBasicTblEntry

        RSEG XDATA_ROM_C:CONST:REORDER:NOROOT(0)
        DATA8
`?<Constant {255, 255, 255, 255, 255, 255, 255,`:
        DB 255
        DB 255
        DB 255
        DB 255
        DB 255
        DB 255
        DB 255
        DB 255
        DB 255
        DB 255

        RSEG XDATA_ROM_C:CONST:REORDER:NOROOT(0)
        DATA8
`?<Constant {255, 255, 255, 255, 255, 255, 255,_1`:
        DB 255
        DB 255
        DB 255
        DB 255
        DB 255
        DB 255
        DB 255
        DB 255
        DB 255
        DB 255
        DB 0
        DB 255
        DB 255
        DB 255
        DB 255
        DB 255
        DB 255
        DB 255
        DB 255
        DB 255
        DB 255
        DB 255
        DB 255
        DB 255
        DB 255
        DB 255
        DB 255
        DB 255
        DB 255
        DB 255
        DB 255
        DB 255
        DB 255
        DB 255
        DB 0
        DB 0
        DB 0
        DB 0
        DB 0
        DB 0
        DB 0
        DB 0
        DB 0
        DB 0
        DB 0
        DB 0
        DB 0
        DB 0
        DB 0
        DB 0
        DB 0
        DB 0
        DB 0
        DB 0
        DB 0
        DB 0
        DB 0
        DB 0
        DB 0
        DB 0
        DB 0
        DB 0
        DB 0
        DB 0
        DB 0

        RSEG XDATA_ROM_C:CONST:REORDER:NOROOT(0)
        DATA8
`?<Constant {255, 255, 255, 255, 255, 255, 255,_2`:
        DB 255
        DB 255
        DB 255
        DB 255
        DB 255
        DB 255
        DB 255
        DB 255
        DB 255
        DB 255
        DB 0
        DB 255
        DB 255
        DB 255
        DB 255
        DB 255
        DB 255
        DB 255
        DB 255
        DB 255
        DB 255
        DB 255
        DB 255
        DB 255
        DB 255
        DB 255
        DB 255
        DB 255
        DB 255
        DB 255
        DB 255
        DB 255
        DB 255
        DB 255
        DB 0
        DB 0
        DB 0
        DB 0
        DB 0
        DB 0
        DB 0
        DB 0
        DB 0
        DB 0
        DB 0
        DB 0
        DB 0
        DB 0
        DB 0
        DB 0
        DB 0
        DB 0
        DB 0
        DB 0
        DB 0
        DB 0
        DB 0
        DB 0
        DB 0
        DB 0
        DB 0
        DB 0
        DB 0
        DB 0
        DB 0

        RSEG XDATA_ROM_C:CONST:REORDER:NOROOT(0)
        DATA32
__Constant_32:
        DD 50

        END
// 1021 
// 1022 #endif
// 1023 /***************************************************************************
// 1024 ****************************************************************************/
// 
// 3 905 bytes in segment BANKED_CODE
//   108 bytes in segment BANK_RELAYS
//   156 bytes in segment XDATA_ROM_C
//     7 bytes in segment XDATA_Z
// 
//   108 bytes of CODE     memory
//   152 bytes of CONST    memory (+ 4 bytes shared)
// 3 905 bytes of HUGECODE memory
//     7 bytes of XDATA    memory
//
//Errors: none
//Warnings: none
