###############################################################################
#
# IAR C/C++ Compiler V10.20.1.5333 for 8051               28/Apr/2026  20:22:15
# Copyright 2004-2018 IAR Systems AB.
# PC-locked license - IAR Embedded Workbench for 8051
#
#    Core               =  plain
#    Code model         =  banked
#    Data model         =  large
#    Calling convention =  xdata reentrant
#    Constant location  =  data_rom
#    Dptr setup         =  1,16
#                          
#    Source file        =  
#        E:\BaiduNetdiskDownload\´đ°¸\ĘµŃéČý ZigBee´úÂë\Z-Stack 3.0.1\Z-Stack
#        3.0.1\Components\stack\zdo\ZDObject.c
#    Command line       =  
#        -f C:\Users\ZH\AppData\Local\Temp\EW5B74.tmp
#        ("E:\BaiduNetdiskDownload\´đ°¸\ĘµŃéČý ZigBee´úÂë\Z-Stack 3.0.1\Z-Stack
#        3.0.1\Components\stack\zdo\ZDObject.c" -D SECURE=1 -D TC_LINKKEY_JOIN
#        -D NV_INIT -D NV_RESTORE -D xZTOOL_P1 -D xMT_TASK -D xMT_APP_FUNC -D
#        xMT_SYS_FUNC -D xMT_ZDO_FUNC -D xMT_ZDO_MGMT -D xMT_APP_CNF_FUNC -D
#        LCD_SUPPORTED=DEBUG -D MULTICAST_ENABLED=FALSE -D ZCL_READ -D
#        ZCL_DISCOVER -D ZCL_WRITE -D ZCL_BASIC -D ZCL_IDENTIFY -D ZCL_ON_OFF
#        -D ZCL_GROUPS -D ZCL_REPORT_DESTINATION_DEVICE -D ZCL_REPORT -D
#        HAL_LED=TRUE -D HAL_KEY=TRUE -D ISR_KEYINTERRUPT -D HAL_UART=TRUE -D
#        INT_HEAP_LEN=2300 -D HAL_LCD=TRUE -D xHAL_LCD_OLED12864 -D
#        HAL_ADC=TRUE -D HAL_UART=TRUE -D INT_HEAP_LEN=2048 -lC
#        "E:\BaiduNetdiskDownload\´đ°¸\ĘµŃéČý ZigBee´úÂë\Z-Stack 3.0.1\Z-Stack
#        3.0.1\Projects\zstack\HomeAutomation\SampleSwitch\CC2530DB\CoordinatorEB\List"
#        -lA "E:\BaiduNetdiskDownload\´đ°¸\ĘµŃéČý ZigBee´úÂë\Z-Stack
#        3.0.1\Z-Stack
#        3.0.1\Projects\zstack\HomeAutomation\SampleSwitch\CC2530DB\CoordinatorEB\List"
#        --diag_suppress Pe001,Pa010 -o "E:\BaiduNetdiskDownload\´đ°¸\ĘµŃéČý
#        ZigBee´úÂë\Z-Stack 3.0.1\Z-Stack
#        3.0.1\Projects\zstack\HomeAutomation\SampleSwitch\CC2530DB\CoordinatorEB\Obj"
#        -e --debug --core=plain --dptr=16,1 --data_model=large
#        --code_model=banked --calling_convention=xdata_reentrant
#        --place_constants=data_rom --nr_virtual_regs 8 -f
#        "E:\BaiduNetdiskDownload\´đ°¸\ĘµŃéČý ZigBee´úÂë\Z-Stack 3.0.1\Z-Stack
#        3.0.1\Projects\zstack\HomeAutomation\SampleSwitch\CC2530DB\..\..\..\Tools\CC2530DB\f8wCoord.cfg"
#        (-DCPU32MHZ -DROOT=__near_func -DMAC_CFG_APP_PENDING_QUEUE=TRUE
#        -DMAC_CFG_TX_DATA_MAX=5 -DMAC_CFG_TX_MAX=8 -DMAC_CFG_RX_MAX=5
#        -DZDO_COORDINATOR -DRTR_NWK) -f "E:\BaiduNetdiskDownload\´đ°¸\ĘµŃéČý
#        ZigBee´úÂë\Z-Stack 3.0.1\Z-Stack
#        3.0.1\Projects\zstack\HomeAutomation\SampleSwitch\CC2530DB\..\..\..\Tools\CC2530DB\f8wConfig.cfg"
#        (-DZIGBEEPRO -DSECURE=1 -DZG_SECURE_DYNAMIC=0 -DREFLECTOR
#        -DDEFAULT_CHANLIST=0x00000800 -DZDAPP_CONFIG_PAN_ID=0xFFFF
#        -DNWK_START_DELAY=100 -DEXTENDED_JOINING_RANDOM_MASK=0x007F
#        -DBEACON_REQUEST_DELAY=100 -DBEACON_REQ_DELAY_MASK=0x00FF
#        -DLINK_STATUS_JITTER_MASK=0x007F -DROUTE_EXPIRY_TIME=30
#        -DAPSC_ACK_WAIT_DURATION_POLLED=3000 -DNWK_INDIRECT_MSG_TIMEOUT=7
#        -DMAX_RREQ_ENTRIES=8 -DAPSC_MAX_FRAME_RETRIES=3
#        -DNWK_MAX_DATA_RETRIES=2 -DMAX_POLL_FAILURE_RETRIES=2 -DMAX_BCAST=9
#        -DAPS_MAX_GROUPS=16 -DMAX_RTG_ENTRIES=40 -DNWK_MAX_BINDING_ENTRIES=4
#        -DMAX_BINDING_CLUSTER_IDS=4 -DDEFAULT_KEY={0} -DMAC_MAX_FRAME_SIZE=116
#        -DZDNWKMGR_MIN_TRANSMISSIONS=20 "-DCONST=const __code"
#        -DGENERIC=__generic -DRFD_RCVC_ALWAYS_ON=FALSE -DPOLL_RATE=1000
#        -DQUEUED_POLL_RATE=100 -DRESPONSE_POLL_RATE=100 -DREJOIN_POLL_RATE=440
#        -DREJOIN_BACKOFF=900000 -DREJOIN_SCAN=900000 -DENABLE_LED4_DISABLE_S1)
#        -f "E:\BaiduNetdiskDownload\´đ°¸\ĘµŃéČý ZigBee´úÂë\Z-Stack
#        3.0.1\Z-Stack
#        3.0.1\Projects\zstack\HomeAutomation\SampleSwitch\CC2530DB\..\..\..\Tools\CC2530DB\f8wZCL.cfg"
#        -I "E:\BaiduNetdiskDownload\´đ°¸\ĘµŃéČý ZigBee´úÂë\Z-Stack
#        3.0.1\Z-Stack
#        3.0.1\Projects\zstack\HomeAutomation\SampleSwitch\CC2530DB\" -I
#        "E:\BaiduNetdiskDownload\´đ°¸\ĘµŃéČý ZigBee´úÂë\Z-Stack 3.0.1\Z-Stack
#        3.0.1\Projects\zstack\HomeAutomation\SampleSwitch\CC2530DB\..\Source\"
#        -I "E:\BaiduNetdiskDownload\´đ°¸\ĘµŃéČý ZigBee´úÂë\Z-Stack
#        3.0.1\Z-Stack
#        3.0.1\Projects\zstack\HomeAutomation\SampleSwitch\CC2530DB\..\..\Source\"
#        -I "E:\BaiduNetdiskDownload\´đ°¸\ĘµŃéČý ZigBee´úÂë\Z-Stack
#        3.0.1\Z-Stack
#        3.0.1\Projects\zstack\HomeAutomation\SampleSwitch\CC2530DB\..\..\..\ZMain\TI2530DB\"
#        -I "E:\BaiduNetdiskDownload\´đ°¸\ĘµŃéČý ZigBee´úÂë\Z-Stack
#        3.0.1\Z-Stack
#        3.0.1\Projects\zstack\HomeAutomation\SampleSwitch\CC2530DB\..\..\..\..\..\Components\hal\include\"
#        -I "E:\BaiduNetdiskDownload\´đ°¸\ĘµŃéČý ZigBee´úÂë\Z-Stack
#        3.0.1\Z-Stack
#        3.0.1\Projects\zstack\HomeAutomation\SampleSwitch\CC2530DB\..\..\..\..\..\Components\hal\target\CC2530EB\"
#        -I "E:\BaiduNetdiskDownload\´đ°¸\ĘµŃéČý ZigBee´úÂë\Z-Stack
#        3.0.1\Z-Stack
#        3.0.1\Projects\zstack\HomeAutomation\SampleSwitch\CC2530DB\..\..\..\..\..\Components\mac\include\"
#        -I "E:\BaiduNetdiskDownload\´đ°¸\ĘµŃéČý ZigBee´úÂë\Z-Stack
#        3.0.1\Z-Stack
#        3.0.1\Projects\zstack\HomeAutomation\SampleSwitch\CC2530DB\..\..\..\..\..\Components\mac\high_level\"
#        -I "E:\BaiduNetdiskDownload\´đ°¸\ĘµŃéČý ZigBee´úÂë\Z-Stack
#        3.0.1\Z-Stack
#        3.0.1\Projects\zstack\HomeAutomation\SampleSwitch\CC2530DB\..\..\..\..\..\Components\mac\low_level\srf04\"
#        -I "E:\BaiduNetdiskDownload\´đ°¸\ĘµŃéČý ZigBee´úÂë\Z-Stack
#        3.0.1\Z-Stack
#        3.0.1\Projects\zstack\HomeAutomation\SampleSwitch\CC2530DB\..\..\..\..\..\Components\mac\low_level\srf04\single_chip\"
#        -I "E:\BaiduNetdiskDownload\´đ°¸\ĘµŃéČý ZigBee´úÂë\Z-Stack
#        3.0.1\Z-Stack
#        3.0.1\Projects\zstack\HomeAutomation\SampleSwitch\CC2530DB\..\..\..\..\..\Components\mt\"
#        -I "E:\BaiduNetdiskDownload\´đ°¸\ĘµŃéČý ZigBee´úÂë\Z-Stack
#        3.0.1\Z-Stack
#        3.0.1\Projects\zstack\HomeAutomation\SampleSwitch\CC2530DB\..\..\..\..\..\Components\osal\include\"
#        -I "E:\BaiduNetdiskDownload\´đ°¸\ĘµŃéČý ZigBee´úÂë\Z-Stack
#        3.0.1\Z-Stack
#        3.0.1\Projects\zstack\HomeAutomation\SampleSwitch\CC2530DB\..\..\..\..\..\Components\services\saddr\"
#        -I "E:\BaiduNetdiskDownload\´đ°¸\ĘµŃéČý ZigBee´úÂë\Z-Stack
#        3.0.1\Z-Stack
#        3.0.1\Projects\zstack\HomeAutomation\SampleSwitch\CC2530DB\..\..\..\..\..\Components\services\sdata\"
#        -I "E:\BaiduNetdiskDownload\´đ°¸\ĘµŃéČý ZigBee´úÂë\Z-Stack
#        3.0.1\Z-Stack
#        3.0.1\Projects\zstack\HomeAutomation\SampleSwitch\CC2530DB\..\..\..\..\..\Components\stack\af\"
#        -I "E:\BaiduNetdiskDownload\´đ°¸\ĘµŃéČý ZigBee´úÂë\Z-Stack
#        3.0.1\Z-Stack
#        3.0.1\Projects\zstack\HomeAutomation\SampleSwitch\CC2530DB\..\..\..\..\..\Components\stack\bdb\"
#        -I "E:\BaiduNetdiskDownload\´đ°¸\ĘµŃéČý ZigBee´úÂë\Z-Stack
#        3.0.1\Z-Stack
#        3.0.1\Projects\zstack\HomeAutomation\SampleSwitch\CC2530DB\..\..\..\..\..\Components\stack\gp\"
#        -I "E:\BaiduNetdiskDownload\´đ°¸\ĘµŃéČý ZigBee´úÂë\Z-Stack
#        3.0.1\Z-Stack
#        3.0.1\Projects\zstack\HomeAutomation\SampleSwitch\CC2530DB\..\..\..\..\..\Components\stack\nwk\"
#        -I "E:\BaiduNetdiskDownload\´đ°¸\ĘµŃéČý ZigBee´úÂë\Z-Stack
#        3.0.1\Z-Stack
#        3.0.1\Projects\zstack\HomeAutomation\SampleSwitch\CC2530DB\..\..\..\..\..\Components\stack\sapi\"
#        -I "E:\BaiduNetdiskDownload\´đ°¸\ĘµŃéČý ZigBee´úÂë\Z-Stack
#        3.0.1\Z-Stack
#        3.0.1\Projects\zstack\HomeAutomation\SampleSwitch\CC2530DB\..\..\..\..\..\Components\stack\sec\"
#        -I "E:\BaiduNetdiskDownload\´đ°¸\ĘµŃéČý ZigBee´úÂë\Z-Stack
#        3.0.1\Z-Stack
#        3.0.1\Projects\zstack\HomeAutomation\SampleSwitch\CC2530DB\..\..\..\..\..\Components\stack\sys\"
#        -I "E:\BaiduNetdiskDownload\´đ°¸\ĘµŃéČý ZigBee´úÂë\Z-Stack
#        3.0.1\Z-Stack
#        3.0.1\Projects\zstack\HomeAutomation\SampleSwitch\CC2530DB\..\..\..\..\..\Components\stack\zcl\"
#        -I "E:\BaiduNetdiskDownload\´đ°¸\ĘµŃéČý ZigBee´úÂë\Z-Stack
#        3.0.1\Z-Stack
#        3.0.1\Projects\zstack\HomeAutomation\SampleSwitch\CC2530DB\..\..\..\..\..\Components\stack\zdo\"
#        -I "E:\BaiduNetdiskDownload\´đ°¸\ĘµŃéČý ZigBee´úÂë\Z-Stack
#        3.0.1\Z-Stack
#        3.0.1\Projects\zstack\HomeAutomation\SampleSwitch\CC2530DB\..\..\..\..\..\Components\zmac\"
#        -I "E:\BaiduNetdiskDownload\´đ°¸\ĘµŃéČý ZigBee´úÂë\Z-Stack
#        3.0.1\Z-Stack
#        3.0.1\Projects\zstack\HomeAutomation\SampleSwitch\CC2530DB\..\..\..\..\..\Components\zmac\f8w\"
#        -I "E:\BaiduNetdiskDownload\´đ°¸\ĘµŃéČý ZigBee´úÂë\Z-Stack
#        3.0.1\Z-Stack
#        3.0.1\Projects\zstack\HomeAutomation\SampleSwitch\CC2530DB\..\..\..\..\..\Components\hal\target\CC2530EB\Common\"
#        -I "E:\BaiduNetdiskDownload\´đ°¸\ĘµŃéČý ZigBee´úÂë\Z-Stack
#        3.0.1\Z-Stack
#        3.0.1\Projects\zstack\HomeAutomation\SampleSwitch\CC2530DB\..\..\..\..\..\Components\hal\target\CC2530EB\SPI\"
#        -I "E:\BaiduNetdiskDownload\´đ°¸\ĘµŃéČý ZigBee´úÂë\Z-Stack
#        3.0.1\Z-Stack
#        3.0.1\Projects\zstack\HomeAutomation\SampleSwitch\CC2530DB\..\..\..\..\..\Components\hal\target\CC2530EB\HW_LCD\Font\"
#        -I "E:\BaiduNetdiskDownload\´đ°¸\ĘµŃéČý ZigBee´úÂë\Z-Stack
#        3.0.1\Z-Stack
#        3.0.1\Projects\zstack\HomeAutomation\SampleSwitch\CC2530DB\..\..\..\..\..\Components\hal\target\CC2530EB\HW_LCD\HAL_LCD_SPI\"
#        -I "E:\BaiduNetdiskDownload\´đ°¸\ĘµŃéČý ZigBee´úÂë\Z-Stack
#        3.0.1\Z-Stack
#        3.0.1\Projects\zstack\HomeAutomation\SampleSwitch\CC2530DB\..\..\..\..\..\Components\hal\target\CC2530EB\HW_LCD\HAL_OLED\"
#        -I "E:\BaiduNetdiskDownload\´đ°¸\ĘµŃéČý ZigBee´úÂë\Z-Stack
#        3.0.1\Z-Stack
#        3.0.1\Projects\zstack\HomeAutomation\SampleSwitch\CC2530DB\..\..\..\..\..\Components\hal\target\CC2530EB\HW_LCD\HAL_TFT\"
#        -Ohz --require_prototypes)
#    Locale             =  Chinese (Simplified)_CHN.936
#    List file          =  
#        E:\BaiduNetdiskDownload\´đ°¸\ĘµŃéČý ZigBee´úÂë\Z-Stack 3.0.1\Z-Stack
#        3.0.1\Projects\zstack\HomeAutomation\SampleSwitch\CC2530DB\CoordinatorEB\List\ZDObject.lst
#    Object file        =  
#        E:\BaiduNetdiskDownload\´đ°¸\ĘµŃéČý ZigBee´úÂë\Z-Stack 3.0.1\Z-Stack
#        3.0.1\Projects\zstack\HomeAutomation\SampleSwitch\CC2530DB\CoordinatorEB\Obj\ZDObject.r51
#
###############################################################################

E:\BaiduNetdiskDownload\´đ°¸\ĘµŃéČý ZigBee´úÂë\Z-Stack 3.0.1\Z-Stack 3.0.1\Components\stack\zdo\ZDObject.c
      1          /**************************************************************************************************
      2            Filename:       ZDObject.c
      3            Revised:        $Date: 2015-10-01 15:01:50 -0700 (Thu, 01 Oct 2015) $
      4            Revision:       $Revision: 44513 $
      5          
      6            Description:    This is the Zigbee Device Object.
      7          
      8          
      9            Copyright 2004-2015 Texas Instruments Incorporated. All rights reserved.
     10          
     11            IMPORTANT: Your use of this Software is limited to those specific rights
     12            granted under the terms of a software license agreement between the user
     13            who downloaded the software, his/her employer (which must be your employer)
     14            and Texas Instruments Incorporated (the "License"). You may not use this
     15            Software unless you agree to abide by the terms of the License. The License
     16            limits your use, and you acknowledge, that the Software may not be modified,
     17            copied or distributed unless embedded on a Texas Instruments microcontroller
     18            or used solely and exclusively in conjunction with a Texas Instruments radio
     19            frequency transceiver, which is integrated into your product. Other than for
     20            the foregoing purpose, you may not use, reproduce, copy, prepare derivative
     21            works of, modify, distribute, perform, display or sell this Software and/or
     22            its documentation for any purpose.
     23          
     24            YOU FURTHER ACKNOWLEDGE AND AGREE THAT THE SOFTWARE AND DOCUMENTATION ARE
     25            PROVIDED "AS IS" WITHOUT WARRANTY OF ANY KIND, EITHER EXPRESS OR IMPLIED,
     26            INCLUDING WITHOUT LIMITATION, ANY WARRANTY OF MERCHANTABILITY, TITLE,
     27            NON-INFRINGEMENT AND FITNESS FOR A PARTICULAR PURPOSE. IN NO EVENT SHALL
     28            TEXAS INSTRUMENTS OR ITS LICENSORS BE LIABLE OR OBLIGATED UNDER CONTRACT,
     29            NEGLIGENCE, STRICT LIABILITY, CONTRIBUTION, BREACH OF WARRANTY, OR OTHER
     30            LEGAL EQUITABLE THEORY ANY DIRECT OR INDIRECT DAMAGES OR EXPENSES
     31            INCLUDING BUT NOT LIMITED TO ANY INCIDENTAL, SPECIAL, INDIRECT, PUNITIVE
     32            OR CONSEQUENTIAL DAMAGES, LOST PROFITS OR LOST DATA, COST OF PROCUREMENT
     33            OF SUBSTITUTE GOODS, TECHNOLOGY, SERVICES, OR ANY CLAIMS BY THIRD PARTIES
     34            (INCLUDING BUT NOT LIMITED TO ANY DEFENSE THEREOF), OR OTHER SIMILAR COSTS.
     35          
     36            Should you have any questions regarding your right to use this Software,
     37            contact Texas Instruments Incorporated at www.TI.com.
     38          **************************************************************************************************/
     39          
     40          /*********************************************************************
     41           * INCLUDES
     42           */
     43          #include "ZComDef.h"
     44          #include "OSAL.h"
     45          #include "OSAL_Nv.h"
     46          #include "rtg.h"
     47          #include "NLMEDE.h"
     48          #include "nwk_globals.h"
     49          #include "APS.h"
     50          #include "APSMEDE.h"
     51          #include "AssocList.h"
     52          #include "BindingTable.h"
     53          #include "AddrMgr.h"
     54          #include "AF.h"
     55          #include "ZDObject.h"
     56          #include "ZDProfile.h"
     57          #include "ZDConfig.h"
     58          #include "ZDSecMgr.h"
     59          #include "ZDApp.h"
     60          #include "nwk_util.h"   // NLME_IsAddressBroadcast()
     61          #include "ZGlobals.h"
     62          #if defined MT_ZDO_CB_FUNC
     63          #include "MT.h"
     64          #endif
     65          
     66          #include "bdb.h"
     67          
     68          #if !defined (DISABLE_GREENPOWER_BASIC_PROXY) && (ZG_BUILD_RTR_TYPE)
     69          #include "gp_common.h"
     70          #endif
     71           
     72          #if defined( LCD_SUPPORTED )
     73            #include "OnBoard.h"
     74          #endif
     75          
     76          /* HAL */
     77          #include "hal_lcd.h"
     78          
     79          /*********************************************************************
     80           * MACROS
     81           */
     82          
     83          /*********************************************************************
     84           * CONSTANTS
     85           */
     86          // NLME Stub Implementations
     87          #define ZDO_ProcessMgmtPermitJoinTimeout NLME_PermitJoiningTimeout
     88          
     89          /*********************************************************************
     90           * TYPEDEFS
     91           */
     92          #if defined ( REFLECTOR )
     93          typedef struct
     94          {
     95            byte SrcTransSeq;
     96            zAddrType_t SrcAddr;
     97            uint16 LocalCoordinator;
     98            byte epIntf;
     99            uint16 ProfileID;
    100            byte numInClusters;
    101            uint16 *inClusters;
    102            byte numOutClusters;
    103            uint16 *outClusters;
    104            byte SecurityUse;
    105            byte status;
    106          } ZDO_EDBind_t;
    107          #endif // defined ( REFLECTOR )
    108          
    109          enum
    110          {
    111            ZDMATCH_INIT,           // Initialized
    112            ZDMATCH_WAIT_REQ,       // Received first request, waiting for second
    113            ZDMATCH_SENDING_BINDS   // Received both requests, sending unbind/binds
    114          };
    115          
    116          enum
    117          {
    118            ZDMATCH_SENDING_NOT,
    119            ZDMATCH_SENDING_UNBIND,
    120            ZDMATCH_SENDING_BIND
    121          };
    122          
    123          /*********************************************************************
    124           * GLOBAL VARIABLES
    125           */
    126          
    127          /*********************************************************************
    128           * EXTERNAL VARIABLES
    129           */
    130          
    131          extern bool  requestNewTrustCenterLinkKey;   
    132             
    133          /*********************************************************************
    134           * EXTERNAL FUNCTIONS
    135           */
    136          
    137          /*********************************************************************
    138           * LOCAL VARIABLES
    139           */

   \                                 In  segment XDATA_Z, align 1, keep-with-next
    140          static uint16 ZDOBuildBuf[26];  // temp area to build data without allocation
   \                     ZDOBuildBuf:
   \   000000                DS 52
   \   000034                REQUIRE __INIT_XDATA_Z
    141          
    142          #if defined ( REFLECTOR )

   \                                 In  segment XDATA_Z, align 1, keep-with-next
    143          static ZDO_EDBind_t *ZDO_EDBind;     // Null when not used
   \                     ZDO_EDBind:
   \   000000                DS 2
   \   000002                REQUIRE __INIT_XDATA_Z
    144          #endif
    145          
    146          #if defined ( MANAGED_SCAN )
    147            uint32 managedScanNextChannel = 0;
    148            uint32 managedScanChannelMask = 0;
    149            uint8  managedScanTimesPerChannel = 0;
    150          #endif
    151          

   \                                 In  segment XDATA_Z, align 1, keep-with-next
    152          ZDMatchEndDeviceBind_t *matchED = (ZDMatchEndDeviceBind_t *)NULL;
   \                     matchED:
   \   000000                DS 2
   \   000002                REQUIRE __INIT_XDATA_Z
    153          

   \                                 In  segment XDATA_Z, align 1, keep-with-next
    154          uint32 apsChannelMask = 0;
   \                     apsChannelMask:
   \   000000                DS 4
   \   000004                REQUIRE __INIT_XDATA_Z
    155          

   \                                 In  segment XDATA_I, align 1, keep-with-next
    156          int16 zdpExternalStateTaskID = -1;
   \                     zdpExternalStateTaskID:
   \   000000                DS 2
   \   000002                REQUIRE `?<Initializer for zdpExternalStateTaskID>`
   \   000002                REQUIRE __INIT_XDATA_I
    157          
    158          /*********************************************************************
    159           * LOCAL FUNCTIONS
    160           */
    161          static void ZDODeviceSetup( void );
    162          #if defined ( MANAGED_SCAN )
    163            static void ZDOManagedScan_Next( void );
    164          #endif
    165          #if defined ( REFLECTOR )
    166            static void ZDO_RemoveEndDeviceBind( void );
    167            static void ZDO_SendEDBindRsp( byte TransSeq, zAddrType_t *dstAddr, byte Status, byte secUse );
    168          #endif
    169          #if ( ZG_BUILD_COORDINATOR_TYPE )
    170            static byte ZDO_CompareClusterLists( byte numList1, uint16 *list1,
    171                                                 byte numList2, uint16 *list2, uint16 *pMatches );
    172            static void ZDO_RemoveMatchMemory( void );
    173            static uint8 ZDO_CopyMatchInfo( ZDEndDeviceBind_t *destReq, ZDEndDeviceBind_t *srcReq );
    174            static void ZDO_EndDeviceBindMatchTimeoutCB( void );
    175          #endif
    176          uint8 *ZDO_ConvertOTAClusters( uint8 cnt, uint8 *inBuf, uint16 *outList );
    177          static void zdoSendStateChangeMsg(uint8 state, uint8 taskId);
    178          
    179          /*********************************************************************
    180           * @fn          ZDO_Init
    181           *
    182           * @brief       ZDObject and ZDProfile initialization.
    183           *
    184           * @param       none
    185           *
    186           * @return      none
    187           */

   \                                 In  segment BANKED_CODE, align 1, keep-with-next
    188          void ZDO_Init( void )
   \                     ZDO_Init:
    189          {
   \   000000   C082         PUSH      DPL
   \   000002   C083         PUSH      DPH
   \   000004                ; Saved register size: 2
   \   000004                ; Auto size: 0
    190            // Initialize ZD items
    191            #if defined ( REFLECTOR )
    192            ZDO_EDBind = NULL;
   \   000004   90....       MOV       DPTR,#ZDO_EDBind
   \   000007   E4           CLR       A
   \   000008   F0           MOVX      @DPTR,A
   \   000009   A3           INC       DPTR
   \   00000A   F0           MOVX      @DPTR,A
    193            #endif
    194          
    195            // Initialize default ZDO_UseExtendedPANID to the APS one.
    196            osal_cpyExtAddr( ZDO_UseExtendedPANID, AIB_apsUseExtendedPANID );
   \   00000B                ; Setup parameters for call to function sAddrExtCpy
   \   00000B   7C..         MOV       R4,#AIB_apsUseExtendedPANID & 0xff
   \   00000D   7D..         MOV       R5,#(AIB_apsUseExtendedPANID >> 8) & 0xff
   \   00000F   7A..         MOV       R2,#ZDO_UseExtendedPANID & 0xff
   \   000011   7B..         MOV       R3,#(ZDO_UseExtendedPANID >> 8) & 0xff
   \   000013   12....       LCALL     `??sAddrExtCpy::?relay`; Banked call to: sAddrExtCpy
    197          
    198            // Setup the device - type of device to create.
    199            ZDODeviceSetup();
   \   000016                ; Setup parameters for call to function NLME_CoordinatorInit
   \   000016   12....       LCALL     `??NLME_CoordinatorInit::?relay`; Banked call to: NLME_CoordinatorInit
   \   000019                ; Setup parameters for call to function APS_ReflectorInit
   \   000019   12....       LCALL     `??APS_ReflectorInit::?relay`; Banked call to: APS_ReflectorInit
    200          }
   \   00001C   02....       LJMP      ?Subroutine0 & 0xFFFF

   \                                 In  segment BANKED_CODE, align 1, keep-with-next
   \                     ?Subroutine0:
   \   000000   D083         POP       DPH
   \   000002   D082         POP       DPL
   \   000004   02....       LJMP      ?BRET
    201          
    202          #if defined ( MANAGED_SCAN )
    203          /*********************************************************************
    204           * @fn      ZDOManagedScan_Next()
    205           *
    206           * @brief   Setup a managed scan.
    207           *
    208           * @param   none
    209           *
    210           * @return  none
    211           */
    212          static void ZDOManagedScan_Next( void )
    213          {
    214            // Is it the first time
    215            if ( managedScanNextChannel == 0 && managedScanTimesPerChannel == 0 )
    216            {
    217              // Setup the defaults
    218              managedScanNextChannel  = 1;
    219          
    220              while( managedScanNextChannel && (runtimeChannel & managedScanNextChannel) == 0 )
    221                managedScanNextChannel <<= 1;
    222          
    223              managedScanChannelMask = managedScanNextChannel;
    224              managedScanTimesPerChannel = MANAGEDSCAN_TIMES_PRE_CHANNEL;
    225            }
    226            else
    227            {
    228              // Do we need to go to the next channel
    229              if ( managedScanTimesPerChannel == 0 )
    230              {
    231                // Find next active channel
    232                managedScanChannelMask  = managedScanNextChannel;
    233                managedScanTimesPerChannel = MANAGEDSCAN_TIMES_PRE_CHANNEL;
    234              }
    235              else
    236              {
    237                managedScanTimesPerChannel--;
    238          
    239                if ( managedScanTimesPerChannel == 0 )
    240                {
    241                  managedScanNextChannel  <<= 1;
    242                  while( managedScanNextChannel && (runtimeChannel & managedScanNextChannel) == 0 )
    243                    managedScanNextChannel <<= 1;
    244          
    245                  if ( managedScanNextChannel == 0 )
    246                    zdoDiscCounter  = NUM_DISC_ATTEMPTS + 1; // Stop
    247                }
    248              }
    249            }
    250          }
    251          #endif // MANAGED_SCAN
    252          
    253          /*********************************************************************
    254           * @fn      ZDODeviceSetup()
    255           *
    256           * @brief   Call set functions depending on the type of device compiled.
    257           *
    258           * @param   none
    259           *
    260           * @return  none
    261           */
    262          static void ZDODeviceSetup( void )
    263          {
    264            if ( ZG_BUILD_COORDINATOR_TYPE )
    265            {
    266              NLME_CoordinatorInit();
    267            }
    268          
    269          #if defined ( REFLECTOR )
    270            APS_ReflectorInit();
    271          #endif
    272          
    273            if ( ZG_BUILD_JOINING_TYPE )
    274            {
    275              NLME_DeviceJoiningInit();
    276            }
    277          }
    278          
    279          
    280          
    281          
    282          /*********************************************************************
    283           * @fn          ZDO_StartDevice
    284           *
    285           * @brief       This function starts a device in a network. Added distributed network for router devices
    286           *
    287           * @param       logicalType     - Device type to start
    288           *              startMode       - indicates mode of device startup
    289           *              beaconOrder     - indicates time betwen beacons
    290           *              superframeOrder - indicates length of active superframe
    291           *              distributed     - indicates if the network will be formed
    292           *
    293           * @return      none
    294           */

   \                                 In  segment BANKED_CODE, align 1, keep-with-next
    295          void ZDO_StartDevice( byte logicalType, devStartModes_t startMode, byte beaconOrder, byte superframeOrder )
   \                     ZDO_StartDevice:
    296          {
   \   000000                REQUIRE ?V0
   \   000000                REQUIRE ?V1
   \   000000                REQUIRE ?V2
   \   000000                REQUIRE ?V3
   \   000000   74F4         MOV       A,#-0xc
   \   000002   12....       LCALL     ?BANKED_ENTER_XDATA
   \   000005                ; Saved register size: 12
   \   000005                ; Auto size: 0
   \   000005   EA           MOV       A,R2
   \   000006   FF           MOV       R7,A
   \   000007   EB           MOV       A,R3
   \   000008   FE           MOV       R6,A
   \   000009   8C..         MOV       ?V0,R4
    297            ZStatus_t ret;
    298          #if defined ( ZIGBEE_FREQ_AGILITY )
    299            static uint8 discRetries = 0;
    300          #endif
    301          #if defined ( ZIGBEE_COMMISSIONING )
    302            static uint8 scanCnt = 0;
    303          #endif
    304          
    305            ret = ZUnsupportedMode;
    306          
    307            if ( ZG_BUILD_COORDINATOR_TYPE && logicalType == NODETYPE_COORDINATOR )
   \   00000B   E9           MOV       A,R1
   \   00000C   7070         JNZ       ??ZDO_StartDevice_0
    308            {
    309              if ( startMode == MODE_HARD )
   \   00000E   7402         MOV       A,#0x2
   \   000010   6F           XRL       A,R7
   \   000011   7049         JNZ       ??ZDO_StartDevice_1
    310              {
    311                ZDApp_ChangeState( DEV_COORD_STARTING );
   \   000013                ; Setup parameters for call to function ZDApp_ChangeState
   \   000013   7908         MOV       R1,#0x8
   \   000015   12....       LCALL     `??ZDApp_ChangeState::?relay`; Banked call to: ZDApp_ChangeState
    312                ret = NLME_NetworkFormationRequest( zgConfigPANID, zgApsUseExtendedPANID, runtimeChannel,
    313                                                    zgDefaultStartingScanDuration, beaconOrder,
    314                                                    superframeOrder, false, false, 0 );
   \   000018                ; Setup parameters for call to function NLME_NetworkFormationRequest
   \   000018   E4           CLR       A
   \   000019   F5..         MOV       ?V2,A
   \   00001B   F5..         MOV       ?V3,A
   \   00001D   78..         MOV       R0,#?V2
   \   00001F   12....       LCALL     ?PUSH_XSTACK_I_TWO
   \   000022   78..         MOV       R0,#?V2
   \   000024   12....       LCALL     ?PUSH_XSTACK_I_ONE
   \   000027   78..         MOV       R0,#?V2
   \   000029   12....       LCALL     ?PUSH_XSTACK_I_ONE
   \   00002C   E5..         MOV       A,?V0
   \   00002E   F5..         MOV       ?V2,A
   \   000030   78..         MOV       R0,#?V2
   \   000032   12....       LCALL     ?PUSH_XSTACK_I_ONE
   \   000035   EE           MOV       A,R6
   \   000036   F5..         MOV       ?V2,A
   \   000038   78..         MOV       R0,#?V2
   \   00003A   12....       LCALL     ?PUSH_XSTACK_I_ONE
   \   00003D   90....       MOV       DPTR,#runtimeChannel
   \   000040   12....       LCALL     ?PUSH_XSTACK8_X_FOUR
   \   000043   90....       MOV       DPTR,#bdbAttributes + 13
   \   000046   E0           MOVX      A,@DPTR
   \   000047   F9           MOV       R1,A
   \   000048   7C..         MOV       R4,#zgApsUseExtendedPANID & 0xff
   \   00004A   7D..         MOV       R5,#(zgApsUseExtendedPANID >> 8) & 0xff
   \   00004C   90....       MOV       DPTR,#zgConfigPANID
   \   00004F   12....       LCALL     ??Subroutine235_0 & 0xFFFF
    315              }
   \                     ??CrossCallReturnLabel_404:
   \   000052   12....       LCALL     `??NLME_NetworkFormationRequest::?relay`; Banked call to: NLME_NetworkFormationRequest
   \   000055   740A         MOV       A,#0xa
   \   000057   12....       LCALL     ?DEALLOC_XSTACK8
   \   00005A   8012         SJMP      ??ZDO_StartDevice_2
    316              else if ( startMode == MODE_RESUME )
   \                     ??ZDO_StartDevice_1:
   \   00005C   7401         MOV       A,#0x1
   \   00005E   6F           XRL       A,R7
   \   00005F   7012         JNZ       ??ZDO_StartDevice_3
    317              {
    318                // Just start the coordinator
    319                ZDApp_ChangeState( DEV_COORD_STARTING );
   \   000061                ; Setup parameters for call to function ZDApp_ChangeState
   \   000061   7908         MOV       R1,#0x8
   \   000063   12....       LCALL     `??ZDApp_ChangeState::?relay`; Banked call to: ZDApp_ChangeState
    320                ret = NLME_StartRouterRequest( beaconOrder, beaconOrder, false );
   \   000066                ; Setup parameters for call to function NLME_StartRouterRequest
   \   000066   7B00         MOV       R3,#0x0
   \   000068   EE           MOV       A,R6
   \   000069   FA           MOV       R2,A
   \   00006A   F9           MOV       R1,A
   \   00006B   12....       LCALL     `??NLME_StartRouterRequest::?relay`; Banked call to: NLME_StartRouterRequest
   \                     ??ZDO_StartDevice_2:
   \   00006E   E9           MOV       A,R1
    321              }
    322              else
    323              {
    324          #if defined( LCD_SUPPORTED )
    325                HalLcdWriteScreen( "StartDevice ERR", "MODE unknown" );
    326          #endif
    327              }
    328            }
    329          
    330            if ( ZG_BUILD_JOINING_TYPE && (logicalType == NODETYPE_ROUTER || logicalType == NODETYPE_DEVICE) )
    331            {
    332              if ( (startMode == MODE_JOIN) || (startMode == MODE_REJOIN) )
    333              {
    334                if(APSME_IsDistributedSecurity() && (startMode != MODE_REJOIN))
    335                {
    336                        ret = NLME_NetworkFormationRequest( zgConfigPANID, zgApsUseExtendedPANID, runtimeChannel,
    337                                                    zgDefaultStartingScanDuration, beaconOrder,
    338                                                    superframeOrder, false, true, osal_rand() );
    339                  
    340                }
    341                else
    342                {
    343                  ZDApp_ChangeState( DEV_NWK_DISC );
    344          
    345                #if defined( MANAGED_SCAN )
    346                  ZDOManagedScan_Next();
    347                  ret = NLME_NetworkDiscoveryRequest( managedScanChannelMask, BEACON_ORDER_15_MSEC );
    348                #else
    349                  ret = NLME_NetworkDiscoveryRequest( runtimeChannel, zgDefaultStartingScanDuration );
    350                  #if defined ( ZIGBEE_FREQ_AGILITY )
    351                  if ( !( ZDO_Config_Node_Descriptor.CapabilityFlags & CAPINFO_RCVR_ON_IDLE ) &&
    352                      ( ret == ZSuccess ) && ( ++discRetries == 4 ) )
    353                  {
    354                    // For devices with RxOnWhenIdle equals to FALSE, any network channel
    355                    // change will not be recieved. On these devices or routers that have
    356                    // lost the network, an active scan shall be conducted on the Default
    357                    // Channel list using the extended PANID to find the network. If the
    358                    // extended PANID isn't found using the Default Channel list, an scan
    359                    // should be completed using all channels.
    360                    runtimeChannel = MAX_CHANNELS_24GHZ;
    361                  }
    362                  #endif // ZIGBEE_FREQ_AGILITY
    363                  #if defined ( ZIGBEE_COMMISSIONING )
    364                  if (startMode == MODE_REJOIN && scanCnt++ >= 5 )
    365                  {
    366                    // When ApsUseExtendedPanID is commissioned to a non zero value via
    367                    // application specific means, the device shall conduct an active scan
    368                    // on the Default Channel list and join the PAN with the same
    369                    // ExtendedPanID. If the PAN is not found, an scan should be completed
    370                    // on all channels.
    371                    // When devices rejoin the network and the PAN is not found from
    372                    runtimeChannel = MAX_CHANNELS_24GHZ;
    373                  }
    374                  #endif // ZIGBEE_COMMISSIONING
    375                #endif
    376                }
    377              }
    378              else if ( startMode == MODE_RESUME )
    379              {
    380                if ( logicalType == NODETYPE_ROUTER )
    381                {
    382                  uint16 panID;
    383                  
    384                  ZDApp_ChangeState( DEV_NWK_ORPHAN );
    385                  
    386                  // Stop the rejoin timeout
    387                  osal_stop_timerEx( NWK_TaskID, NWK_REJOIN_TIMEOUT_EVT );
    388                  ZMacGetReq( ZMacPanId, (uint8 *)&( panID ) );
    389                  
    390                  _NIB.nwkPanId = panID;
    391                  NLME_JoinConfirm(  _NIB.nwkPanId, ZSuccess );
    392          
    393                  ret = ZSuccess;
    394                }
    395                else
    396                {
    397                  ZDApp_ChangeState( DEV_NWK_ORPHAN );
    398                  //set timer for scan and rejoin
    399                  osal_start_timerEx( ZDAppTaskID, ZDO_REJOIN_BACKOFF, zgDefaultRejoinScan );
    400                  ret = NLME_OrphanJoinRequest( runtimeChannel,
    401                                                zgDefaultStartingScanDuration );
    402                }
    403              }
    404              else
    405              {
    406          #if defined( LCD_SUPPORTED )
    407                HalLcdWriteScreen( "StartDevice ERR", "MODE unknown" );
    408          #endif
    409              }
    410            }
    411          
    412            if ( ret != ZSuccess )
   \   00006F   700D         JNZ       ??ZDO_StartDevice_0
   \   000071   8022         SJMP      ??ZDO_StartDevice_4
   \                     ??ZDO_StartDevice_3:
   \   000073                ; Setup parameters for call to function HalLcdWriteScreen
   \   000073   7C..         MOV       R4,#`?<Constant "MODE unknown">` & 0xff
   \   000075   7D..         MOV       R5,#(`?<Constant "MODE unknown">` >> 8) & 0xff
   \   000077   7A..         MOV       R2,#`?<Constant "StartDevice ERR">` & 0xff
   \   000079   7B..         MOV       R3,#(`?<Constant "StartDevice ERR">` >> 8) & 0xff
   \   00007B   12....       LCALL     `??HalLcdWriteScreen::?relay`; Banked call to: HalLcdWriteScreen
    413            {
    414              osal_start_timerEx(ZDAppTaskID, ZDO_NETWORK_INIT, NWK_RETRY_DELAY );
   \                     ??ZDO_StartDevice_0:
   \   00007E                ; Setup parameters for call to function osal_start_timerEx
   \   00007E   90....       MOV       DPTR,#__Constant_3e8
   \   000081   12....       LCALL     ?PUSH_XSTACK8_X_FOUR
   \   000084   7A01         MOV       R2,#0x1
   \   000086   7B00         MOV       R3,#0x0
   \   000088   90....       MOV       DPTR,#ZDAppTaskID
   \   00008B   E0           MOVX      A,@DPTR
   \   00008C   F9           MOV       R1,A
   \   00008D   12....       LCALL     `??osal_start_timerEx::?relay`; Banked call to: osal_start_timerEx
   \   000090   7404         MOV       A,#0x4
   \   000092   12....       LCALL     ?DEALLOC_XSTACK8
    415            }
    416          }
   \                     ??ZDO_StartDevice_4:
   \   000095   80..         SJMP      ??Subroutine222_0

   \                                 In  segment BANKED_CODE, align 1, keep-with-next
   \                     ??Subroutine222_0:
   \   000000   7F04         MOV       R7,#0x4
   \   000002   02....       LJMP      ?BANKED_LEAVE_XDATA

   \                                 In  segment BANKED_CODE, align 1, keep-with-next
   \                     ??Subroutine235_0:
   \   000000   12....       LCALL     ?Subroutine182 & 0xFFFF
   \                     ??CrossCallReturnLabel_527:
   \   000003   22           RET

   \                                 In  segment BANKED_CODE, align 1, keep-with-next
   \                     ?Subroutine182:
   \   000000   E0           MOVX      A,@DPTR
   \   000001   FA           MOV       R2,A
   \   000002   A3           INC       DPTR
   \   000003   E0           MOVX      A,@DPTR
   \   000004   FB           MOV       R3,A
   \   000005   22           RET
    417          
    418          /**************************************************************************************************
    419           * @fn          zdoSendStateChangeMsg
    420           *
    421           * @brief       Helper function for ZDO_UpdateNwkStatus.
    422           *
    423           * input parameters
    424           *
    425           * @param       taskId - The OSAL task identifier to which to send the ZDO_STATE_CHANGE_EVT.
    426           * @param       state - The current device state.
    427           *
    428           * output parameters
    429           *
    430           * None.
    431           *
    432           * @return      None.
    433           **************************************************************************************************
    434           */

   \                                 In  segment BANKED_CODE, align 1, keep-with-next
    435          static void zdoSendStateChangeMsg(uint8 state, uint8 taskId)
   \                     zdoSendStateChangeMsg:
    436          {
   \   000000                REQUIRE ?V0
   \   000000                REQUIRE ?V1
   \   000000   74F6         MOV       A,#-0xa
   \   000002   12....       LCALL     ?BANKED_ENTER_XDATA
   \   000005                ; Saved register size: 10
   \   000005                ; Auto size: 0
   \   000005   E9           MOV       A,R1
   \   000006   FF           MOV       R7,A
   \   000007   EA           MOV       A,R2
   \   000008   FE           MOV       R6,A
    437            osal_event_hdr_t *pMsg = (osal_event_hdr_t *)osal_msg_find(taskId, ZDO_STATE_CHANGE);
   \   000009                ; Setup parameters for call to function osal_msg_find
   \   000009   7AD1         MOV       R2,#-0x2f
   \   00000B   F9           MOV       R1,A
   \   00000C   12....       LCALL     `??osal_msg_find::?relay`; Banked call to: osal_msg_find
   \   00000F   8A82         MOV       DPL,R2
   \   000011   8B83         MOV       DPH,R3
    438          
    439            if (NULL == pMsg)
   \   000013   E582         MOV       A,DPL
   \   000015   4583         ORL       A,DPH
   \   000017   702A         JNZ       ??zdoSendStateChangeMsg_0
    440            {
    441              if (NULL == (pMsg = (osal_event_hdr_t *)osal_msg_allocate(sizeof(osal_event_hdr_t))))
   \   000019                ; Setup parameters for call to function osal_msg_allocate
   \   000019   7A02         MOV       R2,#0x2
   \   00001B   7B00         MOV       R3,#0x0
   \   00001D   12....       LCALL     `??osal_msg_allocate::?relay`; Banked call to: osal_msg_allocate
   \   000020   EA           MOV       A,R2
   \   000021   4B           ORL       A,R3
   \   000022   700E         JNZ       ??zdoSendStateChangeMsg_1
    442              {
    443                // Upon failure to notify any EndPoint of the state change, re-set the ZDO event to
    444                // try again later when more Heap may be available.
    445                osal_set_event(ZDAppTaskID, ZDO_STATE_CHANGE_EVT);
   \   000024                ; Setup parameters for call to function osal_set_event
   \   000024   7A10         MOV       R2,#0x10
   \   000026   7B00         MOV       R3,#0x0
   \   000028   90....       MOV       DPTR,#ZDAppTaskID
   \   00002B   E0           MOVX      A,@DPTR
   \   00002C   F9           MOV       R1,A
   \   00002D   12....       LCALL     `??osal_set_event::?relay`; Banked call to: osal_set_event
   \   000030   8014         SJMP      ??zdoSendStateChangeMsg_2
    446              }
    447              else
    448              {
    449                pMsg->event = ZDO_STATE_CHANGE;
   \                     ??zdoSendStateChangeMsg_1:
   \   000032   8A82         MOV       DPL,R2
   \   000034   8B83         MOV       DPH,R3
   \   000036   74D1         MOV       A,#-0x2f
   \   000038   F0           MOVX      @DPTR,A
    450                pMsg->status = state;
   \   000039   EF           MOV       A,R7
   \   00003A   A3           INC       DPTR
   \   00003B   F0           MOVX      @DPTR,A
    451          
    452                (void)osal_msg_send(taskId, (uint8 *)pMsg);
   \   00003C                ; Setup parameters for call to function osal_msg_send
   \   00003C   EE           MOV       A,R6
   \   00003D   F9           MOV       R1,A
   \   00003E   12....       LCALL     `??osal_msg_send::?relay`; Banked call to: osal_msg_send
   \   000041   8003         SJMP      ??zdoSendStateChangeMsg_2
    453              }
    454            }
    455            else
    456            {
    457              // Modify in place the status of an existing ZDO_STATE_CHANGE message to the EndPoint.
    458              pMsg->status = state;
   \                     ??zdoSendStateChangeMsg_0:
   \   000043   EF           MOV       A,R7
   \   000044   A3           INC       DPTR
   \   000045   F0           MOVX      @DPTR,A
    459            }
    460          }
   \                     ??zdoSendStateChangeMsg_2:
   \   000046   02....       LJMP      ??Subroutine227_0 & 0xFFFF

   \                                 In  segment BANKED_CODE, align 1, keep-with-next
   \                     ??Subroutine227_0:
   \   000000   7F02         MOV       R7,#0x2
   \   000002   02....       LJMP      ?BANKED_LEAVE_XDATA
    461          
    462          /**************************************************************************************************
    463           * @fn          ZDO_UpdateNwkStatus
    464           *
    465           * @brief       This function sends a ZDO_STATE_CHANGE message to the task of every EndPoint
    466           *              registered with AF (except, of course, the ZDO_EP). Even if a single task has more
    467           *              than one registered EndPoint, it will only receive one notification per state
    468           *              change. Although the device may go through a sequence of state changes, the
    469           *              Application task may only receive notification of the final, steady-state state
    470           *              because it has the lowest priority and never even runs to receive the intermediate
    471           *              state change notifications.
    472           *
    473           * input parameters
    474           *
    475           * @param       state - The current device state.
    476           *
    477           * output parameters
    478           *
    479           * None.
    480           *
    481           * @return      None.
    482           **************************************************************************************************
    483           */

   \                                 In  segment BANKED_CODE, align 1, keep-with-next
    484          void ZDO_UpdateNwkStatus(devStates_t state)
   \                     ZDO_UpdateNwkStatus:
    485          {
   \   000000                REQUIRE ?V0
   \   000000   74F7         MOV       A,#-0x9
   \   000002   12....       LCALL     ?BANKED_ENTER_XDATA
   \   000005                ; Saved register size: 9
   \   000005                ; Auto size: 0
   \   000005   89..         MOV       ?V0,R1
    486            epList_t *pItem = epList;
   \   000007   90....       MOV       DPTR,#epList
   \   00000A   801A         SJMP      ??ZDO_UpdateNwkStatus_0
    487          
    488          #if defined MT_ZDO_CB_FUNC
    489            if ( zdpExternalStateTaskID == -1 )
    490            {
    491              zdpExternalStateTaskID = MT_TaskID;
    492            }
    493          #endif
    494          
    495            while (pItem != NULL)
    496            {
    497              if (pItem->epDesc->endPoint != ZDO_EP)
   \                     ??ZDO_UpdateNwkStatus_1:
   \   00000C   8E82         MOV       DPL,R6
   \   00000E   8F83         MOV       DPH,R7
   \   000010   A3           INC       DPTR
   \   000011   A3           INC       DPTR
   \   000012   12....       LCALL     ?Subroutine107 & 0xFFFF
   \                     ??CrossCallReturnLabel_175:
   \   000015   600B         JZ        ??ZDO_UpdateNwkStatus_2
    498              {
    499                zdoSendStateChangeMsg(state, *(pItem->epDesc->task_id));
   \   000017                ; Setup parameters for call to function zdoSendStateChangeMsg
   \   000017   A3           INC       DPTR
   \   000018   A3           INC       DPTR
   \   000019   12....       LCALL     ??Subroutine244_0 & 0xFFFF
    500              }
   \                     ??CrossCallReturnLabel_476:
   \   00001C   FA           MOV       R2,A
   \   00001D   A9..         MOV       R1,?V0
   \   00001F   12....       LCALL     `??zdoSendStateChangeMsg::?relay`; Banked call to: zdoSendStateChangeMsg
    501          
    502              pItem = pItem->nextDesc;
   \                     ??ZDO_UpdateNwkStatus_2:
   \   000022   8E82         MOV       DPL,R6
   \   000024   8F83         MOV       DPH,R7
    503            }
   \                     ??ZDO_UpdateNwkStatus_0:
   \   000026   12....       LCALL     ??Subroutine267_0 & 0xFFFF
   \                     ??CrossCallReturnLabel_586:
   \   000029   EE           MOV       A,R6
   \   00002A   4F           ORL       A,R7
   \   00002B   70DF         JNZ       ??ZDO_UpdateNwkStatus_1
    504          
    505            if ( zdpExternalStateTaskID != -1 )
   \   00002D   90....       MOV       DPTR,#zdpExternalStateTaskID
   \   000030   E0           MOVX      A,@DPTR
   \   000031   F4           CPL       A
   \   000032   7003         JNZ       ??ZDO_UpdateNwkStatus_3
   \   000034   A3           INC       DPTR
   \   000035   E0           MOVX      A,@DPTR
   \   000036   F4           CPL       A
   \                     ??ZDO_UpdateNwkStatus_3:
   \   000037   600A         JZ        ??ZDO_UpdateNwkStatus_4
    506            {
    507              zdoSendStateChangeMsg( state, zdpExternalStateTaskID );
   \   000039                ; Setup parameters for call to function zdoSendStateChangeMsg
   \   000039   90....       MOV       DPTR,#zdpExternalStateTaskID
   \   00003C   E0           MOVX      A,@DPTR
   \   00003D   FA           MOV       R2,A
   \   00003E   A9..         MOV       R1,?V0
   \   000040   12....       LCALL     `??zdoSendStateChangeMsg::?relay`; Banked call to: zdoSendStateChangeMsg
    508            }
    509          
    510            ZDAppNwkAddr.addr.shortAddr = NLME_GetShortAddr();
   \                     ??ZDO_UpdateNwkStatus_4:
   \   000043                ; Setup parameters for call to function NLME_GetShortAddr
   \   000043   12....       LCALL     `??NLME_GetShortAddr::?relay`; Banked call to: NLME_GetShortAddr
   \   000046   90....       MOV       DPTR,#ZDAppNwkAddr
   \   000049   12....       LCALL     ?Subroutine41 & 0xFFFF
    511            (void)NLME_GetExtAddr();  // Load the saveExtAddr pointer.
   \                     ??CrossCallReturnLabel_365:
   \   00004C                ; Setup parameters for call to function NLME_GetExtAddr
   \   00004C   12....       LCALL     `??NLME_GetExtAddr::?relay`; Banked call to: NLME_GetExtAddr
    512          }
   \   00004F                REQUIRE ?Subroutine3
   \   00004F                ; // Fall through to label ?Subroutine3

   \                                 In  segment BANKED_CODE, align 1, keep-with-next
   \                     ?Subroutine3:
   \   000000   7F01         MOV       R7,#0x1
   \   000002   02....       LJMP      ?BANKED_LEAVE_XDATA

   \                                 In  segment BANKED_CODE, align 1, keep-with-next
   \                     ?Subroutine107:
   \   000000   12....       LCALL     ?Subroutine196 & 0xFFFF
   \                     ??CrossCallReturnLabel_324:
   \   000003   E0           MOVX      A,@DPTR
   \   000004   22           RET

   \                                 In  segment BANKED_CODE, align 1, keep-with-next
   \                     ?Subroutine196:
   \   000000   12....       LCALL     ?Subroutine217 & 0xFFFF
   \                     ??CrossCallReturnLabel_349:
   \   000003   22           RET

   \                                 In  segment BANKED_CODE, align 1, keep-with-next
   \                     ?Subroutine217:
   \   000000   12....       LCALL     ?Subroutine221 & 0xFFFF
   \                     ??CrossCallReturnLabel_749:
   \   000003   8882         MOV       DPL,R0
   \   000005   F583         MOV       DPH,A
   \   000007   22           RET

   \                                 In  segment BANKED_CODE, align 1, keep-with-next
   \                     ?Subroutine41:
   \   000000   EA           MOV       A,R2
   \   000001                REQUIRE ??Subroutine230_0
   \   000001                ; // Fall through to label ??Subroutine230_0

   \                                 In  segment BANKED_CODE, align 1, keep-with-next
   \                     ??Subroutine230_0:
   \   000000   12....       LCALL     ??Subroutine247_0 & 0xFFFF
   \                     ??CrossCallReturnLabel_689:
   \   000003   22           RET

   \                                 In  segment BANKED_CODE, align 1, keep-with-next
   \                     ??Subroutine244_0:
   \   000000   E0           MOVX      A,@DPTR
   \   000001                REQUIRE ??Subroutine245_0
   \   000001                ; // Fall through to label ??Subroutine245_0

   \                                 In  segment BANKED_CODE, align 1, keep-with-next
   \                     ??Subroutine245_0:
   \   000000   12....       LCALL     ?Subroutine216 & 0xFFFF
   \                     ??CrossCallReturnLabel_486:
   \   000003   22           RET

   \                                 In  segment BANKED_CODE, align 1, keep-with-next
   \                     ?Subroutine216:
   \   000000   F8           MOV       R0,A
   \   000001   A3           INC       DPTR
   \   000002   E0           MOVX      A,@DPTR
   \   000003   F583         MOV       DPH,A
   \   000005   8882         MOV       DPL,R0
   \   000007   E0           MOVX      A,@DPTR
   \   000008   22           RET

   \                                 In  segment BANKED_CODE, align 1, keep-with-next
   \                     ??Subroutine247_0:
   \   000000   F0           MOVX      @DPTR,A
   \   000001   A3           INC       DPTR
   \   000002   EB           MOV       A,R3
   \   000003   F0           MOVX      @DPTR,A
   \   000004   22           RET

   \                                 In  segment BANKED_CODE, align 1, keep-with-next
   \                     ?Subroutine221:
   \   000000   E0           MOVX      A,@DPTR
   \   000001   F8           MOV       R0,A
   \   000002   A3           INC       DPTR
   \   000003   E0           MOVX      A,@DPTR
   \   000004   22           RET

   \                                 In  segment BANKED_CODE, align 1, keep-with-next
   \                     ??Subroutine267_0:
   \   000000   12....       LCALL     ??Subroutine269_0 & 0xFFFF
   \                     ??CrossCallReturnLabel_598:
   \   000003   22           RET

   \                                 In  segment BANKED_CODE, align 1, keep-with-next
   \                     ??Subroutine269_0:
   \   000000   E0           MOVX      A,@DPTR
   \   000001   FE           MOV       R6,A
   \   000002   A3           INC       DPTR
   \   000003   E0           MOVX      A,@DPTR
   \   000004   FF           MOV       R7,A
   \   000005   22           RET
    513          
    514          #if defined ( REFLECTOR )
    515          /*********************************************************************
    516           * @fn          ZDO_RemoveEndDeviceBind
    517           *
    518           * @brief       Remove the end device bind
    519           *
    520           * @param  none
    521           *
    522           * @return      none
    523           */
    524          static void ZDO_RemoveEndDeviceBind( void )
    525          {
    526            if ( ZDO_EDBind != NULL )
    527            {
    528              // Free the RAM
    529              if ( ZDO_EDBind->inClusters != NULL )
    530              {
    531                osal_mem_free( ZDO_EDBind->inClusters );
    532              }
    533              if ( ZDO_EDBind->outClusters != NULL )
    534              {
    535                osal_mem_free( ZDO_EDBind->outClusters );
    536              }
    537              osal_mem_free( ZDO_EDBind );
    538              ZDO_EDBind = NULL;
    539            }
    540          }
    541          #endif // REFLECTOR
    542          
    543          #if defined ( REFLECTOR )
    544          /*********************************************************************
    545           * @fn          ZDO_SendEDBindRsp
    546           *
    547           * @brief       Send the end device bind response
    548           *
    549           * @param  none
    550           *
    551           * @return      none
    552           */
    553          static void ZDO_SendEDBindRsp( byte TransSeq, zAddrType_t *dstAddr, byte Status, byte secUse )
    554          {
    555            ZDP_EndDeviceBindRsp( TransSeq, dstAddr, Status, secUse );
    556          
    557          #if defined( LCD_SUPPORTED )
    558            HalLcdWriteString( "End Device Bind", HAL_LCD_LINE_1 );
    559            if ( Status == ZDP_SUCCESS )
    560            {
    561              HalLcdWriteString( "Success Sent", HAL_LCD_LINE_2 );
    562            }
    563            else
    564            {
    565              HalLcdWriteString( "Timeout", HAL_LCD_LINE_2 );
    566            }
    567          #endif
    568          
    569          }
    570          #endif // REFLECTOR
    571          
    572          #if ( ZG_BUILD_COORDINATOR_TYPE )
    573          /*********************************************************************
    574           * @fn          ZDO_CompareClusterLists
    575           *
    576           * @brief       Compare one list to another list
    577           *
    578           * @param       numList1 - number of items in list 1
    579           * @param       list1 - first list of cluster IDs
    580           * @param       numList2 - number of items in list 2
    581           * @param       list2 - second list of cluster IDs
    582           * @param       pMatches - buffer to put matches
    583           *
    584           * @return      number of matches
    585           */

   \                                 In  segment BANKED_CODE, align 1, keep-with-next
    586          static byte ZDO_CompareClusterLists( byte numList1, uint16 *list1,
   \                     ZDO_CompareClusterLists:
    587                                    byte numList2, uint16 *list2, uint16 *pMatches )
    588          {
   \   000000                REQUIRE ?V0
   \   000000                REQUIRE ?V1
   \   000000                REQUIRE ?V2
   \   000000                REQUIRE ?V3
   \   000000                REQUIRE ?V4
   \   000000                REQUIRE ?V6
   \   000000                REQUIRE ?V7
   \   000000   74F0         MOV       A,#-0x10
   \   000002   12....       LCALL     ?BANKED_ENTER_XDATA
   \   000005                ; Saved register size: 16
   \   000005                ; Auto size: 0
   \   000005   89..         MOV       ?V0,R1
   \   000007   8A..         MOV       ?V6,R2
   \   000009   8B..         MOV       ?V7,R3
   \   00000B   8C..         MOV       ?V4,R4
    589            byte x, y;
    590            uint16 z;
    591            byte numMatches = 0;
   \   00000D   7A00         MOV       R2,#0x0
    592          
    593            // Check the first in against the seconds out
    594            for ( x = 0; x < numList1; x++ )
   \   00000F   7B00         MOV       R3,#0x0
   \   000011   7410         MOV       A,#0x10
   \   000013   12....       LCALL     ?XSTACK_DISP0_8
   \   000016   12....       LCALL     ??Subroutine243_0 & 0xFFFF
   \                     ??CrossCallReturnLabel_469:
   \   000019   7412         MOV       A,#0x12
   \   00001B   12....       LCALL     ?XSTACK_DISP0_8
   \   00001E   12....       LCALL     ??Subroutine267_0 & 0xFFFF
   \                     ??CrossCallReturnLabel_587:
   \   000021   804B         SJMP      ??ZDO_CompareClusterLists_0
    595            {
    596              for ( y = 0; y < numList2; y++ )
    597              {
    598                z = list2[y];
   \                     ??ZDO_CompareClusterLists_1:
   \   000023   A8..         MOV       R0,?V1
   \   000025   12....       LCALL     ?Subroutine197 & 0xFFFF
   \                     ??CrossCallReturnLabel_325:
   \   000028   EC           MOV       A,R4
   \   000029   28           ADD       A,R0
   \   00002A   F582         MOV       DPL,A
   \   00002C   ED           MOV       A,R5
   \   00002D   39           ADDC      A,R1
   \   00002E   F583         MOV       DPH,A
   \   000030   E0           MOVX      A,@DPTR
   \   000031   F5..         MOV       ?V2,A
   \   000033   A3           INC       DPTR
   \   000034   E0           MOVX      A,@DPTR
   \   000035   F5..         MOV       ?V3,A
    599                if ( list1[x] == z )
   \   000037   EB           MOV       A,R3
   \   000038   12....       LCALL     ?Subroutine131 & 0xFFFF
   \                     ??CrossCallReturnLabel_219:
   \   00003B   E5..         MOV       A,?V6
   \   00003D   28           ADD       A,R0
   \   00003E   F582         MOV       DPL,A
   \   000040   E5..         MOV       A,?V7
   \   000042   39           ADDC      A,R1
   \   000043   F583         MOV       DPH,A
   \   000045   E0           MOVX      A,@DPTR
   \   000046   65..         XRL       A,?V2
   \   000048   7004         JNZ       ??ZDO_CompareClusterLists_2
   \   00004A   A3           INC       DPTR
   \   00004B   E0           MOVX      A,@DPTR
   \   00004C   65..         XRL       A,?V3
   \                     ??ZDO_CompareClusterLists_2:
   \   00004E   7014         JNZ       ??ZDO_CompareClusterLists_3
    600                {
    601                  pMatches[numMatches++] = z;
   \   000050   EA           MOV       A,R2
   \   000051   12....       LCALL     ?Subroutine131 & 0xFFFF
    602                }
    603              }
   \                     ??CrossCallReturnLabel_220:
   \   000054   EE           MOV       A,R6
   \   000055   28           ADD       A,R0
   \   000056   F582         MOV       DPL,A
   \   000058   EF           MOV       A,R7
   \   000059   39           ADDC      A,R1
   \   00005A   F583         MOV       DPH,A
   \   00005C   E5..         MOV       A,?V2
   \   00005E   F0           MOVX      @DPTR,A
   \   00005F   A3           INC       DPTR
   \   000060   E5..         MOV       A,?V3
   \   000062   F0           MOVX      @DPTR,A
   \   000063   0A           INC       R2
   \                     ??ZDO_CompareClusterLists_3:
   \   000064   05..         INC       ?V1
   \                     ??ZDO_CompareClusterLists_4:
   \   000066   E5..         MOV       A,?V1
   \   000068   C3           CLR       C
   \   000069   95..         SUBB      A,?V4
   \   00006B   40B6         JC        ??ZDO_CompareClusterLists_1
   \   00006D   0B           INC       R3
   \                     ??ZDO_CompareClusterLists_0:
   \   00006E   EB           MOV       A,R3
   \   00006F   C3           CLR       C
   \   000070   95..         SUBB      A,?V0
   \   000072   5005         JNC       ??ZDO_CompareClusterLists_5
   \   000074   75..00       MOV       ?V1,#0x0
   \   000077   80ED         SJMP      ??ZDO_CompareClusterLists_4
    604            }
    605          
    606            return ( numMatches );
   \                     ??ZDO_CompareClusterLists_5:
   \   000079   EA           MOV       A,R2
   \   00007A   F9           MOV       R1,A
   \   00007B   80..         SJMP      ??Subroutine224_0
    607          }

   \                                 In  segment BANKED_CODE, align 1, keep-with-next
   \                     ??Subroutine224_0:
   \   000000   7F08         MOV       R7,#0x8
   \   000002   02....       LJMP      ?BANKED_LEAVE_XDATA

   \                                 In  segment BANKED_CODE, align 1, keep-with-next
   \                     ?Subroutine131:
   \   000000   25E0         ADD       A,0xE0 /* A   */
   \   000002   F8           MOV       R0,A
   \   000003   E4           CLR       A
   \   000004   33           RLC       A
   \   000005   F9           MOV       R1,A
   \   000006   22           RET

   \                                 In  segment BANKED_CODE, align 1, keep-with-next
   \                     ??Subroutine243_0:
   \   000000   E0           MOVX      A,@DPTR
   \   000001   FC           MOV       R4,A
   \   000002   A3           INC       DPTR
   \   000003   E0           MOVX      A,@DPTR
   \   000004   FD           MOV       R5,A
   \   000005   22           RET

   \                                 In  segment BANKED_CODE, align 1, keep-with-next
   \                     ?Subroutine197:
   \   000000   E8           MOV       A,R0
   \   000001   28           ADD       A,R0
   \   000002   F8           MOV       R0,A
   \   000003   E4           CLR       A
   \   000004   33           RLC       A
   \   000005   F9           MOV       R1,A
   \   000006   22           RET
    608          #endif // ZG_BUILD_COORDINATOR_TYPE
    609          
    610          /*********************************************************************
    611           * Utility functions
    612           */
    613          
    614          /*********************************************************************
    615           * @fn          ZDO_CompareByteLists
    616           *
    617           * @brief       Compares two lists for matches.
    618           *
    619           * @param       ACnt  - number of entries in list A
    620           * @param       AList  - List A
    621           * @param       BCnt  - number of entries in list B
    622           * @param       BList  - List B
    623           *
    624           * @return      true if a match is found
    625           */

   \                                 In  segment BANKED_CODE, align 1, keep-with-next
    626          byte ZDO_AnyClusterMatches( byte ACnt, uint16 *AList, byte BCnt, uint16 *BList )
   \                     ZDO_AnyClusterMatches:
    627          {
   \   000000                REQUIRE ?V0
   \   000000                REQUIRE ?V1
   \   000000                REQUIRE ?V2
   \   000000                REQUIRE ?V3
   \   000000   74F4         MOV       A,#-0xc
   \   000002   12....       LCALL     ?BANKED_ENTER_XDATA
   \   000005                ; Saved register size: 12
   \   000005                ; Auto size: 0
   \   000005   E9           MOV       A,R1
   \   000006   FE           MOV       R6,A
   \   000007   8C..         MOV       ?V2,R4
    628            byte x, y;
    629          
    630            for ( x = 0; x < ACnt; x++ )
   \   000009   7F00         MOV       R7,#0x0
   \   00000B   740C         MOV       A,#0xc
   \   00000D   12....       LCALL     ?XSTACK_DISP0_8
   \   000010   12....       LCALL     ??Subroutine241_0 & 0xFFFF
   \                     ??CrossCallReturnLabel_438:
   \   000013   8001         SJMP      ??ZDO_AnyClusterMatches_0
   \                     ??ZDO_AnyClusterMatches_1:
   \   000015   0F           INC       R7
   \                     ??ZDO_AnyClusterMatches_0:
   \   000016   EF           MOV       A,R7
   \   000017   C3           CLR       C
   \   000018   9E           SUBB      A,R6
   \   000019   503A         JNC       ??ZDO_AnyClusterMatches_2
    631            {
    632              for ( y = 0; y < BCnt; y++ )
   \   00001B   75..00       MOV       ?V3,#0x0
   \   00001E   8002         SJMP      ??ZDO_AnyClusterMatches_3
   \                     ??ZDO_AnyClusterMatches_4:
   \   000020   05..         INC       ?V3
   \                     ??ZDO_AnyClusterMatches_3:
   \   000022   E5..         MOV       A,?V3
   \   000024   C3           CLR       C
   \   000025   95..         SUBB      A,?V2
   \   000027   50EC         JNC       ??ZDO_AnyClusterMatches_1
    633              {
    634                if ( AList[x] == BList[y] )
   \   000029   EF           MOV       A,R7
   \   00002A   12....       LCALL     ??Subroutine283_0 & 0xFFFF
   \                     ??CrossCallReturnLabel_681:
   \   00002D   EA           MOV       A,R2
   \   00002E   2C           ADD       A,R4
   \   00002F   F582         MOV       DPL,A
   \   000031   EB           MOV       A,R3
   \   000032   3D           ADDC      A,R5
   \   000033   12....       LCALL     ?Subroutine97 & 0xFFFF
   \                     ??CrossCallReturnLabel_355:
   \   000036   AC..         MOV       R4,?V3
   \   000038   EC           MOV       A,R4
   \   000039   2C           ADD       A,R4
   \   00003A   FC           MOV       R4,A
   \   00003B   E4           CLR       A
   \   00003C   33           RLC       A
   \   00003D   FD           MOV       R5,A
   \   00003E   E8           MOV       A,R0
   \   00003F   2C           ADD       A,R4
   \   000040   F582         MOV       DPL,A
   \   000042   E9           MOV       A,R1
   \   000043   3D           ADDC      A,R5
   \   000044   F583         MOV       DPH,A
   \   000046   E0           MOVX      A,@DPTR
   \   000047   65..         XRL       A,?V0
   \   000049   7004         JNZ       ??ZDO_AnyClusterMatches_5
   \   00004B   A3           INC       DPTR
   \   00004C   E0           MOVX      A,@DPTR
   \   00004D   65..         XRL       A,?V1
   \                     ??ZDO_AnyClusterMatches_5:
   \   00004F   70CF         JNZ       ??ZDO_AnyClusterMatches_4
    635                {
    636                  return true;
   \   000051   7901         MOV       R1,#0x1
   \   000053   8002         SJMP      ??ZDO_AnyClusterMatches_6
    637                }
    638              }
    639            }
    640          
    641            return false;
   \                     ??ZDO_AnyClusterMatches_2:
   \   000055   7900         MOV       R1,#0x0
   \                     ??ZDO_AnyClusterMatches_6:
   \   000057   02....       LJMP      ??Subroutine222_0 & 0xFFFF
    642          }

   \                                 In  segment BANKED_CODE, align 1, keep-with-next
   \                     ?Subroutine97:
   \   000000   F583         MOV       DPH,A
   \   000002                REQUIRE ??Subroutine225_0
   \   000002                ; // Fall through to label ??Subroutine225_0

   \                                 In  segment BANKED_CODE, align 1, keep-with-next
   \                     ??Subroutine225_0:
   \   000000   12....       LCALL     ?Subroutine191 & 0xFFFF
   \                     ??CrossCallReturnLabel_537:
   \   000003   22           RET

   \                                 In  segment BANKED_CODE, align 1, keep-with-next
   \                     ?Subroutine191:
   \   000000   E0           MOVX      A,@DPTR
   \   000001   F5..         MOV       ?V0,A
   \   000003   A3           INC       DPTR
   \   000004   E0           MOVX      A,@DPTR
   \   000005   F5..         MOV       ?V1,A
   \   000007   22           RET

   \                                 In  segment BANKED_CODE, align 1, keep-with-next
   \                     ??Subroutine241_0:
   \   000000   12....       LCALL     ??Subroutine262_0 & 0xFFFF
   \                     ??CrossCallReturnLabel_562:
   \   000003   22           RET

   \                                 In  segment BANKED_CODE, align 1, keep-with-next
   \                     ??Subroutine262_0:
   \   000000   12....       LCALL     ?Subroutine221 & 0xFFFF
   \                     ??CrossCallReturnLabel_751:
   \   000003   F9           MOV       R1,A
   \   000004   22           RET

   \                                 In  segment BANKED_CODE, align 1, keep-with-next
   \                     ??Subroutine283_0:
   \   000000   25E0         ADD       A,0xE0 /* A   */
   \   000002   FC           MOV       R4,A
   \   000003   E4           CLR       A
   \   000004   33           RLC       A
   \   000005   FD           MOV       R5,A
   \   000006   22           RET
    643          
    644          /*********************************************************************
    645           * Callback functions from ZDProfile
    646           */
    647          
    648          
    649          /*********************************************************************
    650           * @fn          ZDO_ProcessNodeDescRsp
    651           *
    652           * @brief       This function processes the Node_Desc_rsp and request
    653           *              Update the TC Link key if the TC supports it.
    654           *
    655           * @param       inMsg - incoming message
    656           *
    657           * @return      none
    658           */

   \                                 In  segment BANKED_CODE, align 1, keep-with-next
    659          void ZDO_ProcessNodeDescRsp ( zdoIncomingMsg_t *inMsg )
   \                     ZDO_ProcessNodeDescRsp:
    660          {
   \   000000                ; Saved register size: 0
   \   000000                ; Auto size: 0
    661          }
   \   000000   02....       LJMP      ?BRET
    662          
    663          
    664          
    665          /*********************************************************************
    666           * @fn          ZDO_ProcessNodeDescReq
    667           *
    668           * @brief       This function processes and responds to the
    669           *              Node_Desc_req message.
    670           *
    671           * @param       inMsg - incoming message
    672           *
    673           * @return      none
    674           */

   \                                 In  segment BANKED_CODE, align 1, keep-with-next
    675          void ZDO_ProcessNodeDescReq( zdoIncomingMsg_t *inMsg )
   \                     ZDO_ProcessNodeDescReq:
    676          {
   \   000000                REQUIRE ?V0
   \   000000                REQUIRE ?V1
   \   000000   74F6         MOV       A,#-0xa
   \   000002   12....       LCALL     ?BANKED_ENTER_XDATA
   \   000005                ; Saved register size: 10
   \   000005                ; Auto size: 0
   \   000005   12....       LCALL     ?Subroutine60 & 0xFFFF
    677            uint16 aoi = BUILD_UINT16( inMsg->asdu[0], inMsg->asdu[1] );
    678            NodeDescriptorFormat_t *desc = NULL;
    679          
    680            if ( aoi == ZDAppNwkAddr.addr.shortAddr )
   \                     ??CrossCallReturnLabel_94:
   \   000008   7003         JNZ       ??ZDO_ProcessNodeDescReq_0
   \   00000A   A3           INC       DPTR
   \   00000B   E0           MOVX      A,@DPTR
   \   00000C   6D           XRL       A,R5
   \                     ??ZDO_ProcessNodeDescReq_0:
   \   00000D   7017         JNZ       ??ZDO_ProcessNodeDescReq_1
    681            {
    682              desc = &ZDO_Config_Node_Descriptor;
    683            }
    684          
    685            if ( desc != NULL )
    686            {
    687              ZDP_NodeDescMsg( inMsg, aoi, desc );
   \   00000F                ; Setup parameters for call to function ZDP_NodeDescMsg
   \   00000F   75....       MOV       ?V0,#ZDO_Config_Node_Descriptor & 0xff
   \   000012   75....       MOV       ?V1,#(ZDO_Config_Node_Descriptor >> 8) & 0xff
   \   000015   78..         MOV       R0,#?V0
   \   000017   12....       LCALL     ?PUSH_XSTACK_I_TWO
   \   00001A   EE           MOV       A,R6
   \   00001B   FA           MOV       R2,A
   \   00001C   12....       LCALL     `??ZDP_NodeDescMsg::?relay`; Banked call to: ZDP_NodeDescMsg
   \   00001F   7402         MOV       A,#0x2
   \   000021   12....       LCALL     ?DEALLOC_XSTACK8
   \   000024   801A         SJMP      ??ZDO_ProcessNodeDescReq_2
    688            }
    689            else
    690            {
    691              ZDP_GenericRsp( inMsg->TransSeq, &(inMsg->srcAddr),
    692                        ZDP_INVALID_REQTYPE, aoi, Node_Desc_rsp, inMsg->SecurityUse );
   \                     ??ZDO_ProcessNodeDescReq_1:
   \   000026                ; Setup parameters for call to function ZDP_GenericRsp
   \   000026   75..02       MOV       ?V0,#0x2
   \   000029   75..80       MOV       ?V1,#-0x80
   \   00002C   78..         MOV       R0,#?V0
   \   00002E   12....       LCALL     ?PUSH_XSTACK_I_TWO
   \   000031   8A..         MOV       ?V0,R2
   \   000033   89..         MOV       ?V1,R1
   \   000035   78..         MOV       R0,#?V0
   \   000037   12....       LCALL     ?PUSH_XSTACK_I_TWO
   \   00003A   12....       LCALL     ?Subroutine61 & 0xFFFF
    693            }
   \                     ??CrossCallReturnLabel_96:
   \   00003D   12....       LCALL     ?DEALLOC_XSTACK8
    694          }
   \                     ??ZDO_ProcessNodeDescReq_2:
   \   000040   80..         SJMP      ??Subroutine227_0

   \                                 In  segment BANKED_CODE, align 1, keep-with-next
   \                     ?Subroutine61:
   \   000000   EE           MOV       A,R6
   \   000001   240E         ADD       A,#0xe
   \   000003   12....       LCALL     ?Subroutine199 & 0xFFFF
   \                     ??CrossCallReturnLabel_662:
   \   000006   FD           MOV       R5,A
   \   000007   7C80         MOV       R4,#-0x80
   \   000009   12....       LCALL     ?Subroutine201 & 0xFFFF
   \                     ??CrossCallReturnLabel_337:
   \   00000C   EE           MOV       A,R6
   \   00000D   240F         ADD       A,#0xf
   \   00000F   12....       LCALL     ?Subroutine199 & 0xFFFF
   \                     ??CrossCallReturnLabel_663:
   \   000012   F9           MOV       R1,A
   \   000013   12....       LCALL     `??ZDP_GenericRsp::?relay`; Banked call to: ZDP_GenericRsp
   \   000016   7404         MOV       A,#0x4
   \   000018   22           RET

   \                                 In  segment BANKED_CODE, align 1, keep-with-next
   \                     ?Subroutine60:
   \   000000   12....       LCALL     ?Subroutine204 & 0xFFFF
   \                     ??CrossCallReturnLabel_422:
   \   000003   3F           ADDC      A,R7
   \   000004   12....       LCALL     ?Subroutine181 & 0xFFFF
   \                     ??CrossCallReturnLabel_310:
   \   000007   FC           MOV       R4,A
   \   000008   E4           CLR       A
   \   000009   39           ADDC      A,R1
   \   00000A   FD           MOV       R5,A
   \   00000B   90....       MOV       DPTR,#ZDAppNwkAddr
   \   00000E   E0           MOVX      A,@DPTR
   \   00000F   6C           XRL       A,R4
   \   000010   22           RET

   \                                 In  segment BANKED_CODE, align 1, keep-with-next
   \                     ?Subroutine201:
   \   000000   EE           MOV       A,R6
   \   000001   2402         ADD       A,#0x2
   \   000003   FA           MOV       R2,A
   \   000004   E4           CLR       A
   \   000005   3F           ADDC      A,R7
   \   000006   FB           MOV       R3,A
   \   000007   22           RET

   \                                 In  segment BANKED_CODE, align 1, keep-with-next
   \                     ?Subroutine204:
   \   000000   EA           MOV       A,R2
   \   000001   FE           MOV       R6,A
   \   000002   EB           MOV       A,R3
   \   000003   FF           MOV       R7,A
   \   000004                REQUIRE ??Subroutine236_0
   \   000004                ; // Fall through to label ??Subroutine236_0

   \                                 In  segment BANKED_CODE, align 1, keep-with-next
   \                     ??Subroutine236_0:
   \   000000   EA           MOV       A,R2
   \   000001                REQUIRE ??Subroutine237_0
   \   000001                ; // Fall through to label ??Subroutine237_0

   \                                 In  segment BANKED_CODE, align 1, keep-with-next
   \                     ??Subroutine237_0:
   \   000000   2413         ADD       A,#0x13
   \   000002   F582         MOV       DPL,A
   \   000004   E4           CLR       A
   \   000005   22           RET

   \                                 In  segment BANKED_CODE, align 1, keep-with-next
   \                     ?Subroutine181:
   \   000000   F583         MOV       DPH,A
   \   000002   12....       LCALL     ?Subroutine217 & 0xFFFF
   \                     ??CrossCallReturnLabel_348:
   \   000005   E0           MOVX      A,@DPTR
   \   000006   FA           MOV       R2,A
   \   000007   A3           INC       DPTR
   \   000008   E0           MOVX      A,@DPTR
   \   000009   F8           MOV       R0,A
   \   00000A   E4           CLR       A
   \   00000B   C8           XCH       A,R0
   \   00000C   F9           MOV       R1,A
   \   00000D   EA           MOV       A,R2
   \   00000E   28           ADD       A,R0
   \   00000F   22           RET

   \                                 In  segment BANKED_CODE, align 1, keep-with-next
   \                     ?Subroutine199:
   \   000000   F582         MOV       DPL,A
   \   000002   E4           CLR       A
   \   000003                REQUIRE ??Subroutine279_0
   \   000003                ; // Fall through to label ??Subroutine279_0

   \                                 In  segment BANKED_CODE, align 1, keep-with-next
   \                     ??Subroutine279_0:
   \   000000   3F           ADDC      A,R7
   \   000001   F583         MOV       DPH,A
   \   000003   E0           MOVX      A,@DPTR
   \   000004   22           RET
    695          
    696          /*********************************************************************
    697           * @fn          ZDO_ProcessPowerDescReq
    698           *
    699           * @brief       This function processes and responds to the
    700           *              Node_Power_req message.
    701           *
    702           * @param       inMsg  - incoming request
    703           *
    704           * @return      none
    705           */

   \                                 In  segment BANKED_CODE, align 1, keep-with-next
    706          void ZDO_ProcessPowerDescReq( zdoIncomingMsg_t *inMsg )
   \                     ZDO_ProcessPowerDescReq:
    707          {
   \   000000                REQUIRE ?V0
   \   000000                REQUIRE ?V1
   \   000000   74F6         MOV       A,#-0xa
   \   000002   12....       LCALL     ?BANKED_ENTER_XDATA
   \   000005                ; Saved register size: 10
   \   000005                ; Auto size: 0
   \   000005   12....       LCALL     ?Subroutine60 & 0xFFFF
    708            uint16 aoi = BUILD_UINT16( inMsg->asdu[0], inMsg->asdu[1] );
    709            NodePowerDescriptorFormat_t *desc = NULL;
    710          
    711            if ( aoi == ZDAppNwkAddr.addr.shortAddr )
   \                     ??CrossCallReturnLabel_95:
   \   000008   7003         JNZ       ??ZDO_ProcessPowerDescReq_0
   \   00000A   A3           INC       DPTR
   \   00000B   E0           MOVX      A,@DPTR
   \   00000C   6D           XRL       A,R5
   \                     ??ZDO_ProcessPowerDescReq_0:
   \   00000D   7017         JNZ       ??ZDO_ProcessPowerDescReq_1
    712            {
    713              desc = &ZDO_Config_Power_Descriptor;
    714            }
    715          
    716            if ( desc != NULL )
    717            {
    718              ZDP_PowerDescMsg( inMsg, aoi, desc );
   \   00000F                ; Setup parameters for call to function ZDP_PowerDescMsg
   \   00000F   75....       MOV       ?V0,#ZDO_Config_Power_Descriptor & 0xff
   \   000012   75....       MOV       ?V1,#(ZDO_Config_Power_Descriptor >> 8) & 0xff
   \   000015   78..         MOV       R0,#?V0
   \   000017   12....       LCALL     ?PUSH_XSTACK_I_TWO
   \   00001A   EE           MOV       A,R6
   \   00001B   FA           MOV       R2,A
   \   00001C   12....       LCALL     `??ZDP_PowerDescMsg::?relay`; Banked call to: ZDP_PowerDescMsg
   \   00001F   7402         MOV       A,#0x2
   \   000021   12....       LCALL     ?DEALLOC_XSTACK8
   \   000024   801A         SJMP      ??ZDO_ProcessPowerDescReq_2
    719            }
    720            else
    721            {
    722              ZDP_GenericRsp( inMsg->TransSeq, &(inMsg->srcAddr),
    723                        ZDP_INVALID_REQTYPE, aoi, Power_Desc_rsp, inMsg->SecurityUse );
   \                     ??ZDO_ProcessPowerDescReq_1:
   \   000026                ; Setup parameters for call to function ZDP_GenericRsp
   \   000026   75..03       MOV       ?V0,#0x3
   \   000029   75..80       MOV       ?V1,#-0x80
   \   00002C   78..         MOV       R0,#?V0
   \   00002E   12....       LCALL     ?PUSH_XSTACK_I_TWO
   \   000031   8A..         MOV       ?V0,R2
   \   000033   89..         MOV       ?V1,R1
   \   000035   78..         MOV       R0,#?V0
   \   000037   12....       LCALL     ?PUSH_XSTACK_I_TWO
   \   00003A   12....       LCALL     ?Subroutine61 & 0xFFFF
    724            }
   \                     ??CrossCallReturnLabel_97:
   \   00003D   12....       LCALL     ?DEALLOC_XSTACK8
    725          }
   \                     ??ZDO_ProcessPowerDescReq_2:
   \   000040   80..         SJMP      ??Subroutine227_0
    726          
    727          /*********************************************************************
    728           * @fn          ZDO_ProcessSimpleDescReq
    729           *
    730           * @brief       This function processes and responds to the
    731           *              Simple_Desc_req message.
    732           *
    733           * @param       inMsg - incoming message (request)
    734           *
    735           * @return      none
    736           */

   \                                 In  segment BANKED_CODE, align 1, keep-with-next
   \                     ?Subroutine2:
   \   000000   7402         MOV       A,#0x2
   \   000002                REQUIRE ??Subroutine226_0
   \   000002                ; // Fall through to label ??Subroutine226_0

   \                                 In  segment BANKED_CODE, align 1, keep-with-next
   \                     ??Subroutine226_0:
   \   000000   12....       LCALL     ?DEALLOC_XSTACK8
   \   000003                REQUIRE ??Subroutine227_0
   \   000003                ; // Fall through to label ??Subroutine227_0

   \                                 In  segment BANKED_CODE, align 1, keep-with-next
    737          void ZDO_ProcessSimpleDescReq( zdoIncomingMsg_t *inMsg )
   \                     ZDO_ProcessSimpleDescReq:
    738          {
   \   000000                REQUIRE ?V0
   \   000000                REQUIRE ?V1
   \   000000   74F6         MOV       A,#-0xa
   \   000002   12....       LCALL     ?BANKED_ENTER_XDATA
   \   000005                ; Saved register size: 10
   \   000005                ; Auto size: 2
   \   000005   74FE         MOV       A,#-0x2
   \   000007   12....       LCALL     ?ALLOC_XSTACK8
   \   00000A   EA           MOV       A,R2
   \   00000B   FE           MOV       R6,A
   \   00000C   EB           MOV       A,R3
   \   00000D   FF           MOV       R7,A
    739            SimpleDescriptionFormat_t *sDesc = NULL;
   \   00000E   85..82       MOV       DPL,?XSP + 0
   \   000011   85..83       MOV       DPH,?XSP + 1
   \   000014   E4           CLR       A
   \   000015   F0           MOVX      @DPTR,A
   \   000016   A3           INC       DPTR
   \   000017   F0           MOVX      @DPTR,A
    740            uint16 aoi = BUILD_UINT16( inMsg->asdu[0], inMsg->asdu[1] );
   \   000018   12....       LCALL     ?Subroutine139 & 0xFFFF
   \                     ??CrossCallReturnLabel_234:
   \   00001B   3F           ADDC      A,R7
   \   00001C   12....       LCALL     ?Subroutine87 & 0xFFFF
   \                     ??CrossCallReturnLabel_146:
   \   00001F   FB           MOV       R3,A
   \   000020   EC           MOV       A,R4
   \   000021   FA           MOV       R2,A
    741            byte endPoint = inMsg->asdu[2];
   \   000022   8882         MOV       DPL,R0
   \   000024   8983         MOV       DPH,R1
   \   000026   A3           INC       DPTR
   \   000027   A3           INC       DPTR
   \   000028   E0           MOVX      A,@DPTR
   \   000029   F9           MOV       R1,A
    742            byte free = false;
   \   00002A   75..00       MOV       ?V1,#0x0
    743            byte stat = ZDP_SUCCESS;
   \   00002D   75..00       MOV       ?V0,#0x0
    744          
    745            if ( (endPoint == ZDO_EP) || (endPoint > MAX_ENDPOINTS) )
   \   000030   6005         JZ        ??ZDO_ProcessSimpleDescReq_0
   \   000032   74FF         MOV       A,#-0x1
   \   000034   69           XRL       A,R1
   \   000035   7005         JNZ       ??ZDO_ProcessSimpleDescReq_1
    746            {
    747              stat = ZDP_INVALID_EP;
   \                     ??ZDO_ProcessSimpleDescReq_0:
   \   000037   75..82       MOV       ?V0,#-0x7e
   \   00003A   802F         SJMP      ??ZDO_ProcessSimpleDescReq_2
    748            }
    749            else if ( aoi == ZDAppNwkAddr.addr.shortAddr )
   \                     ??ZDO_ProcessSimpleDescReq_1:
   \   00003C   90....       MOV       DPTR,#ZDAppNwkAddr
   \   00003F   E0           MOVX      A,@DPTR
   \   000040   6A           XRL       A,R2
   \   000041   7003         JNZ       ??ZDO_ProcessSimpleDescReq_3
   \   000043   A3           INC       DPTR
   \   000044   E0           MOVX      A,@DPTR
   \   000045   6B           XRL       A,R3
   \                     ??ZDO_ProcessSimpleDescReq_3:
   \   000046   7015         JNZ       ??ZDO_ProcessSimpleDescReq_4
    750            {
    751              free = afFindSimpleDesc( &sDesc, endPoint );
   \   000048                ; Setup parameters for call to function afFindSimpleDesc
   \   000048   AA..         MOV       R2,?XSP + 0
   \   00004A   AB..         MOV       R3,?XSP + 1
   \   00004C   12....       LCALL     `??afFindSimpleDesc::?relay`; Banked call to: afFindSimpleDesc
   \   00004F   E9           MOV       A,R1
   \   000050   FA           MOV       R2,A
    752              if ( sDesc == NULL )
   \   000051   12....       LCALL     ?Subroutine54 & 0xFFFF
   \                     ??CrossCallReturnLabel_466:
   \   000054   7003         JNZ       ??ZDO_ProcessSimpleDescReq_5
    753              {
    754                stat = ZDP_NOT_ACTIVE;
   \   000056   75..83       MOV       ?V0,#-0x7d
   \                     ??ZDO_ProcessSimpleDescReq_5:
   \   000059   8A..         MOV       ?V1,R2
   \   00005B   800E         SJMP      ??ZDO_ProcessSimpleDescReq_2
    755              }
    756            }
    757            else
    758            {
    759              if ( ZSTACK_ROUTER_BUILD )
    760              {
    761                //If child found, then no descriptor
    762                if(AssocIsChild(aoi))
   \                     ??ZDO_ProcessSimpleDescReq_4:
   \   00005D                ; Setup parameters for call to function AssocIsChild
   \   00005D   12....       LCALL     `??AssocIsChild::?relay`; Banked call to: AssocIsChild
   \   000060   E9           MOV       A,R1
   \   000061   6005         JZ        ??ZDO_ProcessSimpleDescReq_6
    763                {
    764                  stat = ZDP_NO_DESCRIPTOR;
   \   000063   75..89       MOV       ?V0,#-0x77
   \   000066   8003         SJMP      ??ZDO_ProcessSimpleDescReq_2
    765                }
    766                //Otherwise no device found
    767                else
    768                {
    769                  stat = ZDP_DEVICE_NOT_FOUND;
   \                     ??ZDO_ProcessSimpleDescReq_6:
   \   000068   75..81       MOV       ?V0,#-0x7f
    770                }
    771              }
    772              else if ( ZSTACK_END_DEVICE_BUILD )
    773              {
    774                stat = ZDP_INVALID_REQTYPE;
    775              }
    776            }
    777          
    778            ZDP_SimpleDescMsg( inMsg, stat, sDesc );
   \                     ??ZDO_ProcessSimpleDescReq_2:
   \   00006B                ; Setup parameters for call to function ZDP_SimpleDescMsg
   \   00006B   12....       LCALL     ?Subroutine111 & 0xFFFF
   \                     ??CrossCallReturnLabel_472:
   \   00006E   A9..         MOV       R1,?V0
   \   000070   EE           MOV       A,R6
   \   000071   FA           MOV       R2,A
   \   000072   EF           MOV       A,R7
   \   000073   FB           MOV       R3,A
   \   000074   12....       LCALL     `??ZDP_SimpleDescMsg::?relay`; Banked call to: ZDP_SimpleDescMsg
    779          
    780            if ( free && sDesc )
   \   000077   E5..         MOV       A,?V1
   \   000079   6008         JZ        ??CrossCallReturnLabel_487
   \   00007B   12....       LCALL     ?Subroutine54 & 0xFFFF
   \                     ??CrossCallReturnLabel_467:
   \   00007E   6003         JZ        ??CrossCallReturnLabel_487
    781            {
    782              osal_mem_free( sDesc );
   \   000080                ; Setup parameters for call to function osal_mem_free
   \   000080   12....       LCALL     ?Subroutine56 & 0xFFFF
    783            }
    784          }
   \                     ??CrossCallReturnLabel_487:
   \   000083   02....       LJMP      ?Subroutine2 & 0xFFFF

   \                                 In  segment BANKED_CODE, align 1, keep-with-next
   \                     ?Subroutine139:
   \   000000   12....       LCALL     ??Subroutine236_0 & 0xFFFF
   \                     ??CrossCallReturnLabel_427:
   \   000003   22           RET

   \                                 In  segment BANKED_CODE, align 1, keep-with-next
   \                     ?Subroutine87:
   \   000000   12....       LCALL     ?Subroutine189 & 0xFFFF
   \                     ??CrossCallReturnLabel_561:
   \   000003   8882         MOV       DPL,R0
   \   000005   F583         MOV       DPH,A
   \   000007   E0           MOVX      A,@DPTR
   \   000008   FC           MOV       R4,A
   \   000009   A3           INC       DPTR
   \   00000A   E0           MOVX      A,@DPTR
   \   00000B   22           RET

   \                                 In  segment BANKED_CODE, align 1, keep-with-next
   \                     ?Subroutine54:
   \   000000   85..82       MOV       DPL,?XSP + 0
   \   000003   85..83       MOV       DPH,?XSP + 1
   \   000006                REQUIRE ??Subroutine242_0
   \   000006                ; // Fall through to label ??Subroutine242_0

   \                                 In  segment BANKED_CODE, align 1, keep-with-next
   \                     ??Subroutine242_0:
   \   000000   12....       LCALL     ??Subroutine262_0 & 0xFFFF
   \                     ??CrossCallReturnLabel_563:
   \   000003   E8           MOV       A,R0
   \   000004   49           ORL       A,R1
   \   000005   22           RET

   \                                 In  segment BANKED_CODE, align 1, keep-with-next
   \                     ?Subroutine111:
   \   000000   85..82       MOV       DPL,?XSP + 0
   \   000003   85..83       MOV       DPH,?XSP + 1
   \   000006                REQUIRE ??Subroutine243_0
   \   000006                ; // Fall through to label ??Subroutine243_0

   \                                 In  segment BANKED_CODE, align 1, keep-with-next
   \                     ?Subroutine56:
   \   000000   85..82       MOV       DPL,?XSP + 0
   \   000003   85..83       MOV       DPH,?XSP + 1
   \   000006                REQUIRE ??Subroutine246_0
   \   000006                ; // Fall through to label ??Subroutine246_0

   \                                 In  segment BANKED_CODE, align 1, keep-with-next
   \                     ??Subroutine246_0:
   \   000000   12....       LCALL     ?Subroutine182 & 0xFFFF
   \                     ??CrossCallReturnLabel_528:
   \   000003   12....       LCALL     `??osal_mem_free::?relay`; Banked call to: osal_mem_free
   \   000006   22           RET

   \                                 In  segment BANKED_CODE, align 1, keep-with-next
   \                     ?Subroutine189:
   \   000000   F583         MOV       DPH,A
   \   000002                REQUIRE ??Subroutine262_0
   \   000002                ; // Fall through to label ??Subroutine262_0
    785          
    786          /*********************************************************************
    787           * @fn          ZDO_ProcessSimpleDescRsp
    788           *
    789           * @brief       This function processes and responds to the
    790           *              Simple_Desc_rsp message.
    791           *
    792           * @param       inMsg - incoming message (request)
    793           *
    794           * @return      none
    795           */

   \                                 In  segment BANKED_CODE, align 1, keep-with-next
    796          void ZDO_ProcessSimpleDescRsp( zdoIncomingMsg_t *inMsg )
   \                     ZDO_ProcessSimpleDescRsp:
    797          {
   \   000000                ; Saved register size: 0
   \   000000                ; Auto size: 0
    798          
    799          }
   \   000000   02....       LJMP      ?BRET
    800          
    801          /*********************************************************************
    802           * @fn          ZDO_ProcessActiveEPReq
    803           *
    804           * @brief       This function processes and responds to the
    805           *              Active_EP_req message.
    806           *
    807           * @param       inMsg  - incoming message (request)
    808           *
    809           * @return      none
    810           */

   \                                 In  segment BANKED_CODE, align 1, keep-with-next
    811          void ZDO_ProcessActiveEPReq( zdoIncomingMsg_t *inMsg )
   \                     ZDO_ProcessActiveEPReq:
    812          {
   \   000000                REQUIRE ?V0
   \   000000                REQUIRE ?V1
   \   000000                REQUIRE ?V2
   \   000000                REQUIRE ?V3
   \   000000                REQUIRE ?V4
   \   000000                REQUIRE ?V5
   \   000000   74F2         MOV       A,#-0xe
   \   000002   12....       LCALL     ?BANKED_ENTER_XDATA
   \   000005                ; Saved register size: 14
   \   000005                ; Auto size: 0
   \   000005   8A..         MOV       ?V4,R2
   \   000007   8B..         MOV       ?V5,R3
    813            byte cnt = 0;
   \   000009   75..00       MOV       ?V0,#0x0
    814            uint16 aoi;
    815            byte stat = ZDP_SUCCESS;
   \   00000C   75..00       MOV       ?V1,#0x0
    816          
    817            aoi = BUILD_UINT16( inMsg->asdu[0], inMsg->asdu[1] );
   \   00000F   12....       LCALL     ?Subroutine139 & 0xFFFF
   \                     ??CrossCallReturnLabel_235:
   \   000012   35..         ADDC      A,?V5
   \   000014   12....       LCALL     ?Subroutine63 & 0xFFFF
    818          
    819            if ( aoi == NLME_GetShortAddr() )
   \                     ??CrossCallReturnLabel_100:
   \   000017                ; Setup parameters for call to function NLME_GetShortAddr
   \   000017   12....       LCALL     `??NLME_GetShortAddr::?relay`; Banked call to: NLME_GetShortAddr
   \   00001A   EA           MOV       A,R2
   \   00001B   6E           XRL       A,R6
   \   00001C   7002         JNZ       ??ZDO_ProcessActiveEPReq_0
   \   00001E   EB           MOV       A,R3
   \   00001F   6F           XRL       A,R7
   \                     ??ZDO_ProcessActiveEPReq_0:
   \   000020   7012         JNZ       ??ZDO_ProcessActiveEPReq_1
    820            {
    821              cnt = afNumEndPoints() - 1;  // -1 for ZDO endpoint descriptor
   \   000022                ; Setup parameters for call to function afNumEndPoints
   \   000022   12....       LCALL     `??afNumEndPoints::?relay`; Banked call to: afNumEndPoints
   \   000025   E9           MOV       A,R1
   \   000026   14           DEC       A
   \   000027   F5..         MOV       ?V0,A
    822              afEndPoints( (uint8 *)ZDOBuildBuf, true );
   \   000029                ; Setup parameters for call to function afEndPoints
   \   000029   7901         MOV       R1,#0x1
   \   00002B   7A..         MOV       R2,#ZDOBuildBuf & 0xff
   \   00002D   7B..         MOV       R3,#(ZDOBuildBuf >> 8) & 0xff
   \   00002F   12....       LCALL     `??afEndPoints::?relay`; Banked call to: afEndPoints
   \   000032   8003         SJMP      ??ZDO_ProcessActiveEPReq_2
    823            }
    824            else
    825            {
    826              if(ZG_BUILD_ENDDEVICE_TYPE)
    827              {
    828                stat = ZDP_INVALID_REQTYPE;
    829              }
    830              else
    831              {
    832                stat = ZDP_DEVICE_NOT_FOUND;
   \                     ??ZDO_ProcessActiveEPReq_1:
   \   000034   75..81       MOV       ?V1,#-0x7f
    833              }
    834            }
    835          
    836            ZDP_ActiveEPRsp( inMsg->TransSeq, &(inMsg->srcAddr), stat,
    837                            aoi, cnt, (uint8 *)ZDOBuildBuf, inMsg->SecurityUse );
   \                     ??ZDO_ProcessActiveEPReq_2:
   \   000037                ; Setup parameters for call to function ZDP_EPRsp
   \   000037   12....       LCALL     ?Subroutine143 & 0xFFFF
   \                     ??CrossCallReturnLabel_614:
   \   00003A   12....       LCALL     ??Subroutine256_0 & 0xFFFF
   \                     ??CrossCallReturnLabel_530:
   \   00003D   F5..         MOV       ?V2,A
   \   00003F   78..         MOV       R0,#?V2
   \   000041   12....       LCALL     ?PUSH_XSTACK_I_ONE
   \   000044   75....       MOV       ?V2,#ZDOBuildBuf & 0xff
   \   000047   75....       MOV       ?V3,#(ZDOBuildBuf >> 8) & 0xff
   \   00004A   78..         MOV       R0,#?V2
   \   00004C   12....       LCALL     ?PUSH_XSTACK_I_TWO
   \   00004F   78..         MOV       R0,#?V0
   \   000051   12....       LCALL     ?PUSH_XSTACK_I_ONE
   \   000054   8E..         MOV       ?V2,R6
   \   000056   8F..         MOV       ?V3,R7
   \   000058   78..         MOV       R0,#?V2
   \   00005A   12....       LCALL     ?PUSH_XSTACK_I_TWO
   \   00005D   E5..         MOV       A,?V1
   \   00005F   F5..         MOV       ?V0,A
   \   000061   78..         MOV       R0,#?V0
   \   000063   12....       LCALL     ?PUSH_XSTACK_I_ONE
   \   000066   12....       LCALL     ?Subroutine146 & 0xFFFF
   \                     ??CrossCallReturnLabel_250:
   \   000069   12....       LCALL     ?Subroutine149 & 0xFFFF
   \                     ??CrossCallReturnLabel_531:
   \   00006C   F9           MOV       R1,A
   \   00006D   7A05         MOV       R2,#0x5
   \   00006F   7B80         MOV       R3,#-0x80
   \   000071   12....       LCALL     `??ZDP_EPRsp::?relay`; Banked call to: ZDP_EPRsp
   \   000074   7407         MOV       A,#0x7
   \   000076   02....       LJMP      ?Subroutine5 & 0xFFFF
    838          }

   \                                 In  segment BANKED_CODE, align 1, keep-with-next
   \                     ?Subroutine63:
   \   000000   12....       LCALL     ?Subroutine181 & 0xFFFF
   \                     ??CrossCallReturnLabel_311:
   \   000003   FE           MOV       R6,A
   \   000004   E4           CLR       A
   \   000005   39           ADDC      A,R1
   \   000006   FF           MOV       R7,A
   \   000007   22           RET

   \                                 In  segment BANKED_CODE, align 1, keep-with-next
   \                     ?Subroutine146:
   \   000000   E5..         MOV       A,?V4
   \   000002   2402         ADD       A,#0x2
   \   000004   FC           MOV       R4,A
   \   000005   E4           CLR       A
   \   000006   35..         ADDC      A,?V5
   \   000008   FD           MOV       R5,A
   \   000009   E5..         MOV       A,?V4
   \   00000B   240F         ADD       A,#0xf
   \   00000D   22           RET

   \                                 In  segment BANKED_CODE, align 1, keep-with-next
   \                     ?Subroutine5:
   \   000000   12....       LCALL     ?DEALLOC_XSTACK8
   \   000003                REQUIRE ??Subroutine250_0
   \   000003                ; // Fall through to label ??Subroutine250_0

   \                                 In  segment BANKED_CODE, align 1, keep-with-next
   \                     ??Subroutine250_0:
   \   000000   7F06         MOV       R7,#0x6
   \   000002   02....       LJMP      ?BANKED_LEAVE_XDATA

   \                                 In  segment BANKED_CODE, align 1, keep-with-next
   \                     ?Subroutine149:
   \   000000   F582         MOV       DPL,A
   \   000002   E4           CLR       A
   \   000003                REQUIRE ??Subroutine256_0
   \   000003                ; // Fall through to label ??Subroutine256_0

   \                                 In  segment BANKED_CODE, align 1, keep-with-next
   \                     ??Subroutine256_0:
   \   000000   35..         ADDC      A,?V5
   \   000002   F583         MOV       DPH,A
   \   000004   E0           MOVX      A,@DPTR
   \   000005   22           RET

   \                                 In  segment BANKED_CODE, align 1, keep-with-next
   \                     ?Subroutine143:
   \   000000   E5..         MOV       A,?V4
   \   000002                REQUIRE ??Subroutine272_0
   \   000002                ; // Fall through to label ??Subroutine272_0

   \                                 In  segment BANKED_CODE, align 1, keep-with-next
   \                     ??Subroutine272_0:
   \   000000   240E         ADD       A,#0xe
   \   000002   F582         MOV       DPL,A
   \   000004   E4           CLR       A
   \   000005   22           RET
    839          
    840          /*********************************************************************
    841           * @fn          ZDO_ConvertOTAClusters
    842           *
    843           * @brief       This function will convert the over-the-air cluster list
    844           *              format to an internal format.
    845           *
    846           * @param       inMsg  - incoming message (request)
    847           *
    848           * @return      pointer to incremented inBuf
    849           */

   \                                 In  segment BANKED_CODE, align 1, keep-with-next
    850          uint8 *ZDO_ConvertOTAClusters( uint8 cnt, uint8 *inBuf, uint16 *outList )
   \                     ZDO_ConvertOTAClusters:
    851          {
   \   000000                REQUIRE ?V0
   \   000000                REQUIRE ?V1
   \   000000   74F6         MOV       A,#-0xa
   \   000002   12....       LCALL     ?BANKED_ENTER_XDATA
   \   000005                ; Saved register size: 10
   \   000005                ; Auto size: 0
   \   000005   E9           MOV       A,R1
   \   000006   FF           MOV       R7,A
    852            uint8 x;
    853          
    854            for ( x = 0; x < cnt; x++ )
   \   000007   7E00         MOV       R6,#0x0
   \   000009   802F         SJMP      ??ZDO_ConvertOTAClusters_0
    855            {
    856              // convert ota format to internal
    857              outList[x] = BUILD_UINT16( inBuf[0], inBuf[1] );
   \                     ??ZDO_ConvertOTAClusters_1:
   \   00000B   8A82         MOV       DPL,R2
   \   00000D   8B83         MOV       DPH,R3
   \   00000F   E0           MOVX      A,@DPTR
   \   000010   F5..         MOV       ?V0,A
   \   000012   A3           INC       DPTR
   \   000013   E0           MOVX      A,@DPTR
   \   000014   F8           MOV       R0,A
   \   000015   E4           CLR       A
   \   000016   C8           XCH       A,R0
   \   000017   F9           MOV       R1,A
   \   000018   E5..         MOV       A,?V0
   \   00001A   28           ADD       A,R0
   \   00001B   E4           CLR       A
   \   00001C   39           ADDC      A,R1
   \   00001D   F5..         MOV       ?V1,A
   \   00001F   EE           MOV       A,R6
   \   000020   12....       LCALL     ?Subroutine131 & 0xFFFF
   \                     ??CrossCallReturnLabel_221:
   \   000023   EC           MOV       A,R4
   \   000024   28           ADD       A,R0
   \   000025   F582         MOV       DPL,A
   \   000027   ED           MOV       A,R5
   \   000028   39           ADDC      A,R1
   \   000029   F583         MOV       DPH,A
   \   00002B   E5..         MOV       A,?V0
   \   00002D   F0           MOVX      @DPTR,A
   \   00002E   A3           INC       DPTR
   \   00002F   E5..         MOV       A,?V1
   \   000031   F0           MOVX      @DPTR,A
    858              inBuf += sizeof( uint16 );
   \   000032   EA           MOV       A,R2
   \   000033   2402         ADD       A,#0x2
   \   000035   FA           MOV       R2,A
   \   000036   5001         JNC       ??ZDO_ConvertOTAClusters_2
   \   000038   0B           INC       R3
    859            }
   \                     ??ZDO_ConvertOTAClusters_2:
   \   000039   0E           INC       R6
   \                     ??ZDO_ConvertOTAClusters_0:
   \   00003A   EE           MOV       A,R6
   \   00003B   C3           CLR       C
   \   00003C   9F           SUBB      A,R7
   \   00003D   40CC         JC        ??ZDO_ConvertOTAClusters_1
    860            return ( inBuf );
   \   00003F   02....       LJMP      ??Subroutine227_0 & 0xFFFF
    861          }
    862          
    863          /*********************************************************************
    864           * @fn          ZDO_ProcessMatchDescReq
    865           *
    866           * @brief       This function processes and responds to the
    867           *              Match_Desc_req message.
    868           *
    869           * @param       inMsg  - incoming message (request)
    870           *
    871           * @return      none
    872           */

   \                                 In  segment BANKED_CODE, align 1, keep-with-next
    873          void ZDO_ProcessMatchDescReq( zdoIncomingMsg_t *inMsg )
   \                     ZDO_ProcessMatchDescReq:
    874          {
   \   000000                REQUIRE ?V0
   \   000000                REQUIRE ?V1
   \   000000                REQUIRE ?V2
   \   000000                REQUIRE ?V3
   \   000000                REQUIRE ?V4
   \   000000                REQUIRE ?V5
   \   000000                REQUIRE ?V6
   \   000000   74F1         MOV       A,#-0xf
   \   000002   12....       LCALL     ?BANKED_ENTER_XDATA
   \   000005                ; Saved register size: 15
   \   000005                ; Auto size: 19
   \   000005   74ED         MOV       A,#-0x13
   \   000007   12....       LCALL     ?ALLOC_XSTACK8
   \   00000A   740B         MOV       A,#0xb
   \   00000C   12....       LCALL     ?XSTACK_DISP0_8
   \   00000F   12....       LCALL     ?Subroutine39 & 0xFFFF
    875            uint8 epCnt = 0;
   \                     ??CrossCallReturnLabel_62:
   \   000012   12....       LCALL     ?XSTACK_DISP0_8
   \   000015   E4           CLR       A
   \   000016   F0           MOVX      @DPTR,A
    876            uint8 numInClusters;
    877            uint16 *inClusters = NULL;
   \   000017   7405         MOV       A,#0x5
   \   000019   12....       LCALL     ?XSTACK_DISP0_8
   \   00001C   E4           CLR       A
   \   00001D   F0           MOVX      @DPTR,A
   \   00001E   A3           INC       DPTR
   \   00001F   F0           MOVX      @DPTR,A
    878            uint8 numOutClusters;
    879            uint16 *outClusters = NULL;
   \   000020   7403         MOV       A,#0x3
   \   000022   12....       LCALL     ?XSTACK_DISP0_8
   \   000025   E4           CLR       A
   \   000026   F0           MOVX      @DPTR,A
   \   000027   A3           INC       DPTR
   \   000028   F0           MOVX      @DPTR,A
    880            epList_t *epDesc;
    881            SimpleDescriptionFormat_t *sDesc = NULL;
    882            uint8 allocated;
    883            uint8 *msg;
    884            uint16 aoi;
    885            uint16 profileID;
    886          
    887            // Parse the incoming message
    888            msg = inMsg->asdu;
   \   000029   740B         MOV       A,#0xb
   \   00002B   12....       LCALL     ?XSTACK_DISP0_8
   \   00002E   12....       LCALL     ?Subroutine79 & 0xFFFF
   \                     ??CrossCallReturnLabel_131:
   \   000031   F5..         MOV       ?V0,A
   \   000033   A3           INC       DPTR
   \   000034   E0           MOVX      A,@DPTR
   \   000035   F5..         MOV       ?V1,A
    889            aoi = BUILD_UINT16( msg[0], msg[1] );
   \   000037   85..82       MOV       DPL,?V0
   \   00003A   F583         MOV       DPH,A
   \   00003C   12....       LCALL     ?Subroutine109 & 0xFFFF
   \                     ??CrossCallReturnLabel_179:
   \   00003F   28           ADD       A,R0
   \   000040   F5..         MOV       ?V2,A
   \   000042   E4           CLR       A
   \   000043   39           ADDC      A,R1
   \   000044   F5..         MOV       ?V3,A
    890            profileID = BUILD_UINT16( msg[2], msg[3] );
   \   000046   85..82       MOV       DPL,?V0
   \   000049   85..83       MOV       DPH,?V1
   \   00004C   A3           INC       DPTR
   \   00004D   12....       LCALL     ?Subroutine102 & 0xFFFF
   \                     ??CrossCallReturnLabel_167:
   \   000050   A3           INC       DPTR
   \   000051   E0           MOVX      A,@DPTR
   \   000052   F9           MOV       R1,A
   \   000053   EA           MOV       A,R2
   \   000054   FE           MOV       R6,A
   \   000055   E4           CLR       A
   \   000056   39           ADDC      A,R1
   \   000057   FF           MOV       R7,A
    891            msg += 4;
    892          
    893            if ( ADDR_BCAST_NOT_ME == NLME_IsAddressBroadcast(aoi) )
   \   000058   740B         MOV       A,#0xb
   \   00005A   12....       LCALL     ?XSTACK_DISP0_8
   \   00005D   E0           MOVX      A,@DPTR
   \   00005E   240F         ADD       A,#0xf
   \   000060   F8           MOV       R0,A
   \   000061   A3           INC       DPTR
   \   000062   E0           MOVX      A,@DPTR
   \   000063   3400         ADDC      A,#0x0
   \   000065   F9           MOV       R1,A
   \   000066   740F         MOV       A,#0xf
   \   000068   12....       LCALL     ?XSTACK_DISP0_8
   \   00006B   12....       LCALL     ?Subroutine26 & 0xFFFF
   \                     ??CrossCallReturnLabel_41:
   \   00006E   12....       LCALL     ?XSTACK_DISP0_8
   \   000071   12....       LCALL     ?Subroutine114 & 0xFFFF
   \                     ??CrossCallReturnLabel_187:
   \   000074   7409         MOV       A,#0x9
   \   000076   12....       LCALL     ?XSTACK_DISP0_8
   \   000079   12....       LCALL     ?Subroutine26 & 0xFFFF
   \                     ??CrossCallReturnLabel_42:
   \   00007C   12....       LCALL     ?XSTACK_DISP0_8
   \   00007F   E0           MOVX      A,@DPTR
   \   000080   240E         ADD       A,#0xe
   \   000082   F8           MOV       R0,A
   \   000083   A3           INC       DPTR
   \   000084   E0           MOVX      A,@DPTR
   \   000085   3400         ADDC      A,#0x0
   \   000087   F9           MOV       R1,A
   \   000088   740D         MOV       A,#0xd
   \   00008A   12....       LCALL     ?XSTACK_DISP0_8
   \   00008D   12....       LCALL     ??Subroutine232_0 & 0xFFFF
   \                     ??CrossCallReturnLabel_381:
   \   000090                ; Setup parameters for call to function NLME_IsAddressBroadcast
   \   000090   AA..         MOV       R2,?V2
   \   000092   AB..         MOV       R3,?V3
   \   000094   12....       LCALL     `??NLME_IsAddressBroadcast::?relay`; Banked call to: NLME_IsAddressBroadcast
   \   000097   E9           MOV       A,R1
   \   000098   6401         XRL       A,#0x1
   \   00009A   703B         JNZ       ??ZDO_ProcessMatchDescReq_0
    894            {
    895              ZDP_MatchDescRsp( inMsg->TransSeq, &(inMsg->srcAddr), ZDP_INVALID_REQTYPE,
    896                                    aoi, 0, NULL, inMsg->SecurityUse );
   \   00009C                ; Setup parameters for call to function ZDP_EPRsp
   \   00009C   740D         MOV       A,#0xd
   \   00009E   12....       LCALL     ?XSTACK_DISP0_8
   \   0000A1   12....       LCALL     ?Subroutine58 & 0xFFFF
   \                     ??CrossCallReturnLabel_90:
   \   0000A4   12....       LCALL     ?PUSH_XSTACK_I_ONE
   \   0000A7   E4           CLR       A
   \   0000A8   F5..         MOV       ?V0,A
   \   0000AA   F5..         MOV       ?V1,A
   \   0000AC   78..         MOV       R0,#?V0
   \   0000AE   12....       LCALL     ?PUSH_XSTACK_I_TWO
   \   0000B1   78..         MOV       R0,#?V0
   \   0000B3   12....       LCALL     ?PUSH_XSTACK_I_ONE
   \   0000B6   78..         MOV       R0,#?V2
   \   0000B8   12....       LCALL     ?PUSH_XSTACK_I_TWO
   \   0000BB   75..80       MOV       ?V0,#-0x80
   \   0000BE   78..         MOV       R0,#?V0
   \   0000C0   12....       LCALL     ?PUSH_XSTACK_I_ONE
   \   0000C3   7410         MOV       A,#0x10
   \   0000C5   12....       LCALL     ?XSTACK_DISP0_8
   \   0000C8   12....       LCALL     ?Subroutine76 & 0xFFFF
   \                     ??CrossCallReturnLabel_127:
   \   0000CB   12....       LCALL     ?XSTACK_DISP0_8
   \   0000CE   12....       LCALL     ?Subroutine55 & 0xFFFF
   \                     ??CrossCallReturnLabel_86:
   \   0000D1   12....       LCALL     ?DEALLOC_XSTACK8
    897              return;
   \   0000D4   02....       LJMP      ??CrossCallReturnLabel_490 & 0xFFFF
    898            }
    899            else if ( (ADDR_NOT_BCAST == NLME_IsAddressBroadcast(aoi)) && (aoi != ZDAppNwkAddr.addr.shortAddr) )
   \                     ??ZDO_ProcessMatchDescReq_0:
   \   0000D7                ; Setup parameters for call to function NLME_IsAddressBroadcast
   \   0000D7   AA..         MOV       R2,?V2
   \   0000D9   AB..         MOV       R3,?V3
   \   0000DB   12....       LCALL     `??NLME_IsAddressBroadcast::?relay`; Banked call to: NLME_IsAddressBroadcast
   \   0000DE   E9           MOV       A,R1
   \   0000DF   7053         JNZ       ??ZDO_ProcessMatchDescReq_1
   \   0000E1   90....       MOV       DPTR,#ZDAppNwkAddr
   \   0000E4   E0           MOVX      A,@DPTR
   \   0000E5   65..         XRL       A,?V2
   \   0000E7   7004         JNZ       ??ZDO_ProcessMatchDescReq_2
   \   0000E9   A3           INC       DPTR
   \   0000EA   E0           MOVX      A,@DPTR
   \   0000EB   65..         XRL       A,?V3
   \                     ??ZDO_ProcessMatchDescReq_2:
   \   0000ED   6045         JZ        ??ZDO_ProcessMatchDescReq_1
    900            {
    901          #if (ZG_BUILD_ENDDEVICE_TYPE)
    902              if(ZG_DEVICE_ENDDEVICE_TYPE)
    903              {    
    904              ZDP_MatchDescRsp( inMsg->TransSeq, &(inMsg->srcAddr), ZDP_INVALID_REQTYPE,
    905                                       aoi, 0, NULL, inMsg->SecurityUse );
    906              }
    907          #else 
    908              if (ZG_DEVICE_RTR_TYPE)
   \   0000EF   90....       MOV       DPTR,#zgDeviceLogicalType
   \   0000F2   E0           MOVX      A,@DPTR
   \   0000F3   6004         JZ        ??ZDO_ProcessMatchDescReq_3
   \   0000F5   6401         XRL       A,#0x1
   \   0000F7   7038         JNZ       ??ZDO_ProcessMatchDescReq_4
    909              {
    910              ZDP_MatchDescRsp( inMsg->TransSeq, &(inMsg->srcAddr), ZDP_DEVICE_NOT_FOUND,
    911                                       aoi, 0, NULL, inMsg->SecurityUse );
   \                     ??ZDO_ProcessMatchDescReq_3:
   \   0000F9                ; Setup parameters for call to function ZDP_EPRsp
   \   0000F9   740D         MOV       A,#0xd
   \   0000FB   12....       LCALL     ?XSTACK_DISP0_8
   \   0000FE   12....       LCALL     ?Subroutine58 & 0xFFFF
    912              }
   \                     ??CrossCallReturnLabel_91:
   \   000101   12....       LCALL     ?PUSH_XSTACK_I_ONE
   \   000104   E4           CLR       A
   \   000105   F5..         MOV       ?V0,A
   \   000107   F5..         MOV       ?V1,A
   \   000109   78..         MOV       R0,#?V0
   \   00010B   12....       LCALL     ?PUSH_XSTACK_I_TWO
   \   00010E   78..         MOV       R0,#?V0
   \   000110   12....       LCALL     ?PUSH_XSTACK_I_ONE
   \   000113   78..         MOV       R0,#?V2
   \   000115   12....       LCALL     ?PUSH_XSTACK_I_TWO
   \   000118   75..81       MOV       ?V0,#-0x7f
   \   00011B   78..         MOV       R0,#?V0
   \   00011D   12....       LCALL     ?PUSH_XSTACK_I_ONE
   \   000120   7410         MOV       A,#0x10
   \   000122   12....       LCALL     ?XSTACK_DISP0_8
   \   000125   12....       LCALL     ?Subroutine76 & 0xFFFF
   \                     ??CrossCallReturnLabel_128:
   \   000128   12....       LCALL     ?XSTACK_DISP0_8
   \   00012B   12....       LCALL     ?Subroutine55 & 0xFFFF
   \                     ??CrossCallReturnLabel_87:
   \   00012E   12....       LCALL     ?DEALLOC_XSTACK8
    913          #endif
    914              return;
   \                     ??ZDO_ProcessMatchDescReq_4:
   \   000131   02....       LJMP      ??CrossCallReturnLabel_490 & 0xFFFF
    915            }
    916          
    917            if ((numInClusters = *msg++) &&
    918                (inClusters = (uint16*)osal_mem_alloc( numInClusters * sizeof( uint16 ) )))
   \                     ??ZDO_ProcessMatchDescReq_1:
   \   000134   85..82       MOV       DPL,?V0
   \   000137   85..83       MOV       DPH,?V1
   \   00013A   A3           INC       DPTR
   \   00013B   A3           INC       DPTR
   \   00013C   A3           INC       DPTR
   \   00013D   A3           INC       DPTR
   \   00013E   E0           MOVX      A,@DPTR
   \   00013F   F5..         MOV       ?V6,A
   \   000141   E5..         MOV       A,?V0
   \   000143   2405         ADD       A,#0x5
   \   000145   F5..         MOV       ?V0,A
   \   000147   5002         JNC       ??ZDO_ProcessMatchDescReq_5
   \   000149   05..         INC       ?V1
   \                     ??ZDO_ProcessMatchDescReq_5:
   \   00014B   E5..         MOV       A,?V6
   \   00014D   6028         JZ        ??ZDO_ProcessMatchDescReq_6
   \   00014F                ; Setup parameters for call to function osal_mem_alloc
   \   00014F   12....       LCALL     ?Subroutine129 & 0xFFFF
   \                     ??CrossCallReturnLabel_215:
   \   000152   7405         MOV       A,#0x5
   \   000154   12....       LCALL     ?XSTACK_DISP0_8
   \   000157   12....       LCALL     ?Subroutine41 & 0xFFFF
   \                     ??CrossCallReturnLabel_366:
   \   00015A   7405         MOV       A,#0x5
   \   00015C   12....       LCALL     ?XSTACK_DISP0_8
   \   00015F   12....       LCALL     ??Subroutine242_0 & 0xFFFF
   \                     ??CrossCallReturnLabel_447:
   \   000162   6013         JZ        ??ZDO_ProcessMatchDescReq_6
    919            {
    920              msg = ZDO_ConvertOTAClusters( numInClusters, msg, inClusters );
   \   000164                ; Setup parameters for call to function ZDO_ConvertOTAClusters
   \   000164   7405         MOV       A,#0x5
   \   000166   12....       LCALL     ?XSTACK_DISP0_8
   \   000169   12....       LCALL     ?Subroutine110 & 0xFFFF
    921            }
   \                     ??CrossCallReturnLabel_181:
   \   00016C   A9..         MOV       R1,?V6
   \   00016E   12....       LCALL     `??ZDO_ConvertOTAClusters::?relay`; Banked call to: ZDO_ConvertOTAClusters
   \   000171   8A..         MOV       ?V0,R2
   \   000173   8B..         MOV       ?V1,R3
   \   000175   8003         SJMP      ??ZDO_ProcessMatchDescReq_7
    922            else
    923            {
    924              numInClusters = 0;
   \                     ??ZDO_ProcessMatchDescReq_6:
   \   000177   75..00       MOV       ?V6,#0x0
    925            }
    926          
    927            if ((numOutClusters = *msg++) &&
    928                (outClusters = (uint16 *)osal_mem_alloc( numOutClusters * sizeof( uint16 ) )))
   \                     ??ZDO_ProcessMatchDescReq_7:
   \   00017A   85..82       MOV       DPL,?V0
   \   00017D   85..83       MOV       DPH,?V1
   \   000180   E0           MOVX      A,@DPTR
   \   000181   F5..         MOV       ?V3,A
   \   000183   A3           INC       DPTR
   \   000184   8582..       MOV       ?V0,DPL
   \   000187   8583..       MOV       ?V1,DPH
   \   00018A   6022         JZ        ??ZDO_ProcessMatchDescReq_8
   \   00018C                ; Setup parameters for call to function osal_mem_alloc
   \   00018C   12....       LCALL     ?Subroutine129 & 0xFFFF
   \                     ??CrossCallReturnLabel_216:
   \   00018F   7403         MOV       A,#0x3
   \   000191   12....       LCALL     ?XSTACK_DISP0_8
   \   000194   12....       LCALL     ?Subroutine18 & 0xFFFF
   \                     ??CrossCallReturnLabel_23:
   \   000197   12....       LCALL     ?XSTACK_DISP0_8
   \   00019A   12....       LCALL     ??Subroutine242_0 & 0xFFFF
   \                     ??CrossCallReturnLabel_448:
   \   00019D   600F         JZ        ??ZDO_ProcessMatchDescReq_8
    929            {
    930              msg = ZDO_ConvertOTAClusters( numOutClusters, msg, outClusters );
   \   00019F                ; Setup parameters for call to function ZDO_ConvertOTAClusters
   \   00019F   7403         MOV       A,#0x3
   \   0001A1   12....       LCALL     ?XSTACK_DISP0_8
   \   0001A4   12....       LCALL     ?Subroutine110 & 0xFFFF
    931            }
   \                     ??CrossCallReturnLabel_182:
   \   0001A7   A9..         MOV       R1,?V3
   \   0001A9   12....       LCALL     `??ZDO_ConvertOTAClusters::?relay`; Banked call to: ZDO_ConvertOTAClusters
   \   0001AC   8003         SJMP      ??ZDO_ProcessMatchDescReq_9
    932            else
    933            {
    934              numOutClusters = 0;
   \                     ??ZDO_ProcessMatchDescReq_8:
   \   0001AE   75..00       MOV       ?V3,#0x0
    935            }
    936          
    937            // First count the number of endpoints that match.
    938            epDesc = epList;
   \                     ??ZDO_ProcessMatchDescReq_9:
   \   0001B1   90....       MOV       DPTR,#epList
   \   0001B4   8050         SJMP      ??CrossCallReturnLabel_361
    939            while ( epDesc )
    940            {
    941              // Don't search endpoint 0 and check if response is allowed
    942              if ( epDesc->epDesc->endPoint != ZDO_EP && (epDesc->flags&eEP_AllowMatch) )
    943              {
    944                if ( epDesc->pfnDescCB )
    945                {
    946                  sDesc = (SimpleDescriptionFormat_t *)epDesc->pfnDescCB( AF_DESCRIPTOR_SIMPLE, epDesc->epDesc->endPoint );
    947                  allocated = TRUE;
    948                }
    949                else
    950                {
    951                  sDesc = epDesc->epDesc->simpleDesc;
    952                  allocated = FALSE;
    953                }
    954          
    955                // Allow specific ProfileId or Wildcard ProfileID
    956                if ( sDesc && ( ( sDesc->AppProfId == profileID ) || ( profileID == ZDO_WILDCARD_PROFILE_ID ) ) )
    957                {
    958                  uint8 *uint8Buf = (uint8 *)ZDOBuildBuf;
    959          
    960                  // Are there matching input clusters?
    961                  if ((ZDO_AnyClusterMatches( numInClusters, inClusters,
    962                             sDesc->AppNumInClusters, sDesc->pAppInClusterList )) ||
    963                      // Are there matching output clusters?
    964                      (ZDO_AnyClusterMatches( numOutClusters, outClusters,
    965                             sDesc->AppNumOutClusters, sDesc->pAppOutClusterList )))
    966                  {
    967                    // Notify the endpoint of the match.
    968                    uint8 bufLen = sizeof( ZDO_MatchDescRspSent_t ) + (numOutClusters + numInClusters) * sizeof(uint16);
    969                    ZDO_MatchDescRspSent_t *pRspSent = (ZDO_MatchDescRspSent_t *) osal_msg_allocate( bufLen );
    970          
    971                    if (pRspSent)
    972                    {
    973                      pRspSent->hdr.event = ZDO_MATCH_DESC_RSP_SENT;
    974                      pRspSent->nwkAddr = inMsg->srcAddr.addr.shortAddr;
    975                      pRspSent->numInClusters = numInClusters;
    976                      pRspSent->numOutClusters = numOutClusters;
    977          
    978                      if (numInClusters)
    979                      {
    980                        pRspSent->pInClusters = (uint16*) (pRspSent + 1);
    981                        osal_memcpy(pRspSent->pInClusters, inClusters, numInClusters * sizeof(uint16));
    982                      }
    983                      else
    984                      {
    985                        pRspSent->pInClusters = NULL;
    986                      }
    987          
    988                      if (numOutClusters)
    989                      {
    990                        pRspSent->pOutClusters = (uint16*)(pRspSent + 1) + numInClusters;
    991                        osal_memcpy(pRspSent->pOutClusters, outClusters, numOutClusters * sizeof(uint16));
    992                      }
    993                      else
    994                      {
    995                        pRspSent->pOutClusters = NULL;
   \                     ??ZDO_ProcessMatchDescReq_10:
   \   0001B6   E4           CLR       A
   \   0001B7   F0           MOVX      @DPTR,A
   \   0001B8   A3           INC       DPTR
   \   0001B9   F0           MOVX      @DPTR,A
    996                      }
    997          
    998                      osal_msg_send( *epDesc->epDesc->task_id, (uint8 *)pRspSent );
   \                     ??ZDO_ProcessMatchDescReq_11:
   \   0001BA                ; Setup parameters for call to function osal_msg_send
   \   0001BA   AA..         MOV       R2,?V4
   \   0001BC   AB..         MOV       R3,?V5
   \   0001BE   7411         MOV       A,#0x11
   \   0001C0   12....       LCALL     ?XSTACK_DISP0_8
   \   0001C3   12....       LCALL     ??Subroutine244_0 & 0xFFFF
   \                     ??CrossCallReturnLabel_477:
   \   0001C6   12....       LCALL     ??Subroutine287_0 & 0xFFFF
   \                     ??CrossCallReturnLabel_703:
   \   0001C9   12....       LCALL     ??Subroutine244_0 & 0xFFFF
   \                     ??CrossCallReturnLabel_478:
   \   0001CC   F9           MOV       R1,A
   \   0001CD   12....       LCALL     `??osal_msg_send::?relay`; Banked call to: osal_msg_send
    999                    }
   1000          
   1001                    uint8Buf[epCnt++] = sDesc->EndPoint;
   \                     ??ZDO_ProcessMatchDescReq_12:
   \   0001D0   85..82       MOV       DPL,?XSP + 0
   \   0001D3   85..83       MOV       DPH,?XSP + 1
   \   0001D6   12....       LCALL     ??Subroutine244_0 & 0xFFFF
   \                     ??CrossCallReturnLabel_479:
   \   0001D9   C0E0         PUSH      A
   \   0001DB   7402         MOV       A,#0x2
   \   0001DD   12....       LCALL     ?XSTACK_DISP0_8
   \   0001E0   E0           MOVX      A,@DPTR
   \   0001E1   F8           MOV       R0,A
   \   0001E2   74..         MOV       A,#ZDOBuildBuf & 0xff
   \   0001E4   28           ADD       A,R0
   \   0001E5   F582         MOV       DPL,A
   \   0001E7   E4           CLR       A
   \   0001E8   34..         ADDC      A,#(ZDOBuildBuf >> 8) & 0xff
   \   0001EA   F583         MOV       DPH,A
   \   0001EC   D0E0         POP       A
   \   0001EE   F0           MOVX      @DPTR,A
   \   0001EF   7402         MOV       A,#0x2
   \   0001F1   12....       LCALL     ?XSTACK_DISP0_8
   \   0001F4   E0           MOVX      A,@DPTR
   \   0001F5   04           INC       A
   \   0001F6   F0           MOVX      @DPTR,A
   1002                  }
   1003                }
   1004          
   1005                if ( allocated )
   \                     ??ZDO_ProcessMatchDescReq_13:
   \   0001F7   A2..         MOV       C,?VB.0
   \   0001F9   5003         JNC       ??CrossCallReturnLabel_488
   1006                {
   1007                  osal_mem_free( sDesc );
   \   0001FB                ; Setup parameters for call to function osal_mem_free
   \   0001FB   12....       LCALL     ?Subroutine56 & 0xFFFF
   1008                }
   1009              }
   1010              epDesc = epDesc->nextDesc;
   \                     ??CrossCallReturnLabel_488:
   \   0001FE   7407         MOV       A,#0x7
   \   000200   12....       LCALL     ?XSTACK_DISP0_8
   \   000203   12....       LCALL     ?Subroutine99 & 0xFFFF
   \                     ??CrossCallReturnLabel_361:
   \   000206   12....       LCALL     ??Subroutine241_0 & 0xFFFF
   \                     ??CrossCallReturnLabel_439:
   \   000209   7407         MOV       A,#0x7
   \   00020B   12....       LCALL     ?XSTACK_DISP0_8
   \   00020E   12....       LCALL     ??Subroutine232_0 & 0xFFFF
   \                     ??CrossCallReturnLabel_382:
   \   000211   7407         MOV       A,#0x7
   \   000213   12....       LCALL     ?XSTACK_DISP0_8
   \   000216   12....       LCALL     ??Subroutine242_0 & 0xFFFF
   \                     ??CrossCallReturnLabel_449:
   \   000219   7003         JNZ       $+5
   \   00021B   02....       LJMP      ??ZDO_ProcessMatchDescReq_14 & 0xFFFF
   \   00021E   7407         MOV       A,#0x7
   \   000220   12....       LCALL     ?XSTACK_DISP0_8
   \   000223   12....       LCALL     ?Subroutine114 & 0xFFFF
   \                     ??CrossCallReturnLabel_188:
   \   000226   7411         MOV       A,#0x11
   \   000228   12....       LCALL     ?XSTACK_DISP0_8
   \   00022B   12....       LCALL     ??Subroutine232_0 & 0xFFFF
   \                     ??CrossCallReturnLabel_383:
   \   00022E   7411         MOV       A,#0x11
   \   000230   12....       LCALL     ?XSTACK_DISP0_8
   \   000233   12....       LCALL     ?Subroutine85 & 0xFFFF
   \                     ??CrossCallReturnLabel_143:
   \   000236   E8           MOV       A,R0
   \   000237   FA           MOV       R2,A
   \   000238   E9           MOV       A,R1
   \   000239   8882         MOV       DPL,R0
   \   00023B   F583         MOV       DPH,A
   \   00023D   E0           MOVX      A,@DPTR
   \   00023E   FC           MOV       R4,A
   \   00023F   60BD         JZ        ??CrossCallReturnLabel_488
   \   000241   7407         MOV       A,#0x7
   \   000243   12....       LCALL     ?XSTACK_DISP0_8
   \   000246   12....       LCALL     ??Subroutine289_0 & 0xFFFF
   \                     ??CrossCallReturnLabel_711:
   \   000249   2408         ADD       A,#0x8
   \   00024B   12....       LCALL     ?Subroutine152 & 0xFFFF
   \                     ??CrossCallReturnLabel_260:
   \   00024E   A2E0         MOV       C,0xE0 /* A   */.0
   \   000250   50AC         JNC       ??CrossCallReturnLabel_488
   \   000252   7407         MOV       A,#0x7
   \   000254   12....       LCALL     ?XSTACK_DISP0_8
   \   000257   12....       LCALL     ?Subroutine98 & 0xFFFF
   \                     ??CrossCallReturnLabel_704:
   \   00025A   A3           INC       DPTR
   \   00025B   A3           INC       DPTR
   \   00025C   12....       LCALL     ?Subroutine196 & 0xFFFF
   \                     ??CrossCallReturnLabel_323:
   \   00025F   E582         MOV       A,DPL
   \   000261   4583         ORL       A,DPH
   \   000263   6014         JZ        ??ZDO_ProcessMatchDescReq_15
   \   000265                ; Setup parameters for indirect call
   \   000265   EC           MOV       A,R4
   \   000266   FA           MOV       R2,A
   \   000267   7901         MOV       R1,#0x1
   \   000269   12....       LCALL     ?CALL_IND
   \   00026C   85..82       MOV       DPL,?XSP + 0
   \   00026F   85..83       MOV       DPH,?XSP + 1
   \   000272   12....       LCALL     ?Subroutine41 & 0xFFFF
   \                     ??CrossCallReturnLabel_367:
   \   000275   D2..         SETB      ?VB.0
   \   000277   8010         SJMP      ??ZDO_ProcessMatchDescReq_16
   \                     ??ZDO_ProcessMatchDescReq_15:
   \   000279   8A82         MOV       DPL,R2
   \   00027B   8983         MOV       DPH,R1
   \   00027D   A3           INC       DPTR
   \   00027E   A3           INC       DPTR
   \   00027F   A3           INC       DPTR
   \   000280   A3           INC       DPTR
   \   000281   12....       LCALL     ?Subroutine221 & 0xFFFF
   \                     ??CrossCallReturnLabel_747:
   \   000284   12....       LCALL     ??Subroutine231_0 & 0xFFFF
   \                     ??CrossCallReturnLabel_396:
   \   000287   C2..         CLR       ?VB.0
   \                     ??ZDO_ProcessMatchDescReq_16:
   \   000289   12....       LCALL     ?Subroutine54 & 0xFFFF
   \                     ??CrossCallReturnLabel_468:
   \   00028C   7003         JNZ       $+5
   \   00028E   02....       LJMP      ??ZDO_ProcessMatchDescReq_13 & 0xFFFF
   \   000291   85..82       MOV       DPL,?XSP + 0
   \   000294   85..83       MOV       DPH,?XSP + 1
   \   000297   12....       LCALL     ??Subroutine228_0 & 0xFFFF
   \                     ??CrossCallReturnLabel_359:
   \   00029A   A3           INC       DPTR
   \   00029B   E0           MOVX      A,@DPTR
   \   00029C   6E           XRL       A,R6
   \   00029D   7003         JNZ       ??ZDO_ProcessMatchDescReq_17
   \   00029F   A3           INC       DPTR
   \   0002A0   E0           MOVX      A,@DPTR
   \   0002A1   6F           XRL       A,R7
   \                     ??ZDO_ProcessMatchDescReq_17:
   \   0002A2   600D         JZ        ??ZDO_ProcessMatchDescReq_18
   \   0002A4   74FF         MOV       A,#-0x1
   \   0002A6   6E           XRL       A,R6
   \   0002A7   7003         JNZ       ??ZDO_ProcessMatchDescReq_19
   \   0002A9   74FF         MOV       A,#-0x1
   \   0002AB   6F           XRL       A,R7
   \                     ??ZDO_ProcessMatchDescReq_19:
   \   0002AC   6003         JZ        $+5
   \   0002AE   02....       LJMP      ??ZDO_ProcessMatchDescReq_13 & 0xFFFF
   \                     ??ZDO_ProcessMatchDescReq_18:
   \   0002B1                ; Setup parameters for call to function ZDO_AnyClusterMatches
   \   0002B1   E8           MOV       A,R0
   \   0002B2   2407         ADD       A,#0x7
   \   0002B4   F582         MOV       DPL,A
   \   0002B6   E4           CLR       A
   \   0002B7   39           ADDC      A,R1
   \   0002B8   F583         MOV       DPH,A
   \   0002BA   12....       LCALL     ?PUSH_XSTACK8_X_TWO
   \   0002BD   7402         MOV       A,#0x2
   \   0002BF   12....       LCALL     ?XSTACK_DISP0_8
   \   0002C2   12....       LCALL     ??Subroutine289_0 & 0xFFFF
   \                     ??CrossCallReturnLabel_712:
   \   0002C5   2406         ADD       A,#0x6
   \   0002C7   12....       LCALL     ?Subroutine152 & 0xFFFF
   \                     ??CrossCallReturnLabel_261:
   \   0002CA   FC           MOV       R4,A
   \   0002CB   7407         MOV       A,#0x7
   \   0002CD   12....       LCALL     ?XSTACK_DISP0_8
   \   0002D0   12....       LCALL     ??Subroutine235_0 & 0xFFFF
   \                     ??CrossCallReturnLabel_405:
   \   0002D3   A9..         MOV       R1,?V6
   \   0002D5   12....       LCALL     `??ZDO_AnyClusterMatches::?relay`; Banked call to: ZDO_AnyClusterMatches
   \   0002D8   7402         MOV       A,#0x2
   \   0002DA   12....       LCALL     ?DEALLOC_XSTACK8
   \   0002DD   E9           MOV       A,R1
   \   0002DE   7036         JNZ       ??ZDO_ProcessMatchDescReq_20
   \   0002E0                ; Setup parameters for call to function ZDO_AnyClusterMatches
   \   0002E0   85..82       MOV       DPL,?XSP + 0
   \   0002E3   85..83       MOV       DPH,?XSP + 1
   \   0002E6   12....       LCALL     ??Subroutine289_0 & 0xFFFF
   \                     ??CrossCallReturnLabel_713:
   \   0002E9   240A         ADD       A,#0xa
   \   0002EB   F582         MOV       DPL,A
   \   0002ED   E4           CLR       A
   \   0002EE   38           ADDC      A,R0
   \   0002EF   F583         MOV       DPH,A
   \   0002F1   12....       LCALL     ?PUSH_XSTACK8_X_TWO
   \   0002F4   7402         MOV       A,#0x2
   \   0002F6   12....       LCALL     ?XSTACK_DISP0_8
   \   0002F9   12....       LCALL     ?Subroutine88 & 0xFFFF
   \                     ??CrossCallReturnLabel_147:
   \   0002FC   E0           MOVX      A,@DPTR
   \   0002FD   FC           MOV       R4,A
   \   0002FE   7405         MOV       A,#0x5
   \   000300   12....       LCALL     ?XSTACK_DISP0_8
   \   000303   12....       LCALL     ??Subroutine235_0 & 0xFFFF
   \                     ??CrossCallReturnLabel_406:
   \   000306   A9..         MOV       R1,?V3
   \   000308   12....       LCALL     `??ZDO_AnyClusterMatches::?relay`; Banked call to: ZDO_AnyClusterMatches
   \   00030B   7402         MOV       A,#0x2
   \   00030D   12....       LCALL     ?DEALLOC_XSTACK8
   \   000310   E9           MOV       A,R1
   \   000311   7003         JNZ       $+5
   \   000313   02....       LJMP      ??ZDO_ProcessMatchDescReq_13 & 0xFFFF
   \                     ??ZDO_ProcessMatchDescReq_20:
   \   000316                ; Setup parameters for call to function osal_msg_allocate
   \   000316   E5..         MOV       A,?V3
   \   000318   25..         ADD       A,?V6
   \   00031A   C3           CLR       C
   \   00031B   33           RLC       A
   \   00031C   240A         ADD       A,#0xa
   \   00031E   FA           MOV       R2,A
   \   00031F   7B00         MOV       R3,#0x0
   \   000321   12....       LCALL     `??osal_msg_allocate::?relay`; Banked call to: osal_msg_allocate
   \   000324   8A..         MOV       ?V4,R2
   \   000326   8B..         MOV       ?V5,R3
   \   000328   EA           MOV       A,R2
   \   000329   4B           ORL       A,R3
   \   00032A   7003         JNZ       $+5
   \   00032C   02....       LJMP      ??ZDO_ProcessMatchDescReq_12 & 0xFFFF
   \   00032F   8A82         MOV       DPL,R2
   \   000331   8B83         MOV       DPH,R3
   \   000333   74D2         MOV       A,#-0x2e
   \   000335   F0           MOVX      @DPTR,A
   \   000336   7409         MOV       A,#0x9
   \   000338   12....       LCALL     ?XSTACK_DISP0_8
   \   00033B   12....       LCALL     ?Subroutine85 & 0xFFFF
   \                     ??CrossCallReturnLabel_144:
   \   00033E   8A82         MOV       DPL,R2
   \   000340   8B83         MOV       DPH,R3
   \   000342   A3           INC       DPTR
   \   000343   A3           INC       DPTR
   \   000344   12....       LCALL     ??Subroutine232_0 & 0xFFFF
   \                     ??CrossCallReturnLabel_384:
   \   000347   8A82         MOV       DPL,R2
   \   000349   8B83         MOV       DPH,R3
   \   00034B   A3           INC       DPTR
   \   00034C   A3           INC       DPTR
   \   00034D   A3           INC       DPTR
   \   00034E   A3           INC       DPTR
   \   00034F   E5..         MOV       A,?V6
   \   000351   12....       LCALL     ??Subroutine274_0 & 0xFFFF
   \                     ??CrossCallReturnLabel_617:
   \   000354   A3           INC       DPTR
   \   000355   A3           INC       DPTR
   \   000356   A3           INC       DPTR
   \   000357   A3           INC       DPTR
   \   000358   A3           INC       DPTR
   \   000359   A3           INC       DPTR
   \   00035A   E5..         MOV       A,?V3
   \   00035C   F0           MOVX      @DPTR,A
   \   00035D   EA           MOV       A,R2
   \   00035E   2405         ADD       A,#0x5
   \   000360   F582         MOV       DPL,A
   \   000362   E4           CLR       A
   \   000363   35..         ADDC      A,?V5
   \   000365   F583         MOV       DPH,A
   \   000367   E5..         MOV       A,?V6
   \   000369   6020         JZ        ??ZDO_ProcessMatchDescReq_21
   \   00036B   EA           MOV       A,R2
   \   00036C   240A         ADD       A,#0xa
   \   00036E   FA           MOV       R2,A
   \   00036F   E4           CLR       A
   \   000370   35..         ADDC      A,?V5
   \   000372   FB           MOV       R3,A
   \   000373   12....       LCALL     ?Subroutine41 & 0xFFFF
   \                     ??CrossCallReturnLabel_368:
   \   000376                ; Setup parameters for call to function osal_memcpy
   \   000376   7405         MOV       A,#0x5
   \   000378   12....       LCALL     ?XSTACK_DISP0_8
   \   00037B   12....       LCALL     ?Subroutine65 & 0xFFFF
   \                     ??CrossCallReturnLabel_104:
   \   00037E   12....       LCALL     ?PUSH_XSTACK_I_THREE
   \   000381   AC..         MOV       R4,?V6
   \   000383   12....       LCALL     ?Subroutine130 & 0xFFFF
   \                     ??CrossCallReturnLabel_217:
   \   000386   12....       LCALL     ?DEALLOC_XSTACK8
   \   000389   8004         SJMP      ??ZDO_ProcessMatchDescReq_22
   \                     ??ZDO_ProcessMatchDescReq_21:
   \   00038B   E4           CLR       A
   \   00038C   F0           MOVX      @DPTR,A
   \   00038D   A3           INC       DPTR
   \   00038E   F0           MOVX      @DPTR,A
   \                     ??ZDO_ProcessMatchDescReq_22:
   \   00038F   E5..         MOV       A,?V4
   \   000391   2408         ADD       A,#0x8
   \   000393   F582         MOV       DPL,A
   \   000395   E4           CLR       A
   \   000396   35..         ADDC      A,?V5
   \   000398   F583         MOV       DPH,A
   \   00039A   E5..         MOV       A,?V3
   \   00039C   7003         JNZ       $+5
   \   00039E   02....       LJMP      ??ZDO_ProcessMatchDescReq_10 & 0xFFFF
   \   0003A1   A8..         MOV       R0,?V6
   \   0003A3   12....       LCALL     ?Subroutine197 & 0xFFFF
   1011            }
   \                     ??CrossCallReturnLabel_326:
   \   0003A6   E5..         MOV       A,?V4
   \   0003A8   28           ADD       A,R0
   \   0003A9   F8           MOV       R0,A
   \   0003AA   E5..         MOV       A,?V5
   \   0003AC   39           ADDC      A,R1
   \   0003AD   F9           MOV       R1,A
   \   0003AE   E8           MOV       A,R0
   \   0003AF   240A         ADD       A,#0xa
   \   0003B1   FA           MOV       R2,A
   \   0003B2   E4           CLR       A
   \   0003B3   39           ADDC      A,R1
   \   0003B4   FB           MOV       R3,A
   \   0003B5   12....       LCALL     ?Subroutine18 & 0xFFFF
   \                     ??CrossCallReturnLabel_19:
   \   0003B8   12....       LCALL     ?XSTACK_DISP0_8
   \   0003BB   12....       LCALL     ?Subroutine65 & 0xFFFF
   \                     ??CrossCallReturnLabel_105:
   \   0003BE   12....       LCALL     ?PUSH_XSTACK_I_THREE
   \   0003C1   AC..         MOV       R4,?V3
   \   0003C3   12....       LCALL     ?Subroutine130 & 0xFFFF
   \                     ??CrossCallReturnLabel_218:
   \   0003C6   12....       LCALL     ?DEALLOC_XSTACK8
   \   0003C9   02....       LJMP      ??ZDO_ProcessMatchDescReq_11 & 0xFFFF
   1012          
   1013            if ( epCnt )
   \                     ??ZDO_ProcessMatchDescReq_14:
   \   0003CC   7402         MOV       A,#0x2
   \   0003CE   12....       LCALL     ?XSTACK_DISP0_8
   \   0003D1   E0           MOVX      A,@DPTR
   \   0003D2   6049         JZ        ??ZDO_ProcessMatchDescReq_23
   1014            {
   1015              // Send the message if at least one match found.
   1016              if ( ZSuccess == ZDP_MatchDescRsp( inMsg->TransSeq, &(inMsg->srcAddr), ZDP_SUCCESS,
   1017                        ZDAppNwkAddr.addr.shortAddr, epCnt, (uint8 *)ZDOBuildBuf, inMsg->SecurityUse ) )
   \   0003D4                ; Setup parameters for call to function ZDP_EPRsp
   \   0003D4   740D         MOV       A,#0xd
   \   0003D6   12....       LCALL     ?XSTACK_DISP0_8
   \   0003D9   12....       LCALL     ?Subroutine58 & 0xFFFF
   \                     ??CrossCallReturnLabel_92:
   \   0003DC   12....       LCALL     ?PUSH_XSTACK_I_ONE
   \   0003DF   75....       MOV       ?V0,#ZDOBuildBuf & 0xff
   \   0003E2   75....       MOV       ?V1,#(ZDOBuildBuf >> 8) & 0xff
   \   0003E5   78..         MOV       R0,#?V0
   \   0003E7   12....       LCALL     ?PUSH_XSTACK_I_TWO
   \   0003EA   7405         MOV       A,#0x5
   \   0003EC   12....       LCALL     ?XSTACK_DISP0_8
   \   0003EF   12....       LCALL     ??Subroutine240_0 & 0xFFFF
   \                     ??CrossCallReturnLabel_432:
   \   0003F2   12....       LCALL     ?PUSH_XSTACK_I_ONE
   \   0003F5   90....       MOV       DPTR,#ZDAppNwkAddr
   \   0003F8   12....       LCALL     ?PUSH_XSTACK8_X_TWO
   \   0003FB   75..00       MOV       ?V0,#0x0
   \   0003FE   78..         MOV       R0,#?V0
   \   000400   12....       LCALL     ?PUSH_XSTACK_I_ONE
   \   000403   7410         MOV       A,#0x10
   \   000405   12....       LCALL     ?XSTACK_DISP0_8
   \   000408   12....       LCALL     ?Subroutine76 & 0xFFFF
   \                     ??CrossCallReturnLabel_129:
   \   00040B   12....       LCALL     ?XSTACK_DISP0_8
   \   00040E   12....       LCALL     ?Subroutine55 & 0xFFFF
   \                     ??CrossCallReturnLabel_88:
   \   000411   12....       LCALL     ?DEALLOC_XSTACK8
   \   000414   E9           MOV       A,R1
   \   000415   705B         JNZ       ??ZDO_ProcessMatchDescReq_24
   1018              {
   1019          #if defined( LCD_SUPPORTED )
   1020                HalLcdWriteScreen( "Match Desc Req", "Rsp Sent" );
   \   000417                ; Setup parameters for call to function HalLcdWriteScreen
   \   000417   7C..         MOV       R4,#`?<Constant "Rsp Sent">` & 0xff
   \   000419   7D..         MOV       R5,#(`?<Constant "Rsp Sent">` >> 8) & 0xff
   \   00041B   804E         SJMP      ??ZDO_ProcessMatchDescReq_25
   1021          #endif
   1022              }
   1023            }
   1024            else
   1025            {
   1026              if (!inMsg->wasBroadcast)
   \                     ??ZDO_ProcessMatchDescReq_23:
   \   00041D   740B         MOV       A,#0xb
   \   00041F   12....       LCALL     ?XSTACK_DISP0_8
   \   000422   12....       LCALL     ?Subroutine80 & 0xFFFF
   \                     ??CrossCallReturnLabel_133:
   \   000425   7040         JNZ       ??ZDO_ProcessMatchDescReq_26
   1027              {
   1028                // send response message with match length = 0
   1029                ZDP_MatchDescRsp( inMsg->TransSeq, &(inMsg->srcAddr), ZDP_SUCCESS,
   1030                                  ZDAppNwkAddr.addr.shortAddr, 0, (uint8 *)ZDOBuildBuf, inMsg->SecurityUse );
   \   000427                ; Setup parameters for call to function ZDP_EPRsp
   \   000427   740D         MOV       A,#0xd
   \   000429   12....       LCALL     ?XSTACK_DISP0_8
   \   00042C   12....       LCALL     ?Subroutine58 & 0xFFFF
   \                     ??CrossCallReturnLabel_93:
   \   00042F   12....       LCALL     ?PUSH_XSTACK_I_ONE
   \   000432   75....       MOV       ?V0,#ZDOBuildBuf & 0xff
   \   000435   75....       MOV       ?V1,#(ZDOBuildBuf >> 8) & 0xff
   \   000438   78..         MOV       R0,#?V0
   \   00043A   12....       LCALL     ?PUSH_XSTACK_I_TWO
   \   00043D   75..00       MOV       ?V0,#0x0
   \   000440   78..         MOV       R0,#?V0
   \   000442   12....       LCALL     ?PUSH_XSTACK_I_ONE
   \   000445   90....       MOV       DPTR,#ZDAppNwkAddr
   \   000448   12....       LCALL     ?PUSH_XSTACK8_X_TWO
   \   00044B   78..         MOV       R0,#?V0
   \   00044D   12....       LCALL     ?PUSH_XSTACK_I_ONE
   \   000450   7410         MOV       A,#0x10
   \   000452   12....       LCALL     ?XSTACK_DISP0_8
   \   000455   12....       LCALL     ?Subroutine76 & 0xFFFF
   \                     ??CrossCallReturnLabel_130:
   \   000458   12....       LCALL     ?XSTACK_DISP0_8
   \   00045B   12....       LCALL     ?Subroutine55 & 0xFFFF
   \                     ??CrossCallReturnLabel_89:
   \   00045E   12....       LCALL     ?DEALLOC_XSTACK8
   1031          #if defined( LCD_SUPPORTED )
   1032                HalLcdWriteScreen( "Match Desc Req", "Rsp Non Matched" );
   \   000461                ; Setup parameters for call to function HalLcdWriteScreen
   \   000461   7C..         MOV       R4,#`?<Constant "Rsp Non Matched">` & 0xff
   \   000463   7D..         MOV       R5,#(`?<Constant "Rsp Non Matched">` >> 8) & 0xff
   \   000465   8004         SJMP      ??ZDO_ProcessMatchDescReq_25
   1033          #endif
   1034              }
   1035              else
   1036              {
   1037                // no response mesage for broadcast message
   1038          #if defined( LCD_SUPPORTED )
   1039                HalLcdWriteScreen( "Match Desc Req", "Non Matched" );
   \                     ??ZDO_ProcessMatchDescReq_26:
   \   000467                ; Setup parameters for call to function HalLcdWriteScreen
   \   000467   7C..         MOV       R4,#`?<Constant "Non Matched">` & 0xff
   \   000469   7D..         MOV       R5,#(`?<Constant "Non Matched">` >> 8) & 0xff
   \                     ??ZDO_ProcessMatchDescReq_25:
   \   00046B   7A..         MOV       R2,#`?<Constant "Match Desc Req">` & 0xff
   \   00046D   7B..         MOV       R3,#(`?<Constant "Match Desc Req">` >> 8) & 0xff
   \   00046F   12....       LCALL     `??HalLcdWriteScreen::?relay`; Banked call to: HalLcdWriteScreen
   1040          #endif
   1041              }
   1042            }
   1043          
   1044            if ( inClusters != NULL )
   \                     ??ZDO_ProcessMatchDescReq_24:
   \   000472   7405         MOV       A,#0x5
   \   000474   12....       LCALL     ?XSTACK_DISP0_8
   \   000477   12....       LCALL     ??Subroutine242_0 & 0xFFFF
   \                     ??CrossCallReturnLabel_450:
   \   00047A   6008         JZ        ??CrossCallReturnLabel_489
   1045            {
   1046              osal_mem_free( inClusters );
   \   00047C                ; Setup parameters for call to function osal_mem_free
   \   00047C   7405         MOV       A,#0x5
   \   00047E   12....       LCALL     ?XSTACK_DISP0_8
   \   000481   12....       LCALL     ??Subroutine246_0 & 0xFFFF
   1047            }
   1048          
   1049            if ( outClusters != NULL )
   \                     ??CrossCallReturnLabel_489:
   \   000484   7403         MOV       A,#0x3
   \   000486   12....       LCALL     ?XSTACK_DISP0_8
   \   000489   12....       LCALL     ??Subroutine242_0 & 0xFFFF
   \                     ??CrossCallReturnLabel_451:
   \   00048C   6008         JZ        ??CrossCallReturnLabel_490
   1050            {
   1051              osal_mem_free( outClusters );
   \   00048E                ; Setup parameters for call to function osal_mem_free
   \   00048E   7403         MOV       A,#0x3
   \   000490   12....       LCALL     ?XSTACK_DISP0_8
   \   000493   12....       LCALL     ??Subroutine246_0 & 0xFFFF
   1052            }
   1053          }
   \                     ??CrossCallReturnLabel_490:
   \   000496   7413         MOV       A,#0x13
   \   000498                REQUIRE ?Subroutine6
   \   000498                ; // Fall through to label ?Subroutine6

   \                                 In  segment BANKED_CODE, align 1, keep-with-next
   \                     ?Subroutine6:
   \   000000   12....       LCALL     ?DEALLOC_XSTACK8
   \   000003   7F07         MOV       R7,#0x7
   \   000005   02....       LJMP      ?BANKED_LEAVE_XDATA

   \                                 In  segment BANKED_CODE, align 1, keep-with-next
   \                     ?Subroutine130:
   \   000000   EC           MOV       A,R4
   \   000001   2C           ADD       A,R4
   \   000002   FC           MOV       R4,A
   \   000003   E4           CLR       A
   \   000004   33           RLC       A
   \   000005   FD           MOV       R5,A
   \   000006   12....       LCALL     `??osal_memcpy::?relay`; Banked call to: osal_memcpy
   \   000009   7403         MOV       A,#0x3
   \   00000B   22           RET

   \                                 In  segment BANKED_CODE, align 1, keep-with-next
   \                     ?Subroutine129:
   \   000000   12....       LCALL     ?Subroutine200 & 0xFFFF
   \                     ??CrossCallReturnLabel_331:
   \   000003   22           RET

   \                                 In  segment BANKED_CODE, align 1, keep-with-next
   \                     ?Subroutine200:
   \   000000   25E0         ADD       A,0xE0 /* A   */
   \   000002   FA           MOV       R2,A
   \   000003   E4           CLR       A
   \   000004   33           RLC       A
   \   000005   FB           MOV       R3,A
   \   000006   12....       LCALL     `??osal_mem_alloc::?relay`; Banked call to: osal_mem_alloc
   \   000009   22           RET

   \                                 In  segment BANKED_CODE, align 1, keep-with-next
   \                     ?Subroutine114:
   \   000000   E0           MOVX      A,@DPTR
   \   000001   2402         ADD       A,#0x2
   \   000003   F8           MOV       R0,A
   \   000004   A3           INC       DPTR
   \   000005   E0           MOVX      A,@DPTR
   \   000006   3400         ADDC      A,#0x0
   \   000008   F9           MOV       R1,A
   \   000009   22           RET

   \                                 In  segment BANKED_CODE, align 1, keep-with-next
   \                     ?Subroutine110:
   \   000000   E0           MOVX      A,@DPTR
   \   000001   FC           MOV       R4,A
   \   000002   A3           INC       DPTR
   \   000003   E0           MOVX      A,@DPTR
   \   000004   FD           MOV       R5,A
   \   000005   AA..         MOV       R2,?V0
   \   000007   AB..         MOV       R3,?V1
   \   000009   22           RET

   \                                 In  segment BANKED_CODE, align 1, keep-with-next
   \                     ?Subroutine99:
   \   000000   E0           MOVX      A,@DPTR
   \   000001   F8           MOV       R0,A
   \   000002                REQUIRE ??Subroutine228_0
   \   000002                ; // Fall through to label ??Subroutine228_0

   \                                 In  segment BANKED_CODE, align 1, keep-with-next
   \                     ??Subroutine228_0:
   \   000000   A3           INC       DPTR
   \   000001                REQUIRE ??Subroutine229_0
   \   000001                ; // Fall through to label ??Subroutine229_0

   \                                 In  segment BANKED_CODE, align 1, keep-with-next
   \                     ??Subroutine229_0:
   \   000000   E0           MOVX      A,@DPTR
   \   000001   F583         MOV       DPH,A
   \   000003   8882         MOV       DPL,R0
   \   000005   22           RET

   \                                 In  segment BANKED_CODE, align 1, keep-with-next
   \                     ?Subroutine85:
   \   000000   12....       LCALL     ?Subroutine183 & 0xFFFF
   \                     ??CrossCallReturnLabel_314:
   \   000003   F8           MOV       R0,A
   \   000004   A3           INC       DPTR
   \   000005   E0           MOVX      A,@DPTR
   \   000006   F9           MOV       R1,A
   \   000007   22           RET

   \                                 In  segment BANKED_CODE, align 1, keep-with-next
   \                     ?Subroutine76:
   \   000000   E0           MOVX      A,@DPTR
   \   000001   FC           MOV       R4,A
   \   000002   A3           INC       DPTR
   \   000003   E0           MOVX      A,@DPTR
   \   000004   FD           MOV       R5,A
   \   000005   7416         MOV       A,#0x16
   \   000007   22           RET

   \                                 In  segment BANKED_CODE, align 1, keep-with-next
   \                     ?Subroutine58:
   \   000000   12....       LCALL     ?Subroutine183 & 0xFFFF
   \                     ??CrossCallReturnLabel_313:
   \   000003   F5..         MOV       ?V0,A
   \   000005   78..         MOV       R0,#?V0
   \   000007   22           RET

   \                                 In  segment BANKED_CODE, align 1, keep-with-next
   \                     ?Subroutine183:
   \   000000   E0           MOVX      A,@DPTR
   \   000001   12....       LCALL     ?Subroutine216 & 0xFFFF
   \                     ??CrossCallReturnLabel_485:
   \   000004   22           RET

   \                                 In  segment BANKED_CODE, align 1, keep-with-next
   \                     ?Subroutine55:
   \   000000   12....       LCALL     ?Subroutine183 & 0xFFFF
   \                     ??CrossCallReturnLabel_312:
   \   000003   F9           MOV       R1,A
   \   000004   7A06         MOV       R2,#0x6
   \   000006   7B80         MOV       R3,#-0x80
   \   000008   12....       LCALL     `??ZDP_EPRsp::?relay`; Banked call to: ZDP_EPRsp
   \   00000B   7407         MOV       A,#0x7
   \   00000D   22           RET

   \                                 In  segment BANKED_CODE, align 1, keep-with-next
   \                     ?Subroutine79:
   \   000000   12....       LCALL     ??Subroutine251_0 & 0xFFFF
   \                     ??CrossCallReturnLabel_736:
   \   000003   12....       LCALL     ??Subroutine237_0 & 0xFFFF
   \                     ??CrossCallReturnLabel_425:
   \   000006   12....       LCALL     ??Subroutine260_0 & 0xFFFF
   \                     ??CrossCallReturnLabel_548:
   \   000009   22           RET

   \                                 In  segment BANKED_CODE, align 1, keep-with-next
   \                     ?Subroutine39:
   \   000000   12....       LCALL     ?Subroutine174 & 0xFFFF
   \                     ??CrossCallReturnLabel_691:
   \   000003   7402         MOV       A,#0x2
   \   000005   22           RET

   \                                 In  segment BANKED_CODE, align 1, keep-with-next
   \                     ??Subroutine231_0:
   \   000000   F9           MOV       R1,A
   \   000001   85..82       MOV       DPL,?XSP + 0
   \   000004   85..83       MOV       DPH,?XSP + 1
   \   000007                REQUIRE ??Subroutine232_0
   \   000007                ; // Fall through to label ??Subroutine232_0

   \                                 In  segment BANKED_CODE, align 1, keep-with-next
   \                     ??Subroutine232_0:
   \   000000   E8           MOV       A,R0
   \   000001                REQUIRE ??Subroutine233_0
   \   000001                ; // Fall through to label ??Subroutine233_0

   \                                 In  segment BANKED_CODE, align 1, keep-with-next
   \                     ??Subroutine233_0:
   \   000000   F0           MOVX      @DPTR,A
   \   000001   A3           INC       DPTR
   \   000002   E9           MOV       A,R1
   \   000003   F0           MOVX      @DPTR,A
   \   000004   22           RET

   \                                 In  segment BANKED_CODE, align 1, keep-with-next
   \                     ??Subroutine240_0:
   \   000000   E0           MOVX      A,@DPTR
   \   000001   F5..         MOV       ?V0,A
   \   000003   78..         MOV       R0,#?V0
   \   000005   22           RET

   \                                 In  segment BANKED_CODE, align 1, keep-with-next
   \                     ?Subroutine26:
   \   000000   E8           MOV       A,R0
   \   000001   F0           MOVX      @DPTR,A
   \   000002   A3           INC       DPTR
   \   000003   E9           MOV       A,R1
   \   000004   F0           MOVX      @DPTR,A
   \   000005                ; Setup parameters for call to function AddrMgrEntryLookupNwk
   \   000005                ; Setup parameters for call to function AddrMgrEntryUpdate
   \   000005   740B         MOV       A,#0xb
   \   000007   22           RET

   \                                 In  segment BANKED_CODE, align 1, keep-with-next
   \                     ?Subroutine18:
   \   000000   12....       LCALL     ?Subroutine174 & 0xFFFF
   \                     ??CrossCallReturnLabel_690:
   \   000003                ; Setup parameters for call to function osal_memcpy
   \   000003                ; Setup parameters for call to function AddrMgrExtAddrSet
   \   000003   7403         MOV       A,#0x3
   \   000005   22           RET

   \                                 In  segment BANKED_CODE, align 1, keep-with-next
   \                     ?Subroutine174:
   \   000000   EA           MOV       A,R2
   \   000001                REQUIRE ??Subroutine247_0
   \   000001                ; // Fall through to label ??Subroutine247_0

   \                                 In  segment BANKED_CODE, align 1, keep-with-next
   \                     ?Subroutine152:
   \   000000   12....       LCALL     ?Subroutine205 & 0xFFFF
   \                     ??CrossCallReturnLabel_555:
   \   000003   22           RET

   \                                 In  segment BANKED_CODE, align 1, keep-with-next
   \                     ??Subroutine251_0:
   \   000000   12....       LCALL     ?Subroutine215 & 0xFFFF
   \                     ??CrossCallReturnLabel_746:
   \   000003   22           RET

   \                                 In  segment BANKED_CODE, align 1, keep-with-next
   \                     ?Subroutine215:
   \   000000   12....       LCALL     ?Subroutine221 & 0xFFFF
   \                     ??CrossCallReturnLabel_752:
   \   000003   C8           XCH       A,R0
   \   000004   22           RET

   \                                 In  segment BANKED_CODE, align 1, keep-with-next
   \                     ?Subroutine205:
   \   000000   F582         MOV       DPL,A
   \   000002   E4           CLR       A
   \   000003                REQUIRE ??Subroutine260_0
   \   000003                ; // Fall through to label ??Subroutine260_0

   \                                 In  segment BANKED_CODE, align 1, keep-with-next
   \                     ??Subroutine260_0:
   \   000000   38           ADDC      A,R0
   \   000001   F583         MOV       DPH,A
   \   000003   E0           MOVX      A,@DPTR
   \   000004   22           RET

   \                                 In  segment BANKED_CODE, align 1, keep-with-next
   \                     ?Subroutine193:
   \   000000   F8           MOV       R0,A
   \   000001                REQUIRE ??Subroutine261_0
   \   000001                ; // Fall through to label ??Subroutine261_0

   \                                 In  segment BANKED_CODE, align 1, keep-with-next
   \                     ??Subroutine261_0:
   \   000000   A3           INC       DPTR
   \   000001   E0           MOVX      A,@DPTR
   \   000002   F583         MOV       DPH,A
   \   000004   8882         MOV       DPL,R0
   \   000006   A3           INC       DPTR
   \   000007   22           RET

   \                                 In  segment BANKED_CODE, align 1, keep-with-next
   \                     ??Subroutine263_0:
   \   000000   E0           MOVX      A,@DPTR
   \   000001   FA           MOV       R2,A
   \   000002   A3           INC       DPTR
   \   000003   E0           MOVX      A,@DPTR
   \   000004   22           RET

   \                                 In  segment BANKED_CODE, align 1, keep-with-next
   \                     ?Subroutine80:
   \   000000   12....       LCALL     ??Subroutine251_0 & 0xFFFF
   \                     ??CrossCallReturnLabel_737:
   \   000003   240B         ADD       A,#0xb
   \   000005   12....       LCALL     ?Subroutine205 & 0xFFFF
   \                     ??CrossCallReturnLabel_551:
   \   000008   22           RET

   \                                 In  segment BANKED_CODE, align 1, keep-with-next
   \                     ??Subroutine274_0:
   \   000000   12....       LCALL     ?Subroutine176 & 0xFFFF
   \                     ??CrossCallReturnLabel_620:
   \   000003   22           RET

   \                                 In  segment BANKED_CODE, align 1, keep-with-next
   \                     ?Subroutine176:
   \   000000   12....       LCALL     ?Subroutine210 & 0xFFFF
   \                     ??CrossCallReturnLabel_626:
   \   000003   A3           INC       DPTR
   \   000004   22           RET

   \                                 In  segment BANKED_CODE, align 1, keep-with-next
   \                     ?Subroutine210:
   \   000000   F0           MOVX      @DPTR,A
   \   000001   8A82         MOV       DPL,R2
   \   000003   8B83         MOV       DPH,R3
   \   000005   22           RET

   \                                 In  segment BANKED_CODE, align 1, keep-with-next
   \                     ?Subroutine109:
   \   000000   12....       LCALL     ??Subroutine263_0 & 0xFFFF
   \                     ??CrossCallReturnLabel_564:
   \   000003   F8           MOV       R0,A
   \   000004   E4           CLR       A
   \   000005   C8           XCH       A,R0
   \   000006   F9           MOV       R1,A
   \   000007   EA           MOV       A,R2
   \   000008   22           RET

   \                                 In  segment BANKED_CODE, align 1, keep-with-next
   \                     ?Subroutine102:
   \   000000   A3           INC       DPTR
   \   000001   E0           MOVX      A,@DPTR
   \   000002   FA           MOV       R2,A
   \   000003   85..82       MOV       DPL,?V0
   \   000006   85..83       MOV       DPH,?V1
   \   000009   A3           INC       DPTR
   \   00000A   A3           INC       DPTR
   \   00000B   22           RET

   \                                 In  segment BANKED_CODE, align 1, keep-with-next
   \                     ?Subroutine98:
   \   000000   E0           MOVX      A,@DPTR
   \   000001                REQUIRE ??Subroutine287_0
   \   000001                ; // Fall through to label ??Subroutine287_0

   \                                 In  segment BANKED_CODE, align 1, keep-with-next
   \                     ??Subroutine287_0:
   \   000000   12....       LCALL     ?Subroutine193 & 0xFFFF
   \                     ??CrossCallReturnLabel_708:
   \   000003   A3           INC       DPTR
   \   000004   22           RET

   \                                 In  segment BANKED_CODE, align 1, keep-with-next
   \                     ??Subroutine289_0:
   \   000000   12....       LCALL     ??Subroutine251_0 & 0xFFFF
   \                     ??CrossCallReturnLabel_742:
   \   000003   22           RET

   \                                 In  segment BANKED_CODE, align 1, keep-with-next
   \                     ?Subroutine88:
   \   000000   12....       LCALL     ?Subroutine185 & 0xFFFF
   \                     ??CrossCallReturnLabel_318:
   \   000003   22           RET

   \                                 In  segment BANKED_CODE, align 1, keep-with-next
   \                     ?Subroutine185:
   \   000000   12....       LCALL     ?Subroutine215 & 0xFFFF
   \                     ??CrossCallReturnLabel_744:
   \   000003   2409         ADD       A,#0x9
   \   000005   F582         MOV       DPL,A
   \   000007   E4           CLR       A
   \   000008   38           ADDC      A,R0
   \   000009   F583         MOV       DPH,A
   \   00000B   22           RET

   \                                 In  segment BANKED_CODE, align 1, keep-with-next
   \                     ?Subroutine65:
   \   000000   12....       LCALL     ?Subroutine191 & 0xFFFF
   \                     ??CrossCallReturnLabel_538:
   \   000003   75..00       MOV       ?V2,#0x0
   \   000006   78..         MOV       R0,#?V0
   \   000008   22           RET
   1054          
   1055          #if defined ( REFLECTOR )
   1056          /*********************************************************************
   1057           * @fn      ZDO_ProcessBindUnbindReq()
   1058           *
   1059           * @brief   Called to process a Bind or Unbind Request message.
   1060           *
   1061           * @param   inMsg  - incoming message (request)
   1062           * @param   pReq - place to put parsed information
   1063           *
   1064           * @return  none
   1065           */

   \                                 In  segment BANKED_CODE, align 1, keep-with-next
   \                     ??Subroutine223_0:
   \   000000   12....       LCALL     ?DEALLOC_XSTACK8
   \   000003                REQUIRE ??Subroutine224_0
   \   000003                ; // Fall through to label ??Subroutine224_0

   \                                 In  segment BANKED_CODE, align 1, keep-with-next
   1066          void ZDO_ProcessBindUnbindReq( zdoIncomingMsg_t *inMsg, ZDO_BindUnbindReq_t *pReq )
   \                     ZDO_ProcessBindUnbindReq:
   1067          {
   \   000000                REQUIRE ?V0
   \   000000                REQUIRE ?V1
   \   000000                REQUIRE ?V2
   \   000000                REQUIRE ?V3
   \   000000                REQUIRE ?V4
   \   000000                REQUIRE ?V6
   \   000000                REQUIRE ?V7
   \   000000   74F0         MOV       A,#-0x10
   \   000002   12....       LCALL     ?BANKED_ENTER_XDATA
   \   000005                ; Saved register size: 16
   \   000005                ; Auto size: 12
   \   000005   74F4         MOV       A,#-0xc
   \   000007   12....       LCALL     ?ALLOC_XSTACK8
   \   00000A   8A..         MOV       ?V0,R2
   \   00000C   8B..         MOV       ?V1,R3
   \   00000E   EC           MOV       A,R4
   \   00000F   FE           MOV       R6,A
   \   000010   ED           MOV       A,R5
   \   000011   FF           MOV       R7,A
   1068            zAddrType_t SourceAddr;       // Binding Source addres
   1069            byte bindStat;
   1070          
   1071            SourceAddr.addrMode = Addr64Bit;
   \   000012   740B         MOV       A,#0xb
   \   000014   12....       LCALL     ?XSTACK_DISP0_8
   \   000017   7403         MOV       A,#0x3
   \   000019   F0           MOVX      @DPTR,A
   1072            osal_cpyExtAddr( SourceAddr.addr.extAddr, pReq->srcAddress );
   \   00001A                ; Setup parameters for call to function sAddrExtCpy
   \   00001A   12....       LCALL     ?XSTACK_DISP101_8
   \   00001D   12....       LCALL     `??sAddrExtCpy::?relay`; Banked call to: sAddrExtCpy
   1073          
   1074            // If the local device is not the primary binding cache
   1075            // check the src address of the bind request.
   1076            // If it is not the local device's extended address
   1077            // discard the request.
   1078            if ( !osal_ExtAddrEqual( SourceAddr.addr.extAddr, NLME_GetExtAddr()) ||
   1079                  (pReq->dstAddress.addrMode != Addr64Bit &&
   1080                   pReq->dstAddress.addrMode != AddrGroup) )
   \   000020                ; Setup parameters for call to function NLME_GetExtAddr
   \   000020   12....       LCALL     ?Subroutine125 & 0xFFFF
   \                     ??CrossCallReturnLabel_207:
   \   000023                ; Setup parameters for call to function sAddrExtCmp
   \   000023   7403         MOV       A,#0x3
   \   000025   12....       LCALL     ?XSTACK_DISP101_8
   \   000028   12....       LCALL     `??sAddrExtCmp::?relay`; Banked call to: sAddrExtCmp
   \   00002B   E9           MOV       A,R1
   \   00002C   601A         JZ        ??ZDO_ProcessBindUnbindReq_0
   \   00002E   EE           MOV       A,R6
   \   00002F   2413         ADD       A,#0x13
   \   000031   F5..         MOV       ?V6,A
   \   000033   E4           CLR       A
   \   000034   3F           ADDC      A,R7
   \   000035   F5..         MOV       ?V7,A
   \   000037   85..82       MOV       DPL,?V6
   \   00003A   F583         MOV       DPH,A
   \   00003C   E0           MOVX      A,@DPTR
   \   00003D   F8           MOV       R0,A
   \   00003E   7403         MOV       A,#0x3
   \   000040   68           XRL       A,R0
   \   000041   6010         JZ        ??ZDO_ProcessBindUnbindReq_1
   \   000043   7401         MOV       A,#0x1
   \   000045   68           XRL       A,R0
   \   000046   600B         JZ        ??ZDO_ProcessBindUnbindReq_1
   1081            {
   1082              bindStat = ZDP_NOT_SUPPORTED;
   \                     ??ZDO_ProcessBindUnbindReq_0:
   \   000048   85..82       MOV       DPL,?XSP + 0
   \   00004B   85..83       MOV       DPH,?XSP + 1
   \   00004E   7484         MOV       A,#-0x7c
   \   000050   02....       LJMP      ??ZDO_ProcessBindUnbindReq_2 & 0xFFFF
   1083            }
   1084            else
   1085            {
   1086              // Check source & destination endpoints
   1087              if ( (pReq->srcEndpoint == 0 || pReq->srcEndpoint > MAX_ENDPOINTS)
   1088                  || (( pReq->dstAddress.addrMode == Addr64Bit ) &&
   1089                      (pReq->dstEndpoint == 0 || pReq->dstEndpoint > MAX_ENDPOINTS)) )
   \                     ??ZDO_ProcessBindUnbindReq_1:
   \   000053   EE           MOV       A,R6
   \   000054   2408         ADD       A,#0x8
   \   000056   F5..         MOV       ?V2,A
   \   000058   E4           CLR       A
   \   000059   3F           ADDC      A,R7
   \   00005A   F5..         MOV       ?V3,A
   \   00005C   85..82       MOV       DPL,?V2
   \   00005F   F583         MOV       DPH,A
   \   000061   E0           MOVX      A,@DPTR
   \   000062   F9           MOV       R1,A
   \   000063   601E         JZ        ??ZDO_ProcessBindUnbindReq_3
   \   000065   74FF         MOV       A,#-0x1
   \   000067   69           XRL       A,R1
   \   000068   6019         JZ        ??ZDO_ProcessBindUnbindReq_3
   \   00006A   EE           MOV       A,R6
   \   00006B   2414         ADD       A,#0x14
   \   00006D   FC           MOV       R4,A
   \   00006E   E4           CLR       A
   \   00006F   3F           ADDC      A,R7
   \   000070   FD           MOV       R5,A
   \   000071   7403         MOV       A,#0x3
   \   000073   68           XRL       A,R0
   \   000074   7018         JNZ       ??ZDO_ProcessBindUnbindReq_4
   \   000076   8C82         MOV       DPL,R4
   \   000078   8D83         MOV       DPH,R5
   \   00007A   E0           MOVX      A,@DPTR
   \   00007B   F8           MOV       R0,A
   \   00007C   6005         JZ        ??ZDO_ProcessBindUnbindReq_3
   \   00007E   74FF         MOV       A,#-0x1
   \   000080   68           XRL       A,R0
   \   000081   700B         JNZ       ??ZDO_ProcessBindUnbindReq_4
   1090              {
   1091                bindStat = ZDP_INVALID_EP;
   \                     ??ZDO_ProcessBindUnbindReq_3:
   \   000083   85..82       MOV       DPL,?XSP + 0
   \   000086   85..83       MOV       DPH,?XSP + 1
   \   000089   7482         MOV       A,#-0x7e
   \   00008B   02....       LJMP      ??ZDO_ProcessBindUnbindReq_2 & 0xFFFF
   1092              }
   1093              else
   1094              {
   1095                if ( inMsg->clusterID == Bind_req )
   \                     ??ZDO_ProcessBindUnbindReq_4:
   \   00008E   EE           MOV       A,R6
   \   00008F   2409         ADD       A,#0x9
   \   000091   FA           MOV       R2,A
   \   000092   E4           CLR       A
   \   000093   3F           ADDC      A,R7
   \   000094   FB           MOV       R3,A
   \   000095   EE           MOV       A,R6
   \   000096   240B         ADD       A,#0xb
   \   000098   FE           MOV       R6,A
   \   000099   5001         JNC       ??ZDO_ProcessBindUnbindReq_5
   \   00009B   0F           INC       R7
   \                     ??ZDO_ProcessBindUnbindReq_5:
   \   00009C   12....       LCALL     ?Subroutine157 & 0xFFFF
   \                     ??CrossCallReturnLabel_655:
   \   00009F   E0           MOVX      A,@DPTR
   \   0000A0   6421         XRL       A,#0x21
   \   0000A2   7002         JNZ       ??ZDO_ProcessBindUnbindReq_6
   \   0000A4   A3           INC       DPTR
   \   0000A5   E0           MOVX      A,@DPTR
   \                     ??ZDO_ProcessBindUnbindReq_6:
   \   0000A6   7065         JNZ       ??ZDO_ProcessBindUnbindReq_7
   1096                {
   1097                  // Assume the table is full
   1098                  bindStat = ZDP_TABLE_FULL;
   \   0000A8   85..82       MOV       DPL,?XSP + 0
   \   0000AB   85..83       MOV       DPH,?XSP + 1
   \   0000AE   748C         MOV       A,#-0x74
   \   0000B0   12....       LCALL     ?Subroutine23 & 0xFFFF
   1099          
   1100          #if defined( APP_TP ) || defined( APP_TP2 )
   1101                  // For ZigBee Conformance Testing
   1102                  if ( bindNumOfEntries() < gNWK_MAX_BINDING_ENTRIES )
   1103          #endif
   1104                  {
   1105          #if defined ( ZDP_BIND_VALIDATION )
   1106                    uint16 nwkAddr;
   1107          
   1108                    // Verifies that a valid NWK address exists for the device
   1109                    // before creating a Binding entry. If NWK address does not
   1110                    // exist the request is sent out and the BindReq is saved, to
   1111                    // create the Bind Entry once the NwkAddrRsp is received
   1112                    if ( ( pReq->dstAddress.addrMode == Addr64Bit ) &&
   1113                         ( APSME_LookupNwkAddr( pReq->dstAddress.addr.extAddr, &nwkAddr ) == FALSE ) )
   1114                    {
   1115                      // find an empty bind slot in the pending Bind Req list
   1116                      ZDO_PendingBindReq_t *pPendingBind;
   1117          
   1118                      if ( ( pPendingBind = ZDApp_GetEmptyPendingBindReq() ) != NULL )
   1119                      {
   1120                        // copy the received request into the empty slot and all required info
   1121                        osal_memcpy( &(pPendingBind->bindReq), pReq, sizeof( ZDO_BindUnbindReq_t ) );
   1122          
   1123                        pPendingBind->srcAddr = inMsg->srcAddr;
   1124                        pPendingBind->securityUse = inMsg->SecurityUse;
   1125                        pPendingBind->transSeq = inMsg->TransSeq;
   1126                        pPendingBind->age = MAX_TIME_ADDR_REQ;
   1127          
   1128                        // create an entry in Address Manager
   1129                        ( void )bindAddrIndexGet( &(pReq->dstAddress) );
   1130          
   1131                        ZDP_NwkAddrReq( pReq->dstAddress.addr.extAddr, ZDP_ADDR_REQTYPE_SINGLE, 0, 0 );
   1132          
   1133                        osal_start_timerEx( ZDAppTaskID, ZDO_PENDING_BIND_REQ_EVT,
   1134                                            AGE_OUT_PEND_BIND_REQ_DELAY );
   1135                        return;
   1136                      }
   1137                    }
   1138                    // Add Bind entry
   1139                    else if ( APSME_BindRequest( pReq->srcEndpoint, pReq->clusterID,
   1140                                                 &(pReq->dstAddress), pReq->dstEndpoint ) == ZSuccess )
   1141                    {
   1142                      // valid entry
   1143                      bindStat = ZDP_SUCCESS;
   1144          
   1145                      // Notify to save info into NV
   1146                      ZDApp_NVUpdate();
   1147                    }
   1148          #else // ZDP_BIND_VALIDATION  is not Defined
   1149                    // Create binding entry first independently of existance of  valid NWK addres
   1150                    // if NWK address does not exist a request is sent out
   1151                    if ( APSME_BindRequest( pReq->srcEndpoint, pReq->clusterID,
   1152                                   &(pReq->dstAddress), pReq->dstEndpoint ) == ZSuccess )
   \                     ??CrossCallReturnLabel_31:
   \   0000B3   E0           MOVX      A,@DPTR
   \   0000B4   F5..         MOV       ?V4,A
   \   0000B6   78..         MOV       R0,#?V4
   \   0000B8   12....       LCALL     ?PUSH_XSTACK_I_ONE
   \   0000BB   EE           MOV       A,R6
   \   0000BC   FC           MOV       R4,A
   \   0000BD   EF           MOV       A,R7
   \   0000BE   FD           MOV       R5,A
   \   0000BF   8A82         MOV       DPL,R2
   \   0000C1   8B83         MOV       DPH,R3
   \   0000C3   12....       LCALL     ??Subroutine235_0 & 0xFFFF
   \                     ??CrossCallReturnLabel_407:
   \   0000C6   85..82       MOV       DPL,?V2
   \   0000C9   85..83       MOV       DPH,?V3
   \   0000CC   E0           MOVX      A,@DPTR
   \   0000CD   F9           MOV       R1,A
   \   0000CE   12....       LCALL     `??APSME_BindRequest::?relay`; Banked call to: APSME_BindRequest
   \   0000D1   7401         MOV       A,#0x1
   \   0000D3   12....       LCALL     ?DEALLOC_XSTACK8
   \   0000D6   E9           MOV       A,R1
   \   0000D7   7066         JNZ       ??ZDO_ProcessBindUnbindReq_8
   1153                    {
   1154                      uint16 nwkAddr;
   1155          
   1156                      // valid entry
   1157                      bindStat = ZDP_SUCCESS;
   \   0000D9   85..82       MOV       DPL,?XSP + 0
   \   0000DC   85..83       MOV       DPH,?XSP + 1
   \   0000DF   E4           CLR       A
   \   0000E0   F0           MOVX      @DPTR,A
   1158          
   1159                      // Notify to save info into NV
   1160                      ZDApp_NVUpdate();
   \   0000E1                ; Setup parameters for call to function ZDApp_NVUpdate
   \   0000E1   12....       LCALL     `??ZDApp_NVUpdate::?relay`; Banked call to: ZDApp_NVUpdate
   1161          
   1162                      // Check for the destination address
   1163                      if ( pReq->dstAddress.addrMode == Addr64Bit )
   \   0000E4   85..82       MOV       DPL,?V6
   \   0000E7   85..83       MOV       DPH,?V7
   \   0000EA   E0           MOVX      A,@DPTR
   \   0000EB   6403         XRL       A,#0x3
   \   0000ED   7050         JNZ       ??ZDO_ProcessBindUnbindReq_8
   1164                      {
   1165                        if ( APSME_LookupNwkAddr( pReq->dstAddress.addr.extAddr, &nwkAddr ) == FALSE )
   \   0000EF                ; Setup parameters for call to function APSME_LookupNwkAddr
   \   0000EF   7401         MOV       A,#0x1
   \   0000F1   12....       LCALL     ?XSTACK_DISP102_8
   \   0000F4   EE           MOV       A,R6
   \   0000F5   FA           MOV       R2,A
   \   0000F6   EF           MOV       A,R7
   \   0000F7   FB           MOV       R3,A
   \   0000F8   12....       LCALL     `??APSME_LookupNwkAddr::?relay`; Banked call to: APSME_LookupNwkAddr
   \   0000FB   E9           MOV       A,R1
   \   0000FC   7041         JNZ       ??ZDO_ProcessBindUnbindReq_8
   1166                        {
   1167                          ZDP_NwkAddrReq( pReq->dstAddress.addr.extAddr, ZDP_ADDR_REQTYPE_SINGLE, 0, 0 );
   \   0000FE                ; Setup parameters for call to function ZDP_NwkAddrReq
   \   0000FE   7D00         MOV       R5,#0x0
   \   000100   7C00         MOV       R4,#0x0
   \   000102   7900         MOV       R1,#0x0
   \   000104   EE           MOV       A,R6
   \   000105   FA           MOV       R2,A
   \   000106   EF           MOV       A,R7
   \   000107   FB           MOV       R3,A
   \   000108   12....       LCALL     `??ZDP_NwkAddrReq::?relay`; Banked call to: ZDP_NwkAddrReq
   \   00010B   8032         SJMP      ??ZDO_ProcessBindUnbindReq_8
   1168                        }
   1169                      }
   1170                    }
   1171          #endif
   1172                  }
   1173                }
   1174                else // Unbind_req
   1175                {
   1176                  if ( APSME_UnBindRequest( pReq->srcEndpoint, pReq->clusterID,
   1177                                 &(pReq->dstAddress), pReq->dstEndpoint ) == ZSuccess )
   \                     ??ZDO_ProcessBindUnbindReq_7:
   \   00010D                ; Setup parameters for call to function APSME_UnBindRequest
   \   00010D   8C82         MOV       DPL,R4
   \   00010F   8D83         MOV       DPH,R5
   \   000111   E0           MOVX      A,@DPTR
   \   000112   F5..         MOV       ?V2,A
   \   000114   78..         MOV       R0,#?V2
   \   000116   12....       LCALL     ?PUSH_XSTACK_I_ONE
   \   000119   EE           MOV       A,R6
   \   00011A   FC           MOV       R4,A
   \   00011B   EF           MOV       A,R7
   \   00011C   FD           MOV       R5,A
   \   00011D   8A82         MOV       DPL,R2
   \   00011F   8B83         MOV       DPH,R3
   \   000121   12....       LCALL     ??Subroutine235_0 & 0xFFFF
   \                     ??CrossCallReturnLabel_408:
   \   000124   12....       LCALL     `??APSME_UnBindRequest::?relay`; Banked call to: APSME_UnBindRequest
   \   000127   7401         MOV       A,#0x1
   \   000129   12....       LCALL     ?DEALLOC_XSTACK8
   \   00012C   E9           MOV       A,R1
   \   00012D   85..82       MOV       DPL,?XSP + 0
   \   000130   85..83       MOV       DPH,?XSP + 1
   \   000133   7007         JNZ       ??ZDO_ProcessBindUnbindReq_9
   1178                  {
   1179                    bindStat = ZDP_SUCCESS;
   \   000135   E4           CLR       A
   \   000136   F0           MOVX      @DPTR,A
   1180          
   1181                    // Notify to save info into NV
   1182                    ZDApp_NVUpdate();
   \   000137                ; Setup parameters for call to function ZDApp_NVUpdate
   \   000137   12....       LCALL     `??ZDApp_NVUpdate::?relay`; Banked call to: ZDApp_NVUpdate
   \   00013A   8003         SJMP      ??ZDO_ProcessBindUnbindReq_8
   1183                  }
   1184                  else
   1185                    bindStat = ZDP_NO_ENTRY;
   \                     ??ZDO_ProcessBindUnbindReq_9:
   \   00013C   7488         MOV       A,#-0x78
   \                     ??ZDO_ProcessBindUnbindReq_2:
   \   00013E   F0           MOVX      @DPTR,A
   1186                }
   1187              }
   1188            }
   1189          
   1190            // Send back a response message
   1191            ZDP_SendData( &(inMsg->TransSeq), &(inMsg->srcAddr),
   1192                         (inMsg->clusterID | ZDO_RESPONSE_BIT), 1, &bindStat,
   1193                         inMsg->SecurityUse );
   \                     ??ZDO_ProcessBindUnbindReq_8:
   \   00013F                ; Setup parameters for call to function ZDP_SendData
   \   00013F   12....       LCALL     ?Subroutine140 & 0xFFFF
   \                     ??CrossCallReturnLabel_239:
   \   000142   F5..         MOV       ?V2,A
   \   000144   78..         MOV       R0,#?V2
   \   000146   12....       LCALL     ?PUSH_XSTACK_I_ONE
   \   000149   7401         MOV       A,#0x1
   \   00014B   12....       LCALL     ?XSTACK_DISP100_8
   \   00014E   88..         MOV       ?V2,R0
   \   000150   89..         MOV       ?V3,R1
   \   000152   78..         MOV       R0,#?V2
   \   000154   12....       LCALL     ?PUSH_XSTACK_I_TWO
   \   000157   12....       LCALL     ?Subroutine157 & 0xFFFF
   \                     ??CrossCallReturnLabel_656:
   \   00015A   E0           MOVX      A,@DPTR
   \   00015B   F5..         MOV       ?V2,A
   \   00015D   A3           INC       DPTR
   \   00015E   E0           MOVX      A,@DPTR
   \   00015F   4480         ORL       A,#0x80
   \   000161   F5..         MOV       ?V3,A
   \   000163   78..         MOV       R0,#?V2
   \   000165   12....       LCALL     ?PUSH_XSTACK_I_TWO
   \   000168   12....       LCALL     ?Subroutine144 & 0xFFFF
   \                     ??CrossCallReturnLabel_245:
   \   00016B   12....       LCALL     ?DEALLOC_XSTACK8
   1194          }
   \   00016E   740C         MOV       A,#0xc
   \   000170   02....       LJMP      ??Subroutine223_0 & 0xFFFF

   \                                 In  segment BANKED_CODE, align 1, keep-with-next
   \                     ?Subroutine144:
   \   000000   7901         MOV       R1,#0x1
   \   000002   E5..         MOV       A,?V0
   \   000004   2402         ADD       A,#0x2
   \   000006   FC           MOV       R4,A
   \   000007   E4           CLR       A
   \   000008   35..         ADDC      A,?V1
   \   00000A   FD           MOV       R5,A
   \   00000B   E5..         MOV       A,?V0
   \   00000D   240F         ADD       A,#0xf
   \   00000F   FA           MOV       R2,A
   \   000010   E4           CLR       A
   \   000011   35..         ADDC      A,?V1
   \   000013   12....       LCALL     ?Subroutine208 & 0xFFFF
   \                     ??CrossCallReturnLabel_428:
   \   000016   22           RET

   \                                 In  segment BANKED_CODE, align 1, keep-with-next
   \                     ?Subroutine125:
   \   000000   12....       LCALL     `??NLME_GetExtAddr::?relay`; Banked call to: NLME_GetExtAddr
   \   000003   8A..         MOV       ?V2,R2
   \   000005   8B..         MOV       ?V3,R3
   \   000007   AC..         MOV       R4,?V2
   \   000009   AD..         MOV       R5,?V3
   \   00000B   22           RET

   \                                 In  segment BANKED_CODE, align 1, keep-with-next
   \                     ?Subroutine208:
   \   000000   FB           MOV       R3,A
   \   000001                REQUIRE ??Subroutine238_0
   \   000001                ; // Fall through to label ??Subroutine238_0

   \                                 In  segment BANKED_CODE, align 1, keep-with-next
   \                     ??Subroutine238_0:
   \   000000   12....       LCALL     `??ZDP_SendData::?relay`; Banked call to: ZDP_SendData
   \   000003   7405         MOV       A,#0x5
   \   000005   22           RET

   \                                 In  segment BANKED_CODE, align 1, keep-with-next
   \                     ?Subroutine140:
   \   000000   12....       LCALL     ?Subroutine198 & 0xFFFF
   \                     ??CrossCallReturnLabel_329:
   \   000003   E0           MOVX      A,@DPTR
   \   000004   22           RET

   \                                 In  segment BANKED_CODE, align 1, keep-with-next
   \                     ?Subroutine23:
   \   000000   F0           MOVX      @DPTR,A
   \   000001                ; Setup parameters for call to function APSME_BindRequest
   \   000001   8C82         MOV       DPL,R4
   \   000003   8D83         MOV       DPH,R5
   \   000005   22           RET

   \                                 In  segment BANKED_CODE, align 1, keep-with-next
   \                     ?Subroutine157:
   \   000000   E5..         MOV       A,?V0
   \   000002   240C         ADD       A,#0xc
   \   000004                REQUIRE ??Subroutine278_0
   \   000004                ; // Fall through to label ??Subroutine278_0

   \                                 In  segment BANKED_CODE, align 1, keep-with-next
   \                     ??Subroutine278_0:
   \   000000   F582         MOV       DPL,A
   \   000002   E4           CLR       A
   \   000003   35..         ADDC      A,?V1
   \   000005   F583         MOV       DPH,A
   \   000007   22           RET

   \                                 In  segment BANKED_CODE, align 1, keep-with-next
   \                     ?Subroutine198:
   \   000000   E5..         MOV       A,?V0
   \   000002   240E         ADD       A,#0xe
   \   000004   F582         MOV       DPL,A
   \   000006   E4           CLR       A
   \   000007   35..         ADDC      A,?V1
   \   000009   F583         MOV       DPH,A
   \   00000B   22           RET
   1195          #endif // REFLECTOR
   1196          
   1197          /*********************************************************************
   1198           * @fn      ZDO_UpdateAddrManager
   1199           *
   1200           * @brief   Update the Address Manager.
   1201           *
   1202           * @param   nwkAddr - network address
   1203           * @param   extAddr - extended address
   1204           *
   1205           * @return  none
   1206           */

   \                                 In  segment BANKED_CODE, align 1, keep-with-next
   1207          void ZDO_UpdateAddrManager( uint16 nwkAddr, uint8 *extAddr )
   \                     ZDO_UpdateAddrManager:
   1208          {
   \   000000   C082         PUSH      DPL
   \   000002   C083         PUSH      DPH
   \   000004                ; Saved register size: 2
   \   000004                ; Auto size: 13
   \   000004   74F3         MOV       A,#-0xd
   \   000006   12....       LCALL     ?ALLOC_XSTACK8
   1209            AddrMgrEntry_t addrEntry;
   1210          
   1211            // Update the address manager
   1212            addrEntry.user = ADDRMGR_USER_DEFAULT;
   \   000009   85..82       MOV       DPL,?XSP + 0
   \   00000C   85..83       MOV       DPH,?XSP + 1
   \   00000F   E4           CLR       A
   \   000010   F0           MOVX      @DPTR,A
   1213            addrEntry.nwkAddr = nwkAddr;
   \   000011   04           INC       A
   \   000012   12....       LCALL     ?XSTACK_DISP0_8
   \   000015   12....       LCALL     ?Subroutine18 & 0xFFFF
   1214            AddrMgrExtAddrSet( addrEntry.extAddr, extAddr );
   \                     ??CrossCallReturnLabel_20:
   \   000018   12....       LCALL     ?XSTACK_DISP0_8
   \   00001B   AA82         MOV       R2,DPL
   \   00001D   AB83         MOV       R3,DPH
   \   00001F   12....       LCALL     `??AddrMgrExtAddrSet::?relay`; Banked call to: AddrMgrExtAddrSet
   1215            AddrMgrEntryUpdate( &addrEntry );
   \   000022                ; Setup parameters for call to function AddrMgrEntryUpdate
   \   000022   AA..         MOV       R2,?XSP + 0
   \   000024   AB..         MOV       R3,?XSP + 1
   \   000026   12....       LCALL     `??AddrMgrEntryUpdate::?relay`; Banked call to: AddrMgrEntryUpdate
   1216          }
   \   000029   740D         MOV       A,#0xd
   \   00002B   12....       LCALL     ?DEALLOC_XSTACK8
   \   00002E   02....       LJMP      ?Subroutine0 & 0xFFFF
   1217          
   1218          /*********************************************************************
   1219           * @fn      ZDO_ProcessServerDiscReq
   1220           *
   1221           * @brief   Process the Server_Discovery_req message.
   1222           *
   1223           * @param   inMsg  - incoming message (request)
   1224           *
   1225           * @return  none
   1226           */

   \                                 In  segment BANKED_CODE, align 1, keep-with-next
   1227          void ZDO_ProcessServerDiscReq( zdoIncomingMsg_t *inMsg )
   \                     ZDO_ProcessServerDiscReq:
   1228          {
   \   000000                REQUIRE ?V0
   \   000000                REQUIRE ?V1
   \   000000   74F6         MOV       A,#-0xa
   \   000002   12....       LCALL     ?BANKED_ENTER_XDATA
   \   000005                ; Saved register size: 10
   \   000005                ; Auto size: 0
   \   000005   12....       LCALL     ?Subroutine138 & 0xFFFF
   1229            uint16 serverMask = BUILD_UINT16( inMsg->asdu[0], inMsg->asdu[1] );
   1230            uint16 matchMask = serverMask & ZDO_Config_Node_Descriptor.ServerMask;
   \                     ??CrossCallReturnLabel_232:
   \   000008   12....       LCALL     ?Subroutine107 & 0xFFFF
   \                     ??CrossCallReturnLabel_176:
   \   00000B   FA           MOV       R2,A
   \   00000C   A3           INC       DPTR
   \   00000D   E0           MOVX      A,@DPTR
   \   00000E   F9           MOV       R1,A
   \   00000F   EA           MOV       A,R2
   \   000010   F8           MOV       R0,A
   \   000011   90....       MOV       DPTR,#ZDO_Config_Node_Descriptor + 8
   \   000014   E0           MOVX      A,@DPTR
   \   000015   58           ANL       A,R0
   \   000016   F5..         MOV       ?V0,A
   \   000018   A3           INC       DPTR
   \   000019   E0           MOVX      A,@DPTR
   \   00001A   59           ANL       A,R1
   \   00001B   F5..         MOV       ?V1,A
   1231          
   1232            if ( matchMask )
   \   00001D   E5..         MOV       A,?V0
   \   00001F   45..         ORL       A,?V1
   \   000021   6028         JZ        ??ZDO_ProcessServerDiscReq_0
   1233            {
   1234              ZDP_ServerDiscRsp( inMsg->TransSeq, &(inMsg->srcAddr), ZSUCCESS,
   1235                          ZDAppNwkAddr.addr.shortAddr, matchMask, inMsg->SecurityUse );
   \   000023                ; Setup parameters for call to function ZDP_ServerDiscRsp
   \   000023   78..         MOV       R0,#?V0
   \   000025   12....       LCALL     ?PUSH_XSTACK_I_TWO
   \   000028   90....       MOV       DPTR,#ZDAppNwkAddr
   \   00002B   12....       LCALL     ?PUSH_XSTACK8_X_TWO
   \   00002E   EE           MOV       A,R6
   \   00002F   12....       LCALL     ??Subroutine272_0 & 0xFFFF
   1236            }
   \                     ??CrossCallReturnLabel_610:
   \   000032   12....       LCALL     ??Subroutine279_0 & 0xFFFF
   \                     ??CrossCallReturnLabel_659:
   \   000035   FD           MOV       R5,A
   \   000036   7C00         MOV       R4,#0x0
   \   000038   12....       LCALL     ?Subroutine201 & 0xFFFF
   \                     ??CrossCallReturnLabel_335:
   \   00003B   EE           MOV       A,R6
   \   00003C   12....       LCALL     ?Subroutine148 & 0xFFFF
   \                     ??CrossCallReturnLabel_254:
   \   00003F   12....       LCALL     ??Subroutine279_0 & 0xFFFF
   \                     ??CrossCallReturnLabel_660:
   \   000042   F9           MOV       R1,A
   \   000043   12....       LCALL     `??ZDP_ServerDiscRsp::?relay`; Banked call to: ZDP_ServerDiscRsp
   \   000046   7404         MOV       A,#0x4
   \   000048   12....       LCALL     ?DEALLOC_XSTACK8
   1237          }
   \                     ??ZDO_ProcessServerDiscReq_0:
   \   00004B   02....       LJMP      ??Subroutine227_0 & 0xFFFF

   \                                 In  segment BANKED_CODE, align 1, keep-with-next
   \                     ?Subroutine138:
   \   000000   12....       LCALL     ?Subroutine204 & 0xFFFF
   \                     ??CrossCallReturnLabel_423:
   \   000003   3F           ADDC      A,R7
   \   000004   F583         MOV       DPH,A
   \   000006   22           RET

   \                                 In  segment BANKED_CODE, align 1, keep-with-next
   \                     ?Subroutine148:
   \   000000   240F         ADD       A,#0xf
   \   000002   F582         MOV       DPL,A
   \   000004   E4           CLR       A
   \   000005   22           RET
   1238          
   1239          /*********************************************************************
   1240           * Call Back Functions from APS  - API
   1241           */
   1242          
   1243          /*********************************************************************
   1244           * @fn          ZDO_EndDeviceTimeoutCB
   1245           *
   1246           * @brief       This function handles the binding timer for the End
   1247           *              Device Bind command.
   1248           *
   1249           * @param       none
   1250           *
   1251           * @return      none
   1252           */

   \                                 In  segment BANKED_CODE, align 1, keep-with-next
   1253          void ZDO_EndDeviceTimeoutCB( void )
   \                     ZDO_EndDeviceTimeoutCB:
   1254          {
   \   000000                REQUIRE ?V0
   \   000000                REQUIRE ?V1
   \   000000   74F6         MOV       A,#-0xa
   \   000002   12....       LCALL     ?BANKED_ENTER_XDATA
   \   000005                ; Saved register size: 10
   \   000005                ; Auto size: 2
   \   000005   74FE         MOV       A,#-0x2
   \   000007   12....       LCALL     ?ALLOC_XSTACK8
   1255          #if defined ( REFLECTOR )
   1256            byte stat;
   1257            if ( ZDO_EDBind )
   \   00000A   90....       MOV       DPTR,#ZDO_EDBind
   \   00000D   12....       LCALL     ??Subroutine242_0 & 0xFFFF
   \                     ??CrossCallReturnLabel_452:
   \   000010   7003         JNZ       $+5
   \   000012   02....       LJMP      ??ZDO_EndDeviceTimeoutCB_0 & 0xFFFF
   1258            {
   1259              stat = ZDO_EDBind->status;
   1260          
   1261              // Send the response message to the first sent
   1262              ZDO_SendEDBindRsp( ZDO_EDBind->SrcTransSeq, &(ZDO_EDBind->SrcAddr),
   1263                                  stat, ZDO_EDBind->SecurityUse );
   \   000015   E8           MOV       A,R0
   \   000016   2416         ADD       A,#0x16
   \   000018   F582         MOV       DPL,A
   \   00001A   E4           CLR       A
   \   00001B   39           ADDC      A,R1
   \   00001C   F583         MOV       DPH,A
   \   00001E   E0           MOVX      A,@DPTR
   \   00001F   85..82       MOV       DPL,?XSP + 0
   \   000022   85..83       MOV       DPH,?XSP + 1
   \   000025   12....       LCALL     ?Subroutine48 & 0xFFFF
   \                     ??CrossCallReturnLabel_79:
   \   000028   F583         MOV       DPH,A
   \   00002A   8882         MOV       DPL,R0
   \   00002C   E0           MOVX      A,@DPTR
   \   00002D   C0E0         PUSH      A
   \   00002F   7401         MOV       A,#0x1
   \   000031   12....       LCALL     ?XSTACK_DISP0_8
   \   000034   D0E0         POP       A
   \   000036   12....       LCALL     ?Subroutine48 & 0xFFFF
   \                     ??CrossCallReturnLabel_78:
   \   000039   C8           XCH       A,R0
   \   00003A   2415         ADD       A,#0x15
   \   00003C   12....       LCALL     ?Subroutine91 & 0xFFFF
   \                     ??CrossCallReturnLabel_436:
   \   00003F   12....       LCALL     ?PUSH_XSTACK_I_ONE
   \   000042   7401         MOV       A,#0x1
   \   000044   12....       LCALL     ?XSTACK_DISP100_8
   \   000047   88..         MOV       ?V0,R0
   \   000049   89..         MOV       ?V1,R1
   \   00004B   78..         MOV       R0,#?V0
   \   00004D   12....       LCALL     ?PUSH_XSTACK_I_TWO
   \   000050   75..20       MOV       ?V0,#0x20
   \   000053   75..80       MOV       ?V1,#-0x80
   \   000056   78..         MOV       R0,#?V0
   \   000058   12....       LCALL     ?PUSH_XSTACK_I_TWO
   \   00005B   7901         MOV       R1,#0x1
   \   00005D   90....       MOV       DPTR,#ZDO_EDBind
   \   000060   E0           MOVX      A,@DPTR
   \   000061   29           ADD       A,R1
   \   000062   FC           MOV       R4,A
   \   000063   A3           INC       DPTR
   \   000064   E0           MOVX      A,@DPTR
   \   000065   3400         ADDC      A,#0x0
   \   000067   FD           MOV       R5,A
   \   000068   7406         MOV       A,#0x6
   \   00006A   12....       LCALL     ?XSTACK_DISP101_8
   \   00006D   12....       LCALL     ?Subroutine161 & 0xFFFF
   \                     ??CrossCallReturnLabel_278:
   \   000070   12....       LCALL     ?DEALLOC_XSTACK8
   \   000073                ; Setup parameters for call to function HalLcdWriteString
   \   000073   7901         MOV       R1,#0x1
   \   000075   7A..         MOV       R2,#`?<Constant "End Device Bind">` & 0xff
   \   000077   7B..         MOV       R3,#(`?<Constant "End Device Bind">` >> 8) & 0xff
   \   000079   12....       LCALL     `??HalLcdWriteString::?relay`; Banked call to: HalLcdWriteString
   \   00007C   85..82       MOV       DPL,?XSP + 0
   \   00007F   85..83       MOV       DPH,?XSP + 1
   \   000082   E0           MOVX      A,@DPTR
   \   000083   7902         MOV       R1,#0x2
   \   000085   7006         JNZ       ??ZDO_EndDeviceTimeoutCB_1
   \   000087                ; Setup parameters for call to function HalLcdWriteString
   \   000087   7A..         MOV       R2,#`?<Constant "Success Sent">` & 0xff
   \   000089   7B..         MOV       R3,#(`?<Constant "Success Sent">` >> 8) & 0xff
   \   00008B   8004         SJMP      ??ZDO_EndDeviceTimeoutCB_2
   \                     ??ZDO_EndDeviceTimeoutCB_1:
   \   00008D                ; Setup parameters for call to function HalLcdWriteString
   \   00008D   7A..         MOV       R2,#`?<Constant "Timeout">` & 0xff
   \   00008F   7B..         MOV       R3,#(`?<Constant "Timeout">` >> 8) & 0xff
   \                     ??ZDO_EndDeviceTimeoutCB_2:
   \   000091   12....       LCALL     `??HalLcdWriteString::?relay`; Banked call to: HalLcdWriteString
   1264          
   1265              ZDO_RemoveEndDeviceBind();
   \   000094   90....       MOV       DPTR,#ZDO_EDBind
   \   000097   12....       LCALL     ??Subroutine242_0 & 0xFFFF
   \                     ??CrossCallReturnLabel_453:
   \   00009A   602C         JZ        ??ZDO_EndDeviceTimeoutCB_0
   \   00009C   E8           MOV       A,R0
   \   00009D   2410         ADD       A,#0x10
   \   00009F   F582         MOV       DPL,A
   \   0000A1   E4           CLR       A
   \   0000A2   39           ADDC      A,R1
   \   0000A3   12....       LCALL     ??Subroutine254_0 & 0xFFFF
   \                     ??CrossCallReturnLabel_513:
   \   0000A6   6003         JZ        ??ZDO_EndDeviceTimeoutCB_3
   \   0000A8                ; Setup parameters for call to function osal_mem_free
   \   0000A8   12....       LCALL     `??osal_mem_free::?relay`; Banked call to: osal_mem_free
   \                     ??ZDO_EndDeviceTimeoutCB_3:
   \   0000AB   90....       MOV       DPTR,#ZDO_EDBind
   \   0000AE   12....       LCALL     ??Subroutine289_0 & 0xFFFF
   \                     ??CrossCallReturnLabel_714:
   \   0000B1   2413         ADD       A,#0x13
   \   0000B3   12....       LCALL     ?Subroutine57 & 0xFFFF
   \                     ??CrossCallReturnLabel_517:
   \   0000B6   6003         JZ        ??ZDO_EndDeviceTimeoutCB_4
   \   0000B8                ; Setup parameters for call to function osal_mem_free
   \   0000B8   12....       LCALL     `??osal_mem_free::?relay`; Banked call to: osal_mem_free
   \                     ??ZDO_EndDeviceTimeoutCB_4:
   \   0000BB                ; Setup parameters for call to function osal_mem_free
   \   0000BB   90....       MOV       DPTR,#ZDO_EDBind
   \   0000BE   12....       LCALL     ??Subroutine246_0 & 0xFFFF
   \                     ??CrossCallReturnLabel_496:
   \   0000C1   90....       MOV       DPTR,#ZDO_EDBind
   \   0000C4   E4           CLR       A
   \   0000C5   F0           MOVX      @DPTR,A
   \   0000C6   A3           INC       DPTR
   \   0000C7   F0           MOVX      @DPTR,A
   1266            }
   1267          #endif  // REFLECTOR
   1268          }
   \                     ??ZDO_EndDeviceTimeoutCB_0:
   \   0000C8   02....       LJMP      ?Subroutine2 & 0xFFFF

   \                                 In  segment BANKED_CODE, align 1, keep-with-next
   \                     ?Subroutine48:
   \   000000   F0           MOVX      @DPTR,A
   \   000001                ; Setup parameters for call to function ZDP_SendData
   \   000001   90....       MOV       DPTR,#ZDO_EDBind
   \   000004   12....       LCALL     ?Subroutine221 & 0xFFFF
   \                     ??CrossCallReturnLabel_748:
   \   000007   22           RET

   \                                 In  segment BANKED_CODE, align 1, keep-with-next
   \                     ?Subroutine57:
   \   000000   F582         MOV       DPL,A
   \   000002   E4           CLR       A
   \   000003   38           ADDC      A,R0
   \   000004                REQUIRE ??Subroutine254_0
   \   000004                ; // Fall through to label ??Subroutine254_0

   \                                 In  segment BANKED_CODE, align 1, keep-with-next
   \                     ??Subroutine254_0:
   \   000000   F583         MOV       DPH,A
   \   000002                REQUIRE ??Subroutine255_0
   \   000002                ; // Fall through to label ??Subroutine255_0

   \                                 In  segment BANKED_CODE, align 1, keep-with-next
   \                     ??Subroutine255_0:
   \   000000   12....       LCALL     ?Subroutine182 & 0xFFFF
   \                     ??CrossCallReturnLabel_529:
   \   000003   EA           MOV       A,R2
   \   000004   4B           ORL       A,R3
   \   000005   22           RET
   1269          
   1270          /*********************************************************************
   1271           * Optional Management Messages
   1272           */
   1273          
   1274          /*********************************************************************
   1275           * @fn          ZDO_ProcessMgmtLqiReq
   1276           *
   1277           * @brief       This function handles parsing the incoming Management
   1278           *              LQI request and generate the response.
   1279           *
   1280           *   Note:      This function will limit the number of items returned
   1281           *              to ZDO_MAX_LQI_ITEMS items.
   1282           *
   1283           * @param       inMsg - incoming message (request)
   1284           *
   1285           * @return      none
   1286           */

   \                                 In  segment BANKED_CODE, align 1, keep-with-next
   1287          void ZDO_ProcessMgmtLqiReq( zdoIncomingMsg_t *inMsg )
   \                     ZDO_ProcessMgmtLqiReq:
   1288          {
   \   000000                REQUIRE ?V0
   \   000000                REQUIRE ?V1
   \   000000                REQUIRE ?V2
   \   000000                REQUIRE ?V3
   \   000000                REQUIRE ?V4
   \   000000                REQUIRE ?V5
   \   000000                REQUIRE ?V6
   \   000000                REQUIRE ?V7
   \   000000   74F0         MOV       A,#-0x10
   \   000002   12....       LCALL     ?BANKED_ENTER_XDATA
   \   000005                ; Saved register size: 16
   \   000005                ; Auto size: 42
   \   000005   74D6         MOV       A,#-0x2a
   \   000007   12....       LCALL     ?ALLOC_XSTACK8
   \   00000A   7404         MOV       A,#0x4
   \   00000C   12....       LCALL     ?XSTACK_DISP0_8
   \   00000F   12....       LCALL     ?Subroutine39 & 0xFFFF
   1289            byte x;
   1290            byte index;
   1291            byte numItems;
   1292            byte maxItems;
   1293            ZDP_MgmtLqiItem_t* table = NULL;
   \                     ??CrossCallReturnLabel_63:
   \   000012   12....       LCALL     ?XSTACK_DISP0_8
   \   000015   E4           CLR       A
   \   000016   F0           MOVX      @DPTR,A
   \   000017   A3           INC       DPTR
   \   000018   F0           MOVX      @DPTR,A
   1294            ZDP_MgmtLqiItem_t* item;
   1295            neighborEntry_t    entry;
   1296            byte aItems = 0;
   \   000019   75..00       MOV       ?V4,#0x0
   1297            associated_devices_t *aDevice;
   1298            AddrMgrEntry_t  nwkEntry;
   1299            uint8 StartIndex = inMsg->asdu[0];
   \   00001C   7404         MOV       A,#0x4
   \   00001E   12....       LCALL     ?XSTACK_DISP0_8
   \   000021   12....       LCALL     ?Subroutine79 & 0xFFFF
   \                     ??CrossCallReturnLabel_132:
   \   000024   12....       LCALL     ??Subroutine245_0 & 0xFFFF
   \                     ??CrossCallReturnLabel_474:
   \   000027   85..82       MOV       DPL,?XSP + 0
   \   00002A   85..83       MOV       DPH,?XSP + 1
   \   00002D   F0           MOVX      @DPTR,A
   1300          
   1301            // Get the number of neighbor items
   1302            NLME_GetRequest( nwkNumNeighborTableEntries, 0, &maxItems );
   \   00002E                ; Setup parameters for call to function NLME_GetRequest
   \   00002E   7401         MOV       A,#0x1
   \   000030   12....       LCALL     ?XSTACK_DISP102_8
   \   000033   7A00         MOV       R2,#0x0
   \   000035   7B00         MOV       R3,#0x0
   \   000037   799C         MOV       R1,#-0x64
   \   000039   12....       LCALL     `??NLME_GetRequest::?relay`; Banked call to: NLME_GetRequest
   1303          
   1304            //Routing devices uses assoc table, end devices don't
   1305            if ( ZG_DEVICE_RTR_TYPE )
   \   00003C   90....       MOV       DPTR,#zgDeviceLogicalType
   \   00003F   E0           MOVX      A,@DPTR
   \   000040   6004         JZ        ??ZDO_ProcessMgmtLqiReq_0
   \   000042   6401         XRL       A,#0x1
   \   000044   7013         JNZ       ??ZDO_ProcessMgmtLqiReq_1
   1306            {
   1307              // Get the number of associated items
   1308              aItems = (uint8)AssocCount( PARENT, CHILD_FFD_RX_IDLE );
   \                     ??ZDO_ProcessMgmtLqiReq_0:
   \   000046                ; Setup parameters for call to function AssocCount
   \   000046   7A04         MOV       R2,#0x4
   \   000048   7900         MOV       R1,#0x0
   \   00004A   12....       LCALL     `??AssocCount::?relay`; Banked call to: AssocCount
   \   00004D   EA           MOV       A,R2
   \   00004E   F5..         MOV       ?V4,A
   1309              // Total number of items
   1310              maxItems += aItems;
   \   000050   7401         MOV       A,#0x1
   \   000052   12....       LCALL     ?XSTACK_DISP0_8
   \   000055   E0           MOVX      A,@DPTR
   \   000056   2A           ADD       A,R2
   \   000057   8007         SJMP      ??ZDO_ProcessMgmtLqiReq_2
   1311            }
   1312            else
   1313            {
   1314              maxItems = 1;
   \                     ??ZDO_ProcessMgmtLqiReq_1:
   \   000059   7401         MOV       A,#0x1
   \   00005B   12....       LCALL     ?XSTACK_DISP0_8
   \   00005E   7401         MOV       A,#0x1
   \                     ??ZDO_ProcessMgmtLqiReq_2:
   \   000060   F0           MOVX      @DPTR,A
   1315            }
   1316          
   1317            // Start with the supplied index
   1318            if ( maxItems > StartIndex )
   \   000061   E0           MOVX      A,@DPTR
   \   000062   F8           MOV       R0,A
   \   000063   85..82       MOV       DPL,?XSP + 0
   \   000066   85..83       MOV       DPH,?XSP + 1
   \   000069   E0           MOVX      A,@DPTR
   \   00006A   C3           CLR       C
   \   00006B   98           SUBB      A,R0
   \   00006C   4003         JC        $+5
   \   00006E   02....       LJMP      ??ZDO_ProcessMgmtLqiReq_3 & 0xFFFF
   1319            {
   1320              numItems = maxItems - StartIndex;
   \   000071   E0           MOVX      A,@DPTR
   \   000072   F8           MOV       R0,A
   \   000073   7401         MOV       A,#0x1
   \   000075   12....       LCALL     ?XSTACK_DISP0_8
   \   000078   E0           MOVX      A,@DPTR
   \   000079   C3           CLR       C
   \   00007A   98           SUBB      A,R0
   \   00007B   F5..         MOV       ?V1,A
   1321          
   1322              // limit the size of the list
   1323              if ( numItems > ZDO_MAX_LQI_ITEMS )
   \   00007D   C3           CLR       C
   \   00007E   9404         SUBB      A,#0x4
   \   000080   4003         JC        ??ZDO_ProcessMgmtLqiReq_4
   1324              {
   1325                numItems = ZDO_MAX_LQI_ITEMS;
   \   000082   75..03       MOV       ?V1,#0x3
   1326              }
   1327              
   1328              // Allocate the memory to build the table
   1329              table = (ZDP_MgmtLqiItem_t*)osal_mem_alloc( (short)
   1330                        ( numItems * sizeof( ZDP_MgmtLqiItem_t ) ) );
   \                     ??ZDO_ProcessMgmtLqiReq_4:
   \   000085                ; Setup parameters for call to function osal_mem_alloc
   \   000085   E5..         MOV       A,?V1
   \   000087   75F01A       MOV       B,#0x1a
   \   00008A   A4           MUL       AB
   \   00008B   FA           MOV       R2,A
   \   00008C   ABF0         MOV       R3,B
   \   00008E   12....       LCALL     `??osal_mem_alloc::?relay`; Banked call to: osal_mem_alloc
   \   000091   7402         MOV       A,#0x2
   \   000093   12....       LCALL     ?XSTACK_DISP0_8
   \   000096   12....       LCALL     ?Subroutine39 & 0xFFFF
   1331          
   1332              if ( table != NULL )
   \                     ??CrossCallReturnLabel_64:
   \   000099   12....       LCALL     ?XSTACK_DISP0_8
   \   00009C   12....       LCALL     ??Subroutine242_0 & 0xFFFF
   \                     ??CrossCallReturnLabel_454:
   \   00009F   7003         JNZ       $+5
   \   0000A1   02....       LJMP      ??ZDO_ProcessMgmtLqiReq_5 & 0xFFFF
   1333              {
   1334                x = 0;
   \   0000A4   75..00       MOV       ?V5,#0x0
   1335                item = table;
   \   0000A7   7402         MOV       A,#0x2
   \   0000A9   12....       LCALL     ?XSTACK_DISP0_8
   \   0000AC   12....       LCALL     ??Subroutine267_0 & 0xFFFF
   1336                index = StartIndex;
   \                     ??CrossCallReturnLabel_588:
   \   0000AF   85..82       MOV       DPL,?XSP + 0
   \   0000B2   85..83       MOV       DPH,?XSP + 1
   \   0000B5   E0           MOVX      A,@DPTR
   \   0000B6   F5..         MOV       ?V0,A
   \   0000B8   02....       LJMP      ??ZDO_ProcessMgmtLqiReq_6 & 0xFFFF
   1337          
   1338                // Loop through associated items and build list
   1339                for ( ; x < numItems; x++ )
   1340                {
   1341                  if ( index < aItems )
   1342                  {
   1343                    // get next associated device
   1344                    aDevice = AssocFindDevice( index++ );
   1345          
   1346                    // set basic fields
   1347                    item->panID   = _NIB.nwkPanId;
   1348                    osal_cpyExtAddr( item->extPanID, _NIB.extendedPANID );
   1349                    item->nwkAddr = aDevice->shortAddr;
   1350                    item->permit  = ZDP_MGMT_BOOL_UNKNOWN;
   1351                    item->depth   = 0xFF;
   1352                    item->lqi     = aDevice->linkInfo.rxLqi;
   1353          
   1354                    // set extented address
   1355                    nwkEntry.user    = ADDRMGR_USER_DEFAULT;
   1356                    nwkEntry.nwkAddr = aDevice->shortAddr;
   1357          
   1358                    if ( AddrMgrEntryLookupNwk( &nwkEntry ) == TRUE )
   1359                    {
   1360                      osal_cpyExtAddr( item->extAddr, nwkEntry.extAddr );
   1361                    }
   1362                    else
   1363                    {
   1364                      osal_memset( item->extAddr, 0xFF, Z_EXTADDR_LEN );
   \                     ??ZDO_ProcessMgmtLqiReq_7:
   \   0000BB                ; Setup parameters for call to function osal_memset
   \   0000BB   7C08         MOV       R4,#0x8
   \   0000BD   7D00         MOV       R5,#0x0
   \   0000BF   79FF         MOV       R1,#-0x1
   \   0000C1   AA..         MOV       R2,?V2
   \   0000C3   AB..         MOV       R3,?V3
   \   0000C5   12....       LCALL     `??osal_memset::?relay`; Banked call to: osal_memset
   1365                    }
   1366          
   1367                    // use association info to set other fields
   1368                    if ( aDevice->nodeRelation == PARENT )
   \                     ??ZDO_ProcessMgmtLqiReq_8:
   \   0000C8   E5..         MOV       A,?V6
   \   0000CA   2404         ADD       A,#0x4
   \   0000CC   F8           MOV       R0,A
   \   0000CD   E4           CLR       A
   \   0000CE   35..         ADDC      A,?V7
   \   0000D0   F9           MOV       R1,A
   \   0000D1   EE           MOV       A,R6
   \   0000D2   2415         ADD       A,#0x15
   \   0000D4   FA           MOV       R2,A
   \   0000D5   E4           CLR       A
   \   0000D6   3F           ADDC      A,R7
   \   0000D7   FB           MOV       R3,A
   \   0000D8   EE           MOV       A,R6
   \   0000D9   2414         ADD       A,#0x14
   \   0000DB   FC           MOV       R4,A
   \   0000DC   E4           CLR       A
   \   0000DD   3F           ADDC      A,R7
   \   0000DE   FD           MOV       R5,A
   \   0000DF   8882         MOV       DPL,R0
   \   0000E1   8983         MOV       DPH,R1
   \   0000E3   E0           MOVX      A,@DPTR
   \   0000E4   7031         JNZ       ??ZDO_ProcessMgmtLqiReq_9
   1369                    {
   1370                      if (  aDevice->shortAddr == 0 )
   \   0000E6   85..82       MOV       DPL,?V6
   \   0000E9   85..83       MOV       DPH,?V7
   \   0000EC   12....       LCALL     ??Subroutine242_0 & 0xFFFF
   \                     ??CrossCallReturnLabel_455:
   \   0000EF   8C82         MOV       DPL,R4
   \   0000F1   8D83         MOV       DPH,R5
   \   0000F3   7008         JNZ       ??ZDO_ProcessMgmtLqiReq_10
   1371                      {
   1372                        item->devType = ZDP_MGMT_DT_COORD;
   \   0000F5   E4           CLR       A
   \   0000F6   F0           MOVX      @DPTR,A
   1373                        item->depth = 0;
   \   0000F7   12....       LCALL     ?Subroutine162 & 0xFFFF
   1374                      }
   \                     ??CrossCallReturnLabel_282:
   \   0000FA   E4           CLR       A
   \   0000FB   800F         SJMP      ??ZDO_ProcessMgmtLqiReq_11
   1375                      else
   1376                      {
   1377                        item->devType = ZDP_MGMT_DT_ROUTER;
   \                     ??ZDO_ProcessMgmtLqiReq_10:
   \   0000FD   7401         MOV       A,#0x1
   \   0000FF   F0           MOVX      @DPTR,A
   1378                        item->depth = _NIB.nodeDepth - 1;
   \   000100   90....       MOV       DPTR,#_NIB + 52
   \   000103   E0           MOVX      A,@DPTR
   \   000104   14           DEC       A
   \   000105   C0E0         PUSH      A
   \   000107   12....       LCALL     ?Subroutine162 & 0xFFFF
   1379                      }
   1380          
   1381                      item->rxOnIdle = ZDP_MGMT_BOOL_UNKNOWN;
   1382                      item->relation = ZDP_MGMT_REL_PARENT;
   1383                    }
   \                     ??CrossCallReturnLabel_283:
   \   00010A   D0E0         POP       A
   \                     ??ZDO_ProcessMgmtLqiReq_11:
   \   00010C   12....       LCALL     ?Subroutine210 & 0xFFFF
   \                     ??CrossCallReturnLabel_623:
   \   00010F   7402         MOV       A,#0x2
   \   000111   12....       LCALL     ?Subroutine35 & 0xFFFF
   \                     ??CrossCallReturnLabel_53:
   \   000114   E4           CLR       A
   \   000115   8032         SJMP      ??ZDO_ProcessMgmtLqiReq_12
   1384                    else
   1385                    {
   1386                      // If not parent, then it's a child
   1387                      item->depth = _NIB.nodeDepth + 1;
   \                     ??ZDO_ProcessMgmtLqiReq_9:
   \   000117   90....       MOV       DPTR,#_NIB + 52
   \   00011A   E0           MOVX      A,@DPTR
   \   00011B   04           INC       A
   \   00011C   C0E0         PUSH      A
   \   00011E   12....       LCALL     ?Subroutine162 & 0xFFFF
   \                     ??CrossCallReturnLabel_284:
   \   000121   D0E0         POP       A
   \   000123   12....       LCALL     ?Subroutine45 & 0xFFFF
   1388          
   1389                      if ( aDevice->nodeRelation < CHILD_FFD )
   \                     ??CrossCallReturnLabel_70:
   \   000126   C3           CLR       C
   \   000127   9403         SUBB      A,#0x3
   \   000129   8C82         MOV       DPL,R4
   \   00012B   8D83         MOV       DPH,R5
   \   00012D   4003         JC        $+5
   \   00012F   02....       LJMP      ??ZDO_ProcessMgmtLqiReq_13 & 0xFFFF
   1390                      {
   1391                        item->devType = ZDP_MGMT_DT_ENDDEV;
   \   000132   7402         MOV       A,#0x2
   \   000134   12....       LCALL     ?Subroutine45 & 0xFFFF
   1392          
   1393                        if ( aDevice->nodeRelation == CHILD_RFD )
   1394                        {
   1395                          item->rxOnIdle = FALSE;
   1396                        }
   1397                        else
   1398                        {
   1399                          item->rxOnIdle = TRUE;
   1400                        }
   1401                      }
   \                     ??CrossCallReturnLabel_71:
   \   000137   6401         XRL       A,#0x1
   \   000139   7003         JNZ       $+5
   \   00013B   02....       LJMP      ??ZDO_ProcessMgmtLqiReq_14 & 0xFFFF
   1402                      else
   1403                      {
   1404                        item->devType = ZDP_MGMT_DT_ROUTER;
   1405          
   1406                        if ( aDevice->nodeRelation == CHILD_FFD )
   1407                        {
   1408                          item->rxOnIdle = FALSE;
   1409                        }
   1410                        else
   1411                        {
   1412                          item->rxOnIdle = TRUE;
   \                     ??ZDO_ProcessMgmtLqiReq_15:
   \   00013E   8A82         MOV       DPL,R2
   \   000140   8B83         MOV       DPH,R3
   \   000142   7401         MOV       A,#0x1
   1413                        }
   \                     ??ZDO_ProcessMgmtLqiReq_16:
   \   000144   12....       LCALL     ?Subroutine35 & 0xFFFF
   1414                      }
   1415          
   1416                      item->relation = ZDP_MGMT_REL_CHILD;
   \                     ??CrossCallReturnLabel_54:
   \   000147   7401         MOV       A,#0x1
   \                     ??ZDO_ProcessMgmtLqiReq_12:
   \   000149   F0           MOVX      @DPTR,A
   1417                    }
   1418          
   1419                    item++;
   \   00014A   EE           MOV       A,R6
   \   00014B   241A         ADD       A,#0x1a
   \   00014D   FE           MOV       R6,A
   \   00014E   5001         JNC       ??ZDO_ProcessMgmtLqiReq_17
   \   000150   0F           INC       R7
   \                     ??ZDO_ProcessMgmtLqiReq_17:
   \   000151   05..         INC       ?V5
   \                     ??ZDO_ProcessMgmtLqiReq_6:
   \   000153   E5..         MOV       A,?V5
   \   000155   C3           CLR       C
   \   000156   95..         SUBB      A,?V1
   \   000158   4003         JC        $+5
   \   00015A   02....       LJMP      ??ZDO_ProcessMgmtLqiReq_18 & 0xFFFF
   \   00015D   E5..         MOV       A,?V0
   \   00015F   C3           CLR       C
   \   000160   95..         SUBB      A,?V4
   \   000162   4003         JC        $+5
   \   000164   02....       LJMP      ??ZDO_ProcessMgmtLqiReq_19 & 0xFFFF
   \   000167                ; Setup parameters for call to function AssocFindDevice
   \   000167   AA..         MOV       R2,?V0
   \   000169   7B00         MOV       R3,#0x0
   \   00016B   12....       LCALL     `??AssocFindDevice::?relay`; Banked call to: AssocFindDevice
   \   00016E   8A..         MOV       ?V6,R2
   \   000170   8B..         MOV       ?V7,R3
   \   000172   05..         INC       ?V0
   \   000174   90....       MOV       DPTR,#_NIB + 33
   \   000177   12....       LCALL     ?Subroutine13 & 0xFFFF
   \                     ??CrossCallReturnLabel_10:
   \   00017A   85..82       MOV       DPL,?V6
   \   00017D   85..83       MOV       DPH,?V7
   \   000180   12....       LCALL     ??Subroutine241_0 & 0xFFFF
   \                     ??CrossCallReturnLabel_440:
   \   000183   EE           MOV       A,R6
   \   000184   2412         ADD       A,#0x12
   \   000186   F582         MOV       DPL,A
   \   000188   E4           CLR       A
   \   000189   3F           ADDC      A,R7
   \   00018A   F583         MOV       DPH,A
   \   00018C   E8           MOV       A,R0
   \   00018D   F0           MOVX      @DPTR,A
   \   00018E   A3           INC       DPTR
   \   00018F   E9           MOV       A,R1
   \   000190   12....       LCALL     ?Subroutine22 & 0xFFFF
   \                     ??CrossCallReturnLabel_29:
   \   000193   12....       LCALL     ?Subroutine162 & 0xFFFF
   \                     ??CrossCallReturnLabel_285:
   \   000196   74FF         MOV       A,#-0x1
   \   000198   12....       LCALL     ?Subroutine46 & 0xFFFF
   \                     ??CrossCallReturnLabel_74:
   \   00019B   A3           INC       DPTR
   \   00019C   A3           INC       DPTR
   \   00019D   A3           INC       DPTR
   \   00019E   A3           INC       DPTR
   \   00019F   A3           INC       DPTR
   \   0001A0   A3           INC       DPTR
   \   0001A1   A3           INC       DPTR
   \   0001A2   A3           INC       DPTR
   \   0001A3   E0           MOVX      A,@DPTR
   \   0001A4   C0E0         PUSH      A
   \   0001A6   12....       LCALL     ?Subroutine164 & 0xFFFF
   \                     ??CrossCallReturnLabel_288:
   \   0001A9   D0E0         POP       A
   \   0001AB   F0           MOVX      @DPTR,A
   \   0001AC   7406         MOV       A,#0x6
   \   0001AE   12....       LCALL     ?XSTACK_DISP0_8
   \   0001B1   E4           CLR       A
   \   0001B2   F0           MOVX      @DPTR,A
   \   0001B3   85..82       MOV       DPL,?V6
   \   0001B6   85..83       MOV       DPH,?V7
   \   0001B9   12....       LCALL     ??Subroutine241_0 & 0xFFFF
   \                     ??CrossCallReturnLabel_441:
   \   0001BC   7407         MOV       A,#0x7
   \   0001BE   12....       LCALL     ?XSTACK_DISP0_8
   \   0001C1   12....       LCALL     ??Subroutine232_0 & 0xFFFF
   \                     ??CrossCallReturnLabel_385:
   \   0001C4   EE           MOV       A,R6
   \   0001C5   240A         ADD       A,#0xa
   \   0001C7   F5..         MOV       ?V2,A
   \   0001C9   E4           CLR       A
   \   0001CA   3F           ADDC      A,R7
   \   0001CB   F5..         MOV       ?V3,A
   \   0001CD                ; Setup parameters for call to function AddrMgrEntryLookupNwk
   \   0001CD   7406         MOV       A,#0x6
   \   0001CF   12....       LCALL     ?XSTACK_DISP101_8
   \   0001D2   12....       LCALL     `??AddrMgrEntryLookupNwk::?relay`; Banked call to: AddrMgrEntryLookupNwk
   \   0001D5   E9           MOV       A,R1
   \   0001D6   6401         XRL       A,#0x1
   \   0001D8   6003         JZ        $+5
   \   0001DA   02....       LJMP      ??ZDO_ProcessMgmtLqiReq_7 & 0xFFFF
   \   0001DD                ; Setup parameters for call to function sAddrExtCpy
   \   0001DD   7409         MOV       A,#0x9
   \   0001DF   12....       LCALL     ?XSTACK_DISP0_8
   \   0001E2   AC82         MOV       R4,DPL
   \   0001E4   AD83         MOV       R5,DPH
   \   0001E6   AA..         MOV       R2,?V2
   \   0001E8   AB..         MOV       R3,?V3
   \   0001EA   12....       LCALL     `??sAddrExtCpy::?relay`; Banked call to: sAddrExtCpy
   \   0001ED   02....       LJMP      ??ZDO_ProcessMgmtLqiReq_8 & 0xFFFF
   \                     ??ZDO_ProcessMgmtLqiReq_13:
   \   0001F0   7401         MOV       A,#0x1
   \   0001F2   12....       LCALL     ?Subroutine45 & 0xFFFF
   \                     ??CrossCallReturnLabel_72:
   \   0001F5   6403         XRL       A,#0x3
   \   0001F7   6003         JZ        $+5
   \   0001F9   02....       LJMP      ??ZDO_ProcessMgmtLqiReq_15 & 0xFFFF
   \                     ??ZDO_ProcessMgmtLqiReq_14:
   \   0001FC   8A82         MOV       DPL,R2
   \   0001FE   8B83         MOV       DPH,R3
   \   000200   E4           CLR       A
   \   000201   02....       LJMP      ??ZDO_ProcessMgmtLqiReq_16 & 0xFFFF
   1420                  }
   1421                  else
   1422                  {
   1423                    if ( StartIndex <= aItems )
   \                     ??ZDO_ProcessMgmtLqiReq_19:
   \   000204   85..82       MOV       DPL,?XSP + 0
   \   000207   85..83       MOV       DPH,?XSP + 1
   \   00020A   E0           MOVX      A,@DPTR
   \   00020B   F8           MOV       R0,A
   \   00020C   E5..         MOV       A,?V4
   \   00020E   C3           CLR       C
   \   00020F   98           SUBB      A,R0
   \   000210   4005         JC        ??ZDO_ProcessMgmtLqiReq_20
   1424                      // Start with 1st neighbor
   1425                      index = 0;
   \   000212   75..00       MOV       ?V0,#0x0
   \   000215   8057         SJMP      ??ZDO_ProcessMgmtLqiReq_21
   1426                    else
   1427                      // Start with >1st neighbor
   1428                      index = StartIndex - aItems;
   \                     ??ZDO_ProcessMgmtLqiReq_20:
   \   000217   E0           MOVX      A,@DPTR
   \   000218   C3           CLR       C
   \   000219   95..         SUBB      A,?V4
   \   00021B   F5..         MOV       ?V0,A
   \   00021D   804F         SJMP      ??ZDO_ProcessMgmtLqiReq_21
   1429                    break;
   1430                  }
   1431                }
   1432          
   1433                // Loop through neighbor items and finish list
   1434                for ( ; x < numItems; x++ )
   1435                {
   1436                  // Add next neighbor table item
   1437                  NLME_GetRequest( nwkNeighborTable, index++, &entry );
   1438          
   1439                  // set ZDP_MgmtLqiItem_t fields
   1440                  item->panID    = entry.panId;
   1441                  osal_cpyExtAddr( item->extPanID, _NIB.extendedPANID );
   1442                  osal_cpyExtAddr( item->extAddr, entry.neighborExtAddr);
   1443                  item->nwkAddr  = entry.neighborAddress;
   1444          
   1445                  if ( ZG_DEVICE_RTR_TYPE )
   1446                  {
   1447                    item->rxOnIdle = ZDP_MGMT_BOOL_UNKNOWN;
   1448                    item->relation = ZDP_MGMT_REL_UNKNOWN;
   1449                    item->depth    = 0xFF;
   1450                  }
   1451                  else
   1452                  {
   1453                    //end devices knows this for sure
   1454                    item->rxOnIdle = ZDP_MGMT_BOOL_RECEIVER_ON;
   \                     ??ZDO_ProcessMgmtLqiReq_22:
   \   00021F   85..82       MOV       DPL,?V2
   \   000222   85..83       MOV       DPH,?V3
   \   000225   E4           CLR       A
   \   000226   12....       LCALL     ?Subroutine23 & 0xFFFF
   1455                    item->relation = ZDP_MGMT_REL_PARENT;
   \                     ??CrossCallReturnLabel_32:
   \   000229   F0           MOVX      @DPTR,A
   1456                    item->depth = _NIB.nodeDepth - 1;
   \   00022A   90....       MOV       DPTR,#_NIB + 52
   \   00022D   E0           MOVX      A,@DPTR
   \   00022E   14           DEC       A
   \   00022F   8A82         MOV       DPL,R2
   \   000231   8B83         MOV       DPH,R3
   1457                  }
   \                     ??ZDO_ProcessMgmtLqiReq_23:
   \   000233   12....       LCALL     ?Subroutine22 & 0xFFFF
   1458                  item->permit   = ZDP_MGMT_BOOL_UNKNOWN;
   1459                  item->lqi      = entry.linkInfo.rxLqi;
   \                     ??CrossCallReturnLabel_30:
   \   000236   7422         MOV       A,#0x22
   \   000238   12....       LCALL     ?XSTACK_DISP0_8
   \   00023B   E0           MOVX      A,@DPTR
   \   00023C   C0E0         PUSH      A
   \   00023E   12....       LCALL     ?Subroutine164 & 0xFFFF
   \                     ??CrossCallReturnLabel_289:
   \   000241   D0E0         POP       A
   \   000243   F0           MOVX      @DPTR,A
   1460          
   1461                  if ( item->nwkAddr == 0 )
   \   000244   EE           MOV       A,R6
   \   000245   2414         ADD       A,#0x14
   \   000247   FA           MOV       R2,A
   \   000248   E4           CLR       A
   \   000249   3F           ADDC      A,R7
   \   00024A   FB           MOV       R3,A
   \   00024B   8882         MOV       DPL,R0
   \   00024D   8983         MOV       DPH,R1
   \   00024F   12....       LCALL     ??Subroutine242_0 & 0xFFFF
   \                     ??CrossCallReturnLabel_456:
   \   000252   8A82         MOV       DPL,R2
   \   000254   8B83         MOV       DPH,R3
   \   000256   7003         JNZ       ??ZDO_ProcessMgmtLqiReq_24
   1462                  {
   1463                    item->devType = ZDP_MGMT_DT_COORD;
   \   000258   E4           CLR       A
   \   000259   8002         SJMP      ??ZDO_ProcessMgmtLqiReq_25
   1464                  }
   1465                  else
   1466                  {
   1467                    item->devType = ZDP_MGMT_DT_ROUTER;
   \                     ??ZDO_ProcessMgmtLqiReq_24:
   \   00025B   7401         MOV       A,#0x1
   \                     ??ZDO_ProcessMgmtLqiReq_25:
   \   00025D   F0           MOVX      @DPTR,A
   1468                  }
   1469          
   1470                  item++;
   \   00025E   EE           MOV       A,R6
   \   00025F   241A         ADD       A,#0x1a
   \   000261   FE           MOV       R6,A
   \   000262   5001         JNC       ??ZDO_ProcessMgmtLqiReq_26
   \   000264   0F           INC       R7
   \                     ??ZDO_ProcessMgmtLqiReq_26:
   \   000265   05..         INC       ?V5
   \                     ??ZDO_ProcessMgmtLqiReq_18:
   \   000267   E5..         MOV       A,?V5
   \   000269   C3           CLR       C
   \   00026A   95..         SUBB      A,?V1
   \   00026C   507C         JNC       ??ZDO_ProcessMgmtLqiReq_5
   \                     ??ZDO_ProcessMgmtLqiReq_21:
   \   00026E                ; Setup parameters for call to function NLME_GetRequest
   \   00026E   7413         MOV       A,#0x13
   \   000270   12....       LCALL     ?XSTACK_DISP102_8
   \   000273   AA..         MOV       R2,?V0
   \   000275   7B00         MOV       R3,#0x0
   \   000277   7987         MOV       R1,#-0x79
   \   000279   12....       LCALL     `??NLME_GetRequest::?relay`; Banked call to: NLME_GetRequest
   \   00027C   05..         INC       ?V0
   \   00027E   741D         MOV       A,#0x1d
   \   000280   12....       LCALL     ?XSTACK_DISP0_8
   \   000283   12....       LCALL     ?Subroutine13 & 0xFFFF
   \                     ??CrossCallReturnLabel_11:
   \   000286                ; Setup parameters for call to function sAddrExtCpy
   \   000286   7415         MOV       A,#0x15
   \   000288   12....       LCALL     ?XSTACK_DISP0_8
   \   00028B   AC82         MOV       R4,DPL
   \   00028D   AD83         MOV       R5,DPH
   \   00028F   EE           MOV       A,R6
   \   000290   240A         ADD       A,#0xa
   \   000292   FA           MOV       R2,A
   \   000293   E4           CLR       A
   \   000294   3F           ADDC      A,R7
   \   000295   FB           MOV       R3,A
   \   000296   12....       LCALL     `??sAddrExtCpy::?relay`; Banked call to: sAddrExtCpy
   \   000299   EE           MOV       A,R6
   \   00029A   2412         ADD       A,#0x12
   \   00029C   F8           MOV       R0,A
   \   00029D   E4           CLR       A
   \   00029E   3F           ADDC      A,R7
   \   00029F   F9           MOV       R1,A
   \   0002A0   7413         MOV       A,#0x13
   \   0002A2   12....       LCALL     ?XSTACK_DISP0_8
   \   0002A5   12....       LCALL     ??Subroutine235_0 & 0xFFFF
   \                     ??CrossCallReturnLabel_409:
   \   0002A8   8882         MOV       DPL,R0
   \   0002AA   8983         MOV       DPH,R1
   \   0002AC   12....       LCALL     ?Subroutine41 & 0xFFFF
   \                     ??CrossCallReturnLabel_369:
   \   0002AF   EE           MOV       A,R6
   \   0002B0   2418         ADD       A,#0x18
   \   0002B2   FA           MOV       R2,A
   \   0002B3   E4           CLR       A
   \   0002B4   3F           ADDC      A,R7
   \   0002B5   FB           MOV       R3,A
   \   0002B6   EE           MOV       A,R6
   \   0002B7   2416         ADD       A,#0x16
   \   0002B9   FC           MOV       R4,A
   \   0002BA   E4           CLR       A
   \   0002BB   3F           ADDC      A,R7
   \   0002BC   FD           MOV       R5,A
   \   0002BD   EE           MOV       A,R6
   \   0002BE   2415         ADD       A,#0x15
   \   0002C0   F5..         MOV       ?V2,A
   \   0002C2   E4           CLR       A
   \   0002C3   3F           ADDC      A,R7
   \   0002C4   F5..         MOV       ?V3,A
   \   0002C6   90....       MOV       DPTR,#zgDeviceLogicalType
   \   0002C9   E0           MOVX      A,@DPTR
   \   0002CA   6007         JZ        ??ZDO_ProcessMgmtLqiReq_27
   \   0002CC   6401         XRL       A,#0x1
   \   0002CE   6003         JZ        $+5
   \   0002D0   02....       LJMP      ??ZDO_ProcessMgmtLqiReq_22 & 0xFFFF
   \                     ??ZDO_ProcessMgmtLqiReq_27:
   \   0002D3   85..82       MOV       DPL,?V2
   \   0002D6   85..83       MOV       DPH,?V3
   \   0002D9   7402         MOV       A,#0x2
   \   0002DB   12....       LCALL     ?Subroutine23 & 0xFFFF
   1471                }
   1472              }
   1473            }
   \                     ??CrossCallReturnLabel_33:
   \   0002DE   04           INC       A
   \   0002DF   12....       LCALL     ?Subroutine210 & 0xFFFF
   \                     ??CrossCallReturnLabel_624:
   \   0002E2   74FF         MOV       A,#-0x1
   \   0002E4   02....       LJMP      ??ZDO_ProcessMgmtLqiReq_23 & 0xFFFF
   1474            else
   1475            {
   1476              numItems = 0;
   \                     ??ZDO_ProcessMgmtLqiReq_3:
   \   0002E7   75..00       MOV       ?V1,#0x0
   1477            }
   1478          
   1479            // Send response
   1480            ZDP_MgmtLqiRsp( inMsg->TransSeq, &(inMsg->srcAddr), ZSuccess, maxItems,
   1481                            StartIndex, numItems, table, false );
   \                     ??ZDO_ProcessMgmtLqiReq_5:
   \   0002EA                ; Setup parameters for call to function ZDP_MgmtLqiRsp
   \   0002EA   75..00       MOV       ?V0,#0x0
   \   0002ED   78..         MOV       R0,#?V0
   \   0002EF   12....       LCALL     ?PUSH_XSTACK_I_ONE
   \   0002F2   7403         MOV       A,#0x3
   \   0002F4   12....       LCALL     ?XSTACK_DISP0_8
   \   0002F7   12....       LCALL     ?PUSH_XSTACK8_X_TWO
   \   0002FA   E5..         MOV       A,?V1
   \   0002FC   F5..         MOV       ?V0,A
   \   0002FE   78..         MOV       R0,#?V0
   \   000300   12....       LCALL     ?PUSH_XSTACK_I_ONE
   \   000303   7404         MOV       A,#0x4
   \   000305   12....       LCALL     ?XSTACK_DISP0_8
   \   000308   12....       LCALL     ??Subroutine240_0 & 0xFFFF
   \                     ??CrossCallReturnLabel_433:
   \   00030B   12....       LCALL     ?PUSH_XSTACK_I_ONE
   \   00030E   7406         MOV       A,#0x6
   \   000310   12....       LCALL     ?XSTACK_DISP0_8
   \   000313   E0           MOVX      A,@DPTR
   \   000314   FD           MOV       R5,A
   \   000315   7C00         MOV       R4,#0x0
   \   000317   7409         MOV       A,#0x9
   \   000319   12....       LCALL     ?XSTACK_DISP0_8
   \   00031C   12....       LCALL     ?Subroutine115 & 0xFFFF
   \                     ??CrossCallReturnLabel_189:
   \   00031F   7409         MOV       A,#0x9
   \   000321   12....       LCALL     ?XSTACK_DISP0_8
   \   000324   12....       LCALL     ?Subroutine74 & 0xFFFF
   \                     ??CrossCallReturnLabel_123:
   \   000327   12....       LCALL     `??ZDP_MgmtLqiRsp::?relay`; Banked call to: ZDP_MgmtLqiRsp
   \   00032A   7405         MOV       A,#0x5
   \   00032C   12....       LCALL     ?DEALLOC_XSTACK8
   1482          
   1483            if ( table )
   \   00032F   7402         MOV       A,#0x2
   \   000331   12....       LCALL     ?XSTACK_DISP0_8
   \   000334   12....       LCALL     ??Subroutine242_0 & 0xFFFF
   \                     ??CrossCallReturnLabel_457:
   \   000337   6008         JZ        ??CrossCallReturnLabel_491
   1484            {
   1485              osal_mem_free( table );
   \   000339                ; Setup parameters for call to function osal_mem_free
   \   000339   7402         MOV       A,#0x2
   \   00033B   12....       LCALL     ?XSTACK_DISP0_8
   \   00033E   12....       LCALL     ??Subroutine246_0 & 0xFFFF
   1486            }
   1487          }
   \                     ??CrossCallReturnLabel_491:
   \   000341   742A         MOV       A,#0x2a
   \   000343   02....       LJMP      ??Subroutine223_0 & 0xFFFF

   \                                 In  segment BANKED_CODE, align 1, keep-with-next
   \                     ?Subroutine164:
   \   000000   EE           MOV       A,R6
   \   000001   2419         ADD       A,#0x19
   \   000003   F582         MOV       DPL,A
   \   000005   E4           CLR       A
   \   000006   3F           ADDC      A,R7
   \   000007   F583         MOV       DPH,A
   \   000009   22           RET

   \                                 In  segment BANKED_CODE, align 1, keep-with-next
   \                     ?Subroutine162:
   \   000000   EE           MOV       A,R6
   \   000001   2418         ADD       A,#0x18
   \   000003   F582         MOV       DPL,A
   \   000005   E4           CLR       A
   \   000006   3F           ADDC      A,R7
   \   000007   F583         MOV       DPH,A
   \   000009   22           RET

   \                                 In  segment BANKED_CODE, align 1, keep-with-next
   \                     ?Subroutine35:
   \   000000   F0           MOVX      @DPTR,A
   \   000001   EE           MOV       A,R6
   \   000002   2416         ADD       A,#0x16
   \   000004   F582         MOV       DPL,A
   \   000006   E4           CLR       A
   \   000007   3F           ADDC      A,R7
   \   000008   F583         MOV       DPH,A
   \   00000A   22           RET

   \                                 In  segment BANKED_CODE, align 1, keep-with-next
   \                     ?Subroutine22:
   \   000000   F0           MOVX      @DPTR,A
   \   000001   EE           MOV       A,R6
   \   000002   2417         ADD       A,#0x17
   \   000004   F582         MOV       DPL,A
   \   000006   E4           CLR       A
   \   000007   3F           ADDC      A,R7
   \   000008   F583         MOV       DPH,A
   \   00000A   7402         MOV       A,#0x2
   \   00000C   F0           MOVX      @DPTR,A
   \   00000D   22           RET

   \                                 In  segment BANKED_CODE, align 1, keep-with-next
   \                     ?Subroutine13:
   \   000000   12....       LCALL     ??Subroutine262_0 & 0xFFFF
   \                     ??CrossCallReturnLabel_556:
   \   000003   8E82         MOV       DPL,R6
   \   000005   8F83         MOV       DPH,R7
   \   000007   E8           MOV       A,R0
   \   000008   F0           MOVX      @DPTR,A
   \   000009   A3           INC       DPTR
   \   00000A   E9           MOV       A,R1
   \   00000B   F0           MOVX      @DPTR,A
   \   00000C                ; Setup parameters for call to function sAddrExtCpy
   \   00000C                ; Setup parameters for call to function sAddrExtCpy
   \   00000C   7C..         MOV       R4,#(_NIB + 53) & 0xff
   \   00000E   7D..         MOV       R5,#((_NIB + 53) >> 8) & 0xff
   \   000010   12....       LCALL     ?Subroutine201 & 0xFFFF
   \                     ??CrossCallReturnLabel_336:
   \   000013   12....       LCALL     `??sAddrExtCpy::?relay`; Banked call to: sAddrExtCpy
   \   000016   22           RET

   \                                 In  segment BANKED_CODE, align 1, keep-with-next
   \                     ?Subroutine115:
   \   000000   E0           MOVX      A,@DPTR
   \   000001   2402         ADD       A,#0x2
   \   000003   FA           MOV       R2,A
   \   000004   A3           INC       DPTR
   \   000005   E0           MOVX      A,@DPTR
   \   000006   3400         ADDC      A,#0x0
   \   000008   FB           MOV       R3,A
   \   000009   22           RET

   \                                 In  segment BANKED_CODE, align 1, keep-with-next
   \                     ?Subroutine74:
   \   000000   12....       LCALL     ??Subroutine251_0 & 0xFFFF
   \                     ??CrossCallReturnLabel_735:
   \   000003   240F         ADD       A,#0xf
   \   000005   12....       LCALL     ?Subroutine205 & 0xFFFF
   \                     ??CrossCallReturnLabel_550:
   \   000008   F9           MOV       R1,A
   \   000009   22           RET

   \                                 In  segment BANKED_CODE, align 1, keep-with-next
   \                     ?Subroutine46:
   \   000000   F0           MOVX      @DPTR,A
   \   000001   85..82       MOV       DPL,?V6
   \   000004   85..83       MOV       DPH,?V7
   \   000007   A3           INC       DPTR
   \   000008   A3           INC       DPTR
   \   000009   22           RET

   \                                 In  segment BANKED_CODE, align 1, keep-with-next
   \                     ?Subroutine45:
   \   000000   12....       LCALL     ?Subroutine173 & 0xFFFF
   \                     ??CrossCallReturnLabel_300:
   \   000003   22           RET

   \                                 In  segment BANKED_CODE, align 1, keep-with-next
   \                     ?Subroutine173:
   \   000000   F0           MOVX      @DPTR,A
   \   000001   8882         MOV       DPL,R0
   \   000003   8983         MOV       DPH,R1
   \   000005   E0           MOVX      A,@DPTR
   \   000006   22           RET
   1488          
   1489          /*********************************************************************
   1490           * @fn          ZDO_ProcessMgmtNwkDiscReq
   1491           *
   1492           * @brief       This function handles parsing the incoming Management
   1493           *              Network Discover request and starts the request.
   1494           *
   1495           * @param       inMsg - incoming message (request)
   1496           *
   1497           * @return      none
   1498           */

   \                                 In  segment BANKED_CODE, align 1, keep-with-next
   1499          void ZDO_ProcessMgmtNwkDiscReq( zdoIncomingMsg_t *inMsg )
   \                     ZDO_ProcessMgmtNwkDiscReq:
   1500          {
   \   000000                REQUIRE ?V0
   \   000000                REQUIRE ?V1
   \   000000   74F6         MOV       A,#-0xa
   \   000002   12....       LCALL     ?BANKED_ENTER_XDATA
   \   000005                ; Saved register size: 10
   \   000005                ; Auto size: 7
   \   000005   74F9         MOV       A,#-0x7
   \   000007   12....       LCALL     ?ALLOC_XSTACK8
   \   00000A   12....       LCALL     ?Subroutine134 & 0xFFFF
   1501            NLME_ScanFields_t scan;
   1502            uint8             index;
   1503            uint8             *msg;
   1504          
   1505            msg = inMsg->asdu;
   \                     ??CrossCallReturnLabel_225:
   \   00000D   12....       LCALL     ?Subroutine64 & 0xFFFF
   1506            scan.channels = osal_build_uint32( msg, 4 );
   \                     ??CrossCallReturnLabel_102:
   \   000010   85..82       MOV       DPL,?XSP + 0
   \   000013   85..83       MOV       DPH,?XSP + 1
   \   000016   12....       LCALL     ?XSTORE_R0123
   1507            msg += 4;
   1508            scan.duration = *msg++;
   \   000019   8E82         MOV       DPL,R6
   \   00001B   8F83         MOV       DPH,R7
   \   00001D   A3           INC       DPTR
   \   00001E   A3           INC       DPTR
   \   00001F   A3           INC       DPTR
   \   000020   A3           INC       DPTR
   \   000021   E0           MOVX      A,@DPTR
   \   000022   C0E0         PUSH      A
   \   000024   7404         MOV       A,#0x4
   \   000026   12....       LCALL     ?XSTACK_DISP0_8
   \   000029   D0E0         POP       A
   \   00002B   12....       LCALL     ?Subroutine34 & 0xFFFF
   1509            index         = *msg;
   \                     ??CrossCallReturnLabel_51:
   \   00002E   F8           MOV       R0,A
   1510            scan.scanType = ZMAC_ACTIVE_SCAN;
   \   00002F   7405         MOV       A,#0x5
   \   000031   12....       LCALL     ?XSTACK_DISP0_8
   \   000034   7401         MOV       A,#0x1
   \   000036   F0           MOVX      @DPTR,A
   1511            scan.scanApp  = NLME_DISC_SCAN;
   \   000037   7406         MOV       A,#0x6
   \   000039   12....       LCALL     ?XSTACK_DISP0_8
   \   00003C   7401         MOV       A,#0x1
   \   00003E   F0           MOVX      @DPTR,A
   1512          
   1513            // Save off the information to be used for the response
   1514            zdappMgmtNwkDiscReqInProgress          = true;
   \   00003F   90....       MOV       DPTR,#zdappMgmtNwkDiscReqInProgress
   \   000042   F0           MOVX      @DPTR,A
   1515            zdappMgmtNwkDiscRspAddr.addrMode       = Addr16Bit;
   \   000043   90....       MOV       DPTR,#zdappMgmtNwkDiscRspAddr + 8
   \   000046   04           INC       A
   \   000047   12....       LCALL     ?Subroutine47 & 0xFFFF
   1516            zdappMgmtNwkDiscRspAddr.addr.shortAddr = inMsg->srcAddr.addr.shortAddr;
   \                     ??CrossCallReturnLabel_76:
   \   00004A   12....       LCALL     ??Subroutine235_0 & 0xFFFF
   \                     ??CrossCallReturnLabel_410:
   \   00004D   90....       MOV       DPTR,#zdappMgmtNwkDiscRspAddr
   \   000050   12....       LCALL     ?Subroutine41 & 0xFFFF
   1517            zdappMgmtNwkDiscStartIndex             = index;
   \                     ??CrossCallReturnLabel_370:
   \   000053   E8           MOV       A,R0
   \   000054   90....       MOV       DPTR,#zdappMgmtNwkDiscStartIndex
   \   000057   F0           MOVX      @DPTR,A
   1518            zdappMgmtNwkDiscRspTransSeq            = inMsg->TransSeq;
   \   000058   12....       LCALL     ?Subroutine145 & 0xFFFF
   \                     ??CrossCallReturnLabel_247:
   \   00005B   E0           MOVX      A,@DPTR
   \   00005C   90....       MOV       DPTR,#zdappMgmtNwkDiscRspTransSeq
   \   00005F   F0           MOVX      @DPTR,A
   1519          
   1520            if ( NLME_NwkDiscReq2( &scan ) != ZSuccess )
   \   000060                ; Setup parameters for call to function NLME_NwkDiscReq2
   \   000060   AA..         MOV       R2,?XSP + 0
   \   000062   AB..         MOV       R3,?XSP + 1
   \   000064   12....       LCALL     `??NLME_NwkDiscReq2::?relay`; Banked call to: NLME_NwkDiscReq2
   \   000067   E9           MOV       A,R1
   \   000068   6003         JZ        ??ZDO_ProcessMgmtNwkDiscReq_0
   1521            {
   1522              NLME_NwkDiscTerm();
   \   00006A                ; Setup parameters for call to function NLME_NwkDiscTerm
   \   00006A   12....       LCALL     `??NLME_NwkDiscTerm::?relay`; Banked call to: NLME_NwkDiscTerm
   1523          
   1524              // zdappMgmtNwkDiscReqInProgress will be reset in the confirm callback
   1525            }
   1526          }
   \                     ??ZDO_ProcessMgmtNwkDiscReq_0:
   \   00006D   7407         MOV       A,#0x7
   \   00006F   02....       LJMP      ??Subroutine226_0 & 0xFFFF

   \                                 In  segment BANKED_CODE, align 1, keep-with-next
   \                     ?Subroutine134:
   \   000000   8A..         MOV       ?V0,R2
   \   000002   8B..         MOV       ?V1,R3
   \   000004   12....       LCALL     ??Subroutine236_0 & 0xFFFF
   \                     ??CrossCallReturnLabel_426:
   \   000007   35..         ADDC      A,?V1
   \   000009   22           RET

   \                                 In  segment BANKED_CODE, align 1, keep-with-next
   \                     ?Subroutine145:
   \   000000   E5..         MOV       A,?V0
   \   000002   240F         ADD       A,#0xf
   \   000004   F582         MOV       DPL,A
   \   000006   E4           CLR       A
   \   000007   35..         ADDC      A,?V1
   \   000009   F583         MOV       DPH,A
   \   00000B   22           RET

   \                                 In  segment BANKED_CODE, align 1, keep-with-next
   \                     ?Subroutine192:
   \   000000   F583         MOV       DPH,A
   \   000002                REQUIRE ??Subroutine269_0
   \   000002                ; // Fall through to label ??Subroutine269_0

   \                                 In  segment BANKED_CODE, align 1, keep-with-next
   \                     ?Subroutine47:
   \   000000   12....       LCALL     ?Subroutine170 & 0xFFFF
   \                     ??CrossCallReturnLabel_295:
   \   000003   A3           INC       DPTR
   \   000004   A3           INC       DPTR
   \   000005   22           RET

   \                                 In  segment BANKED_CODE, align 1, keep-with-next
   \                     ?Subroutine170:
   \   000000   F0           MOVX      @DPTR,A
   \   000001                ; Setup parameters for call to function osal_memcpy
   \   000001   85..82       MOV       DPL,?V0
   \   000004   85..83       MOV       DPH,?V1
   \   000007   22           RET

   \                                 In  segment BANKED_CODE, align 1, keep-with-next
   \                     ?Subroutine34:
   \   000000   12....       LCALL     ?Subroutine171 & 0xFFFF
   \                     ??CrossCallReturnLabel_297:
   \   000003   E0           MOVX      A,@DPTR
   \   000004   22           RET

   \                                 In  segment BANKED_CODE, align 1, keep-with-next
   \                     ?Subroutine212:
   \   000000   12....       LCALL     ?Subroutine220 & 0xFFFF
   \                     ??CrossCallReturnLabel_697:
   \   000003   A3           INC       DPTR
   \   000004   A3           INC       DPTR
   \   000005   22           RET

   \                                 In  segment BANKED_CODE, align 1, keep-with-next
   \                     ?Subroutine220:
   \   000000   F0           MOVX      @DPTR,A
   \   000001   8E82         MOV       DPL,R6
   \   000003   8F83         MOV       DPH,R7
   \   000005   A3           INC       DPTR
   \   000006   22           RET

   \                                 In  segment BANKED_CODE, align 1, keep-with-next
   \                     ?Subroutine171:
   \   000000   12....       LCALL     ?Subroutine212 & 0xFFFF
   \                     ??CrossCallReturnLabel_345:
   \   000003   A3           INC       DPTR
   \   000004   A3           INC       DPTR
   \   000005   22           RET

   \                                 In  segment BANKED_CODE, align 1, keep-with-next
   \                     ?Subroutine64:
   \   000000   12....       LCALL     ?Subroutine192 & 0xFFFF
   \                     ??CrossCallReturnLabel_597:
   \   000003                ; Setup parameters for call to function osal_build_uint32
   \   000003                ; Setup parameters for call to function osal_build_uint32
   \   000003   7904         MOV       R1,#0x4
   \   000005   EE           MOV       A,R6
   \   000006   12....       LCALL     ?Subroutine209 & 0xFFFF
   \                     ??CrossCallReturnLabel_343:
   \   000009   22           RET

   \                                 In  segment BANKED_CODE, align 1, keep-with-next
   \                     ?Subroutine209:
   \   000000   FA           MOV       R2,A
   \   000001   EF           MOV       A,R7
   \   000002   FB           MOV       R3,A
   \   000003   12....       LCALL     `??osal_build_uint32::?relay`; Banked call to: osal_build_uint32
   \   000006   EA           MOV       A,R2
   \   000007   F8           MOV       R0,A
   \   000008   EB           MOV       A,R3
   \   000009   F9           MOV       R1,A
   \   00000A   EC           MOV       A,R4
   \   00000B   FA           MOV       R2,A
   \   00000C   ED           MOV       A,R5
   \   00000D   FB           MOV       R3,A
   \   00000E   22           RET
   1527          
   1528          #if defined ( ZDO_MGMT_NWKDISC_RESPONSE )
   1529          /*********************************************************************
   1530           * @fn          ZDO_FinishProcessingMgmtNwkDiscReq
   1531           *
   1532           * @brief       This function finishes the processing of the Management
   1533           *              Network Discover Request and generates the response.
   1534           *
   1535           *   Note:      This function will limit the number of items returned
   1536           *              to ZDO_MAX_NWKDISC_ITEMS items.
   1537           *
   1538           * @param       ResultCountSrcAddr - source of the request
   1539           * @param       msg - pointer to incoming message
   1540           * @param       SecurityUse -
   1541           *
   1542           * @return      none
   1543           */
   1544          void ZDO_FinishProcessingMgmtNwkDiscReq( void )
   1545          {
   1546            byte count, i, ResultCount = 0;
   1547            networkDesc_t *newDesc = NULL, *pList, *NetworkList;
   1548          
   1549            NetworkList = nwk_getNwkDescList();
   1550          
   1551            // Count the number of nwk descriptors in the list
   1552            pList = nwk_getNwkDescList();
   1553            while (pList)
   1554            {
   1555              ResultCount++;
   1556              pList = pList->nextDesc;
   1557            }
   1558          
   1559            if ( ZSTACK_ROUTER_BUILD )
   1560            {
   1561              // Look for my PanID.
   1562              pList = nwk_getNwkDescList();
   1563              while ( pList )
   1564              {
   1565                if ( pList->panId == _NIB.nwkPanId )
   1566                {
   1567                  break;
   1568                }
   1569          
   1570          
   1571                if ( !pList->nextDesc )
   1572                {
   1573                  break;
   1574                }
   1575                pList = pList->nextDesc;
   1576              }
   1577          
   1578          
   1579              // If my Pan not present (query to a star network ZC or an isolated ZR?),
   1580              // prepend it.
   1581              if ( !pList || (pList->panId != _NIB.nwkPanId) )
   1582              {
   1583                newDesc = (networkDesc_t *)osal_mem_alloc( sizeof( networkDesc_t ) );
   1584                if ( newDesc )
   1585                {
   1586                  byte pJoin;
   1587          
   1588                  newDesc->panId = _NIB.nwkPanId;
   1589                  newDesc->logicalChannel = _NIB.nwkLogicalChannel;
   1590                  newDesc->version = NLME_GetProtocolVersion();
   1591                  newDesc->stackProfile = zgStackProfile;
   1592          
   1593                  //Extended PanID
   1594                  osal_cpyExtAddr( newDesc->extendedPANID, _NIB.extendedPANID);
   1595          
   1596                  ZMacGetReq( ZMacAssociationPermit, &pJoin );
   1597                  newDesc->chosenRouter = ((pJoin) ? ZDAppNwkAddr.addr.shortAddr :
   1598                                                     INVALID_NODE_ADDR);
   1599          
   1600                  newDesc->nextDesc = NetworkList;
   1601                  NetworkList = newDesc;
   1602                  ResultCount++;
   1603                }
   1604              }
   1605            }
   1606          
   1607            // Calc the count and apply a max count.
   1608            if ( zdappMgmtNwkDiscStartIndex > ResultCount )
   1609            {
   1610              count = 0;
   1611            }
   1612            else
   1613            {
   1614              count = ResultCount - zdappMgmtNwkDiscStartIndex;
   1615              if ( count > ZDO_MAX_NWKDISC_ITEMS )
   1616              {
   1617                count = ZDO_MAX_NWKDISC_ITEMS;
   1618              }
   1619          
   1620              // Move the list pointer up to the start index.
   1621              for ( i = 0; i < zdappMgmtNwkDiscStartIndex; i++ )
   1622              {
   1623                NetworkList = NetworkList->nextDesc;
   1624              }
   1625            }
   1626          
   1627            ZDP_MgmtNwkDiscRsp( zdappMgmtNwkDiscRspTransSeq,
   1628                               &zdappMgmtNwkDiscRspAddr, ZSuccess, ResultCount,
   1629                                zdappMgmtNwkDiscStartIndex,
   1630                                count,
   1631                                NetworkList,
   1632                                false );
   1633          
   1634            if ( ZSTACK_ROUTER_BUILD )
   1635            {
   1636              if ( newDesc != NULL )
   1637              {
   1638                osal_mem_free( newDesc );
   1639              }
   1640            }
   1641          
   1642            NLME_NwkDiscTerm();
   1643          }
   1644          #endif
   1645          
   1646          /*********************************************************************
   1647           * @fn          ZDO_ProcessMgmtRtgReq
   1648           *
   1649           * @brief       This function finishes the processing of the Management
   1650           *              Routing Request and generates the response.
   1651           *
   1652           *   Note:      This function will limit the number of items returned
   1653           *              to ZDO_MAX_RTG_ITEMS items.
   1654           *
   1655           * @param       inMsg - incoming message (request)
   1656           *
   1657           * @return      none
   1658           */

   \                                 In  segment BANKED_CODE, align 1, keep-with-next
   1659          void ZDO_ProcessMgmtRtgReq( zdoIncomingMsg_t *inMsg )
   \                     ZDO_ProcessMgmtRtgReq:
   1660          {
   \   000000                REQUIRE ?V0
   \   000000                REQUIRE ?V1
   \   000000                REQUIRE ?V2
   \   000000                REQUIRE ?V3
   \   000000                REQUIRE ?V4
   \   000000                REQUIRE ?V5
   \   000000                REQUIRE ?V6
   \   000000                REQUIRE ?V7
   \   000000   74F0         MOV       A,#-0x10
   \   000002   12....       LCALL     ?BANKED_ENTER_XDATA
   \   000005                ; Saved register size: 16
   \   000005                ; Auto size: 1
   \   000005   74FF         MOV       A,#-0x1
   \   000007   12....       LCALL     ?ALLOC_XSTACK8
   \   00000A   8A..         MOV       ?V6,R2
   \   00000C   8B..         MOV       ?V7,R3
   1661            byte x;
   1662            byte maxNumItems;
   1663            byte numItems = 0;
   \   00000E   7E00         MOV       R6,#0x0
   1664            uint8 *pBuf = NULL;
   \   000010   8E..         MOV       ?V4,R6
   \   000012   8E..         MOV       ?V5,R6
   1665            rtgItem_t *pList;
   1666            uint8 StartIndex = inMsg->asdu[0];
   \   000014   12....       LCALL     ?Subroutine139 & 0xFFFF
   \                     ??CrossCallReturnLabel_236:
   \   000017   35..         ADDC      A,?V7
   \   000019   12....       LCALL     ?Subroutine86 & 0xFFFF
   \                     ??CrossCallReturnLabel_481:
   \   00001C   F5..         MOV       ?V0,A
   1667          
   1668            // Get the number of table items
   1669            NLME_GetRequest( nwkNumRoutingTableEntries, 0, &maxNumItems );
   \   00001E                ; Setup parameters for call to function NLME_GetRequest
   \   00001E   AC..         MOV       R4,?XSP + 0
   \   000020   AD..         MOV       R5,?XSP + 1
   \   000022   7A00         MOV       R2,#0x0
   \   000024   7B00         MOV       R3,#0x0
   \   000026   799D         MOV       R1,#-0x63
   \   000028   12....       LCALL     `??NLME_GetRequest::?relay`; Banked call to: NLME_GetRequest
   1670          
   1671            if ( maxNumItems > StartIndex )
   \   00002B   85..82       MOV       DPL,?XSP + 0
   \   00002E   85..83       MOV       DPH,?XSP + 1
   \   000031   E0           MOVX      A,@DPTR
   \   000032   F8           MOV       R0,A
   \   000033   E5..         MOV       A,?V0
   \   000035   C3           CLR       C
   \   000036   98           SUBB      A,R0
   \   000037   5070         JNC       ??ZDO_ProcessMgmtRtgReq_0
   1672            {
   1673              numItems = maxNumItems - StartIndex;    // Start at the passed in index
   \   000039   E0           MOVX      A,@DPTR
   \   00003A   C3           CLR       C
   \   00003B   95..         SUBB      A,?V0
   \   00003D   FE           MOV       R6,A
   1674          
   1675              // limit the size of the list
   1676              if ( numItems > ZDO_MAX_RTG_ITEMS )
   \   00003E   C3           CLR       C
   \   00003F   940B         SUBB      A,#0xb
   \   000041   4002         JC        ??ZDO_ProcessMgmtRtgReq_1
   1677              {
   1678                numItems = ZDO_MAX_RTG_ITEMS;
   \   000043   7E0A         MOV       R6,#0xa
   1679              }
   1680          
   1681              // Allocate the memory to build the table
   1682              pBuf = osal_mem_alloc( (short)(sizeof( rtgItem_t ) * numItems) );
   \                     ??ZDO_ProcessMgmtRtgReq_1:
   \   000045                ; Setup parameters for call to function osal_mem_alloc
   \   000045   EE           MOV       A,R6
   \   000046   75F007       MOV       B,#0x7
   \   000049   A4           MUL       AB
   \   00004A   FA           MOV       R2,A
   \   00004B   ABF0         MOV       R3,B
   \   00004D   12....       LCALL     `??osal_mem_alloc::?relay`; Banked call to: osal_mem_alloc
   \   000050   8A..         MOV       ?V2,R2
   \   000052   8B..         MOV       ?V3,R3
   \   000054   8A..         MOV       ?V4,R2
   \   000056   8B..         MOV       ?V5,R3
   1683          
   1684              if ( pBuf != NULL )
   \   000058   EA           MOV       A,R2
   \   000059   4B           ORL       A,R3
   \   00005A   604B         JZ        ??ZDO_ProcessMgmtRtgReq_2
   1685              {
   1686                // Convert buffer to list
   1687                pList = (rtgItem_t *)pBuf;
   1688          
   1689                // Loop through items and build list
   1690                for ( x = 0; x < numItems; x++ )
   \   00005C   7F00         MOV       R7,#0x0
   \   00005E   800E         SJMP      ??ZDO_ProcessMgmtRtgReq_3
   1691                {
   1692                  NLME_GetRequest( nwkRoutingTable, (uint16)(x + StartIndex), (void*)pList );
   1693          
   1694                  // Remap the status to the RoutingTableList Record Format defined in the ZigBee spec
   1695                  switch( pList->status )
   1696                  {
   1697                    case RT_ACTIVE:
   1698                      pList->status = ZDO_MGMT_RTG_ENTRY_ACTIVE;
   1699                      break;
   1700          
   1701                    case RT_DISC:
   1702                      pList->status = ZDO_MGMT_RTG_ENTRY_DISCOVERY_UNDERWAY;
   1703                      break;
   1704          
   1705                    case RT_LINK_FAIL:
   1706                      pList->status = ZDO_MGMT_RTG_ENTRY_DISCOVERY_FAILED;
   1707                      break;
   1708          
   1709                    case RT_INIT:
   1710                    case RT_REPAIR:
   1711                    default:
   1712                      pList->status = ZDO_MGMT_RTG_ENTRY_INACTIVE;
   \                     ??ZDO_ProcessMgmtRtgReq_4:
   \   000060   7403         MOV       A,#0x3
   \                     ??ZDO_ProcessMgmtRtgReq_5:
   \   000062   F0           MOVX      @DPTR,A
   1713                      break;
   1714                  }
   1715          
   1716                  // Increment pointer to next record
   1717                  pList++;
   \   000063   E5..         MOV       A,?V2
   \   000065   2407         ADD       A,#0x7
   \   000067   F5..         MOV       ?V2,A
   \   000069   5002         JNC       ??ZDO_ProcessMgmtRtgReq_6
   \   00006B   05..         INC       ?V3
   \                     ??ZDO_ProcessMgmtRtgReq_6:
   \   00006D   0F           INC       R7
   \                     ??ZDO_ProcessMgmtRtgReq_3:
   \   00006E   EF           MOV       A,R7
   \   00006F   C3           CLR       C
   \   000070   9E           SUBB      A,R6
   \   000071   5036         JNC       ??ZDO_ProcessMgmtRtgReq_0
   \   000073                ; Setup parameters for call to function NLME_GetRequest
   \   000073   AC..         MOV       R4,?V2
   \   000075   AD..         MOV       R5,?V3
   \   000077   EF           MOV       A,R7
   \   000078   A8..         MOV       R0,?V0
   \   00007A   28           ADD       A,R0
   \   00007B   FA           MOV       R2,A
   \   00007C   E4           CLR       A
   \   00007D   3400         ADDC      A,#0x0
   \   00007F   FB           MOV       R3,A
   \   000080   798B         MOV       R1,#-0x75
   \   000082   12....       LCALL     `??NLME_GetRequest::?relay`; Banked call to: NLME_GetRequest
   \   000085   E5..         MOV       A,?V2
   \   000087   2405         ADD       A,#0x5
   \   000089   F582         MOV       DPL,A
   \   00008B   E4           CLR       A
   \   00008C   35..         ADDC      A,?V3
   \   00008E   F583         MOV       DPH,A
   \   000090   E0           MOVX      A,@DPTR
   \   000091   14           DEC       A
   \   000092   6008         JZ        ??ZDO_ProcessMgmtRtgReq_7
   \   000094   14           DEC       A
   \   000095   6008         JZ        ??ZDO_ProcessMgmtRtgReq_8
   \   000097   14           DEC       A
   \   000098   6009         JZ        ??ZDO_ProcessMgmtRtgReq_9
   \   00009A   80C4         SJMP      ??ZDO_ProcessMgmtRtgReq_4
   \                     ??ZDO_ProcessMgmtRtgReq_7:
   \   00009C   E4           CLR       A
   \   00009D   80C3         SJMP      ??ZDO_ProcessMgmtRtgReq_5
   \                     ??ZDO_ProcessMgmtRtgReq_8:
   \   00009F   7401         MOV       A,#0x1
   \   0000A1   80BF         SJMP      ??ZDO_ProcessMgmtRtgReq_5
   \                     ??ZDO_ProcessMgmtRtgReq_9:
   \   0000A3   7402         MOV       A,#0x2
   \   0000A5   80BB         SJMP      ??ZDO_ProcessMgmtRtgReq_5
   1718                }
   1719              }
   1720              else
   1721              {
   1722                numItems = 0;
   \                     ??ZDO_ProcessMgmtRtgReq_2:
   \   0000A7   7E00         MOV       R6,#0x0
   1723              }
   1724            }
   1725          
   1726            // Send response
   1727            ZDP_MgmtRtgRsp( inMsg->TransSeq, &(inMsg->srcAddr), ZSuccess, maxNumItems, StartIndex, numItems,
   1728                                  (rtgItem_t *)pBuf, false );
   \                     ??ZDO_ProcessMgmtRtgReq_0:
   \   0000A9                ; Setup parameters for call to function ZDP_MgmtRtgRsp
   \   0000A9   75..00       MOV       ?V1,#0x0
   \   0000AC   78..         MOV       R0,#?V1
   \   0000AE   12....       LCALL     ?PUSH_XSTACK_I_ONE
   \   0000B1   78..         MOV       R0,#?V4
   \   0000B3   12....       LCALL     ?PUSH_XSTACK_I_TWO
   \   0000B6   EE           MOV       A,R6
   \   0000B7   F5..         MOV       ?V1,A
   \   0000B9   78..         MOV       R0,#?V1
   \   0000BB   12....       LCALL     ?PUSH_XSTACK_I_ONE
   \   0000BE   78..         MOV       R0,#?V0
   \   0000C0   12....       LCALL     ?PUSH_XSTACK_I_ONE
   \   0000C3   7405         MOV       A,#0x5
   \   0000C5   12....       LCALL     ?XSTACK_DISP0_8
   \   0000C8   E0           MOVX      A,@DPTR
   \   0000C9   FD           MOV       R5,A
   \   0000CA   7C00         MOV       R4,#0x0
   \   0000CC   E5..         MOV       A,?V6
   \   0000CE   2402         ADD       A,#0x2
   \   0000D0   FA           MOV       R2,A
   \   0000D1   E4           CLR       A
   \   0000D2   35..         ADDC      A,?V7
   \   0000D4   FB           MOV       R3,A
   \   0000D5   E5..         MOV       A,?V6
   \   0000D7   12....       LCALL     ?Subroutine148 & 0xFFFF
   \                     ??CrossCallReturnLabel_255:
   \   0000DA   35..         ADDC      A,?V7
   \   0000DC   F583         MOV       DPH,A
   \   0000DE   E0           MOVX      A,@DPTR
   \   0000DF   F9           MOV       R1,A
   \   0000E0   12....       LCALL     `??ZDP_MgmtRtgRsp::?relay`; Banked call to: ZDP_MgmtRtgRsp
   \   0000E3   7405         MOV       A,#0x5
   \   0000E5   12....       LCALL     ?DEALLOC_XSTACK8
   1729          
   1730            if ( pBuf != NULL )
   \   0000E8   E5..         MOV       A,?V4
   \   0000EA   45..         ORL       A,?V5
   \   0000EC   6007         JZ        ??ZDO_ProcessMgmtRtgReq_10
   1731            {
   1732              osal_mem_free( pBuf );
   \   0000EE                ; Setup parameters for call to function osal_mem_free
   \   0000EE   AA..         MOV       R2,?V4
   \   0000F0   AB..         MOV       R3,?V5
   \   0000F2   12....       LCALL     `??osal_mem_free::?relay`; Banked call to: osal_mem_free
   1733            }
   1734          }
   \                     ??ZDO_ProcessMgmtRtgReq_10:
   \   0000F5   7401         MOV       A,#0x1
   \   0000F7   02....       LJMP      ??Subroutine223_0 & 0xFFFF

   \                                 In  segment BANKED_CODE, align 1, keep-with-next
   \                     ?Subroutine86:
   \   000000   F583         MOV       DPH,A
   \   000002                REQUIRE ??Subroutine244_0
   \   000002                ; // Fall through to label ??Subroutine244_0
   1735          
   1736          /*********************************************************************
   1737           * @fn          ZDO_ProcessMgmtBindReq
   1738           *
   1739           * @brief       This function finishes the processing of the Management
   1740           *              Bind Request and generates the response.
   1741           *
   1742           *   Note:      This function will limit the number of items returned
   1743           *              to ZDO_MAX_BIND_ITEMS items.
   1744           *
   1745           * @param       inMsg - incoming message (request)
   1746           *
   1747           * @return      none
   1748           */

   \                                 In  segment BANKED_CODE, align 1, keep-with-next
   1749          void ZDO_ProcessMgmtBindReq( zdoIncomingMsg_t *inMsg )
   \                     ZDO_ProcessMgmtBindReq:
   1750          {
   \   000000                REQUIRE ?V0
   \   000000                REQUIRE ?V1
   \   000000                REQUIRE ?V2
   \   000000                REQUIRE ?V3
   \   000000                REQUIRE ?V4
   \   000000                REQUIRE ?V5
   \   000000                REQUIRE ?V6
   \   000000   74F1         MOV       A,#-0xf
   \   000002   12....       LCALL     ?BANKED_ENTER_XDATA
   \   000005                ; Saved register size: 15
   \   000005                ; Auto size: 4
   \   000005   74FC         MOV       A,#-0x4
   \   000007   12....       LCALL     ?ALLOC_XSTACK8
   \   00000A   7402         MOV       A,#0x2
   \   00000C   12....       LCALL     ?XSTACK_DISP0_8
   \   00000F   12....       LCALL     ?Subroutine41 & 0xFFFF
   1751          #if defined ( REFLECTOR )
   1752            byte x;
   1753            uint16 maxNumItems;
   1754            uint16 numItems;
   1755            uint8 *pBuf = NULL;
   \                     ??CrossCallReturnLabel_371:
   \   000012   75..00       MOV       ?V2,#0x0
   \   000015   75..00       MOV       ?V3,#0x0
   1756            apsBindingItem_t *pList;
   1757            uint8 StartIndex = inMsg->asdu[0];
   \   000018   7402         MOV       A,#0x2
   \   00001A   12....       LCALL     ?XSTACK_DISP0_8
   \   00001D   E0           MOVX      A,@DPTR
   \   00001E   12....       LCALL     ??Subroutine282_0 & 0xFFFF
   \                     ??CrossCallReturnLabel_673:
   \   000021   12....       LCALL     ?Subroutine86 & 0xFFFF
   \                     ??CrossCallReturnLabel_482:
   \   000024   F5..         MOV       ?V6,A
   1758            uint8 status;
   1759          
   1760            // Get the number of table items
   1761            APSME_GetRequest( apsNumBindingTableEntries, 0, (byte*)(&maxNumItems) );
   \   000026                ; Setup parameters for call to function APSME_GetRequest
   \   000026   AC..         MOV       R4,?XSP + 0
   \   000028   AD..         MOV       R5,?XSP + 1
   \   00002A   7A00         MOV       R2,#0x0
   \   00002C   7B00         MOV       R3,#0x0
   \   00002E   79A3         MOV       R1,#-0x5d
   \   000030   12....       LCALL     `??APSME_GetRequest::?relay`; Banked call to: APSME_GetRequest
   1762          
   1763            if ( maxNumItems > StartIndex )
   \   000033   AA..         MOV       R2,?V6
   \   000035   12....       LCALL     ?Subroutine96 & 0xFFFF
   \                     ??CrossCallReturnLabel_444:
   \   000038   C3           CLR       C
   \   000039   EA           MOV       A,R2
   \   00003A   98           SUBB      A,R0
   \   00003B   E4           CLR       A
   \   00003C   99           SUBB      A,R1
   \   00003D   501E         JNC       ??ZDO_ProcessMgmtBindReq_0
   1764            {
   1765              numItems = maxNumItems - StartIndex;    // Start at the passed in index
   \   00003F   85..82       MOV       DPL,?XSP + 0
   \   000042   85..83       MOV       DPH,?XSP + 1
   \   000045   E0           MOVX      A,@DPTR
   \   000046   C3           CLR       C
   \   000047   9A           SUBB      A,R2
   \   000048   FE           MOV       R6,A
   \   000049   A3           INC       DPTR
   \   00004A   E0           MOVX      A,@DPTR
   \   00004B   9400         SUBB      A,#0x0
   \   00004D   FF           MOV       R7,A
   1766            }
   1767            else
   1768            {
   1769              numItems = 0;
   1770            }
   1771          
   1772            // limit the size of the list
   1773            if ( numItems > ZDO_MAX_BIND_ITEMS )
   \   00004E   C3           CLR       C
   \   00004F   EE           MOV       A,R6
   \   000050   9404         SUBB      A,#0x4
   \   000052   EF           MOV       A,R7
   \   000053   9400         SUBB      A,#0x0
   \   000055   405E         JC        ??ZDO_ProcessMgmtBindReq_1
   1774            {
   1775              numItems = ZDO_MAX_BIND_ITEMS;
   \   000057   7E03         MOV       R6,#0x3
   \   000059   7F00         MOV       R7,#0x0
   \   00005B   805C         SJMP      ??ZDO_ProcessMgmtBindReq_2
   1776            }
   \                     ??ZDO_ProcessMgmtBindReq_0:
   \   00005D   7E00         MOV       R6,#0x0
   1777          
   1778            // Allocate the memory to build the table
   1779            if ( numItems )
   1780            {
   1781              pBuf = osal_mem_alloc( sizeof( apsBindingItem_t ) * numItems );
   1782              
   1783              if(pBuf != NULL)
   1784              {
   1785              
   1786                status = ZSuccess;
   1787          
   1788                // Convert buffer to list
   1789                pList = (apsBindingItem_t *)pBuf;
   1790          
   1791                // Loop through items and build list
   1792                for ( x = 0; x < numItems; x++ )
   1793                {
   1794                  APSME_GetRequest( apsBindingTable, (x + StartIndex), (void*)pList );
   1795                  pList++;
   1796                }
   1797              }
   1798              else
   1799              {
   1800                //No memory to allocate response, respond unsupported attribute
   1801                status = ZApsUnsupportedAttrib;
   1802                numItems = 0;
   1803              }
   1804            }
   1805            else
   1806            {
   1807              status = ZSuccess;
   \                     ??ZDO_ProcessMgmtBindReq_3:
   \   00005F   75..00       MOV       ?V0,#0x0
   \                     ??ZDO_ProcessMgmtBindReq_4:
   \   000062   EE           MOV       A,R6
   \   000063   F9           MOV       R1,A
   1808            }
   1809          
   1810            // Send response
   1811            ZDP_MgmtBindRsp( inMsg->TransSeq, &(inMsg->srcAddr), status, (byte)maxNumItems, StartIndex,
   1812                             (byte)numItems, (apsBindingItem_t *)pBuf, false );
   \                     ??ZDO_ProcessMgmtBindReq_5:
   \   000064                ; Setup parameters for call to function ZDP_MgmtBindRsp
   \   000064   75..00       MOV       ?V1,#0x0
   \   000067   78..         MOV       R0,#?V1
   \   000069   12....       LCALL     ?PUSH_XSTACK_I_ONE
   \   00006C   78..         MOV       R0,#?V2
   \   00006E   12....       LCALL     ?PUSH_XSTACK_I_TWO
   \   000071   E9           MOV       A,R1
   \   000072   F5..         MOV       ?V1,A
   \   000074   78..         MOV       R0,#?V1
   \   000076   12....       LCALL     ?PUSH_XSTACK_I_ONE
   \   000079   E5..         MOV       A,?V6
   \   00007B   F5..         MOV       ?V1,A
   \   00007D   78..         MOV       R0,#?V1
   \   00007F   12....       LCALL     ?PUSH_XSTACK_I_ONE
   \   000082   7405         MOV       A,#0x5
   \   000084   12....       LCALL     ?XSTACK_DISP0_8
   \   000087   E0           MOVX      A,@DPTR
   \   000088   FD           MOV       R5,A
   \   000089   AC..         MOV       R4,?V0
   \   00008B   7407         MOV       A,#0x7
   \   00008D   12....       LCALL     ?XSTACK_DISP0_8
   \   000090   12....       LCALL     ?Subroutine115 & 0xFFFF
   \                     ??CrossCallReturnLabel_190:
   \   000093   7407         MOV       A,#0x7
   \   000095   12....       LCALL     ?XSTACK_DISP0_8
   \   000098   12....       LCALL     ?Subroutine74 & 0xFFFF
   \                     ??CrossCallReturnLabel_124:
   \   00009B   12....       LCALL     `??ZDP_MgmtBindRsp::?relay`; Banked call to: ZDP_MgmtBindRsp
   \   00009E   7405         MOV       A,#0x5
   \   0000A0   12....       LCALL     ?DEALLOC_XSTACK8
   1813          
   1814            if ( pBuf )
   \   0000A3   E5..         MOV       A,?V2
   \   0000A5   45..         ORL       A,?V3
   \   0000A7   6007         JZ        ??ZDO_ProcessMgmtBindReq_6
   1815            {
   1816              osal_mem_free( pBuf );
   \   0000A9                ; Setup parameters for call to function osal_mem_free
   \   0000A9   AA..         MOV       R2,?V2
   \   0000AB   AB..         MOV       R3,?V3
   \   0000AD   12....       LCALL     `??osal_mem_free::?relay`; Banked call to: osal_mem_free
   1817            }
   1818          #else
   1819            (void)inMsg;
   1820          #endif
   1821          }
   \                     ??ZDO_ProcessMgmtBindReq_6:
   \   0000B0   7404         MOV       A,#0x4
   \   0000B2   02....       LJMP      ?Subroutine6 & 0xFFFF
   \                     ??ZDO_ProcessMgmtBindReq_1:
   \   0000B5   EE           MOV       A,R6
   \   0000B6   4F           ORL       A,R7
   \   0000B7   60A6         JZ        ??ZDO_ProcessMgmtBindReq_3
   \                     ??ZDO_ProcessMgmtBindReq_2:
   \   0000B9                ; Setup parameters for call to function osal_mem_alloc
   \   0000B9   EE           MOV       A,R6
   \   0000BA   FA           MOV       R2,A
   \   0000BB   EF           MOV       A,R7
   \   0000BC   FB           MOV       R3,A
   \   0000BD   EA           MOV       A,R2
   \   0000BE   75F015       MOV       B,#0x15
   \   0000C1   A4           MUL       AB
   \   0000C2   FA           MOV       R2,A
   \   0000C3   A8F0         MOV       R0,B
   \   0000C5   75F015       MOV       B,#0x15
   \   0000C8   EB           MOV       A,R3
   \   0000C9   A4           MUL       AB
   \   0000CA   28           ADD       A,R0
   \   0000CB   12....       LCALL     ?Subroutine153 & 0xFFFF
   \                     ??CrossCallReturnLabel_399:
   \   0000CE   6033         JZ        ??ZDO_ProcessMgmtBindReq_7
   \   0000D0   75..00       MOV       ?V0,#0x0
   \   0000D3   8A..         MOV       ?V4,R2
   \   0000D5   8B..         MOV       ?V5,R3
   \   0000D7   75..00       MOV       ?V1,#0x0
   \                     ??ZDO_ProcessMgmtBindReq_8:
   \   0000DA   C3           CLR       C
   \   0000DB   E5..         MOV       A,?V1
   \   0000DD   9E           SUBB      A,R6
   \   0000DE   E4           CLR       A
   \   0000DF   9F           SUBB      A,R7
   \   0000E0   5080         JNC       ??ZDO_ProcessMgmtBindReq_4
   \   0000E2                ; Setup parameters for call to function APSME_GetRequest
   \   0000E2   AC..         MOV       R4,?V4
   \   0000E4   AD..         MOV       R5,?V5
   \   0000E6   A8..         MOV       R0,?V6
   \   0000E8   E5..         MOV       A,?V1
   \   0000EA   28           ADD       A,R0
   \   0000EB   FA           MOV       R2,A
   \   0000EC   E4           CLR       A
   \   0000ED   3400         ADDC      A,#0x0
   \   0000EF   FB           MOV       R3,A
   \   0000F0   79A2         MOV       R1,#-0x5e
   \   0000F2   12....       LCALL     `??APSME_GetRequest::?relay`; Banked call to: APSME_GetRequest
   \   0000F5   E5..         MOV       A,?V4
   \   0000F7   2415         ADD       A,#0x15
   \   0000F9   F5..         MOV       ?V4,A
   \   0000FB   5002         JNC       ??ZDO_ProcessMgmtBindReq_9
   \   0000FD   05..         INC       ?V5
   \                     ??ZDO_ProcessMgmtBindReq_9:
   \   0000FF   05..         INC       ?V1
   \   000101   80D7         SJMP      ??ZDO_ProcessMgmtBindReq_8
   \                     ??ZDO_ProcessMgmtBindReq_7:
   \   000103   75..B5       MOV       ?V0,#-0x4b
   \   000106   7900         MOV       R1,#0x0
   \   000108   02....       LJMP      ??ZDO_ProcessMgmtBindReq_5 & 0xFFFF

   \                                 In  segment BANKED_CODE, align 1, keep-with-next
   \                     ?Subroutine153:
   \   000000   FB           MOV       R3,A
   \   000001                REQUIRE ??Subroutine234_0
   \   000001                ; // Fall through to label ??Subroutine234_0

   \                                 In  segment BANKED_CODE, align 1, keep-with-next
   \                     ??Subroutine234_0:
   \   000000   12....       LCALL     ?Subroutine206 & 0xFFFF
   \                     ??CrossCallReturnLabel_402:
   \   000003   22           RET

   \                                 In  segment BANKED_CODE, align 1, keep-with-next
   \                     ?Subroutine96:
   \   000000   85..82       MOV       DPL,?XSP + 0
   \   000003   85..83       MOV       DPH,?XSP + 1
   \   000006                REQUIRE ??Subroutine241_0
   \   000006                ; // Fall through to label ??Subroutine241_0

   \                                 In  segment BANKED_CODE, align 1, keep-with-next
   \                     ??Subroutine268_0:
   \   000000   2413         ADD       A,#0x13
   \   000002   F582         MOV       DPL,A
   \   000004   E4           CLR       A
   \   000005   3B           ADDC      A,R3
   \   000006   22           RET

   \                                 In  segment BANKED_CODE, align 1, keep-with-next
   \                     ?Subroutine206:
   \   000000   12....       LCALL     `??osal_mem_alloc::?relay`; Banked call to: osal_mem_alloc
   \   000003   8A..         MOV       ?V2,R2
   \   000005   8B..         MOV       ?V3,R3
   \   000007   EA           MOV       A,R2
   \   000008   4B           ORL       A,R3
   \   000009   22           RET

   \                                 In  segment BANKED_CODE, align 1, keep-with-next
   \                     ??Subroutine282_0:
   \   000000   12....       LCALL     ??Subroutine268_0 & 0xFFFF
   \                     ??CrossCallReturnLabel_680:
   \   000003   22           RET
   1822          
   1823          /*********************************************************************
   1824           * @fn          ZDO_ProcessMgmtDirectJoinReq
   1825           *
   1826           * @brief       This function finishes the processing of the Management
   1827           *              Direct Join Request and generates the response.
   1828           *
   1829           * @param       inMsg - incoming message (request)
   1830           *
   1831           * @return      none
   1832           */

   \                                 In  segment BANKED_CODE, align 1, keep-with-next
   1833          void ZDO_ProcessMgmtDirectJoinReq( zdoIncomingMsg_t *inMsg )
   \                     ZDO_ProcessMgmtDirectJoinReq:
   1834          {
   \   000000                REQUIRE ?V0
   \   000000                REQUIRE ?V1
   \   000000   74F6         MOV       A,#-0xa
   \   000002   12....       LCALL     ?BANKED_ENTER_XDATA
   \   000005                ; Saved register size: 10
   \   000005                ; Auto size: 1
   \   000005   74FF         MOV       A,#-0x1
   \   000007   12....       LCALL     ?ALLOC_XSTACK8
   \   00000A   12....       LCALL     ?Subroutine138 & 0xFFFF
   1835            uint8 *deviceAddr;
   1836            uint8 capInfo;
   1837            uint8 stat;
   1838          
   1839            // Parse the message
   1840            deviceAddr = inMsg->asdu;
   1841            capInfo = inMsg->asdu[Z_EXTADDR_LEN];
   1842          
   1843            stat = (byte) NLME_DirectJoinRequest( deviceAddr, capInfo );
   \                     ??CrossCallReturnLabel_233:
   \   00000D   12....       LCALL     ??Subroutine235_0 & 0xFFFF
   \                     ??CrossCallReturnLabel_411:
   \   000010                ; Setup parameters for call to function NLME_DirectJoinRequest
   \   000010   8A82         MOV       DPL,R2
   \   000012   F583         MOV       DPH,A
   \   000014   A3           INC       DPTR
   \   000015   A3           INC       DPTR
   \   000016   A3           INC       DPTR
   \   000017   A3           INC       DPTR
   \   000018   A3           INC       DPTR
   \   000019   A3           INC       DPTR
   \   00001A   A3           INC       DPTR
   \   00001B   A3           INC       DPTR
   \   00001C   E0           MOVX      A,@DPTR
   \   00001D   F9           MOV       R1,A
   \   00001E   12....       LCALL     `??NLME_DirectJoinRequest::?relay`; Banked call to: NLME_DirectJoinRequest
   \   000021   E9           MOV       A,R1
   \   000022   85..82       MOV       DPL,?XSP + 0
   \   000025   85..83       MOV       DPH,?XSP + 1
   \   000028   F0           MOVX      @DPTR,A
   1844          
   1845            ZDP_MgmtDirectJoinRsp( inMsg->TransSeq, &(inMsg->srcAddr), stat, false );
   \   000029                ; Setup parameters for call to function ZDP_SendData
   \   000029   75..00       MOV       ?V0,#0x0
   \   00002C   78..         MOV       R0,#?V0
   \   00002E   12....       LCALL     ?PUSH_XSTACK_I_ONE
   \   000031   7401         MOV       A,#0x1
   \   000033   12....       LCALL     ?XSTACK_DISP100_8
   \   000036   88..         MOV       ?V0,R0
   \   000038   89..         MOV       ?V1,R1
   \   00003A   78..         MOV       R0,#?V0
   \   00003C   12....       LCALL     ?PUSH_XSTACK_I_TWO
   \   00003F   75..35       MOV       ?V0,#0x35
   \   000042   75..80       MOV       ?V1,#-0x80
   \   000045   78..         MOV       R0,#?V0
   \   000047   12....       LCALL     ?PUSH_XSTACK_I_TWO
   \   00004A   7901         MOV       R1,#0x1
   \   00004C   EE           MOV       A,R6
   \   00004D   2402         ADD       A,#0x2
   \   00004F   FC           MOV       R4,A
   \   000050   E4           CLR       A
   \   000051   3F           ADDC      A,R7
   \   000052   FD           MOV       R5,A
   \   000053   12....       LCALL     ?Subroutine147 & 0xFFFF
   \                     ??CrossCallReturnLabel_252:
   \   000056   12....       LCALL     ?DEALLOC_XSTACK8
   1846          }
   \   000059   7401         MOV       A,#0x1
   \   00005B   02....       LJMP      ??Subroutine226_0 & 0xFFFF

   \                                 In  segment BANKED_CODE, align 1, keep-with-next
   \                     ?Subroutine147:
   \   000000   EE           MOV       A,R6
   \   000001   240F         ADD       A,#0xf
   \   000003   FA           MOV       R2,A
   \   000004   E4           CLR       A
   \   000005   3F           ADDC      A,R7
   \   000006   12....       LCALL     ?Subroutine208 & 0xFFFF
   \                     ??CrossCallReturnLabel_429:
   \   000009   22           RET
   1847          
   1848          /*********************************************************************
   1849           * @fn          ZDO_ProcessMgmtLeaveReq
   1850           *
   1851           * @brief       This function processes a Management Leave Request
   1852           *              and generates the response.
   1853           *
   1854           * @param       inMsg - incoming message (request)
   1855           *
   1856           * @return      none
   1857           */

   \                                 In  segment BANKED_CODE, align 1, keep-with-next
   \                     ?Subroutine1:
   \   000000   12....       LCALL     ?DEALLOC_XSTACK8
   \   000003                REQUIRE ??Subroutine222_0
   \   000003                ; // Fall through to label ??Subroutine222_0

   \                                 In  segment BANKED_CODE, align 1, keep-with-next
   1858          void ZDO_ProcessMgmtLeaveReq( zdoIncomingMsg_t *inMsg )
   \                     ZDO_ProcessMgmtLeaveReq:
   1859          {
   \   000000                REQUIRE ?V0
   \   000000                REQUIRE ?V1
   \   000000                REQUIRE ?V2
   \   000000                REQUIRE ?V3
   \   000000   74F4         MOV       A,#-0xc
   \   000002   12....       LCALL     ?BANKED_ENTER_XDATA
   \   000005                ; Saved register size: 12
   \   000005                ; Auto size: 6
   \   000005   74FA         MOV       A,#-0x6
   \   000007   12....       LCALL     ?ALLOC_XSTACK8
   \   00000A   12....       LCALL     ?Subroutine134 & 0xFFFF
   1860            NLME_LeaveReq_t req;
   1861            ZStatus_t       status;
   1862            uint8           option;
   1863            uint8 *msg = inMsg->asdu;
   \                     ??CrossCallReturnLabel_226:
   \   00000D   12....       LCALL     ??Subroutine266_0 & 0xFFFF
   1864            
   1865            if ( ( AddrMgrExtAddrValid( msg ) == FALSE                 ) ||
   1866                 ( osal_ExtAddrEqual( msg, NLME_GetExtAddr() ) == TRUE )    )
   \                     ??CrossCallReturnLabel_591:
   \   000010                ; Setup parameters for call to function AddrMgrExtAddrValid
   \   000010   EE           MOV       A,R6
   \   000011   FA           MOV       R2,A
   \   000012   EF           MOV       A,R7
   \   000013   FB           MOV       R3,A
   \   000014   12....       LCALL     `??AddrMgrExtAddrValid::?relay`; Banked call to: AddrMgrExtAddrValid
   \   000017   E9           MOV       A,R1
   \   000018   600F         JZ        ??ZDO_ProcessMgmtLeaveReq_0
   \   00001A                ; Setup parameters for call to function NLME_GetExtAddr
   \   00001A   12....       LCALL     ?Subroutine125 & 0xFFFF
   \                     ??CrossCallReturnLabel_208:
   \   00001D                ; Setup parameters for call to function sAddrExtCmp
   \   00001D   EE           MOV       A,R6
   \   00001E   FA           MOV       R2,A
   \   00001F   EF           MOV       A,R7
   \   000020   FB           MOV       R3,A
   \   000021   12....       LCALL     `??sAddrExtCmp::?relay`; Banked call to: sAddrExtCmp
   \   000024   E9           MOV       A,R1
   \   000025   6401         XRL       A,#0x1
   \   000027   7002         JNZ       ??ZDO_ProcessMgmtLeaveReq_1
   1867            {
   1868              if ( ( ZG_BUILD_COORDINATOR_TYPE ) && ( ZG_DEVICE_COORDINATOR_TYPE ) )
   1869              {
   1870                // Coordinator shall drop the leave request for itself
   1871                // section 3.6.1.10.3.1 R21
   1872                return;
   \                     ??ZDO_ProcessMgmtLeaveReq_0:
   \   000029   8070         SJMP      ??ZDO_ProcessMgmtLeaveReq_2
   1873              }
   1874              else
   1875              {
   1876                // Remove this device
   1877                req.extAddr = NULL;
   1878              }
   1879            }
   1880            else
   1881            {
   1882              // Remove child device
   1883              req.extAddr = msg;
   \                     ??ZDO_ProcessMgmtLeaveReq_1:
   \   00002B   7401         MOV       A,#0x1
   \   00002D   12....       LCALL     ?XSTACK_DISP0_8
   \   000030   EE           MOV       A,R6
   \   000031   F0           MOVX      @DPTR,A
   \   000032   A3           INC       DPTR
   \   000033   EF           MOV       A,R7
   \   000034   12....       LCALL     ?Subroutine21 & 0xFFFF
   1884            }
   1885            if ( ( ZG_BUILD_ENDDEVICE_TYPE ) && ( ZG_DEVICE_ENDDEVICE_TYPE ) )
   1886            {
   1887              //Only the parent device can request to leave, otherwise silently discard the frame
   1888              if(inMsg->srcAddr.addr.shortAddr != _NIB.nwkCoordAddress)
   1889              {
   1890                return;
   1891              }
   1892            }
   1893          
   1894            option = msg[Z_EXTADDR_LEN];
   \                     ??CrossCallReturnLabel_27:
   \   000037   FE           MOV       R6,A
   1895            if ( option & ZDP_MGMT_LEAVE_REQ_RC )
   \   000038   A2E6         MOV       C,0xE0 /* A   */.6
   \   00003A   5008         JNC       ??ZDO_ProcessMgmtLeaveReq_3
   1896            {
   1897              req.removeChildren = TRUE;
   \   00003C   7403         MOV       A,#0x3
   \   00003E   12....       LCALL     ?XSTACK_DISP0_8
   \   000041   7401         MOV       A,#0x1
   \   000043   F0           MOVX      @DPTR,A
   1898            }
   1899          
   1900            if ( option & ZDP_MGMT_LEAVE_REQ_REJOIN )
   \                     ??ZDO_ProcessMgmtLeaveReq_3:
   \   000044   EE           MOV       A,R6
   \   000045   A2E7         MOV       C,0xE0 /* A   */.7
   \   000047   5008         JNC       ??ZDO_ProcessMgmtLeaveReq_4
   1901            {
   1902               req.rejoin = TRUE;
   \   000049   7404         MOV       A,#0x4
   \   00004B   12....       LCALL     ?XSTACK_DISP0_8
   \   00004E   7401         MOV       A,#0x1
   \   000050   F0           MOVX      @DPTR,A
   1903            }
   1904          
   1905            req.silent = FALSE;
   \                     ??ZDO_ProcessMgmtLeaveReq_4:
   \   000051   7405         MOV       A,#0x5
   \   000053   12....       LCALL     ?XSTACK_DISP0_8
   \   000056   E4           CLR       A
   \   000057   12....       LCALL     ?Subroutine211 & 0xFFFF
   1906            
   1907            //According to R21 spec sec2.4.3.3.5.2 Mgmt leave rsp must contain the status response from the nwk leave processing. 
   1908            //Latest discussion in Zigbee indicates that mgmt leave rsp due to an OTA command must have status=success (9/12/16)
   1909            status = ZSuccess;
   \                     ??CrossCallReturnLabel_503:
   \   00005A   F0           MOVX      @DPTR,A
   1910            
   1911            ZDP_MgmtLeaveRsp( inMsg->TransSeq, &(inMsg->srcAddr), status, FALSE );
   \   00005B                ; Setup parameters for call to function ZDP_SendData
   \   00005B   F5..         MOV       ?V2,A
   \   00005D   78..         MOV       R0,#?V2
   \   00005F   12....       LCALL     ?PUSH_XSTACK_I_ONE
   \   000062   7401         MOV       A,#0x1
   \   000064   12....       LCALL     ?XSTACK_DISP100_8
   \   000067   88..         MOV       ?V2,R0
   \   000069   89..         MOV       ?V3,R1
   \   00006B   78..         MOV       R0,#?V2
   \   00006D   12....       LCALL     ?PUSH_XSTACK_I_TWO
   \   000070   75..34       MOV       ?V2,#0x34
   \   000073   75..80       MOV       ?V3,#-0x80
   \   000076   78..         MOV       R0,#?V2
   \   000078   12....       LCALL     ?PUSH_XSTACK_I_TWO
   \   00007B   12....       LCALL     ?Subroutine144 & 0xFFFF
   \                     ??CrossCallReturnLabel_246:
   \   00007E   12....       LCALL     ?DEALLOC_XSTACK8
   1912            
   1913            if ( ZG_BUILD_ENDDEVICE_TYPE )
   1914            {
   1915              // Stop polling and get ready to reset
   1916              NLME_SetPollRate( 0 );
   1917              NLME_SetResponseRate(0);
   1918              NLME_SetQueuedPollRate(0);
   1919            }
   1920            
   1921            NLME_LeaveReq(&req);
   \   000081                ; Setup parameters for call to function NLME_LeaveReq
   \   000081   7401         MOV       A,#0x1
   \   000083   12....       LCALL     ?XSTACK_DISP101_8
   \   000086   12....       LCALL     `??NLME_LeaveReq::?relay`; Banked call to: NLME_LeaveReq
   1922            
   1923            if (! (option & ZDP_MGMT_LEAVE_REQ_REJOIN) )
   \   000089   EE           MOV       A,R6
   \   00008A   A2E7         MOV       C,0xE0 /* A   */.7
   \   00008C   400D         JC        ??ZDO_ProcessMgmtLeaveReq_2
   1924            {
   1925              if(req.extAddr == NULL)
   \   00008E   7401         MOV       A,#0x1
   \   000090   12....       LCALL     ?XSTACK_DISP0_8
   \   000093   12....       LCALL     ??Subroutine242_0 & 0xFFFF
   \                     ??CrossCallReturnLabel_458:
   \   000096   7003         JNZ       ??ZDO_ProcessMgmtLeaveReq_2
   1926              {
   1927                bdb_setFN();
   \   000098                ; Setup parameters for call to function bdb_setFN
   \   000098   12....       LCALL     `??bdb_setFN::?relay`; Banked call to: bdb_setFN
   1928              }
   1929            }
   1930          }
   \                     ??ZDO_ProcessMgmtLeaveReq_2:
   \   00009B   7406         MOV       A,#0x6
   \   00009D   02....       LJMP      ?Subroutine1 & 0xFFFF

   \                                 In  segment BANKED_CODE, align 1, keep-with-next
   \                     ?Subroutine211:
   \   000000   F0           MOVX      @DPTR,A
   \   000001                ; Setup parameters for call to function AssocGetWithExt
   \   000001   85..82       MOV       DPL,?XSP + 0
   \   000004   85..83       MOV       DPH,?XSP + 1
   \   000007   22           RET

   \                                 In  segment BANKED_CODE, align 1, keep-with-next
   \                     ??Subroutine266_0:
   \   000000   F583         MOV       DPH,A
   \   000002                REQUIRE ??Subroutine267_0
   \   000002                ; // Fall through to label ??Subroutine267_0

   \                                 In  segment BANKED_CODE, align 1, keep-with-next
   \                     ?Subroutine21:
   \   000000   12....       LCALL     ?Subroutine171 & 0xFFFF
   \                     ??CrossCallReturnLabel_298:
   \   000003   A3           INC       DPTR
   \   000004   A3           INC       DPTR
   \   000005   A3           INC       DPTR
   \   000006   E0           MOVX      A,@DPTR
   \   000007   22           RET
   1931          
   1932          
   1933          /*********************************************************************
   1934           * @fn          ZDO_ProcessMgmtPermitJoinReq
   1935           *
   1936           * @brief       This function processes a Management Permit Join Request
   1937           *              and generates the response.
   1938           *
   1939           * @param       inMsg - incoming message (request)
   1940           *
   1941           * @return      none
   1942           */

   \                                 In  segment BANKED_CODE, align 1, keep-with-next
   1943          void ZDO_ProcessMgmtPermitJoinReq( zdoIncomingMsg_t *inMsg )
   \                     ZDO_ProcessMgmtPermitJoinReq:
   1944          {
   \   000000                REQUIRE ?V0
   \   000000                REQUIRE ?V1
   \   000000                REQUIRE ?V2
   \   000000                REQUIRE ?V3
   \   000000   74F4         MOV       A,#-0xc
   \   000002   12....       LCALL     ?BANKED_ENTER_XDATA
   \   000005                ; Saved register size: 12
   \   000005                ; Auto size: 1
   \   000005   74FF         MOV       A,#-0x1
   \   000007   12....       LCALL     ?ALLOC_XSTACK8
   \   00000A   EA           MOV       A,R2
   \   00000B   FE           MOV       R6,A
   \   00000C   EB           MOV       A,R3
   \   00000D   FF           MOV       R7,A
   1945            uint8 stat;
   1946            uint8 duration;
   1947          #if (ZG_BUILD_COORDINATOR_TYPE)
   1948            if(ZG_DEVICE_COORDINATOR_TYPE)
   1949            {
   1950              //If zgAllowRemoteTCPolicyChange is set to FALSE, the request from other 
   1951              //devices cannot affect the  Trust Center policies
   1952              if((zgAllowRemoteTCPolicyChange == 0) && (inMsg->srcAddr.addr.shortAddr!= 0x0000))
   \   00000E   EA           MOV       A,R2
   \   00000F   2402         ADD       A,#0x2
   \   000011   F5..         MOV       ?V0,A
   \   000013   E4           CLR       A
   \   000014   3F           ADDC      A,R7
   \   000015   F5..         MOV       ?V1,A
   \   000017   90....       MOV       DPTR,#zgAllowRemoteTCPolicyChange
   \   00001A   E0           MOVX      A,@DPTR
   \   00001B   700B         JNZ       ??ZDO_ProcessMgmtPermitJoinReq_0
   \   00001D   85..82       MOV       DPL,?V0
   \   000020   85..83       MOV       DPH,?V1
   \   000023   12....       LCALL     ??Subroutine242_0 & 0xFFFF
   \                     ??CrossCallReturnLabel_459:
   \   000026   7061         JNZ       ??ZDO_ProcessMgmtPermitJoinReq_1
   1953              {
   1954                return;
   1955              }
   1956            }
   1957          #endif
   1958            
   1959            duration = inMsg->asdu[ZDP_MGMT_PERMIT_JOIN_REQ_DURATION];
   \                     ??ZDO_ProcessMgmtPermitJoinReq_0:
   \   000028   12....       LCALL     ?Subroutine139 & 0xFFFF
   \                     ??CrossCallReturnLabel_237:
   \   00002B   3F           ADDC      A,R7
   \   00002C   12....       LCALL     ?Subroutine86 & 0xFFFF
   \                     ??CrossCallReturnLabel_483:
   \   00002F   F5..         MOV       ?V2,A
   1960            // Per R21 Spec this field is not longer relevant 2.4.3.3.7.2 (Mgmt_Permit_Joining_req Effect on Receipt)
   1961            //tcsig    = inMsg->asdu[ZDP_MGMT_PERMIT_JOIN_REQ_TC_SIG];
   1962          
   1963            // Per R21 Spec this duration cannot last forever 2.4.3.3.7.2 (Mgmt_Permit_Joining_req Effect on Receipt)
   1964            if(duration == 0xFF)
   \   000031   74FF         MOV       A,#-0x1
   \   000033   65..         XRL       A,?V2
   \   000035   7003         JNZ       ??ZDO_ProcessMgmtPermitJoinReq_2
   1965            {
   1966              duration = 0xFE;
   \   000037   75..FE       MOV       ?V2,#-0x2
   1967            }
   1968            
   1969            // Set the network layer permit join duration
   1970            stat = (byte) NLME_PermitJoiningRequest( duration );
   \                     ??ZDO_ProcessMgmtPermitJoinReq_2:
   \   00003A                ; Setup parameters for call to function NLME_PermitJoiningRequest
   \   00003A   A9..         MOV       R1,?V2
   \   00003C   12....       LCALL     `??NLME_PermitJoiningRequest::?relay`; Banked call to: NLME_PermitJoiningRequest
   \   00003F   E9           MOV       A,R1
   \   000040   85..82       MOV       DPL,?XSP + 0
   \   000043   85..83       MOV       DPH,?XSP + 1
   \   000046   F0           MOVX      @DPTR,A
   1971          
   1972            //Handle the permit joining if running a distributed network
   1973            if(APSME_IsDistributedSecurity())
   \   000047                ; Setup parameters for call to function APSME_IsDistributedSecurity
   \   000047   12....       LCALL     `??APSME_IsDistributedSecurity::?relay`; Banked call to: APSME_IsDistributedSecurity
   \   00004A   E9           MOV       A,R1
   \   00004B   6005         JZ        ??ZDO_ProcessMgmtPermitJoinReq_3
   1974            {
   1975              ZDSecMgrPermitJoining( duration );
   \   00004D                ; Setup parameters for call to function ZDSecMgrPermitJoining
   \   00004D   A9..         MOV       R1,?V2
   \   00004F   12....       LCALL     `??ZDSecMgrPermitJoining::?relay`; Banked call to: ZDSecMgrPermitJoining
   1976            }
   1977            
   1978            // Handle the Trust Center Significance
   1979            if ( ZG_SECURE_ENABLED && ZG_BUILD_COORDINATOR_TYPE && ZG_DEVICE_COORDINATOR_TYPE )
   1980            {
   1981              ZDSecMgrPermitJoining( duration );
   \                     ??ZDO_ProcessMgmtPermitJoinReq_3:
   \   000052                ; Setup parameters for call to function ZDSecMgrPermitJoining
   \   000052   A9..         MOV       R1,?V2
   \   000054   12....       LCALL     `??ZDSecMgrPermitJoining::?relay`; Banked call to: ZDSecMgrPermitJoining
   1982            }
   1983          
   1984            // Send a response if unicast
   1985            if ( !inMsg->wasBroadcast )
   \   000057   12....       LCALL     ?Subroutine156 & 0xFFFF
   \                     ??CrossCallReturnLabel_269:
   \   00005A   702D         JNZ       ??ZDO_ProcessMgmtPermitJoinReq_1
   1986            {
   1987              ZDP_MgmtPermitJoinRsp( inMsg->TransSeq, &(inMsg->srcAddr), stat, false );
   \   00005C                ; Setup parameters for call to function ZDP_SendData
   \   00005C   75..00       MOV       ?V2,#0x0
   \   00005F   78..         MOV       R0,#?V2
   \   000061   12....       LCALL     ?PUSH_XSTACK_I_ONE
   \   000064   7401         MOV       A,#0x1
   \   000066   12....       LCALL     ?XSTACK_DISP100_8
   \   000069   88..         MOV       ?V2,R0
   \   00006B   89..         MOV       ?V3,R1
   \   00006D   78..         MOV       R0,#?V2
   \   00006F   12....       LCALL     ?PUSH_XSTACK_I_TWO
   \   000072   75..36       MOV       ?V2,#0x36
   \   000075   75..80       MOV       ?V3,#-0x80
   \   000078   78..         MOV       R0,#?V2
   \   00007A   12....       LCALL     ?PUSH_XSTACK_I_TWO
   \   00007D   7901         MOV       R1,#0x1
   \   00007F   AC..         MOV       R4,?V0
   \   000081   AD..         MOV       R5,?V1
   \   000083   12....       LCALL     ?Subroutine147 & 0xFFFF
   1988            }
   \                     ??CrossCallReturnLabel_253:
   \   000086   12....       LCALL     ?DEALLOC_XSTACK8
   1989          }
   \                     ??ZDO_ProcessMgmtPermitJoinReq_1:
   \   000089   7401         MOV       A,#0x1
   \   00008B   02....       LJMP      ?Subroutine1 & 0xFFFF

   \                                 In  segment BANKED_CODE, align 1, keep-with-next
   \                     ?Subroutine156:
   \   000000   EE           MOV       A,R6
   \   000001   240B         ADD       A,#0xb
   \   000003   12....       LCALL     ?Subroutine199 & 0xFFFF
   \                     ??CrossCallReturnLabel_664:
   \   000006   22           RET
   1990          
   1991          /*
   1992           * This function stub allows the next higher layer to be notified of
   1993           * a permit joining timeout.
   1994           */
   1995          /*********************************************************************
   1996           * @fn          ZDO_ProcessMgmtPermitJoinTimeout
   1997           *
   1998           * @brief       This function stub allows the next higher layer to be
   1999           *              notified of a permit joining timeout. Currently, this
   2000           *              directly bypasses the APS layer.
   2001           *
   2002           * @param       none
   2003           *
   2004           * @return      none
   2005           */

   \                                 In  segment BANKED_CODE, align 1, keep-with-next
   2006          void ZDO_ProcessMgmtPermitJoinTimeout( void )
   \                     NLME_PermitJoiningTimeout:
   2007          {
   \   000000   C082         PUSH      DPL
   \   000002   C083         PUSH      DPH
   \   000004                ; Saved register size: 2
   \   000004                ; Auto size: 0
   2008            #if defined( ZDO_MGMT_PERMIT_JOIN_RESPONSE )
   2009            // Currently, only the ZDSecMgr needs to be notified
   2010            if ( ZG_SECURE_ENABLED && ZG_BUILD_COORDINATOR_TYPE && ZG_DEVICE_COORDINATOR_TYPE )
   2011            {
   2012              ZDSecMgrPermitJoiningTimeout();
   \   000004                ; Setup parameters for call to function ZDSecMgrPermitJoiningTimeout
   \   000004   12....       LCALL     `??ZDSecMgrPermitJoiningTimeout::?relay`; Banked call to: ZDSecMgrPermitJoiningTimeout
   2013            }
   2014            #endif
   2015          }
   \   000007                REQUIRE ?Subroutine0
   \   000007                ; // Fall through to label ?Subroutine0
   2016          
   2017          /*********************************************************************
   2018           * @fn          ZDO_ProcessUserDescReq
   2019           *
   2020           * @brief       This function finishes the processing of the User
   2021           *              Descriptor Request and generates the response.
   2022           *
   2023           * @param       inMsg - incoming message (request)
   2024           *
   2025           * @return      none
   2026           */

   \                                 In  segment BANKED_CODE, align 1, keep-with-next
   2027          void ZDO_ProcessUserDescReq( zdoIncomingMsg_t *inMsg )
   \                     ZDO_ProcessUserDescReq:
   2028          {
   \   000000                REQUIRE ?V0
   \   000000                REQUIRE ?V1
   \   000000                REQUIRE ?V2
   \   000000                REQUIRE ?V3
   \   000000                REQUIRE ?V4
   \   000000                REQUIRE ?V5
   \   000000                REQUIRE ?V6
   \   000000                REQUIRE ?V7
   \   000000   74F0         MOV       A,#-0x10
   \   000002   12....       LCALL     ?BANKED_ENTER_XDATA
   \   000005                ; Saved register size: 16
   \   000005                ; Auto size: 17
   \   000005   74EF         MOV       A,#-0x11
   \   000007   12....       LCALL     ?ALLOC_XSTACK8
   \   00000A   12....       LCALL     ?Subroutine134 & 0xFFFF
   2029            uint16 aoi = BUILD_UINT16( inMsg->asdu[0], inMsg->asdu[1] );
   \                     ??CrossCallReturnLabel_227:
   \   00000D   12....       LCALL     ?Subroutine63 & 0xFFFF
   2030            UserDescriptorFormat_t userDesc;
   2031          
   2032            if ( (aoi == ZDAppNwkAddr.addr.shortAddr) && (ZSUCCESS == osal_nv_read(
   2033                       ZCD_NV_USERDESC, 0, sizeof(UserDescriptorFormat_t), &userDesc )) )
   \                     ??CrossCallReturnLabel_101:
   \   000010   E5..         MOV       A,?V0
   \   000012   240F         ADD       A,#0xf
   \   000014   F5..         MOV       ?V6,A
   \   000016   E4           CLR       A
   \   000017   35..         ADDC      A,?V1
   \   000019   F5..         MOV       ?V7,A
   \   00001B   E5..         MOV       A,?V0
   \   00001D   2402         ADD       A,#0x2
   \   00001F   F5..         MOV       ?V2,A
   \   000021   E4           CLR       A
   \   000022   35..         ADDC      A,?V1
   \   000024   F5..         MOV       ?V3,A
   \   000026   90....       MOV       DPTR,#ZDAppNwkAddr
   \   000029   E0           MOVX      A,@DPTR
   \   00002A   6E           XRL       A,R6
   \   00002B   7003         JNZ       ??ZDO_ProcessUserDescReq_0
   \   00002D   A3           INC       DPTR
   \   00002E   E0           MOVX      A,@DPTR
   \   00002F   6F           XRL       A,R7
   \                     ??ZDO_ProcessUserDescReq_0:
   \   000030   705B         JNZ       ??ZDO_ProcessUserDescReq_1
   \   000032                ; Setup parameters for call to function osal_nv_read
   \   000032   A8..         MOV       R0,?XSP + 0
   \   000034   A9..         MOV       R1,?XSP + 1
   \   000036   88..         MOV       ?V4,R0
   \   000038   89..         MOV       ?V5,R1
   \   00003A   78..         MOV       R0,#?V4
   \   00003C   12....       LCALL     ?PUSH_XSTACK_I_TWO
   \   00003F   75..11       MOV       ?V4,#0x11
   \   000042   75..00       MOV       ?V5,#0x0
   \   000045   78..         MOV       R0,#?V4
   \   000047   12....       LCALL     ?PUSH_XSTACK_I_TWO
   \   00004A   7C00         MOV       R4,#0x0
   \   00004C   7D00         MOV       R5,#0x0
   \   00004E   7A81         MOV       R2,#-0x7f
   \   000050   7B00         MOV       R3,#0x0
   \   000052   12....       LCALL     `??osal_nv_read::?relay`; Banked call to: osal_nv_read
   \   000055   7404         MOV       A,#0x4
   \   000057   12....       LCALL     ?DEALLOC_XSTACK8
   \   00005A   E9           MOV       A,R1
   \   00005B   7030         JNZ       ??ZDO_ProcessUserDescReq_1
   2034            {
   2035              ZDP_UserDescRsp( inMsg->TransSeq, &(inMsg->srcAddr), aoi, &userDesc, false );
   \   00005D                ; Setup parameters for call to function ZDP_UserDescRsp
   \   00005D   75..00       MOV       ?V0,#0x0
   \   000060   78..         MOV       R0,#?V0
   \   000062   12....       LCALL     ?PUSH_XSTACK_I_ONE
   \   000065   7401         MOV       A,#0x1
   \   000067   12....       LCALL     ?XSTACK_DISP100_8
   \   00006A   88..         MOV       ?V0,R0
   \   00006C   89..         MOV       ?V1,R1
   \   00006E   78..         MOV       R0,#?V0
   \   000070   12....       LCALL     ?PUSH_XSTACK_I_TWO
   \   000073   EE           MOV       A,R6
   \   000074   FC           MOV       R4,A
   \   000075   EF           MOV       A,R7
   \   000076   FD           MOV       R5,A
   \   000077   AA..         MOV       R2,?V2
   \   000079   AB..         MOV       R3,?V3
   \   00007B   85..82       MOV       DPL,?V6
   \   00007E   85..83       MOV       DPH,?V7
   \   000081   E0           MOVX      A,@DPTR
   \   000082   F9           MOV       R1,A
   \   000083   12....       LCALL     `??ZDP_UserDescRsp::?relay`; Banked call to: ZDP_UserDescRsp
   \   000086   7403         MOV       A,#0x3
   \   000088   12....       LCALL     ?DEALLOC_XSTACK8
   \   00008B   802E         SJMP      ??ZDO_ProcessUserDescReq_2
   2036            }
   2037            else
   2038            {
   2039              ZDP_GenericRsp(inMsg->TransSeq, &(inMsg->srcAddr),
   2040                     ZDP_NOT_SUPPORTED, aoi, User_Desc_rsp, inMsg->SecurityUse );
   \                     ??ZDO_ProcessUserDescReq_1:
   \   00008D                ; Setup parameters for call to function ZDP_GenericRsp
   \   00008D   75..11       MOV       ?V4,#0x11
   \   000090   75..80       MOV       ?V5,#-0x80
   \   000093   78..         MOV       R0,#?V4
   \   000095   12....       LCALL     ?PUSH_XSTACK_I_TWO
   \   000098   8E..         MOV       ?V4,R6
   \   00009A   8F..         MOV       ?V5,R7
   \   00009C   78..         MOV       R0,#?V4
   \   00009E   12....       LCALL     ?PUSH_XSTACK_I_TWO
   \   0000A1   12....       LCALL     ?Subroutine140 & 0xFFFF
   2041            }
   \                     ??CrossCallReturnLabel_240:
   \   0000A4   FD           MOV       R5,A
   \   0000A5   7C84         MOV       R4,#-0x7c
   \   0000A7   AA..         MOV       R2,?V2
   \   0000A9   AB..         MOV       R3,?V3
   \   0000AB   85..82       MOV       DPL,?V6
   \   0000AE   85..83       MOV       DPH,?V7
   \   0000B1   E0           MOVX      A,@DPTR
   \   0000B2   F9           MOV       R1,A
   \   0000B3   12....       LCALL     `??ZDP_GenericRsp::?relay`; Banked call to: ZDP_GenericRsp
   \   0000B6   7404         MOV       A,#0x4
   \   0000B8   12....       LCALL     ?DEALLOC_XSTACK8
   2042          }
   \                     ??ZDO_ProcessUserDescReq_2:
   \   0000BB   7411         MOV       A,#0x11
   \   0000BD   02....       LJMP      ??Subroutine223_0 & 0xFFFF
   2043          
   2044          /*********************************************************************
   2045           * @fn          ZDO_ProcessUserDescSet
   2046           *
   2047           * @brief       This function finishes the processing of the User
   2048           *              Descriptor Set and generates the response.
   2049           *
   2050           * @param       inMsg - incoming message (request)
   2051           *
   2052           * @return      none
   2053           */

   \                                 In  segment BANKED_CODE, align 1, keep-with-next
   2054          void ZDO_ProcessUserDescSet( zdoIncomingMsg_t *inMsg )
   \                     ZDO_ProcessUserDescSet:
   2055          {
   \   000000                REQUIRE ?V0
   \   000000                REQUIRE ?V1
   \   000000                REQUIRE ?V2
   \   000000                REQUIRE ?V3
   \   000000                REQUIRE ?V4
   \   000000                REQUIRE ?V5
   \   000000   74F2         MOV       A,#-0xe
   \   000002   12....       LCALL     ?BANKED_ENTER_XDATA
   \   000005                ; Saved register size: 14
   \   000005                ; Auto size: 21
   \   000005   74EB         MOV       A,#-0x15
   \   000007   12....       LCALL     ?ALLOC_XSTACK8
   \   00000A   8A..         MOV       ?V4,R2
   \   00000C   8B..         MOV       ?V5,R3
   2056            uint8 *msg;
   2057            uint16 aoi;
   2058            UserDescriptorFormat_t userDesc;
   2059            uint8 outMsg[3];
   2060            uint8 status;
   2061          
   2062            msg = inMsg->asdu;
   \   00000E   12....       LCALL     ?Subroutine139 & 0xFFFF
   \                     ??CrossCallReturnLabel_238:
   \   000011   35..         ADDC      A,?V5
   \   000013   12....       LCALL     ?Subroutine87 & 0xFFFF
   2063            aoi = BUILD_UINT16( msg[0], msg[1] );
   \                     ??CrossCallReturnLabel_145:
   \   000016   FA           MOV       R2,A
   \   000017   E4           CLR       A
   \   000018   CA           XCH       A,R2
   \   000019   FB           MOV       R3,A
   \   00001A   EC           MOV       A,R4
   \   00001B   2A           ADD       A,R2
   \   00001C   FE           MOV       R6,A
   \   00001D   E4           CLR       A
   \   00001E   3B           ADDC      A,R3
   \   00001F   FF           MOV       R7,A
   2064          
   2065            if ( aoi == ZDAppNwkAddr.addr.shortAddr )
   \   000020   90....       MOV       DPTR,#ZDAppNwkAddr
   \   000023   E0           MOVX      A,@DPTR
   \   000024   6E           XRL       A,R6
   \   000025   7003         JNZ       ??ZDO_ProcessUserDescSet_0
   \   000027   A3           INC       DPTR
   \   000028   E0           MOVX      A,@DPTR
   \   000029   6F           XRL       A,R7
   \                     ??ZDO_ProcessUserDescSet_0:
   \   00002A   6003         JZ        $+5
   \   00002C   02....       LJMP      ??ZDO_ProcessUserDescSet_1 & 0xFFFF
   2066            {
   2067              userDesc.len = (msg[2] < AF_MAX_USER_DESCRIPTOR_LEN) ? msg[2] : AF_MAX_USER_DESCRIPTOR_LEN;
   \   00002F   8882         MOV       DPL,R0
   \   000031   8983         MOV       DPH,R1
   \   000033   A3           INC       DPTR
   \   000034   A3           INC       DPTR
   \   000035   E0           MOVX      A,@DPTR
   \   000036   FA           MOV       R2,A
   \   000037   9410         SUBB      A,#0x10
   \   000039   5004         JNC       ??ZDO_ProcessUserDescSet_2
   \   00003B   8A..         MOV       ?V3,R2
   \   00003D   8003         SJMP      ??ZDO_ProcessUserDescSet_3
   \                     ??ZDO_ProcessUserDescSet_2:
   \   00003F   75..10       MOV       ?V3,#0x10
   \                     ??ZDO_ProcessUserDescSet_3:
   \   000042   7404         MOV       A,#0x4
   \   000044   12....       LCALL     ?XSTACK_DISP0_8
   \   000047   E5..         MOV       A,?V3
   \   000049   12....       LCALL     ?Subroutine37 & 0xFFFF
   2068              msg ++;  // increment one for the length field
   2069          
   2070              osal_memcpy( userDesc.desc, &msg[2], userDesc.len );
   \                     ??CrossCallReturnLabel_57:
   \   00004C   A982         MOV       R1,DPL
   \   00004E   AA83         MOV       R2,DPH
   \   000050   89..         MOV       ?V0,R1
   \   000052   8A..         MOV       ?V1,R2
   \   000054   75..00       MOV       ?V2,#0x0
   \   000057   78..         MOV       R0,#?V0
   \   000059   12....       LCALL     ?PUSH_XSTACK_I_THREE
   \   00005C   7407         MOV       A,#0x7
   \   00005E   12....       LCALL     ?XSTACK_DISP0_8
   \   000061   E0           MOVX      A,@DPTR
   \   000062   FC           MOV       R4,A
   \   000063   7D00         MOV       R5,#0x0
   \   000065   7408         MOV       A,#0x8
   \   000067   12....       LCALL     ?XSTACK_DISP0_8
   \   00006A   AA82         MOV       R2,DPL
   \   00006C   AB83         MOV       R3,DPH
   \   00006E   12....       LCALL     ??Subroutine275_0 & 0xFFFF
   \                     ??CrossCallReturnLabel_631:
   \   000071   12....       LCALL     ?DEALLOC_XSTACK8
   2071              osal_nv_write( ZCD_NV_USERDESC, 0, sizeof(UserDescriptorFormat_t), &userDesc );
   \   000074                ; Setup parameters for call to function osal_nv_write
   \   000074   7404         MOV       A,#0x4
   \   000076   12....       LCALL     ?XSTACK_DISP100_8
   \   000079   88..         MOV       ?V0,R0
   \   00007B   89..         MOV       ?V1,R1
   \   00007D   78..         MOV       R0,#?V0
   \   00007F   12....       LCALL     ?PUSH_XSTACK_I_TWO
   \   000082   75..11       MOV       ?V0,#0x11
   \   000085   75..00       MOV       ?V1,#0x0
   \   000088   78..         MOV       R0,#?V0
   \   00008A   12....       LCALL     ?PUSH_XSTACK_I_TWO
   \   00008D   7C00         MOV       R4,#0x0
   \   00008F   7D00         MOV       R5,#0x0
   \   000091   7A81         MOV       R2,#-0x7f
   \   000093   7B00         MOV       R3,#0x0
   \   000095   12....       LCALL     `??osal_nv_write::?relay`; Banked call to: osal_nv_write
   \   000098   7404         MOV       A,#0x4
   \   00009A   12....       LCALL     ?DEALLOC_XSTACK8
   2072              if ( userDesc.len != 0 )
   \   00009D   7404         MOV       A,#0x4
   \   00009F   12....       LCALL     ?XSTACK_DISP0_8
   \   0000A2   E0           MOVX      A,@DPTR
   \   0000A3   90....       MOV       DPTR,#ZDO_Config_Node_Descriptor
   \   0000A6   6005         JZ        ??ZDO_ProcessUserDescSet_4
   2073              {
   2074                ZDO_Config_Node_Descriptor.UserDescAvail = TRUE;
   \   0000A8   E0           MOVX      A,@DPTR
   \   0000A9   D2E4         SETB      0xE0 /* A   */.4
   \   0000AB   8003         SJMP      ??ZDO_ProcessUserDescSet_5
   2075              }
   2076              else
   2077              {
   2078                ZDO_Config_Node_Descriptor.UserDescAvail = FALSE;
   \                     ??ZDO_ProcessUserDescSet_4:
   \   0000AD   E0           MOVX      A,@DPTR
   \   0000AE   C2E4         CLR       0xE0 /* A   */.4
   2079              }
   2080          
   2081              status = ZDP_SUCCESS;
   2082            }
   \                     ??ZDO_ProcessUserDescSet_5:
   \   0000B0   12....       LCALL     ?Subroutine211 & 0xFFFF
   \                     ??CrossCallReturnLabel_504:
   \   0000B3   E4           CLR       A
   \   0000B4   8008         SJMP      ??ZDO_ProcessUserDescSet_6
   2083            else
   2084            {
   2085              status =  ZDP_NOT_SUPPORTED;
   \                     ??ZDO_ProcessUserDescSet_1:
   \   0000B6   85..82       MOV       DPL,?XSP + 0
   \   0000B9   85..83       MOV       DPH,?XSP + 1
   \   0000BC   7484         MOV       A,#-0x7c
   \                     ??ZDO_ProcessUserDescSet_6:
   \   0000BE   F0           MOVX      @DPTR,A
   2086            }
   2087          
   2088            outMsg[0] = status;
   \   0000BF   E0           MOVX      A,@DPTR
   \   0000C0   C0E0         PUSH      A
   \   0000C2   7401         MOV       A,#0x1
   \   0000C4   12....       LCALL     ?XSTACK_DISP0_8
   \   0000C7   D0E0         POP       A
   \   0000C9   F0           MOVX      @DPTR,A
   2089            outMsg[1] = LO_UINT16( aoi );
   \   0000CA   7402         MOV       A,#0x2
   \   0000CC   12....       LCALL     ?XSTACK_DISP0_8
   \   0000CF   EE           MOV       A,R6
   \   0000D0   F0           MOVX      @DPTR,A
   2090            outMsg[2] = LO_UINT16( aoi );
   \   0000D1   7403         MOV       A,#0x3
   \   0000D3   12....       LCALL     ?XSTACK_DISP0_8
   \   0000D6   EE           MOV       A,R6
   \   0000D7   F0           MOVX      @DPTR,A
   2091          
   2092            ZDP_SendData( &(inMsg->TransSeq), &(inMsg->srcAddr), User_Desc_conf, 3, outMsg,
   2093                         inMsg->SecurityUse );
   \   0000D8                ; Setup parameters for call to function ZDP_SendData
   \   0000D8   12....       LCALL     ?Subroutine143 & 0xFFFF
   \                     ??CrossCallReturnLabel_615:
   \   0000DB   35..         ADDC      A,?V5
   \   0000DD   12....       LCALL     ??Subroutine239_0 & 0xFFFF
   \                     ??CrossCallReturnLabel_435:
   \   0000E0   12....       LCALL     ?PUSH_XSTACK_I_ONE
   \   0000E3   7402         MOV       A,#0x2
   \   0000E5   12....       LCALL     ?XSTACK_DISP100_8
   \   0000E8   88..         MOV       ?V0,R0
   \   0000EA   89..         MOV       ?V1,R1
   \   0000EC   78..         MOV       R0,#?V0
   \   0000EE   12....       LCALL     ?PUSH_XSTACK_I_TWO
   \   0000F1   75..14       MOV       ?V0,#0x14
   \   0000F4   75..80       MOV       ?V1,#-0x80
   \   0000F7   78..         MOV       R0,#?V0
   \   0000F9   12....       LCALL     ?PUSH_XSTACK_I_TWO
   \   0000FC   7903         MOV       R1,#0x3
   \   0000FE   12....       LCALL     ?Subroutine146 & 0xFFFF
   \                     ??CrossCallReturnLabel_251:
   \   000101   FA           MOV       R2,A
   \   000102   E4           CLR       A
   \   000103   35..         ADDC      A,?V5
   \   000105   FB           MOV       R3,A
   \   000106   12....       LCALL     ?Subroutine161 & 0xFFFF
   \                     ??CrossCallReturnLabel_279:
   \   000109   12....       LCALL     ?DEALLOC_XSTACK8
   2094          }
   \   00010C   7415         MOV       A,#0x15
   \   00010E   02....       LJMP      ?Subroutine5 & 0xFFFF

   \                                 In  segment BANKED_CODE, align 1, keep-with-next
   \                     ??Subroutine239_0:
   \   000000   F583         MOV       DPH,A
   \   000002                REQUIRE ??Subroutine240_0
   \   000002                ; // Fall through to label ??Subroutine240_0

   \                                 In  segment BANKED_CODE, align 1, keep-with-next
   \                     ?Subroutine161:
   \   000000   12....       LCALL     ??Subroutine238_0 & 0xFFFF
   \                     ??CrossCallReturnLabel_430:
   \   000003   22           RET

   \                                 In  segment BANKED_CODE, align 1, keep-with-next
   \                     ?Subroutine37:
   \   000000   12....       LCALL     ?Subroutine178 & 0xFFFF
   \                     ??CrossCallReturnLabel_306:
   \   000003   22           RET

   \                                 In  segment BANKED_CODE, align 1, keep-with-next
   \                     ?Subroutine178:
   \   000000   12....       LCALL     ?Subroutine213 & 0xFFFF
   \                     ??CrossCallReturnLabel_346:
   \   000003   22           RET

   \                                 In  segment BANKED_CODE, align 1, keep-with-next
   \                     ?Subroutine213:
   \   000000   F0           MOVX      @DPTR,A
   \   000001                ; Setup parameters for call to function osal_memcpy
   \   000001   8882         MOV       DPL,R0
   \   000003   8983         MOV       DPH,R1
   \   000005   A3           INC       DPTR
   \   000006   A3           INC       DPTR
   \   000007   A3           INC       DPTR
   \   000008   22           RET

   \                                 In  segment BANKED_CODE, align 1, keep-with-next
   \                     ??Subroutine275_0:
   \   000000   12....       LCALL     `??osal_memcpy::?relay`; Banked call to: osal_memcpy
   \   000003   7403         MOV       A,#0x3
   \   000005   22           RET
   2095          
   2096          /*********************************************************************
   2097           * @fn          ZDO_ProcessDeviceAnnce
   2098           *
   2099           * @brief       This function processes a device annouce message.
   2100           *
   2101           * @param       inMsg - incoming message
   2102           *
   2103           * @return      none
   2104           */

   \                                 In  segment BANKED_CODE, align 1, keep-with-next
   \                     ?Subroutine106:
   \   000000   85..82       MOV       DPL,?XSP + 0
   \   000003   85..83       MOV       DPH,?XSP + 1
   \   000006                REQUIRE ??Subroutine235_0
   \   000006                ; // Fall through to label ??Subroutine235_0

   \                                 In  segment BANKED_CODE, align 1, keep-with-next
   2105          void ZDO_ProcessDeviceAnnce( zdoIncomingMsg_t *inMsg )
   \                     ZDO_ProcessDeviceAnnce:
   2106          {
   \   000000                REQUIRE ?V0
   \   000000                REQUIRE ?V1
   \   000000                REQUIRE ?V2
   \   000000   74F5         MOV       A,#-0xb
   \   000002   12....       LCALL     ?BANKED_ENTER_XDATA
   \   000005                ; Saved register size: 11
   \   000005                ; Auto size: 40
   \   000005   74D8         MOV       A,#-0x28
   \   000007   12....       LCALL     ?ALLOC_XSTACK8
   \   00000A   EA           MOV       A,R2
   \   00000B   FE           MOV       R6,A
   \   00000C   EB           MOV       A,R3
   \   00000D   FF           MOV       R7,A
   2107            ZDO_DeviceAnnce_t Annce;
   2108            AddrMgrEntry_t addrEntry;
   2109            uint8 parentExt[Z_EXTADDR_LEN];
   2110          #if !defined (DISABLE_GREENPOWER_BASIC_PROXY) && (ZG_BUILD_RTR_TYPE)
   2111            uint8 invalidIEEE[Z_EXTADDR_LEN] = {0xFF, 0xFF, 0xFF, 0xFF, 0xFF, 0xFF, 0xFF, 0xFF};
   \   00000E   90....       MOV       DPTR,#`?<Constant {255, 255, 255, 255, 255, 255, 255,`
   \   000011   7420         MOV       A,#0x20
   \   000013   12....       LCALL     ?XSTACK_DISP102_8
   \   000016   7408         MOV       A,#0x8
   \   000018   12....       LCALL     ?MOVE_LONG8_XDATA_XDATA
   2112          #endif
   2113          
   2114            if ( (_NIB.nwkState != NWK_ROUTER) && (_NIB.nwkState != NWK_ENDDEVICE) )
   \   00001B   90....       MOV       DPTR,#_NIB + 35
   \   00001E   E0           MOVX      A,@DPTR
   \   00001F   F8           MOV       R0,A
   \   000020   7408         MOV       A,#0x8
   \   000022   68           XRL       A,R0
   \   000023   6008         JZ        ??ZDO_ProcessDeviceAnnce_0
   \   000025   7404         MOV       A,#0x4
   \   000027   68           XRL       A,R0
   \   000028   6003         JZ        $+5
   \   00002A   02....       LJMP      ??ZDO_ProcessDeviceAnnce_1 & 0xFFFF
   2115            {
   2116              // we aren’t stable, ignore the message
   2117              return;
   2118            }
   2119            
   2120            // Parse incoming message
   2121            ZDO_ParseDeviceAnnce( inMsg, &Annce );
   \                     ??ZDO_ProcessDeviceAnnce_0:
   \   00002D                ; Setup parameters for call to function ZDO_ParseDeviceAnnce
   \   00002D   AC..         MOV       R4,?XSP + 0
   \   00002F   AD..         MOV       R5,?XSP + 1
   \   000031   12....       LCALL     `??ZDO_ParseDeviceAnnce::?relay`; Banked call to: ZDO_ParseDeviceAnnce
   2122          
   2123            if ( ZSTACK_END_DEVICE_BUILD )
   2124            {
   2125              // Make sure the message didn't come from myself - end device only
   2126              if ( osal_ExtAddrEqual( NLME_GetExtAddr(), Annce.extAddr ) && Annce.nwkAddr == NLME_GetShortAddr() )
   2127              {
   2128                return;
   2129              }
   2130            }
   2131          
   2132          #if defined ( ZIGBEEPRO )
   2133            // Clean up the neighbor table
   2134            nwkNeighborRemoveAllStranded();
   \   000034                ; Setup parameters for call to function nwkNeighborRemoveAllStranded
   \   000034   12....       LCALL     `??nwkNeighborRemoveAllStranded::?relay`; Banked call to: nwkNeighborRemoveAllStranded
   2135          
   2136            // If address conflict is detected, no need to update the address manager
   2137            if ( NLME_CheckNewAddrSet( Annce.nwkAddr, Annce.extAddr )== ZFailure )
   \   000037                ; Setup parameters for call to function NLME_CheckNewAddrSet
   \   000037   7402         MOV       A,#0x2
   \   000039   12....       LCALL     ?XSTACK_DISP0_8
   \   00003C   AC82         MOV       R4,DPL
   \   00003E   AD83         MOV       R5,DPH
   \   000040   12....       LCALL     ?Subroutine106 & 0xFFFF
   \                     ??CrossCallReturnLabel_417:
   \   000043   12....       LCALL     `??NLME_CheckNewAddrSet::?relay`; Banked call to: NLME_CheckNewAddrSet
   \   000046   E9           MOV       A,R1
   \   000047   6401         XRL       A,#0x1
   \   000049   7003         JNZ       $+5
   \   00004B   02....       LJMP      ??ZDO_ProcessDeviceAnnce_1 & 0xFFFF
   2138            {
   2139              return;
   2140            }
   2141          
   2142            // Check for parent's address
   2143            NLME_GetCoordExtAddr( parentExt );
   \   00004E                ; Setup parameters for call to function NLME_GetCoordExtAddr
   \   00004E   7418         MOV       A,#0x18
   \   000050   12....       LCALL     ?XSTACK_DISP101_8
   \   000053   12....       LCALL     `??NLME_GetCoordExtAddr::?relay`; Banked call to: NLME_GetCoordExtAddr
   2144            if ( osal_ExtAddrEqual( parentExt, Annce.extAddr ) )
   \   000056                ; Setup parameters for call to function sAddrExtCmp
   \   000056   7402         MOV       A,#0x2
   \   000058   12....       LCALL     ?XSTACK_DISP0_8
   \   00005B   AC82         MOV       R4,DPL
   \   00005D   AD83         MOV       R5,DPH
   \   00005F   7418         MOV       A,#0x18
   \   000061   12....       LCALL     ?XSTACK_DISP101_8
   \   000064   12....       LCALL     `??sAddrExtCmp::?relay`; Banked call to: sAddrExtCmp
   \   000067   E9           MOV       A,R1
   \   000068   602C         JZ        ??ZDO_ProcessDeviceAnnce_2
   2145            {
   2146              if ( Annce.nwkAddr != NLME_GetCoordShortAddr() )
   \   00006A                ; Setup parameters for call to function NLME_GetCoordShortAddr
   \   00006A   12....       LCALL     `??NLME_GetCoordShortAddr::?relay`; Banked call to: NLME_GetCoordShortAddr
   \   00006D   8A..         MOV       ?V0,R2
   \   00006F   8B..         MOV       ?V1,R3
   \   000071   A8..         MOV       R0,?V0
   \   000073   A9..         MOV       R1,?V1
   \   000075   85..82       MOV       DPL,?XSP + 0
   \   000078   85..83       MOV       DPH,?XSP + 1
   \   00007B   E0           MOVX      A,@DPTR
   \   00007C   68           XRL       A,R0
   \   00007D   7003         JNZ       ??ZDO_ProcessDeviceAnnce_3
   \   00007F   A3           INC       DPTR
   \   000080   E0           MOVX      A,@DPTR
   \   000081   69           XRL       A,R1
   \                     ??ZDO_ProcessDeviceAnnce_3:
   \   000082   6012         JZ        ??ZDO_ProcessDeviceAnnce_2
   2147              {
   2148                // Set the Parent's MAC's new short address
   2149                _NIB.nwkCoordAddress = Annce.nwkAddr;
   \   000084   12....       LCALL     ?Subroutine96 & 0xFFFF
   \                     ??CrossCallReturnLabel_445:
   \   000087   90....       MOV       DPTR,#_NIB + 23
   \   00008A   12....       LCALL     ??Subroutine232_0 & 0xFFFF
   2150                ZMacSetReq( ZMacCoordShortAddress, (byte*)&(_NIB.nwkCoordAddress) );
   \                     ??CrossCallReturnLabel_386:
   \   00008D                ; Setup parameters for call to function ZMacSetReq
   \   00008D   7A..         MOV       R2,#(_NIB + 23) & 0xff
   \   00008F   7B..         MOV       R3,#((_NIB + 23) >> 8) & 0xff
   \   000091   794B         MOV       R1,#0x4b
   \   000093   12....       LCALL     `??ZMacSetReq::?relay`; Banked call to: ZMacSetReq
   2151              }
   2152            }
   2153          
   2154            if ( ZSTACK_ROUTER_BUILD )
   2155            {
   2156              // If the device annce comes from a end device child that has moved
   2157              // to another parent, remove it from associated device list
   2158          
   2159              // If the dev annce is coming from other device's children,
   2160              // (The dev annce from its own children shall be unicast to itself,
   2161              // So check the mac destination address)
   2162              // Remove it from the associated device list. If it is not
   2163              // a child, no action will be taken in AssocRemove() anyway.
   2164              if ( inMsg->macDestAddr != NLME_GetShortAddr() )
   \                     ??ZDO_ProcessDeviceAnnce_2:
   \   000096                ; Setup parameters for call to function NLME_GetShortAddr
   \   000096   12....       LCALL     `??NLME_GetShortAddr::?relay`; Banked call to: NLME_GetShortAddr
   \   000099   8A..         MOV       ?V0,R2
   \   00009B   8B..         MOV       ?V1,R3
   \   00009D   A8..         MOV       R0,?V0
   \   00009F   A9..         MOV       R1,?V1
   \   0000A1   EE           MOV       A,R6
   \   0000A2   2411         ADD       A,#0x11
   \   0000A4   12....       LCALL     ?Subroutine199 & 0xFFFF
   \                     ??CrossCallReturnLabel_661:
   \   0000A7   68           XRL       A,R0
   \   0000A8   7003         JNZ       ??ZDO_ProcessDeviceAnnce_4
   \   0000AA   A3           INC       DPTR
   \   0000AB   E0           MOVX      A,@DPTR
   \   0000AC   69           XRL       A,R1
   \                     ??ZDO_ProcessDeviceAnnce_4:
   \   0000AD   604E         JZ        ??ZDO_ProcessDeviceAnnce_5
   2165              {
   2166                associated_devices_t *dev_ptr;
   2167          
   2168                // If it's an end device child
   2169                dev_ptr = AssocGetWithExt( Annce.extAddr );
   \   0000AF                ; Setup parameters for call to function AssocGetWithExt
   \   0000AF   7402         MOV       A,#0x2
   \   0000B1   12....       LCALL     ?XSTACK_DISP0_8
   \   0000B4   AA82         MOV       R2,DPL
   \   0000B6   AB83         MOV       R3,DPH
   \   0000B8   12....       LCALL     `??AssocGetWithExt::?relay`; Banked call to: AssocGetWithExt
   \   0000BB   8A82         MOV       DPL,R2
   \   0000BD   8B83         MOV       DPH,R3
   2170                if ( dev_ptr )
   \   0000BF   E582         MOV       A,DPL
   \   0000C1   4583         ORL       A,DPH
   \   0000C3   601C         JZ        ??ZDO_ProcessDeviceAnnce_6
   2171                {
   2172                  if ( dev_ptr->nodeRelation == CHILD_RFD ||
   2173                       dev_ptr->nodeRelation == CHILD_RFD_RX_IDLE )
   \   0000C5   A3           INC       DPTR
   \   0000C6   A3           INC       DPTR
   \   0000C7   A3           INC       DPTR
   \   0000C8   A3           INC       DPTR
   \   0000C9   E0           MOVX      A,@DPTR
   \   0000CA   F8           MOV       R0,A
   \   0000CB   7401         MOV       A,#0x1
   \   0000CD   68           XRL       A,R0
   \   0000CE   6005         JZ        ??ZDO_ProcessDeviceAnnce_7
   \   0000D0   7402         MOV       A,#0x2
   \   0000D2   68           XRL       A,R0
   \   0000D3   700C         JNZ       ??ZDO_ProcessDeviceAnnce_6
   2174                  {
   2175                    AssocRemove( Annce.extAddr );
   \                     ??ZDO_ProcessDeviceAnnce_7:
   \   0000D5                ; Setup parameters for call to function AssocRemove
   \   0000D5   7402         MOV       A,#0x2
   \   0000D7   12....       LCALL     ?XSTACK_DISP0_8
   \   0000DA   AA82         MOV       R2,DPL
   \   0000DC   AB83         MOV       R3,DPH
   \   0000DE   12....       LCALL     `??AssocRemove::?relay`; Banked call to: AssocRemove
   2176                  }
   2177                }
   2178          
   2179                // Remove the address from the SrcMatch table,
   2180                // just in case the device was aged out by Child Management Table process
   2181                if ( ( pNwkNotMyChildListDelete != NULL ) &&
   2182                     ( zgChildAgingEnable == TRUE ) )
   \                     ??ZDO_ProcessDeviceAnnce_6:
   \   0000E1   90....       MOV       DPTR,#pNwkNotMyChildListDelete
   \   0000E4   12....       LCALL     ??Subroutine242_0 & 0xFFFF
   \                     ??CrossCallReturnLabel_460:
   \   0000E7   6014         JZ        ??ZDO_ProcessDeviceAnnce_5
   \   0000E9   90....       MOV       DPTR,#zgChildAgingEnable
   \   0000EC   E0           MOVX      A,@DPTR
   \   0000ED   6401         XRL       A,#0x1
   \   0000EF   700C         JNZ       ??ZDO_ProcessDeviceAnnce_5
   2183                {
   2184                  pNwkNotMyChildListDelete( Annce.nwkAddr );
   \   0000F1                ; Setup parameters for indirect call
   \   0000F1   12....       LCALL     ?Subroutine106 & 0xFFFF
   2185                }
   2186              }
   2187            }
   \                     ??CrossCallReturnLabel_418:
   \   0000F4   90....       MOV       DPTR,#pNwkNotMyChildListDelete + 1
   \   0000F7   12....       LCALL     ??Subroutine229_0 & 0xFFFF
   \                     ??CrossCallReturnLabel_357:
   \   0000FA   12....       LCALL     ?CALL_IND
   2188          
   2189            // Assume that the device has moved, remove existing routing entries
   2190            RTG_RemoveRtgEntry( Annce.nwkAddr, 0 );
   \                     ??ZDO_ProcessDeviceAnnce_5:
   \   0000FD                ; Setup parameters for call to function RTG_RemoveRtgEntry
   \   0000FD   7900         MOV       R1,#0x0
   \   0000FF   12....       LCALL     ?Subroutine106 & 0xFFFF
   \                     ??CrossCallReturnLabel_419:
   \   000102   12....       LCALL     `??RTG_RemoveRtgEntry::?relay`; Banked call to: RTG_RemoveRtgEntry
   2191          
   2192            // Remove entry from neighborTable
   2193            nwkNeighborRemove( Annce.nwkAddr, _NIB.nwkPanId );
   \   000105                ; Setup parameters for call to function nwkNeighborRemove
   \   000105   90....       MOV       DPTR,#_NIB + 33
   \   000108   12....       LCALL     ??Subroutine243_0 & 0xFFFF
   \                     ??CrossCallReturnLabel_470:
   \   00010B   12....       LCALL     ?Subroutine106 & 0xFFFF
   \                     ??CrossCallReturnLabel_420:
   \   00010E   12....       LCALL     `??nwkNeighborRemove::?relay`; Banked call to: nwkNeighborRemove
   2194          
   2195          #endif // ZIGBEEPRO
   2196          
   2197            // Fill in the extended address in address manager if we don't have it already.
   2198            addrEntry.user = ADDRMGR_USER_DEFAULT;
   \   000111   740B         MOV       A,#0xb
   \   000113   12....       LCALL     ?XSTACK_DISP0_8
   \   000116   E4           CLR       A
   \   000117   12....       LCALL     ?Subroutine15 & 0xFFFF
   2199            addrEntry.nwkAddr = Annce.nwkAddr;
   \                     ??CrossCallReturnLabel_12:
   \   00011A   F8           MOV       R0,A
   \   00011B   A3           INC       DPTR
   \   00011C   E0           MOVX      A,@DPTR
   \   00011D   F9           MOV       R1,A
   \   00011E   740C         MOV       A,#0xc
   \   000120   12....       LCALL     ?XSTACK_DISP0_8
   \   000123   12....       LCALL     ?Subroutine26 & 0xFFFF
   2200            if ( AddrMgrEntryLookupNwk( &addrEntry ) )
   \                     ??CrossCallReturnLabel_39:
   \   000126   12....       LCALL     ?XSTACK_DISP101_8
   \   000129   12....       LCALL     `??AddrMgrEntryLookupNwk::?relay`; Banked call to: AddrMgrEntryLookupNwk
   \   00012C   E9           MOV       A,R1
   \   00012D   603F         JZ        ??ZDO_ProcessDeviceAnnce_8
   2201            {
   2202              osal_memset( parentExt, 0, Z_EXTADDR_LEN );
   \   00012F                ; Setup parameters for call to function osal_memset
   \   00012F   7C08         MOV       R4,#0x8
   \   000131   7D00         MOV       R5,#0x0
   \   000133   7900         MOV       R1,#0x0
   \   000135   7418         MOV       A,#0x18
   \   000137   12....       LCALL     ?XSTACK_DISP101_8
   \   00013A   12....       LCALL     `??osal_memset::?relay`; Banked call to: osal_memset
   2203              if ( osal_ExtAddrEqual( parentExt, addrEntry.extAddr ) )
   \   00013D                ; Setup parameters for call to function sAddrExtCmp
   \   00013D   740E         MOV       A,#0xe
   \   00013F   12....       LCALL     ?XSTACK_DISP0_8
   \   000142   AC82         MOV       R4,DPL
   \   000144   AD83         MOV       R5,DPH
   \   000146   7418         MOV       A,#0x18
   \   000148   12....       LCALL     ?XSTACK_DISP101_8
   \   00014B   12....       LCALL     `??sAddrExtCmp::?relay`; Banked call to: sAddrExtCmp
   \   00014E   E9           MOV       A,R1
   \   00014F   601D         JZ        ??ZDO_ProcessDeviceAnnce_8
   2204              {
   2205                AddrMgrExtAddrSet( addrEntry.extAddr, Annce.extAddr );
   \   000151                ; Setup parameters for call to function AddrMgrExtAddrSet
   \   000151   7402         MOV       A,#0x2
   \   000153   12....       LCALL     ?XSTACK_DISP0_8
   \   000156   AC82         MOV       R4,DPL
   \   000158   AD83         MOV       R5,DPH
   \   00015A   740E         MOV       A,#0xe
   \   00015C   12....       LCALL     ?XSTACK_DISP0_8
   \   00015F   AA82         MOV       R2,DPL
   \   000161   AB83         MOV       R3,DPH
   \   000163   12....       LCALL     `??AddrMgrExtAddrSet::?relay`; Banked call to: AddrMgrExtAddrSet
   2206                AddrMgrEntryUpdate( &addrEntry );
   \   000166                ; Setup parameters for call to function AddrMgrEntryUpdate
   \   000166   740B         MOV       A,#0xb
   \   000168   12....       LCALL     ?XSTACK_DISP101_8
   \   00016B   12....       LCALL     `??AddrMgrEntryUpdate::?relay`; Banked call to: AddrMgrEntryUpdate
   2207              }
   2208            }
   2209          
   2210            // Update the short address in address manager if it's been changed
   2211            AddrMgrExtAddrSet( addrEntry.extAddr, Annce.extAddr );
   \                     ??ZDO_ProcessDeviceAnnce_8:
   \   00016E                ; Setup parameters for call to function AddrMgrExtAddrSet
   \   00016E   7402         MOV       A,#0x2
   \   000170   12....       LCALL     ?XSTACK_DISP0_8
   \   000173   AC82         MOV       R4,DPL
   \   000175   AD83         MOV       R5,DPH
   \   000177   740E         MOV       A,#0xe
   \   000179   12....       LCALL     ?XSTACK_DISP0_8
   \   00017C   AA82         MOV       R2,DPL
   \   00017E   AB83         MOV       R3,DPH
   \   000180   12....       LCALL     `??AddrMgrExtAddrSet::?relay`; Banked call to: AddrMgrExtAddrSet
   2212            if ( AddrMgrEntryLookupExt( &addrEntry ) )
   \   000183                ; Setup parameters for call to function AddrMgrEntryLookupExt
   \   000183   740B         MOV       A,#0xb
   \   000185   12....       LCALL     ?XSTACK_DISP101_8
   \   000188   12....       LCALL     `??AddrMgrEntryLookupExt::?relay`; Banked call to: AddrMgrEntryLookupExt
   \   00018B   E9           MOV       A,R1
   \   00018C   6028         JZ        ??ZDO_ProcessDeviceAnnce_9
   2213            {
   2214              if ( addrEntry.nwkAddr != Annce.nwkAddr )
   \   00018E   740C         MOV       A,#0xc
   \   000190   12....       LCALL     ?XSTACK_DISP0_8
   \   000193   12....       LCALL     ??Subroutine241_0 & 0xFFFF
   \                     ??CrossCallReturnLabel_442:
   \   000196   85..82       MOV       DPL,?XSP + 0
   \   000199   85..83       MOV       DPH,?XSP + 1
   \   00019C   E0           MOVX      A,@DPTR
   \   00019D   68           XRL       A,R0
   \   00019E   7003         JNZ       ??ZDO_ProcessDeviceAnnce_10
   \   0001A0   A3           INC       DPTR
   \   0001A1   E0           MOVX      A,@DPTR
   \   0001A2   69           XRL       A,R1
   \                     ??ZDO_ProcessDeviceAnnce_10:
   \   0001A3   6011         JZ        ??ZDO_ProcessDeviceAnnce_9
   2215              {
   2216                addrEntry.nwkAddr = Annce.nwkAddr;
   \   0001A5   12....       LCALL     ?Subroutine96 & 0xFFFF
   2217                AddrMgrEntryUpdate( &addrEntry );
   2218              }
   2219            }
   \                     ??CrossCallReturnLabel_446:
   \   0001A8   740C         MOV       A,#0xc
   \   0001AA   12....       LCALL     ?XSTACK_DISP0_8
   \   0001AD   12....       LCALL     ?Subroutine26 & 0xFFFF
   \                     ??CrossCallReturnLabel_40:
   \   0001B0   12....       LCALL     ?XSTACK_DISP101_8
   \   0001B3   12....       LCALL     `??AddrMgrEntryUpdate::?relay`; Banked call to: AddrMgrEntryUpdate
   2220          
   2221          #if !defined (DISABLE_GREENPOWER_BASIC_PROXY) && (ZG_BUILD_RTR_TYPE)
   2222            if(ZG_DEVICE_RTR_TYPE)
   \                     ??ZDO_ProcessDeviceAnnce_9:
   \   0001B6   90....       MOV       DPTR,#zgDeviceLogicalType
   \   0001B9   E0           MOVX      A,@DPTR
   \   0001BA   6007         JZ        ??ZDO_ProcessDeviceAnnce_11
   \   0001BC   6401         XRL       A,#0x1
   \   0001BE   6003         JZ        $+5
   \   0001C0   02....       LJMP      ??ZDO_ProcessDeviceAnnce_1 & 0xFFFF
   2223            {
   2224              // Check GP proxy table to update the entry if necesary
   2225              if( osal_memcmp( Annce.extAddr, invalidIEEE, Z_EXTADDR_LEN ) )
   \                     ??ZDO_ProcessDeviceAnnce_11:
   \   0001C3                ; Setup parameters for call to function osal_memcmp
   \   0001C3   7420         MOV       A,#0x20
   \   0001C5   12....       LCALL     ?XSTACK_DISP100_8
   \   0001C8   88..         MOV       ?V0,R0
   \   0001CA   89..         MOV       ?V1,R1
   \   0001CC   75..00       MOV       ?V2,#0x0
   \   0001CF   78..         MOV       R0,#?V0
   \   0001D1   12....       LCALL     ?PUSH_XSTACK_I_THREE
   \   0001D4   7C08         MOV       R4,#0x8
   \   0001D6   7D00         MOV       R5,#0x0
   \   0001D8   7405         MOV       A,#0x5
   \   0001DA   12....       LCALL     ?XSTACK_DISP0_8
   \   0001DD   A982         MOV       R1,DPL
   \   0001DF   AA83         MOV       R2,DPH
   \   0001E1   7B00         MOV       R3,#0x0
   \   0001E3   12....       LCALL     `??osal_memcmp::?relay`; Banked call to: osal_memcmp
   \   0001E6   7403         MOV       A,#0x3
   \   0001E8   12....       LCALL     ?DEALLOC_XSTACK8
   \   0001EB   E9           MOV       A,R1
   \   0001EC   6043         JZ        ??ZDO_ProcessDeviceAnnce_12
   2226              {
   2227                if( osal_get_timeoutEx( gp_TaskID, GP_PROXY_ALIAS_CONFLICT_TIMEOUT ) )
   \   0001EE                ; Setup parameters for call to function osal_get_timeoutEx
   \   0001EE   7A10         MOV       R2,#0x10
   \   0001F0   7B00         MOV       R3,#0x0
   \   0001F2   90....       MOV       DPTR,#gp_TaskID
   \   0001F5   E0           MOVX      A,@DPTR
   \   0001F6   F9           MOV       R1,A
   \   0001F7   12....       LCALL     `??osal_get_timeoutEx::?relay`; Banked call to: osal_get_timeoutEx
   \   0001FA   EA           MOV       A,R2
   \   0001FB   4B           ORL       A,R3
   \   0001FC   4C           ORL       A,R4
   \   0001FD   4D           ORL       A,R5
   \   0001FE   604E         JZ        ??ZDO_ProcessDeviceAnnce_1
   2228                {
   2229                  if ( osal_memcmp( &Annce, GP_aliasConflictAnnce, sizeof( ZDO_DeviceAnnce_t ) ) )
   \   000200                ; Setup parameters for call to function osal_memcmp
   \   000200   90....       MOV       DPTR,#GP_aliasConflictAnnce
   \   000203   12....       LCALL     ??Subroutine257_0 & 0xFFFF
   \                     ??CrossCallReturnLabel_534:
   \   000206   12....       LCALL     ?PUSH_XSTACK_I_THREE
   \   000209   7C0B         MOV       R4,#0xb
   \   00020B   7D00         MOV       R5,#0x0
   \   00020D   7403         MOV       A,#0x3
   \   00020F   12....       LCALL     ?XSTACK_DISP0_8
   \   000212   A982         MOV       R1,DPL
   \   000214   AA83         MOV       R2,DPH
   \   000216   7B00         MOV       R3,#0x0
   \   000218   12....       LCALL     `??osal_memcmp::?relay`; Banked call to: osal_memcmp
   \   00021B   7403         MOV       A,#0x3
   \   00021D   12....       LCALL     ?DEALLOC_XSTACK8
   \   000220   E9           MOV       A,R1
   \   000221   602B         JZ        ??ZDO_ProcessDeviceAnnce_1
   2230                  {
   2231                    osal_stop_timerEx( gp_TaskID, GP_PROXY_ALIAS_CONFLICT_TIMEOUT );
   \   000223                ; Setup parameters for call to function osal_stop_timerEx
   \   000223   7A10         MOV       R2,#0x10
   \   000225   7B00         MOV       R3,#0x0
   \   000227   90....       MOV       DPTR,#gp_TaskID
   \   00022A   E0           MOVX      A,@DPTR
   \   00022B   F9           MOV       R1,A
   \   00022C   12....       LCALL     `??osal_stop_timerEx::?relay`; Banked call to: osal_stop_timerEx
   \   00022F   801D         SJMP      ??ZDO_ProcessDeviceAnnce_1
   2232                  }
   2233                }
   2234              }
   2235              else
   2236              {
   2237                if(GP_CheckAnnouncedDeviceGCB != NULL)
   \                     ??ZDO_ProcessDeviceAnnce_12:
   \   000231   90....       MOV       DPTR,#GP_CheckAnnouncedDeviceGCB
   \   000234   12....       LCALL     ??Subroutine242_0 & 0xFFFF
   \                     ??CrossCallReturnLabel_461:
   \   000237   6015         JZ        ??ZDO_ProcessDeviceAnnce_1
   2238                {
   2239                  GP_CheckAnnouncedDeviceGCB( Annce.extAddr, Annce.nwkAddr );
   \   000239                ; Setup parameters for indirect call
   \   000239   12....       LCALL     ?Subroutine111 & 0xFFFF
   2240                }
   2241              }
   2242            }
   \                     ??CrossCallReturnLabel_473:
   \   00023C   7402         MOV       A,#0x2
   \   00023E   12....       LCALL     ?XSTACK_DISP0_8
   \   000241   AA82         MOV       R2,DPL
   \   000243   AB83         MOV       R3,DPH
   \   000245   90....       MOV       DPTR,#GP_CheckAnnouncedDeviceGCB + 1
   \   000248   12....       LCALL     ??Subroutine229_0 & 0xFFFF
   \                     ??CrossCallReturnLabel_358:
   \   00024B   12....       LCALL     ?CALL_IND
   2243          #endif
   2244          }
   \                     ??ZDO_ProcessDeviceAnnce_1:
   \   00024E   7428         MOV       A,#0x28
   \   000250   12....       LCALL     ?DEALLOC_XSTACK8
   \   000253   7F03         MOV       R7,#0x3
   \   000255   02....       LJMP      ?BANKED_LEAVE_XDATA

   \                                 In  segment BANKED_CODE, align 1, keep-with-next
   \                     ??Subroutine249_0:
   \   000000   12....       LCALL     ?Subroutine211 & 0xFFFF
   \                     ??CrossCallReturnLabel_505:
   \   000003   E0           MOVX      A,@DPTR
   \   000004   22           RET

   \                                 In  segment BANKED_CODE, align 1, keep-with-next
   \                     ??Subroutine257_0:
   \   000000   12....       LCALL     ?Subroutine191 & 0xFFFF
   \                     ??CrossCallReturnLabel_539:
   \   000003   78..         MOV       R0,#?V0
   \   000005   22           RET

   \                                 In  segment BANKED_CODE, align 1, keep-with-next
   \                     ?Subroutine15:
   \   000000   12....       LCALL     ??Subroutine249_0 & 0xFFFF
   \                     ??CrossCallReturnLabel_502:
   \   000003   22           RET
   2245          
   2246          /*********************************************************************
   2247           * @fn          ZDO_ProcessParentAnnce
   2248           *
   2249           * @brief       This function processes a Parent annouce message.
   2250           *
   2251           * @param       inMsg - incoming message
   2252           *
   2253           * @return      none
   2254           */

   \                                 In  segment BANKED_CODE, align 1, keep-with-next
   \                     ?Subroutine4:
   \   000000   7415         MOV       A,#0x15
   \   000002                REQUIRE ??Subroutine223_0
   \   000002                ; // Fall through to label ??Subroutine223_0

   \                                 In  segment BANKED_CODE, align 1, keep-with-next
   2255          void ZDO_ProcessParentAnnce( zdoIncomingMsg_t *inMsg )
   \                     ZDO_ProcessParentAnnce:
   2256          {
   \   000000                REQUIRE ?V0
   \   000000                REQUIRE ?V1
   \   000000                REQUIRE ?V2
   \   000000                REQUIRE ?V3
   \   000000                REQUIRE ?V4
   \   000000                REQUIRE ?V5
   \   000000                REQUIRE ?V6
   \   000000                REQUIRE ?V7
   \   000000   74F0         MOV       A,#-0x10
   \   000002   12....       LCALL     ?BANKED_ENTER_XDATA
   \   000005                ; Saved register size: 16
   \   000005                ; Auto size: 21
   \   000005   74EB         MOV       A,#-0x15
   \   000007   12....       LCALL     ?ALLOC_XSTACK8
   \   00000A   7408         MOV       A,#0x8
   \   00000C   12....       LCALL     ?XSTACK_DISP0_8
   \   00000F   12....       LCALL     ?Subroutine18 & 0xFFFF
   2257            ZDO_ParentAnnce_t *parentAnnce;
   2258            uint8 x;
   2259            uint8 childCount = 0;
   \                     ??CrossCallReturnLabel_21:
   \   000012   12....       LCALL     ?XSTACK_DISP0_8
   \   000015   E4           CLR       A
   \   000016   F0           MOVX      @DPTR,A
   2260            uint32 localAge;
   2261          
   2262            ZDO_ChildInfoList_t *listHead = NULL;
   \   000017   FE           MOV       R6,A
   \   000018   FF           MOV       R7,A
   2263            ZDO_ChildInfoList_t *listTail;
   2264            ZDO_ChildInfoList_t *newNode;
   2265          
   2266            // Parse incoming message, memory is allocated by the parse function,
   2267            // it should be free after processing the message
   2268            parentAnnce = ZDO_ParseParentAnnce( inMsg );
   \   000019                ; Setup parameters for call to function ZDO_ParseParentAnnce
   \   000019   7408         MOV       A,#0x8
   \   00001B   12....       LCALL     ?XSTACK_DISP0_8
   \   00001E   12....       LCALL     ??Subroutine235_0 & 0xFFFF
   \                     ??CrossCallReturnLabel_412:
   \   000021   12....       LCALL     `??ZDO_ParseParentAnnce::?relay`; Banked call to: ZDO_ParseParentAnnce
   \   000024   7404         MOV       A,#0x4
   \   000026   12....       LCALL     ?XSTACK_DISP0_8
   \   000029   12....       LCALL     ?Subroutine41 & 0xFFFF
   2269          
   2270            if ( parentAnnce != NULL )
   \                     ??CrossCallReturnLabel_372:
   \   00002C   7404         MOV       A,#0x4
   \   00002E   12....       LCALL     ?XSTACK_DISP0_8
   \   000031   12....       LCALL     ??Subroutine242_0 & 0xFFFF
   \                     ??CrossCallReturnLabel_462:
   \   000034   7003         JNZ       $+5
   \   000036   02....       LJMP      ??CrossCallReturnLabel_494 & 0xFFFF
   2271            {
   2272              for ( x = 0; x < parentAnnce->numOfChildren; x++ )
   \   000039   85..82       MOV       DPL,?XSP + 0
   \   00003C   85..83       MOV       DPH,?XSP + 1
   \   00003F   E4           CLR       A
   \   000040   8010         SJMP      ??ZDO_ProcessParentAnnce_0
   2273              {
   2274                associated_devices_t *dev_ptr;
   2275                localAge = 0xFFFFFFFF;
   2276          
   2277                // If it's an End Device child
   2278                dev_ptr = AssocGetWithExt( parentAnnce->childInfo[x].extAddr );
   2279          
   2280                if ( dev_ptr )
   2281                {
   2282                  if ( dev_ptr->nodeRelation == CHILD_RFD ||
   2283                       dev_ptr->nodeRelation == CHILD_RFD_RX_IDLE )
   2284                  {
   2285                    if ( dev_ptr->keepaliveRcv == TRUE )
   2286                    {
   2287                      localAge = dev_ptr->endDev.deviceTimeout - dev_ptr->timeoutCounter;
   2288                    }
   2289          
   2290                    if ( localAge < parentAnnce->childInfo[x].age )
   2291                    {
   2292                      // Add one element to the list
   2293                      newNode = (ZDO_ChildInfoList_t *)osal_mem_alloc( sizeof(ZDO_ChildInfoList_t) );
   2294          
   2295                      osal_cpyExtAddr( newNode->child.extAddr, parentAnnce->childInfo[x].extAddr );
   2296          
   2297                      newNode->child.age = localAge;
   2298          
   2299                      newNode->next = NULL;
   2300          
   2301                      if ( listHead == NULL )
   2302                      {
   2303                        // Initialize the head of the list
   2304                        listHead = listTail = newNode;
   2305                      }
   2306                      else
   2307                      {
   2308                        // Add new element to the end
   2309                        listTail->next = newNode;
   2310          
   2311                        listTail = listTail->next;
   2312                      }
   2313          
   2314                      childCount++;
   2315                    }
   2316                    else
   2317                    {
   2318                      AssocRemove( parentAnnce->childInfo[x].extAddr );
   \                     ??ZDO_ProcessParentAnnce_1:
   \   000042                ; Setup parameters for call to function AssocRemove
   \   000042   7406         MOV       A,#0x6
   \   000044   12....       LCALL     ?XSTACK_DISP0_8
   \   000047   12....       LCALL     ?Subroutine104 & 0xFFFF
   2319                    }
   \                     ??CrossCallReturnLabel_171:
   \   00004A   85..82       MOV       DPL,?XSP + 0
   \   00004D   85..83       MOV       DPH,?XSP + 1
   \   000050   E0           MOVX      A,@DPTR
   \   000051   04           INC       A
   \                     ??ZDO_ProcessParentAnnce_0:
   \   000052   F0           MOVX      @DPTR,A
   \   000053   7404         MOV       A,#0x4
   \   000055   12....       LCALL     ?XSTACK_DISP0_8
   \   000058   12....       LCALL     ??Subroutine244_0 & 0xFFFF
   \                     ??CrossCallReturnLabel_480:
   \   00005B   F8           MOV       R0,A
   \   00005C   85..82       MOV       DPL,?XSP + 0
   \   00005F   85..83       MOV       DPH,?XSP + 1
   \   000062   E0           MOVX      A,@DPTR
   \   000063   C3           CLR       C
   \   000064   98           SUBB      A,R0
   \   000065   4003         JC        $+5
   \   000067   02....       LJMP      ??ZDO_ProcessParentAnnce_2 & 0xFFFF
   \   00006A   75..FF       MOV       ?V0,#-0x1
   \   00006D   75..FF       MOV       ?V1,#-0x1
   \   000070   75..FF       MOV       ?V2,#-0x1
   \   000073   75..FF       MOV       ?V3,#-0x1
   \   000076   E0           MOVX      A,@DPTR
   \   000077   75F00C       MOV       B,#0xc
   \   00007A   A4           MUL       AB
   \   00007B   F8           MOV       R0,A
   \   00007C   A9F0         MOV       R1,B
   \   00007E   7404         MOV       A,#0x4
   \   000080   12....       LCALL     ?XSTACK_DISP0_8
   \   000083   E0           MOVX      A,@DPTR
   \   000084   28           ADD       A,R0
   \   000085   F8           MOV       R0,A
   \   000086   A3           INC       DPTR
   \   000087   E0           MOVX      A,@DPTR
   \   000088   39           ADDC      A,R1
   \   000089   F9           MOV       R1,A
   \   00008A   740A         MOV       A,#0xa
   \   00008C   12....       LCALL     ?XSTACK_DISP0_8
   \   00008F   12....       LCALL     ??Subroutine232_0 & 0xFFFF
   \                     ??CrossCallReturnLabel_387:
   \   000092   740A         MOV       A,#0xa
   \   000094   12....       LCALL     ?XSTACK_DISP0_8
   \   000097   12....       LCALL     ?Subroutine122 & 0xFFFF
   \                     ??CrossCallReturnLabel_201:
   \   00009A   F9           MOV       R1,A
   \   00009B   7406         MOV       A,#0x6
   \   00009D   12....       LCALL     ?XSTACK_DISP0_8
   \   0000A0   12....       LCALL     ??Subroutine232_0 & 0xFFFF
   \                     ??CrossCallReturnLabel_388:
   \   0000A3                ; Setup parameters for call to function AssocGetWithExt
   \   0000A3   7406         MOV       A,#0x6
   \   0000A5   12....       LCALL     ?XSTACK_DISP0_8
   \   0000A8   12....       LCALL     ??Subroutine235_0 & 0xFFFF
   \                     ??CrossCallReturnLabel_413:
   \   0000AB   12....       LCALL     `??AssocGetWithExt::?relay`; Banked call to: AssocGetWithExt
   \   0000AE   EA           MOV       A,R2
   \   0000AF   4B           ORL       A,R3
   \   0000B0   6098         JZ        ??CrossCallReturnLabel_171
   \   0000B2   8A82         MOV       DPL,R2
   \   0000B4   8B83         MOV       DPH,R3
   \   0000B6   A3           INC       DPTR
   \   0000B7   A3           INC       DPTR
   \   0000B8   A3           INC       DPTR
   \   0000B9   A3           INC       DPTR
   \   0000BA   E0           MOVX      A,@DPTR
   \   0000BB   F8           MOV       R0,A
   \   0000BC   7401         MOV       A,#0x1
   \   0000BE   68           XRL       A,R0
   \   0000BF   6005         JZ        ??ZDO_ProcessParentAnnce_3
   \   0000C1   7402         MOV       A,#0x2
   \   0000C3   68           XRL       A,R0
   \   0000C4   7084         JNZ       ??CrossCallReturnLabel_171
   \                     ??ZDO_ProcessParentAnnce_3:
   \   0000C6   12....       LCALL     ?Subroutine165 & 0xFFFF
   \                     ??CrossCallReturnLabel_290:
   \   0000C9   700C         JNZ       ??ZDO_ProcessParentAnnce_4
   \   0000CB   12....       LCALL     ?Subroutine135 & 0xFFFF
   \                     ??CrossCallReturnLabel_228:
   \   0000CE   12....       LCALL     ?L_MOV_X
   \   0000D1   12....       LCALL     ?Subroutine163 & 0xFFFF
   \                     ??CrossCallReturnLabel_286:
   \   0000D4   12....       LCALL     ?L_SUB_X
   \                     ??ZDO_ProcessParentAnnce_4:
   \   0000D7   740A         MOV       A,#0xa
   \   0000D9   12....       LCALL     ?XSTACK_DISP0_8
   \   0000DC   12....       LCALL     ?Subroutine73 & 0xFFFF
   \                     ??CrossCallReturnLabel_121:
   \   0000DF   12....       LCALL     ?UL_GE_X
   \   0000E2   5003         JNC       $+5
   \   0000E4   02....       LJMP      ??ZDO_ProcessParentAnnce_1 & 0xFFFF
   \   0000E7                ; Setup parameters for call to function osal_mem_alloc
   \   0000E7   7A0E         MOV       R2,#0xe
   \   0000E9   7B00         MOV       R3,#0x0
   \   0000EB   12....       LCALL     `??osal_mem_alloc::?relay`; Banked call to: osal_mem_alloc
   \   0000EE   8A..         MOV       ?V6,R2
   \   0000F0   8B..         MOV       ?V7,R3
   \   0000F2                ; Setup parameters for call to function sAddrExtCpy
   \   0000F2   7406         MOV       A,#0x6
   \   0000F4   12....       LCALL     ?XSTACK_DISP0_8
   \   0000F7   12....       LCALL     ??Subroutine243_0 & 0xFFFF
   \                     ??CrossCallReturnLabel_471:
   \   0000FA   12....       LCALL     ?Subroutine53 & 0xFFFF
   \                     ??CrossCallReturnLabel_84:
   \   0000FD   A3           INC       DPTR
   \   0000FE   A3           INC       DPTR
   \   0000FF   A3           INC       DPTR
   \   000100   A3           INC       DPTR
   \   000101   A3           INC       DPTR
   \   000102   A3           INC       DPTR
   \   000103   A3           INC       DPTR
   \   000104   78..         MOV       R0,#?V0
   \   000106   12....       LCALL     ?L_MOV_TO_X
   \   000109   E5..         MOV       A,?V6
   \   00010B   240C         ADD       A,#0xc
   \   00010D   12....       LCALL     ?Subroutine160 & 0xFFFF
   \                     ??CrossCallReturnLabel_275:
   \   000110   EE           MOV       A,R6
   \   000111   4F           ORL       A,R7
   \   000112   7016         JNZ       ??ZDO_ProcessParentAnnce_5
   \   000114   7401         MOV       A,#0x1
   \   000116   12....       LCALL     ?XSTACK_DISP0_8
   \   000119   E5..         MOV       A,?V6
   \   00011B   F0           MOVX      @DPTR,A
   \   00011C   A3           INC       DPTR
   \   00011D   E5..         MOV       A,?V7
   \   00011F   F0           MOVX      @DPTR,A
   \   000120   7401         MOV       A,#0x1
   \   000122   12....       LCALL     ?XSTACK_DISP0_8
   \   000125   12....       LCALL     ??Subroutine267_0 & 0xFFFF
   \                     ??CrossCallReturnLabel_589:
   \   000128   8020         SJMP      ??CrossCallReturnLabel_389
   \                     ??ZDO_ProcessParentAnnce_5:
   \   00012A   7401         MOV       A,#0x1
   \   00012C   12....       LCALL     ?XSTACK_DISP0_8
   \   00012F   12....       LCALL     ?Subroutine89 & 0xFFFF
   \                     ??CrossCallReturnLabel_149:
   \   000132   E5..         MOV       A,?V6
   \   000134   F0           MOVX      @DPTR,A
   \   000135   A3           INC       DPTR
   \   000136   E5..         MOV       A,?V7
   \   000138   F0           MOVX      @DPTR,A
   \   000139   7401         MOV       A,#0x1
   \   00013B   12....       LCALL     ?XSTACK_DISP0_8
   \   00013E   12....       LCALL     ?Subroutine89 & 0xFFFF
   \                     ??CrossCallReturnLabel_150:
   \   000141   12....       LCALL     ?Subroutine94 & 0xFFFF
   \                     ??CrossCallReturnLabel_157:
   \   000144   12....       LCALL     ?XSTACK_DISP0_8
   \   000147   12....       LCALL     ??Subroutine232_0 & 0xFFFF
   \                     ??CrossCallReturnLabel_389:
   \   00014A   7403         MOV       A,#0x3
   \   00014C   12....       LCALL     ?XSTACK_DISP0_8
   \   00014F   E0           MOVX      A,@DPTR
   \   000150   04           INC       A
   \   000151   F0           MOVX      @DPTR,A
   \   000152   02....       LJMP      ??CrossCallReturnLabel_171 & 0xFFFF
   2320                  }
   2321                }
   2322              }
   2323          
   2324              // If the device has children that match some in the received list,
   2325              // it should send a unicast Parent_Annce_rsp message.
   2326              if ( childCount > 0 )
   \                     ??ZDO_ProcessParentAnnce_2:
   \   000155   7403         MOV       A,#0x3
   \   000157   12....       LCALL     ?XSTACK_DISP0_8
   \   00015A   E0           MOVX      A,@DPTR
   \   00015B   7003         JNZ       $+5
   \   00015D   02....       LJMP      ??ZDO_ProcessParentAnnce_6 & 0xFFFF
   2327              {
   2328                ZDO_ChildInfo_t *childInfo;
   2329                zAddrType_t dstAddr;
   2330          
   2331                dstAddr.addrMode = (afAddrMode_t)Addr16Bit;
   \   000160   7414         MOV       A,#0x14
   \   000162   12....       LCALL     ?XSTACK_DISP0_8
   \   000165   7402         MOV       A,#0x2
   \   000167   F0           MOVX      @DPTR,A
   2332                dstAddr.addr.shortAddr = inMsg->srcAddr.addr.shortAddr;
   \   000168   7408         MOV       A,#0x8
   \   00016A   12....       LCALL     ?XSTACK_DISP0_8
   \   00016D   12....       LCALL     ?Subroutine72 & 0xFFFF
   \                     ??CrossCallReturnLabel_119:
   \   000170   740C         MOV       A,#0xc
   \   000172   12....       LCALL     ?XSTACK_DISP0_8
   \   000175   12....       LCALL     ??Subroutine232_0 & 0xFFFF
   2333          
   2334                x = 0;
   \                     ??CrossCallReturnLabel_390:
   \   000178   85..82       MOV       DPL,?XSP + 0
   \   00017B   85..83       MOV       DPH,?XSP + 1
   \   00017E   E4           CLR       A
   \   00017F   F0           MOVX      @DPTR,A
   2335          
   2336                childInfo = (ZDO_ChildInfo_t *)osal_mem_alloc( childCount * sizeof(ZDO_ChildInfo_t) );
   \   000180                ; Setup parameters for call to function osal_mem_alloc
   \   000180   7403         MOV       A,#0x3
   \   000182   12....       LCALL     ?XSTACK_DISP0_8
   \   000185   E0           MOVX      A,@DPTR
   \   000186   75F00C       MOV       B,#0xc
   \   000189   A4           MUL       AB
   \   00018A   FA           MOV       R2,A
   \   00018B   ABF0         MOV       R3,B
   \   00018D   12....       LCALL     ??Subroutine234_0 & 0xFFFF
   2337          
   2338                if ( childInfo != NULL )
   \                     ??CrossCallReturnLabel_401:
   \   000190   7003         JNZ       $+5
   \   000192   02....       LJMP      ??CrossCallReturnLabel_493 & 0xFFFF
   \   000195   8053         SJMP      ??CrossCallReturnLabel_492
   2339                {
   2340                  // Copy the content of the link list into this buffer
   2341                  while ( listHead != NULL )
   2342                  {
   2343                    listTail = listHead;
   \                     ??ZDO_ProcessParentAnnce_7:
   \   000197   7401         MOV       A,#0x1
   \   000199   12....       LCALL     ?XSTACK_DISP0_8
   \   00019C   EE           MOV       A,R6
   \   00019D   F0           MOVX      @DPTR,A
   \   00019E   A3           INC       DPTR
   \   00019F   EF           MOV       A,R7
   \   0001A0   12....       LCALL     ?Subroutine15 & 0xFFFF
   2344          
   2345                    osal_cpyExtAddr( childInfo[x].extAddr,  listHead->child.extAddr );
   \                     ??CrossCallReturnLabel_13:
   \   0001A3   75F00C       MOV       B,#0xc
   \   0001A6   A4           MUL       AB
   \   0001A7   F8           MOV       R0,A
   \   0001A8   A9F0         MOV       R1,B
   \   0001AA   E5..         MOV       A,?V2
   \   0001AC   28           ADD       A,R0
   \   0001AD   F5..         MOV       ?V0,A
   \   0001AF   E5..         MOV       A,?V3
   \   0001B1   39           ADDC      A,R1
   \   0001B2   F5..         MOV       ?V1,A
   \   0001B4                ; Setup parameters for call to function sAddrExtCpy
   \   0001B4   EE           MOV       A,R6
   \   0001B5   FC           MOV       R4,A
   \   0001B6   EF           MOV       A,R7
   \   0001B7   FD           MOV       R5,A
   \   0001B8   AA..         MOV       R2,?V0
   \   0001BA   AB..         MOV       R3,?V1
   \   0001BC   12....       LCALL     ?Subroutine214 & 0xFFFF
   2346                    childInfo[x].age = listHead->child.age;
   \                     ??CrossCallReturnLabel_576:
   \   0001BF   12....       LCALL     ?XLOAD_R0123
   \   0001C2   85..82       MOV       DPL,?V0
   \   0001C5   85..83       MOV       DPH,?V1
   \   0001C8   A3           INC       DPTR
   \   0001C9   A3           INC       DPTR
   \   0001CA   A3           INC       DPTR
   \   0001CB   A3           INC       DPTR
   \   0001CC   A3           INC       DPTR
   \   0001CD   A3           INC       DPTR
   \   0001CE   A3           INC       DPTR
   \   0001CF   A3           INC       DPTR
   \   0001D0   12....       LCALL     ?XSTORE_R0123
   2347          
   2348                    x++;
   \   0001D3   85..82       MOV       DPL,?XSP + 0
   \   0001D6   85..83       MOV       DPH,?XSP + 1
   \   0001D9   E0           MOVX      A,@DPTR
   \   0001DA   04           INC       A
   \   0001DB   F0           MOVX      @DPTR,A
   2349          
   2350                    listHead = listTail->next;
   \   0001DC   7401         MOV       A,#0x1
   \   0001DE   12....       LCALL     ?XSTACK_DISP0_8
   \   0001E1   12....       LCALL     ?Subroutine66 & 0xFFFF
   2351          
   2352                    // Free this element of the link list
   2353                    osal_mem_free( listTail );
   2354                  }
   \                     ??CrossCallReturnLabel_107:
   \   0001E4   12....       LCALL     ?XSTACK_DISP0_8
   \   0001E7   12....       LCALL     ??Subroutine246_0 & 0xFFFF
   \                     ??CrossCallReturnLabel_492:
   \   0001EA   EE           MOV       A,R6
   \   0001EB   4F           ORL       A,R7
   \   0001EC   70A9         JNZ       ??ZDO_ProcessParentAnnce_7
   2355          
   2356                  ZDP_ParentAnnceRsp( (inMsg->TransSeq), dstAddr, childCount,
   2357                                      ((uint8 *)childInfo), 0 );
   \   0001EE                ; Setup parameters for call to function ZDP_ParentAnnce
   \   0001EE   75..00       MOV       ?V0,#0x0
   \   0001F1   78..         MOV       R0,#?V0
   \   0001F3   12....       LCALL     ?PUSH_XSTACK_I_ONE
   \   0001F6   75..1F       MOV       ?V0,#0x1f
   \   0001F9   75..80       MOV       ?V1,#-0x80
   \   0001FC   78..         MOV       R0,#?V0
   \   0001FE   12....       LCALL     ?PUSH_XSTACK_I_TWO
   \   000201   78..         MOV       R0,#?V2
   \   000203   12....       LCALL     ?PUSH_XSTACK_I_TWO
   \   000206   7408         MOV       A,#0x8
   \   000208   12....       LCALL     ?XSTACK_DISP0_8
   \   00020B   E0           MOVX      A,@DPTR
   \   00020C   F9           MOV       R1,A
   \   00020D   7411         MOV       A,#0x11
   \   00020F   12....       LCALL     ?XSTACK_DISP102_8
   \   000212   740D         MOV       A,#0xd
   \   000214   12....       LCALL     ?XSTACK_DISP0_8
   \   000217   E0           MOVX      A,@DPTR
   \   000218   240F         ADD       A,#0xf
   \   00021A   FA           MOV       R2,A
   \   00021B   A3           INC       DPTR
   \   00021C   E0           MOVX      A,@DPTR
   \   00021D   3400         ADDC      A,#0x0
   \   00021F   FB           MOV       R3,A
   \   000220   12....       LCALL     `??ZDP_ParentAnnce::?relay`; Banked call to: ZDP_ParentAnnce
   \   000223   7405         MOV       A,#0x5
   \   000225   12....       LCALL     ?DEALLOC_XSTACK8
   2358                  
   2359                  
   2360                  osal_mem_free(childInfo);
   \   000228                ; Setup parameters for call to function osal_mem_free
   \   000228   AA..         MOV       R2,?V2
   \   00022A   AB..         MOV       R3,?V3
   \   00022C   12....       LCALL     `??osal_mem_free::?relay`; Banked call to: osal_mem_free
   \   00022F   801C         SJMP      ??ZDO_ProcessParentAnnce_6
   2361                }
   2362                else
   2363                {
   2364                  while(listHead != NULL)
   2365                  {
   2366                    listTail = listHead;
   \                     ??ZDO_ProcessParentAnnce_8:
   \   000231   7401         MOV       A,#0x1
   \   000233   12....       LCALL     ?XSTACK_DISP0_8
   \   000236   EE           MOV       A,R6
   \   000237   F0           MOVX      @DPTR,A
   \   000238   A3           INC       DPTR
   \   000239   EF           MOV       A,R7
   \   00023A   F0           MOVX      @DPTR,A
   2367                    listHead = listTail->next;
   \   00023B   7401         MOV       A,#0x1
   \   00023D   12....       LCALL     ?XSTACK_DISP0_8
   \   000240   12....       LCALL     ?Subroutine66 & 0xFFFF
   2368          
   2369                    // Free this element of the link list
   2370                    osal_mem_free( listTail );
   2371                  }  
   \                     ??CrossCallReturnLabel_108:
   \   000243   12....       LCALL     ?XSTACK_DISP0_8
   \   000246   12....       LCALL     ??Subroutine246_0 & 0xFFFF
   \                     ??CrossCallReturnLabel_493:
   \   000249   EE           MOV       A,R6
   \   00024A   4F           ORL       A,R7
   \   00024B   70E4         JNZ       ??ZDO_ProcessParentAnnce_8
   2372                }
   2373              }
   2374              
   2375              // Free memory allocated by parsing function
   2376              osal_mem_free( parentAnnce );
   \                     ??ZDO_ProcessParentAnnce_6:
   \   00024D                ; Setup parameters for call to function osal_mem_free
   \   00024D   7404         MOV       A,#0x4
   \   00024F   12....       LCALL     ?XSTACK_DISP0_8
   \   000252   12....       LCALL     ??Subroutine246_0 & 0xFFFF
   2377            }
   2378          }
   \                     ??CrossCallReturnLabel_494:
   \   000255   02....       LJMP      ?Subroutine4 & 0xFFFF

   \                                 In  segment BANKED_CODE, align 1, keep-with-next
   \                     ?Subroutine89:
   \   000000   12....       LCALL     ?Subroutine184 & 0xFFFF
   \                     ??CrossCallReturnLabel_316:
   \   000003   22           RET

   \                                 In  segment BANKED_CODE, align 1, keep-with-next
   \                     ?Subroutine184:
   \   000000   12....       LCALL     ?Subroutine215 & 0xFFFF
   \                     ??CrossCallReturnLabel_743:
   \   000003   240C         ADD       A,#0xc
   \   000005   F582         MOV       DPL,A
   \   000007   E4           CLR       A
   \   000008   38           ADDC      A,R0
   \   000009   F583         MOV       DPH,A
   \   00000B   22           RET

   \                                 In  segment BANKED_CODE, align 1, keep-with-next
   \                     ?Subroutine66:
   \   000000   12....       LCALL     ?Subroutine184 & 0xFFFF
   \                     ??CrossCallReturnLabel_315:
   \   000003   12....       LCALL     ??Subroutine269_0 & 0xFFFF
   \                     ??CrossCallReturnLabel_594:
   \   000006                ; Setup parameters for call to function osal_mem_free
   \   000006                ; Setup parameters for call to function osal_mem_free
   \   000006   7401         MOV       A,#0x1
   \   000008   22           RET

   \                                 In  segment BANKED_CODE, align 1, keep-with-next
   \                     ?Subroutine165:
   \   000000   EA           MOV       A,R2
   \   000001   241B         ADD       A,#0x1b
   \   000003   F582         MOV       DPL,A
   \   000005   E4           CLR       A
   \   000006   3B           ADDC      A,R3
   \   000007   F583         MOV       DPH,A
   \   000009   E0           MOVX      A,@DPTR
   \   00000A   6401         XRL       A,#0x1
   \   00000C   22           RET

   \                                 In  segment BANKED_CODE, align 1, keep-with-next
   \                     ?Subroutine163:
   \   000000   EA           MOV       A,R2
   \   000001   2417         ADD       A,#0x17
   \   000003   F582         MOV       DPL,A
   \   000005   E4           CLR       A
   \   000006   3B           ADDC      A,R3
   \   000007   F583         MOV       DPH,A
   \   000009   78..         MOV       R0,#?V0
   \   00000B   22           RET

   \                                 In  segment BANKED_CODE, align 1, keep-with-next
   \                     ?Subroutine135:
   \   000000   12....       LCALL     ?Subroutine203 & 0xFFFF
   \                     ??CrossCallReturnLabel_679:
   \   000003   F583         MOV       DPH,A
   \   000005   78..         MOV       R0,#?V0
   \   000007   22           RET

   \                                 In  segment BANKED_CODE, align 1, keep-with-next
   \                     ?Subroutine122:
   \   000000   E0           MOVX      A,@DPTR
   \   000001   2401         ADD       A,#0x1
   \   000003   F8           MOV       R0,A
   \   000004   A3           INC       DPTR
   \   000005   E0           MOVX      A,@DPTR
   \   000006   3400         ADDC      A,#0x0
   \   000008   22           RET

   \                                 In  segment BANKED_CODE, align 1, keep-with-next
   \                     ?Subroutine104:
   \   000000   12....       LCALL     ?Subroutine182 & 0xFFFF
   \                     ??CrossCallReturnLabel_525:
   \   000003   12....       LCALL     `??AssocRemove::?relay`; Banked call to: AssocRemove
   \   000006   22           RET

   \                                 In  segment BANKED_CODE, align 1, keep-with-next
   \                     ?Subroutine73:
   \   000000   12....       LCALL     ?Subroutine185 & 0xFFFF
   \                     ??CrossCallReturnLabel_317:
   \   000003   78..         MOV       R0,#?V0
   \   000005   22           RET

   \                                 In  segment BANKED_CODE, align 1, keep-with-next
   \                     ?Subroutine94:
   \   000000   12....       LCALL     ??Subroutine262_0 & 0xFFFF
   \                     ??CrossCallReturnLabel_558:
   \   000003   7401         MOV       A,#0x1
   \   000005   22           RET

   \                                 In  segment BANKED_CODE, align 1, keep-with-next
   \                     ?Subroutine160:
   \   000000   F582         MOV       DPL,A
   \   000002   E4           CLR       A
   \   000003   35..         ADDC      A,?V7
   \   000005   F583         MOV       DPH,A
   \   000007   E4           CLR       A
   \   000008   F0           MOVX      @DPTR,A
   \   000009   A3           INC       DPTR
   \   00000A   F0           MOVX      @DPTR,A
   \   00000B   22           RET

   \                                 In  segment BANKED_CODE, align 1, keep-with-next
   \                     ?Subroutine72:
   \   000000   E0           MOVX      A,@DPTR
   \   000001   12....       LCALL     ?Subroutine193 & 0xFFFF
   \                     ??CrossCallReturnLabel_707:
   \   000004   A3           INC       DPTR
   \   000005   12....       LCALL     ??Subroutine262_0 & 0xFFFF
   \                     ??CrossCallReturnLabel_557:
   \   000008   22           RET

   \                                 In  segment BANKED_CODE, align 1, keep-with-next
   \                     ?Subroutine53:
   \   000000   12....       LCALL     `??sAddrExtCpy::?relay`; Banked call to: sAddrExtCpy
   \   000003                ; Setup parameters for call to function ZDP_BindUnbindReq
   \   000003   85..82       MOV       DPL,?V6
   \   000006   85..83       MOV       DPH,?V7
   \   000009   A3           INC       DPTR
   \   00000A   22           RET

   \                                 In  segment BANKED_CODE, align 1, keep-with-next
   \                     ?Subroutine214:
   \   000000   12....       LCALL     `??sAddrExtCpy::?relay`; Banked call to: sAddrExtCpy
   \   000003   8E82         MOV       DPL,R6
   \   000005   8F83         MOV       DPH,R7
   \   000007   A3           INC       DPTR
   \   000008   A3           INC       DPTR
   \   000009   A3           INC       DPTR
   \   00000A   A3           INC       DPTR
   \   00000B   A3           INC       DPTR
   \   00000C   A3           INC       DPTR
   \   00000D   A3           INC       DPTR
   \   00000E   A3           INC       DPTR
   \   00000F   22           RET

   \                                 In  segment BANKED_CODE, align 1, keep-with-next
   \                     ?Subroutine203:
   \   000000   EA           MOV       A,R2
   \   000001                REQUIRE ??Subroutine268_0
   \   000001                ; // Fall through to label ??Subroutine268_0
   2379          
   2380          /*********************************************************************
   2381           * @fn          ZDO_ProcessParentAnnceRsp
   2382           *
   2383           * @brief       This function processes a Parent annouce response message.
   2384           *
   2385           * @param       inMsg - incoming message
   2386           *
   2387           * @return      none
   2388           */

   \                                 In  segment BANKED_CODE, align 1, keep-with-next
   2389          void ZDO_ProcessParentAnnceRsp( zdoIncomingMsg_t *inMsg )
   \                     ZDO_ProcessParentAnnceRsp:
   2390          {
   \   000000                REQUIRE ?V0
   \   000000                REQUIRE ?V1
   \   000000                REQUIRE ?V2
   \   000000                REQUIRE ?V3
   \   000000                REQUIRE ?V4
   \   000000                REQUIRE ?V5
   \   000000                REQUIRE ?V6
   \   000000                REQUIRE ?V7
   \   000000   74F0         MOV       A,#-0x10
   \   000002   12....       LCALL     ?BANKED_ENTER_XDATA
   \   000005                ; Saved register size: 16
   \   000005                ; Auto size: 4
   \   000005   74FC         MOV       A,#-0x4
   \   000007   12....       LCALL     ?ALLOC_XSTACK8
   2391            ZDO_ParentAnnce_t *parentAnnce;
   2392            uint8 x;
   2393            uint32 localAge;
   2394          
   2395            // Parse incoming message, memory is allocated by the parse function,
   2396            // it should be free after processing the message
   2397            parentAnnce = ZDO_ParseParentAnnce( inMsg );
   \   00000A                ; Setup parameters for call to function ZDO_ParseParentAnnce
   \   00000A   12....       LCALL     `??ZDO_ParseParentAnnce::?relay`; Banked call to: ZDO_ParseParentAnnce
   \   00000D   8A..         MOV       ?V6,R2
   \   00000F   8B..         MOV       ?V7,R3
   2398          
   2399            if ( parentAnnce != NULL )
   \   000011   EA           MOV       A,R2
   \   000012   4B           ORL       A,R3
   \   000013   7003         JNZ       $+5
   \   000015   02....       LJMP      ??ZDO_ProcessParentAnnceRsp_0 & 0xFFFF
   2400            {
   2401              for ( x = 0; x < parentAnnce->numOfChildren; x++ )
   \   000018   7E00         MOV       R6,#0x0
   \   00001A   8076         SJMP      ??ZDO_ProcessParentAnnceRsp_1
   2402              {
   2403                associated_devices_t *dev_ptr;
   2404                localAge = 0xFFFFFFFF;
   \                     ??ZDO_ProcessParentAnnceRsp_2:
   \   00001C   75..FF       MOV       ?V0,#-0x1
   \   00001F   75..FF       MOV       ?V1,#-0x1
   \   000022   75..FF       MOV       ?V2,#-0x1
   \   000025   75..FF       MOV       ?V3,#-0x1
   2405          
   2406                // If it's an End Device child
   2407                dev_ptr = AssocGetWithExt( parentAnnce->childInfo[x].extAddr );
   \   000028   EE           MOV       A,R6
   \   000029   75F00C       MOV       B,#0xc
   \   00002C   A4           MUL       AB
   \   00002D   F8           MOV       R0,A
   \   00002E   A9F0         MOV       R1,B
   \   000030   E5..         MOV       A,?V6
   \   000032   28           ADD       A,R0
   \   000033   F8           MOV       R0,A
   \   000034   E5..         MOV       A,?V7
   \   000036   39           ADDC      A,R1
   \   000037   F9           MOV       R1,A
   \   000038   7402         MOV       A,#0x2
   \   00003A   12....       LCALL     ?XSTACK_DISP0_8
   \   00003D   12....       LCALL     ??Subroutine232_0 & 0xFFFF
   \                     ??CrossCallReturnLabel_391:
   \   000040   7402         MOV       A,#0x2
   \   000042   12....       LCALL     ?XSTACK_DISP0_8
   \   000045   12....       LCALL     ?Subroutine122 & 0xFFFF
   \                     ??CrossCallReturnLabel_202:
   \   000048   12....       LCALL     ?Subroutine14 & 0xFFFF
   \                     ??CrossCallReturnLabel_499:
   \   00004B   FA           MOV       R2,A
   \   00004C   A3           INC       DPTR
   \   00004D   E0           MOVX      A,@DPTR
   \   00004E   FB           MOV       R3,A
   \   00004F   12....       LCALL     `??AssocGetWithExt::?relay`; Banked call to: AssocGetWithExt
   2408          
   2409                if ( dev_ptr )
   \   000052   EA           MOV       A,R2
   \   000053   4B           ORL       A,R3
   \   000054   603B         JZ        ??CrossCallReturnLabel_172
   2410                {
   2411                  if ( dev_ptr->nodeRelation == CHILD_RFD ||
   2412                       dev_ptr->nodeRelation == CHILD_RFD_RX_IDLE )
   \   000056   8A82         MOV       DPL,R2
   \   000058   8B83         MOV       DPH,R3
   \   00005A   A3           INC       DPTR
   \   00005B   A3           INC       DPTR
   \   00005C   A3           INC       DPTR
   \   00005D   A3           INC       DPTR
   \   00005E   E0           MOVX      A,@DPTR
   \   00005F   F8           MOV       R0,A
   \   000060   7401         MOV       A,#0x1
   \   000062   68           XRL       A,R0
   \   000063   6005         JZ        ??ZDO_ProcessParentAnnceRsp_3
   \   000065   7402         MOV       A,#0x2
   \   000067   68           XRL       A,R0
   \   000068   7027         JNZ       ??CrossCallReturnLabel_172
   2413                  {
   2414                    if ( dev_ptr->keepaliveRcv == TRUE )
   \                     ??ZDO_ProcessParentAnnceRsp_3:
   \   00006A   12....       LCALL     ?Subroutine165 & 0xFFFF
   \                     ??CrossCallReturnLabel_291:
   \   00006D   700C         JNZ       ??ZDO_ProcessParentAnnceRsp_4
   2415                    {
   2416                      localAge = dev_ptr->endDev.deviceTimeout - dev_ptr->timeoutCounter;
   \   00006F   12....       LCALL     ?Subroutine135 & 0xFFFF
   2417                    }
   \                     ??CrossCallReturnLabel_229:
   \   000072   12....       LCALL     ?L_MOV_X
   \   000075   12....       LCALL     ?Subroutine163 & 0xFFFF
   \                     ??CrossCallReturnLabel_287:
   \   000078   12....       LCALL     ?L_SUB_X
   2418          
   2419                    if ( localAge >= parentAnnce->childInfo[x].age )
   \                     ??ZDO_ProcessParentAnnceRsp_4:
   \   00007B   7402         MOV       A,#0x2
   \   00007D   12....       LCALL     ?XSTACK_DISP0_8
   \   000080   12....       LCALL     ?Subroutine73 & 0xFFFF
   \                     ??CrossCallReturnLabel_122:
   \   000083   12....       LCALL     ?UL_GE_X
   \   000086   5009         JNC       ??CrossCallReturnLabel_172
   2420                    {
   2421                      AssocRemove( parentAnnce->childInfo[x].extAddr );
   \   000088                ; Setup parameters for call to function AssocRemove
   \   000088   85..82       MOV       DPL,?XSP + 0
   \   00008B   85..83       MOV       DPH,?XSP + 1
   \   00008E   12....       LCALL     ?Subroutine104 & 0xFFFF
   2422                    }
   2423                  }
   2424                }
   2425              }
   \                     ??CrossCallReturnLabel_172:
   \   000091   0E           INC       R6
   \                     ??ZDO_ProcessParentAnnceRsp_1:
   \   000092   85..82       MOV       DPL,?V6
   \   000095   85..83       MOV       DPH,?V7
   \   000098   E0           MOVX      A,@DPTR
   \   000099   F8           MOV       R0,A
   \   00009A   EE           MOV       A,R6
   \   00009B   C3           CLR       C
   \   00009C   98           SUBB      A,R0
   \   00009D   5003         JNC       $+5
   \   00009F   02....       LJMP      ??ZDO_ProcessParentAnnceRsp_2 & 0xFFFF
   2426          
   2427              // Free memory allocated by parsing function
   2428              osal_mem_free( parentAnnce );
   \   0000A2                ; Setup parameters for call to function osal_mem_free
   \   0000A2   AA..         MOV       R2,?V6
   \   0000A4   AB..         MOV       R3,?V7
   \   0000A6   12....       LCALL     `??osal_mem_free::?relay`; Banked call to: osal_mem_free
   2429            }
   2430          }
   \                     ??ZDO_ProcessParentAnnceRsp_0:
   \   0000A9   7404         MOV       A,#0x4
   \   0000AB   02....       LJMP      ??Subroutine223_0 & 0xFFFF

   \                                 In  segment BANKED_CODE, align 1, keep-with-next
   \                     ?Subroutine14:
   \   000000   F9           MOV       R1,A
   \   000001   85..82       MOV       DPL,?XSP + 0
   \   000004   85..83       MOV       DPH,?XSP + 1
   \   000007   E8           MOV       A,R0
   \   000008                REQUIRE ??Subroutine248_0
   \   000008                ; // Fall through to label ??Subroutine248_0

   \                                 In  segment BANKED_CODE, align 1, keep-with-next
   \                     ??Subroutine248_0:
   \   000000   12....       LCALL     ?Subroutine166 & 0xFFFF
   \                     ??CrossCallReturnLabel_500:
   \   000003   22           RET

   \                                 In  segment BANKED_CODE, align 1, keep-with-next
   \                     ?Subroutine166:
   \   000000   F0           MOVX      @DPTR,A
   \   000001   A3           INC       DPTR
   \   000002   E9           MOV       A,R1
   \   000003                REQUIRE ??Subroutine249_0
   \   000003                ; // Fall through to label ??Subroutine249_0
   2431          
   2432          /*********************************************************************
   2433           * @fn          ZDO_BuildSimpleDescBuf
   2434           *
   2435           * @brief       Build a byte sequence representation of a Simple Descriptor.
   2436           *
   2437           * @param       buf  - pointer to a byte array big enough for data.
   2438           * @param       desc - SimpleDescriptionFormat_t *
   2439           *
   2440           * @return      none
   2441           */

   \                                 In  segment BANKED_CODE, align 1, keep-with-next
   2442          void ZDO_BuildSimpleDescBuf( uint8 *buf, SimpleDescriptionFormat_t *desc )
   \                     ZDO_BuildSimpleDescBuf:
   2443          {
   \   000000                REQUIRE ?V0
   \   000000                REQUIRE ?V1
   \   000000                REQUIRE ?V2
   \   000000                REQUIRE ?V3
   \   000000                REQUIRE ?V4
   \   000000                REQUIRE ?V5
   \   000000   74F2         MOV       A,#-0xe
   \   000002   12....       LCALL     ?BANKED_ENTER_XDATA
   \   000005                ; Saved register size: 14
   \   000005                ; Auto size: 0
   2444            byte cnt;
   2445            uint16 *ptr;
   2446          
   2447            *buf++ = desc->EndPoint;
   \   000005   8C82         MOV       DPL,R4
   \   000007   8D83         MOV       DPH,R5
   \   000009   12....       LCALL     ??Subroutine270_0 & 0xFFFF
   \                     ??CrossCallReturnLabel_599:
   \   00000C   12....       LCALL     ?Subroutine23 & 0xFFFF
   2448            *buf++ = HI_UINT16( desc->AppProfId );
   \                     ??CrossCallReturnLabel_34:
   \   00000F   A3           INC       DPTR
   \   000010   A882         MOV       R0,DPL
   \   000012   A983         MOV       R1,DPH
   \   000014   A3           INC       DPTR
   \   000015   12....       LCALL     ??Subroutine270_0 & 0xFFFF
   \                     ??CrossCallReturnLabel_600:
   \   000018   12....       LCALL     ?Subroutine27 & 0xFFFF
   2449            *buf++ = LO_UINT16( desc->AppProfId );
   \                     ??CrossCallReturnLabel_43:
   \   00001B   F0           MOVX      @DPTR,A
   2450            *buf++ = HI_UINT16( desc->AppDeviceId );
   \   00001C   EC           MOV       A,R4
   \   00001D   2403         ADD       A,#0x3
   \   00001F   F8           MOV       R0,A
   \   000020   E4           CLR       A
   \   000021   3D           ADDC      A,R5
   \   000022   F9           MOV       R1,A
   \   000023   8882         MOV       DPL,R0
   \   000025   F583         MOV       DPH,A
   \   000027   A3           INC       DPTR
   \   000028   12....       LCALL     ??Subroutine270_0 & 0xFFFF
   \                     ??CrossCallReturnLabel_601:
   \   00002B   A3           INC       DPTR
   \   00002C   A3           INC       DPTR
   \   00002D   12....       LCALL     ?Subroutine27 & 0xFFFF
   2451            *buf++ = LO_UINT16( desc->AppDeviceId );
   \                     ??CrossCallReturnLabel_44:
   \   000030   A3           INC       DPTR
   \   000031   A3           INC       DPTR
   \   000032   12....       LCALL     ?Subroutine23 & 0xFFFF
   2452          
   2453            *buf++ = (byte)(desc->AppDevVer << 4);
   \                     ??CrossCallReturnLabel_35:
   \   000035   A3           INC       DPTR
   \   000036   A3           INC       DPTR
   \   000037   A3           INC       DPTR
   \   000038   A3           INC       DPTR
   \   000039   A3           INC       DPTR
   \   00003A   E0           MOVX      A,@DPTR
   \   00003B   C4           SWAP      A
   \   00003C   54F0         ANL       A,#0xf0
   \   00003E   8A82         MOV       DPL,R2
   \   000040   8B83         MOV       DPH,R3
   \   000042   A3           INC       DPTR
   \   000043   A3           INC       DPTR
   \   000044   A3           INC       DPTR
   \   000045   A3           INC       DPTR
   \   000046   A3           INC       DPTR
   \   000047   F0           MOVX      @DPTR,A
   2454          
   2455            *buf++ = desc->AppNumInClusters;
   \   000048   EC           MOV       A,R4
   \   000049   2406         ADD       A,#0x6
   \   00004B   12....       LCALL     ?Subroutine78 & 0xFFFF
   \                     ??CrossCallReturnLabel_604:
   \   00004E   A3           INC       DPTR
   \   00004F   A3           INC       DPTR
   \   000050   A3           INC       DPTR
   \   000051   A3           INC       DPTR
   \   000052   A3           INC       DPTR
   \   000053   A3           INC       DPTR
   \   000054   F0           MOVX      @DPTR,A
   \   000055   EA           MOV       A,R2
   \   000056   2407         ADD       A,#0x7
   \   000058   FA           MOV       R2,A
   \   000059   5001         JNC       ??ZDO_BuildSimpleDescBuf_0
   \   00005B   0B           INC       R3
   2456            ptr = desc->pAppInClusterList;
   \                     ??ZDO_BuildSimpleDescBuf_0:
   \   00005C   8C82         MOV       DPL,R4
   \   00005E   8D83         MOV       DPH,R5
   \   000060   12....       LCALL     ?Subroutine118 & 0xFFFF
   2457            for ( cnt = 0; cnt < desc->AppNumInClusters; ptr++, cnt++ )
   \                     ??CrossCallReturnLabel_195:
   \   000063   8018         SJMP      ??ZDO_BuildSimpleDescBuf_1
   2458            {
   2459              *buf++ = HI_UINT16( *ptr );
   \                     ??ZDO_BuildSimpleDescBuf_2:
   \   000065   12....       LCALL     ?Subroutine28 & 0xFFFF
   2460              *buf++ = LO_UINT16( *ptr );
   2461            }
   \                     ??CrossCallReturnLabel_665:
   \   000068   8882         MOV       DPL,R0
   \   00006A   8983         MOV       DPH,R1
   \   00006C   F0           MOVX      @DPTR,A
   \   00006D   EA           MOV       A,R2
   \   00006E   2402         ADD       A,#0x2
   \   000070   FA           MOV       R2,A
   \   000071   5001         JNC       ??ZDO_BuildSimpleDescBuf_3
   \   000073   0B           INC       R3
   \                     ??ZDO_BuildSimpleDescBuf_3:
   \   000074   EE           MOV       A,R6
   \   000075   2402         ADD       A,#0x2
   \   000077   FE           MOV       R6,A
   \   000078   5001         JNC       ??ZDO_BuildSimpleDescBuf_4
   \   00007A   0F           INC       R7
   \                     ??ZDO_BuildSimpleDescBuf_4:
   \   00007B   05..         INC       ?V0
   \                     ??ZDO_BuildSimpleDescBuf_1:
   \   00007D   8A82         MOV       DPL,R2
   \   00007F   8B83         MOV       DPH,R3
   \   000081   A3           INC       DPTR
   \   000082   A882         MOV       R0,DPL
   \   000084   A983         MOV       R1,DPH
   \   000086   85..82       MOV       DPL,?V2
   \   000089   85..83       MOV       DPH,?V3
   \   00008C   E0           MOVX      A,@DPTR
   \   00008D   F5..         MOV       ?V1,A
   \   00008F   E5..         MOV       A,?V0
   \   000091   C3           CLR       C
   \   000092   95..         SUBB      A,?V1
   \   000094   40CF         JC        ??ZDO_BuildSimpleDescBuf_2
   2462          
   2463            *buf++ = desc->AppNumOutClusters;
   \   000096   EC           MOV       A,R4
   \   000097   2409         ADD       A,#0x9
   \   000099   12....       LCALL     ?Subroutine78 & 0xFFFF
   \                     ??CrossCallReturnLabel_605:
   \   00009C   F0           MOVX      @DPTR,A
   \   00009D   E8           MOV       A,R0
   \   00009E   FA           MOV       R2,A
   \   00009F   E9           MOV       A,R1
   \   0000A0   FB           MOV       R3,A
   2464            ptr = desc->pAppOutClusterList;
   \   0000A1   8C82         MOV       DPL,R4
   \   0000A3   8D83         MOV       DPH,R5
   \   0000A5   A3           INC       DPTR
   \   0000A6   A3           INC       DPTR
   \   0000A7   A3           INC       DPTR
   \   0000A8   12....       LCALL     ?Subroutine118 & 0xFFFF
   2465            for ( cnt = 0; cnt < desc->AppNumOutClusters; ptr++, cnt++ )
   \                     ??CrossCallReturnLabel_196:
   \   0000AB   8019         SJMP      ??ZDO_BuildSimpleDescBuf_5
   2466            {
   2467              *buf++ = HI_UINT16( *ptr );
   \                     ??ZDO_BuildSimpleDescBuf_6:
   \   0000AD   12....       LCALL     ?Subroutine28 & 0xFFFF
   2468              *buf++ = LO_UINT16( *ptr );
   2469            }
   \                     ??CrossCallReturnLabel_666:
   \   0000B0   8A82         MOV       DPL,R2
   \   0000B2   8B83         MOV       DPH,R3
   \   0000B4   A3           INC       DPTR
   \   0000B5   F0           MOVX      @DPTR,A
   \   0000B6   EA           MOV       A,R2
   \   0000B7   2402         ADD       A,#0x2
   \   0000B9   FA           MOV       R2,A
   \   0000BA   5001         JNC       ??ZDO_BuildSimpleDescBuf_7
   \   0000BC   0B           INC       R3
   \                     ??ZDO_BuildSimpleDescBuf_7:
   \   0000BD   EE           MOV       A,R6
   \   0000BE   2402         ADD       A,#0x2
   \   0000C0   FE           MOV       R6,A
   \   0000C1   5001         JNC       ??ZDO_BuildSimpleDescBuf_8
   \   0000C3   0F           INC       R7
   \                     ??ZDO_BuildSimpleDescBuf_8:
   \   0000C4   05..         INC       ?V0
   \                     ??ZDO_BuildSimpleDescBuf_5:
   \   0000C6   85..82       MOV       DPL,?V2
   \   0000C9   85..83       MOV       DPH,?V3
   \   0000CC   E0           MOVX      A,@DPTR
   \   0000CD   F8           MOV       R0,A
   \   0000CE   E5..         MOV       A,?V0
   \   0000D0   C3           CLR       C
   \   0000D1   98           SUBB      A,R0
   \   0000D2   40D9         JC        ??ZDO_BuildSimpleDescBuf_6
   2470          }
   \   0000D4   80..         SJMP      ??Subroutine250_0

   \                                 In  segment BANKED_CODE, align 1, keep-with-next
   \                     ?Subroutine118:
   \   000000   A3           INC       DPTR
   \   000001   A3           INC       DPTR
   \   000002   A3           INC       DPTR
   \   000003   A3           INC       DPTR
   \   000004   A3           INC       DPTR
   \   000005   A3           INC       DPTR
   \   000006   A3           INC       DPTR
   \   000007   12....       LCALL     ??Subroutine269_0 & 0xFFFF
   \                     ??CrossCallReturnLabel_595:
   \   00000A   75..00       MOV       ?V0,#0x0
   \   00000D   22           RET

   \                                 In  segment BANKED_CODE, align 1, keep-with-next
   \                     ?Subroutine27:
   \   000000   A3           INC       DPTR
   \   000001   12....       LCALL     ?Subroutine173 & 0xFFFF
   \                     ??CrossCallReturnLabel_299:
   \   000004   8A82         MOV       DPL,R2
   \   000006   8B83         MOV       DPH,R3
   \   000008   A3           INC       DPTR
   \   000009   A3           INC       DPTR
   \   00000A   22           RET

   \                                 In  segment BANKED_CODE, align 1, keep-with-next
   \                     ?Subroutine78:
   \   000000   F5..         MOV       ?V2,A
   \   000002   E4           CLR       A
   \   000003   3D           ADDC      A,R5
   \   000004   F5..         MOV       ?V3,A
   \   000006   85..82       MOV       DPL,?V2
   \   000009   F583         MOV       DPH,A
   \   00000B                REQUIRE ??Subroutine270_0
   \   00000B                ; // Fall through to label ??Subroutine270_0

   \                                 In  segment BANKED_CODE, align 1, keep-with-next
   \                     ??Subroutine270_0:
   \   000000   E0           MOVX      A,@DPTR
   \   000001   8A82         MOV       DPL,R2
   \   000003   8B83         MOV       DPH,R3
   \   000005   22           RET

   \                                 In  segment BANKED_CODE, align 1, keep-with-next
   \                     ?Subroutine28:
   \   000000   8E82         MOV       DPL,R6
   \   000002   8F83         MOV       DPH,R7
   \   000004   A3           INC       DPTR
   \   000005   E0           MOVX      A,@DPTR
   \   000006   8A82         MOV       DPL,R2
   \   000008   8B83         MOV       DPH,R3
   \   00000A                REQUIRE ??Subroutine280_0
   \   00000A                ; // Fall through to label ??Subroutine280_0

   \                                 In  segment BANKED_CODE, align 1, keep-with-next
   \                     ??Subroutine280_0:
   \   000000   F0           MOVX      @DPTR,A
   \   000001   8E82         MOV       DPL,R6
   \   000003   8F83         MOV       DPH,R7
   \   000005   E0           MOVX      A,@DPTR
   \   000006   22           RET
   2471          
   2472          #if ( ZG_BUILD_COORDINATOR_TYPE )
   2473          #ifdef ZDO_ENDDEVICEBIND_RESPONSE
   2474          /*********************************************************************
   2475           * @fn      ZDO_MatchEndDeviceBind()
   2476           *
   2477           * @brief
   2478           *
   2479           *   Called to match end device binding requests
   2480           *
   2481           * @param  bindReq  - binding request information
   2482           * @param  SecurityUse - Security enable/disable
   2483           *
   2484           * @return  none
   2485           */

   \                                 In  segment BANKED_CODE, align 1, keep-with-next
   2486          void ZDO_MatchEndDeviceBind( ZDEndDeviceBind_t *bindReq )
   \                     ZDO_MatchEndDeviceBind:
   2487          {
   \   000000                REQUIRE ?V0
   \   000000                REQUIRE ?V1
   \   000000                REQUIRE ?V2
   \   000000                REQUIRE ?V4
   \   000000                REQUIRE ?V5
   \   000000                REQUIRE ?V6
   \   000000                REQUIRE ?V7
   \   000000   74F0         MOV       A,#-0x10
   \   000002   12....       LCALL     ?BANKED_ENTER_XDATA
   \   000005                ; Saved register size: 16
   \   000005                ; Auto size: 10
   \   000005   74F6         MOV       A,#-0xa
   \   000007   12....       LCALL     ?ALLOC_XSTACK8
   \   00000A   8A..         MOV       ?V6,R2
   \   00000C   8B..         MOV       ?V7,R3
   2488            zAddrType_t dstAddr;
   2489            uint8 sendRsp = FALSE;
   \   00000E   7E00         MOV       R6,#0x0
   2490            uint8 status;
   2491          
   2492            // Is this the first request?
   2493            if ( matchED == NULL )
   \   000010   90....       MOV       DPTR,#matchED
   \   000013   12....       LCALL     ??Subroutine242_0 & 0xFFFF
   \                     ??CrossCallReturnLabel_463:
   \   000016   704A         JNZ       ??ZDO_MatchEndDeviceBind_0
   2494            {
   2495              // Create match info structure
   2496              matchED = (ZDMatchEndDeviceBind_t *)osal_mem_alloc( sizeof ( ZDMatchEndDeviceBind_t ) );
   \   000018                ; Setup parameters for call to function osal_mem_alloc
   \   000018   7A37         MOV       R2,#0x37
   \   00001A   7B00         MOV       R3,#0x0
   \   00001C   12....       LCALL     `??osal_mem_alloc::?relay`; Banked call to: osal_mem_alloc
   \   00001F   90....       MOV       DPTR,#matchED
   \   000022   12....       LCALL     ?Subroutine41 & 0xFFFF
   2497              if ( matchED )
   \                     ??CrossCallReturnLabel_373:
   \   000025   F9           MOV       R1,A
   \   000026   EA           MOV       A,R2
   \   000027   49           ORL       A,R1
   \   000028   6019         JZ        ??ZDO_MatchEndDeviceBind_1
   2498              {
   2499                // Clear the structure
   2500                osal_memset( (uint8 *)matchED, 0, sizeof ( ZDMatchEndDeviceBind_t ) );
   \   00002A                ; Setup parameters for call to function osal_memset
   \   00002A   7C37         MOV       R4,#0x37
   \   00002C   7D00         MOV       R5,#0x0
   \   00002E   7900         MOV       R1,#0x0
   \   000030   12....       LCALL     `??osal_memset::?relay`; Banked call to: osal_memset
   2501          
   2502                // Copy the first request's information
   2503                if ( !ZDO_CopyMatchInfo( &(matchED->ed1), bindReq ) )
   \   000033                ; Setup parameters for call to function ZDO_CopyMatchInfo
   \   000033   AC..         MOV       R4,?V6
   \   000035   AD..         MOV       R5,?V7
   \   000037   90....       MOV       DPTR,#matchED
   \   00003A   12....       LCALL     ??Subroutine235_0 & 0xFFFF
   2504                {
   2505                  status = ZDP_NO_ENTRY;
   2506                  sendRsp = TRUE;
   2507                }
   2508              }
   \                     ??CrossCallReturnLabel_414:
   \   00003D   12....       LCALL     `??ZDO_CopyMatchInfo::?relay`; Banked call to: ZDO_CopyMatchInfo
   \   000040   E9           MOV       A,R1
   \   000041   700B         JNZ       ??ZDO_MatchEndDeviceBind_2
   2509              else
   2510              {
   2511                status = ZDP_NO_ENTRY;
   \                     ??ZDO_MatchEndDeviceBind_1:
   \   000043   85..82       MOV       DPL,?XSP + 0
   \   000046   85..83       MOV       DPH,?XSP + 1
   \   000049   7488         MOV       A,#-0x78
   \   00004B   02....       LJMP      ??ZDO_MatchEndDeviceBind_3 & 0xFFFF
   2512                sendRsp = TRUE;
   2513              }
   2514          
   2515              if ( !sendRsp )
   2516              {
   2517                // Set into the correct state
   2518                matchED->state = ZDMATCH_WAIT_REQ;
   \                     ??ZDO_MatchEndDeviceBind_2:
   \   00004E   12....       LCALL     ??Subroutine288_0 & 0xFFFF
   \                     ??CrossCallReturnLabel_717:
   \   000051   242E         ADD       A,#0x2e
   \   000053   F582         MOV       DPL,A
   \   000055   E4           CLR       A
   \   000056   38           ADDC      A,R0
   \   000057   F583         MOV       DPH,A
   \   000059   7401         MOV       A,#0x1
   \   00005B   F0           MOVX      @DPTR,A
   2519          
   2520                // Setup the timeout
   2521                APS_SetEndDeviceBindTimeout( AIB_MaxBindingTime, ZDO_EndDeviceBindMatchTimeoutCB );
   \   00005C                ; Setup parameters for call to function APS_SetEndDeviceBindTimeout
   \   00005C   12....       LCALL     ?Subroutine105 & 0xFFFF
   2522              }
   2523            }
   \                     ??CrossCallReturnLabel_173:
   \   00005F   02....       LJMP      ??ZDO_MatchEndDeviceBind_4 & 0xFFFF
   2524            else
   2525            {
   2526                matchED->state = ZDMATCH_SENDING_BINDS;
   \                     ??ZDO_MatchEndDeviceBind_0:
   \   000062   E8           MOV       A,R0
   \   000063   242E         ADD       A,#0x2e
   \   000065   F582         MOV       DPL,A
   \   000067   E4           CLR       A
   \   000068   39           ADDC      A,R1
   \   000069   F583         MOV       DPH,A
   \   00006B   7402         MOV       A,#0x2
   \   00006D   F0           MOVX      @DPTR,A
   2527          
   2528                // Copy the 2nd request's information
   2529                if ( !ZDO_CopyMatchInfo( &(matchED->ed2), bindReq ) )
   \   00006E                ; Setup parameters for call to function ZDO_CopyMatchInfo
   \   00006E   AC..         MOV       R4,?V6
   \   000070   AD..         MOV       R5,?V7
   \   000072   12....       LCALL     ?Subroutine117 & 0xFFFF
   \                     ??CrossCallReturnLabel_193:
   \   000075   12....       LCALL     `??ZDO_CopyMatchInfo::?relay`; Banked call to: ZDO_CopyMatchInfo
   \   000078   E9           MOV       A,R1
   \   000079   700B         JNZ       ??ZDO_MatchEndDeviceBind_5
   2530                {
   2531                  status = ZDP_NO_ENTRY;
   \   00007B   85..82       MOV       DPL,?XSP + 0
   \   00007E   85..83       MOV       DPH,?XSP + 1
   \   000081   7488         MOV       A,#-0x78
   \   000083   F0           MOVX      @DPTR,A
   2532                  sendRsp = TRUE;
   \   000084   7E01         MOV       R6,#0x1
   2533                }
   2534          
   2535                // Make a source match for ed1
   2536                matchED->ed1numMatched = ZDO_CompareClusterLists(
   2537                            matchED->ed1.numOutClusters, matchED->ed1.outClusters,
   2538                            matchED->ed2.numInClusters, matchED->ed2.inClusters, ZDOBuildBuf );
   \                     ??ZDO_MatchEndDeviceBind_5:
   \   000086                ; Setup parameters for call to function ZDO_CompareClusterLists
   \   000086   75....       MOV       ?V0,#ZDOBuildBuf & 0xff
   \   000089   75....       MOV       ?V1,#(ZDOBuildBuf >> 8) & 0xff
   \   00008C   78..         MOV       R0,#?V0
   \   00008E   12....       LCALL     ?PUSH_XSTACK_I_TWO
   \   000091   12....       LCALL     ??Subroutine288_0 & 0xFFFF
   \                     ??CrossCallReturnLabel_718:
   \   000094   2429         ADD       A,#0x29
   \   000096   F582         MOV       DPL,A
   \   000098   E4           CLR       A
   \   000099   38           ADDC      A,R0
   \   00009A   F583         MOV       DPH,A
   \   00009C   12....       LCALL     ?PUSH_XSTACK8_X_TWO
   \   00009F   12....       LCALL     ??Subroutine288_0 & 0xFFFF
   \                     ??CrossCallReturnLabel_719:
   \   0000A2   2428         ADD       A,#0x28
   \   0000A4   12....       LCALL     ?Subroutine152 & 0xFFFF
   \                     ??CrossCallReturnLabel_262:
   \   0000A7   FC           MOV       R4,A
   \   0000A8   12....       LCALL     ??Subroutine288_0 & 0xFFFF
   \                     ??CrossCallReturnLabel_720:
   \   0000AB   2415         ADD       A,#0x15
   \   0000AD   12....       LCALL     ?Subroutine84 & 0xFFFF
   \                     ??CrossCallReturnLabel_141:
   \   0000B0   2414         ADD       A,#0x14
   \   0000B2   12....       LCALL     ?Subroutine150 & 0xFFFF
   \                     ??CrossCallReturnLabel_258:
   \   0000B5   12....       LCALL     ?DEALLOC_XSTACK8
   \   0000B8   E9           MOV       A,R1
   \   0000B9   F8           MOV       R0,A
   \   0000BA   12....       LCALL     ??Subroutine288_0 & 0xFFFF
   \                     ??CrossCallReturnLabel_721:
   \   0000BD   2431         ADD       A,#0x31
   \   0000BF   12....       LCALL     ?Subroutine20 & 0xFFFF
   2539                if ( matchED->ed1numMatched )
   \                     ??CrossCallReturnLabel_506:
   \   0000C2   2431         ADD       A,#0x31
   \   0000C4   12....       LCALL     ?Subroutine152 & 0xFFFF
   \                     ??CrossCallReturnLabel_263:
   \   0000C7   F8           MOV       R0,A
   \   0000C8   75..00       MOV       ?V2,#0x0
   \   0000CB   602F         JZ        ??ZDO_MatchEndDeviceBind_6
   2540                {
   2541                  // Save the match list
   2542                  matchED->ed1Matched = osal_mem_alloc( (short)(matchED->ed1numMatched * sizeof ( uint16 )) );
   \   0000CD                ; Setup parameters for call to function osal_mem_alloc
   \   0000CD   12....       LCALL     ?Subroutine90 & 0xFFFF
   \                     ??CrossCallReturnLabel_709:
   \   0000D0   2432         ADD       A,#0x32
   \   0000D2   F582         MOV       DPL,A
   \   0000D4   E4           CLR       A
   \   0000D5   38           ADDC      A,R0
   \   0000D6   12....       LCALL     ??Subroutine259_0 & 0xFFFF
   2543                  if ( matchED->ed1Matched )
   \                     ??CrossCallReturnLabel_546:
   \   0000D9   6016         JZ        ??ZDO_MatchEndDeviceBind_7
   2544                  {
   2545                    osal_memcpy( matchED->ed1Matched, ZDOBuildBuf, (matchED->ed1numMatched * sizeof ( uint16 )) );
   \   0000DB                ; Setup parameters for call to function osal_memcpy
   \   0000DB   78..         MOV       R0,#?V0
   \   0000DD   12....       LCALL     ?PUSH_XSTACK_I_THREE
   \   0000E0   12....       LCALL     ??Subroutine288_0 & 0xFFFF
   2546                  }
   \                     ??CrossCallReturnLabel_722:
   \   0000E3   2431         ADD       A,#0x31
   \   0000E5   F582         MOV       DPL,A
   \   0000E7   E4           CLR       A
   \   0000E8   38           ADDC      A,R0
   \   0000E9   12....       LCALL     ??Subroutine258_0 & 0xFFFF
   \                     ??CrossCallReturnLabel_542:
   \   0000EC   12....       LCALL     ?DEALLOC_XSTACK8
   \   0000EF   800B         SJMP      ??ZDO_MatchEndDeviceBind_6
   2547                  else
   2548                  {
   2549                    // Allocation error, stop
   2550                    status = ZDP_NO_ENTRY;
   \                     ??ZDO_MatchEndDeviceBind_7:
   \   0000F1   85..82       MOV       DPL,?XSP + 0
   \   0000F4   85..83       MOV       DPH,?XSP + 1
   \   0000F7   7488         MOV       A,#-0x78
   \   0000F9   F0           MOVX      @DPTR,A
   2551                    sendRsp = TRUE;
   \   0000FA   7E01         MOV       R6,#0x1
   2552                  }
   2553                }
   2554          
   2555                // Make a source match for ed2
   2556                matchED->ed2numMatched = ZDO_CompareClusterLists(
   2557                            matchED->ed2.numOutClusters, matchED->ed2.outClusters,
   2558                            matchED->ed1.numInClusters, matchED->ed1.inClusters, ZDOBuildBuf );
   \                     ??ZDO_MatchEndDeviceBind_6:
   \   0000FC                ; Setup parameters for call to function ZDO_CompareClusterLists
   \   0000FC   75....       MOV       ?V4,#ZDOBuildBuf & 0xff
   \   0000FF   75....       MOV       ?V5,#(ZDOBuildBuf >> 8) & 0xff
   \   000102   78..         MOV       R0,#?V4
   \   000104   12....       LCALL     ?PUSH_XSTACK_I_TWO
   \   000107   12....       LCALL     ??Subroutine288_0 & 0xFFFF
   \                     ??CrossCallReturnLabel_723:
   \   00010A   2412         ADD       A,#0x12
   \   00010C   F582         MOV       DPL,A
   \   00010E   E4           CLR       A
   \   00010F   38           ADDC      A,R0
   \   000110   F583         MOV       DPH,A
   \   000112   12....       LCALL     ?PUSH_XSTACK8_X_TWO
   \   000115   12....       LCALL     ??Subroutine288_0 & 0xFFFF
   \                     ??CrossCallReturnLabel_724:
   \   000118   2411         ADD       A,#0x11
   \   00011A   12....       LCALL     ?Subroutine152 & 0xFFFF
   \                     ??CrossCallReturnLabel_264:
   \   00011D   FC           MOV       R4,A
   \   00011E   12....       LCALL     ??Subroutine288_0 & 0xFFFF
   \                     ??CrossCallReturnLabel_725:
   \   000121   242C         ADD       A,#0x2c
   \   000123   12....       LCALL     ?Subroutine84 & 0xFFFF
   \                     ??CrossCallReturnLabel_142:
   \   000126   242B         ADD       A,#0x2b
   \   000128   12....       LCALL     ?Subroutine150 & 0xFFFF
   \                     ??CrossCallReturnLabel_259:
   \   00012B   12....       LCALL     ?DEALLOC_XSTACK8
   \   00012E   E9           MOV       A,R1
   \   00012F   F8           MOV       R0,A
   \   000130   12....       LCALL     ??Subroutine288_0 & 0xFFFF
   \                     ??CrossCallReturnLabel_726:
   \   000133   2434         ADD       A,#0x34
   \   000135   12....       LCALL     ?Subroutine20 & 0xFFFF
   2559                if ( matchED->ed2numMatched )
   \                     ??CrossCallReturnLabel_507:
   \   000138   2434         ADD       A,#0x34
   \   00013A   12....       LCALL     ?Subroutine152 & 0xFFFF
   \                     ??CrossCallReturnLabel_265:
   \   00013D   6022         JZ        ??ZDO_MatchEndDeviceBind_8
   2560                {
   2561                  // Save the match list
   2562                  matchED->ed2Matched = osal_mem_alloc( (short)(matchED->ed2numMatched * sizeof ( uint16 )) );
   \   00013F                ; Setup parameters for call to function osal_mem_alloc
   \   00013F   12....       LCALL     ?Subroutine90 & 0xFFFF
   \                     ??CrossCallReturnLabel_710:
   \   000142   2435         ADD       A,#0x35
   \   000144   F582         MOV       DPL,A
   \   000146   E4           CLR       A
   \   000147   38           ADDC      A,R0
   \   000148   12....       LCALL     ??Subroutine259_0 & 0xFFFF
   2563                  if ( matchED->ed2Matched )
   \                     ??CrossCallReturnLabel_547:
   \   00014B   6032         JZ        ??ZDO_MatchEndDeviceBind_9
   2564                  {
   2565                    osal_memcpy( matchED->ed2Matched, ZDOBuildBuf, (matchED->ed2numMatched * sizeof ( uint16 )) );
   \   00014D                ; Setup parameters for call to function osal_memcpy
   \   00014D   78..         MOV       R0,#?V0
   \   00014F   12....       LCALL     ?PUSH_XSTACK_I_THREE
   \   000152   12....       LCALL     ??Subroutine288_0 & 0xFFFF
   2566                  }
   \                     ??CrossCallReturnLabel_727:
   \   000155   2434         ADD       A,#0x34
   \   000157   F582         MOV       DPL,A
   \   000159   E4           CLR       A
   \   00015A   38           ADDC      A,R0
   \   00015B   12....       LCALL     ??Subroutine258_0 & 0xFFFF
   \                     ??CrossCallReturnLabel_543:
   \   00015E   12....       LCALL     ?DEALLOC_XSTACK8
   2567                  else
   2568                  {
   2569                    // Allocation error, stop
   2570                    status = ZDP_NO_ENTRY;
   2571                    sendRsp = TRUE;
   2572                  }
   2573                }
   2574          
   2575                if ( (sendRsp == FALSE) && (matchED->ed1numMatched || matchED->ed2numMatched) )
   \                     ??ZDO_MatchEndDeviceBind_8:
   \   000161   EE           MOV       A,R6
   \   000162   A2E0         MOV       C,0xE0 /* A   */.0
   \   000164   4022         JC        ??ZDO_MatchEndDeviceBind_10
   \   000166   12....       LCALL     ?Subroutine81 & 0xFFFF
   \                     ??CrossCallReturnLabel_135:
   \   000169   7008         JNZ       ??ZDO_MatchEndDeviceBind_11
   \   00016B   90....       MOV       DPTR,#matchED
   \   00016E   12....       LCALL     ?Subroutine82 & 0xFFFF
   \                     ??CrossCallReturnLabel_137:
   \   000171   6015         JZ        ??ZDO_MatchEndDeviceBind_10
   2576                {
   2577                  // Do the first unbind/bind state
   2578                  ZDMatchSendState( ZDMATCH_REASON_START, ZDP_SUCCESS, 0 );
   \                     ??ZDO_MatchEndDeviceBind_11:
   \   000173                ; Setup parameters for call to function ZDMatchSendState
   \   000173   7B00         MOV       R3,#0x0
   \   000175   7A00         MOV       R2,#0x0
   \   000177   7900         MOV       R1,#0x0
   \   000179   12....       LCALL     `??ZDMatchSendState::?relay`; Banked call to: ZDMatchSendState
   2579                }
   2580                else
   2581                {
   2582                  status = ZDP_NO_MATCH;
   2583                  sendRsp = TRUE;
   2584                }
   2585            }
   2586          
   2587            if ( sendRsp )
   \   00017C   02....       LJMP      ??ZDO_MatchEndDeviceBind_4 & 0xFFFF
   \                     ??ZDO_MatchEndDeviceBind_9:
   \   00017F   85..82       MOV       DPL,?XSP + 0
   \   000182   85..83       MOV       DPH,?XSP + 1
   \   000185   7488         MOV       A,#-0x78
   \   000187   F0           MOVX      @DPTR,A
   \                     ??ZDO_MatchEndDeviceBind_10:
   \   000188   85..82       MOV       DPL,?XSP + 0
   \   00018B   85..83       MOV       DPH,?XSP + 1
   \   00018E   7486         MOV       A,#-0x7a
   \                     ??ZDO_MatchEndDeviceBind_3:
   \   000190   F0           MOVX      @DPTR,A
   2588            {
   2589              // send response to this requester
   2590              dstAddr.addrMode = Addr16Bit;
   \   000191   7409         MOV       A,#0x9
   \   000193   12....       LCALL     ?XSTACK_DISP0_8
   \   000196   7402         MOV       A,#0x2
   \   000198   12....       LCALL     ?Subroutine46 & 0xFFFF
   2591              dstAddr.addr.shortAddr = bindReq->srcAddr;
   \                     ??CrossCallReturnLabel_75:
   \   00019B   12....       LCALL     ?Subroutine94 & 0xFFFF
   \                     ??CrossCallReturnLabel_158:
   \   00019E   12....       LCALL     ?XSTACK_DISP0_8
   \   0001A1   12....       LCALL     ??Subroutine232_0 & 0xFFFF
   2592              ZDP_EndDeviceBindRsp( bindReq->TransSeq, &dstAddr, status, bindReq->SecurityUse );
   \                     ??CrossCallReturnLabel_392:
   \   0001A4                ; Setup parameters for call to function ZDP_SendData
   \   0001A4   85..82       MOV       DPL,?V6
   \   0001A7   85..83       MOV       DPH,?V7
   \   0001AA   A3           INC       DPTR
   \   0001AB   12....       LCALL     ??Subroutine240_0 & 0xFFFF
   \                     ??CrossCallReturnLabel_434:
   \   0001AE   12....       LCALL     ?PUSH_XSTACK_I_ONE
   \   0001B1   7401         MOV       A,#0x1
   \   0001B3   12....       LCALL     ?XSTACK_DISP100_8
   \   0001B6   88..         MOV       ?V0,R0
   \   0001B8   89..         MOV       ?V1,R1
   \   0001BA   78..         MOV       R0,#?V0
   \   0001BC   12....       LCALL     ?PUSH_XSTACK_I_TWO
   \   0001BF   75..20       MOV       ?V0,#0x20
   \   0001C2   75..80       MOV       ?V1,#-0x80
   \   0001C5   78..         MOV       R0,#?V0
   \   0001C7   12....       LCALL     ?PUSH_XSTACK_I_TWO
   \   0001CA   7901         MOV       R1,#0x1
   \   0001CC   7406         MOV       A,#0x6
   \   0001CE   12....       LCALL     ?XSTACK_DISP102_8
   \   0001D1   AA..         MOV       R2,?V6
   \   0001D3   AB..         MOV       R3,?V7
   \   0001D5   12....       LCALL     ?Subroutine161 & 0xFFFF
   \                     ??CrossCallReturnLabel_280:
   \   0001D8   12....       LCALL     ?DEALLOC_XSTACK8
   2593          
   2594              if ( matchED->state == ZDMATCH_SENDING_BINDS )
   \   0001DB   12....       LCALL     ?Subroutine68 & 0xFFFF
   \                     ??CrossCallReturnLabel_111:
   \   0001DE   7042         JNZ       ??ZDO_MatchEndDeviceBind_12
   2595              {
   2596                // send response to first requester
   2597                dstAddr.addrMode = Addr16Bit;
   \   0001E0   7409         MOV       A,#0x9
   \   0001E2   12....       LCALL     ?XSTACK_DISP0_8
   \   0001E5   7402         MOV       A,#0x2
   \   0001E7   12....       LCALL     ?Subroutine49 & 0xFFFF
   2598                dstAddr.addr.shortAddr = matchED->ed1.srcAddr;
   2599                ZDP_EndDeviceBindRsp( matchED->ed1.TransSeq, &dstAddr, status, matchED->ed1.SecurityUse );
   2600              }
   \                     ??CrossCallReturnLabel_80:
   \   0001EA   F583         MOV       DPH,A
   \   0001EC   8882         MOV       DPL,R0
   \   0001EE   A3           INC       DPTR
   \   0001EF   A3           INC       DPTR
   \   0001F0   12....       LCALL     ?Subroutine94 & 0xFFFF
   \                     ??CrossCallReturnLabel_159:
   \   0001F3   12....       LCALL     ?XSTACK_DISP0_8
   \   0001F6   12....       LCALL     ?Subroutine11 & 0xFFFF
   \                     ??CrossCallReturnLabel_6:
   \   0001F9   12....       LCALL     ?PUSH_XSTACK_I_ONE
   \   0001FC   7401         MOV       A,#0x1
   \   0001FE   12....       LCALL     ?XSTACK_DISP100_8
   \   000201   88..         MOV       ?V0,R0
   \   000203   89..         MOV       ?V1,R1
   \   000205   78..         MOV       R0,#?V0
   \   000207   12....       LCALL     ?PUSH_XSTACK_I_TWO
   \   00020A   75..20       MOV       ?V0,#0x20
   \   00020D   75..80       MOV       ?V1,#-0x80
   \   000210   78..         MOV       R0,#?V0
   \   000212   12....       LCALL     ?PUSH_XSTACK_I_TWO
   \   000215   7901         MOV       R1,#0x1
   \   000217   7406         MOV       A,#0x6
   \   000219   12....       LCALL     ?XSTACK_DISP102_8
   \   00021C   12....       LCALL     ?Subroutine100 & 0xFFFF
   \                     ??CrossCallReturnLabel_163:
   \   00021F   12....       LCALL     ?DEALLOC_XSTACK8
   2601          
   2602              // Process ended - release memory used
   2603              ZDO_RemoveMatchMemory();
   \                     ??ZDO_MatchEndDeviceBind_12:
   \   000222                ; Setup parameters for call to function ZDO_RemoveMatchMemory
   \   000222   12....       LCALL     `??ZDO_RemoveMatchMemory::?relay`; Banked call to: ZDO_RemoveMatchMemory
   2604            }
   2605          }
   \                     ??ZDO_MatchEndDeviceBind_4:
   \   000225   740A         MOV       A,#0xa
   \   000227   02....       LJMP      ??Subroutine223_0 & 0xFFFF

   \                                 In  segment BANKED_CODE, align 1, keep-with-next
   \                     ?Subroutine150:
   \   000000   12....       LCALL     ?Subroutine205 & 0xFFFF
   \                     ??CrossCallReturnLabel_554:
   \   000003   F9           MOV       R1,A
   \   000004   12....       LCALL     `??ZDO_CompareClusterLists::?relay`; Banked call to: ZDO_CompareClusterLists
   \   000007   7404         MOV       A,#0x4
   \   000009   22           RET

   \                                 In  segment BANKED_CODE, align 1, keep-with-next
   \                     ?Subroutine84:
   \   000000   F582         MOV       DPL,A
   \   000002   E4           CLR       A
   \   000003   38           ADDC      A,R0
   \   000004   F583         MOV       DPH,A
   \   000006   12....       LCALL     ?Subroutine182 & 0xFFFF
   \                     ??CrossCallReturnLabel_523:
   \   000009   12....       LCALL     ?Subroutine187 & 0xFFFF
   \                     ??CrossCallReturnLabel_741:
   \   00000C   22           RET

   \                                 In  segment BANKED_CODE, align 1, keep-with-next
   \                     ?Subroutine187:
   \   000000   90....       MOV       DPTR,#matchED
   \   000003                REQUIRE ??Subroutine251_0
   \   000003                ; // Fall through to label ??Subroutine251_0

   \                                 In  segment BANKED_CODE, align 1, keep-with-next
   \                     ?Subroutine20:
   \   000000   F582         MOV       DPL,A
   \   000002   E4           CLR       A
   \   000003   38           ADDC      A,R0
   \   000004   F583         MOV       DPH,A
   \   000006                REQUIRE ??Subroutine252_0
   \   000006                ; // Fall through to label ??Subroutine252_0

   \                                 In  segment BANKED_CODE, align 1, keep-with-next
   \                     ??Subroutine252_0:
   \   000000   12....       LCALL     ?Subroutine167 & 0xFFFF
   \                     ??CrossCallReturnLabel_509:
   \   000003   C8           XCH       A,R0
   \   000004   22           RET

   \                                 In  segment BANKED_CODE, align 1, keep-with-next
   \                     ?Subroutine167:
   \   000000   E9           MOV       A,R1
   \   000001                REQUIRE ??Subroutine253_0
   \   000001                ; // Fall through to label ??Subroutine253_0

   \                                 In  segment BANKED_CODE, align 1, keep-with-next
   \                     ??Subroutine253_0:
   \   000000   F0           MOVX      @DPTR,A
   \   000001                ; Setup parameters for call to function ZDP_SendData
   \   000001                ; Setup parameters for call to function ZDP_SendData
   \   000001                ; Setup parameters for call to function ZDP_SendData
   \   000001   90....       MOV       DPTR,#matchED
   \   000004   12....       LCALL     ?Subroutine221 & 0xFFFF
   \                     ??CrossCallReturnLabel_750:
   \   000007   22           RET

   \                                 In  segment BANKED_CODE, align 1, keep-with-next
   \                     ??Subroutine258_0:
   \   000000   F583         MOV       DPH,A
   \   000002   E0           MOVX      A,@DPTR
   \   000003   25E0         ADD       A,0xE0 /* A   */
   \   000005   FC           MOV       R4,A
   \   000006   E4           CLR       A
   \   000007   33           RLC       A
   \   000008   FD           MOV       R5,A
   \   000009   12....       LCALL     `??osal_memcpy::?relay`; Banked call to: osal_memcpy
   \   00000C   7403         MOV       A,#0x3
   \   00000E   22           RET

   \                                 In  segment BANKED_CODE, align 1, keep-with-next
   \                     ??Subroutine259_0:
   \   000000   F583         MOV       DPH,A
   \   000002   12....       LCALL     ?Subroutine174 & 0xFFFF
   \                     ??CrossCallReturnLabel_692:
   \   000005   EA           MOV       A,R2
   \   000006   4B           ORL       A,R3
   \   000007   22           RET

   \                                 In  segment BANKED_CODE, align 1, keep-with-next
   \                     ?Subroutine117:
   \   000000   90....       MOV       DPTR,#matchED
   \   000003   E0           MOVX      A,@DPTR
   \   000004   2417         ADD       A,#0x17
   \   000006   FA           MOV       R2,A
   \   000007   A3           INC       DPTR
   \   000008   E0           MOVX      A,@DPTR
   \   000009   3400         ADDC      A,#0x0
   \   00000B   FB           MOV       R3,A
   \   00000C   22           RET

   \                                 In  segment BANKED_CODE, align 1, keep-with-next
   \                     ?Subroutine105:
   \   000000   7C..         MOV       R4,#`??ZDO_EndDeviceBindMatchTimeoutCB::?relay` & 0xff
   \   000002   7D..         MOV       R5,#(`??ZDO_EndDeviceBindMatchTimeoutCB::?relay` >> 8) & 0xff
   \   000004   90....       MOV       DPTR,#AIB_MaxBindingTime
   \   000007   12....       LCALL     ?Subroutine182 & 0xFFFF
   \                     ??CrossCallReturnLabel_526:
   \   00000A   12....       LCALL     `??APS_SetEndDeviceBindTimeout::?relay`; Banked call to: APS_SetEndDeviceBindTimeout
   \   00000D   22           RET

   \                                 In  segment BANKED_CODE, align 1, keep-with-next
   \                     ?Subroutine100:
   \   000000   90....       MOV       DPTR,#matchED
   \   000003   12....       LCALL     ?Subroutine182 & 0xFFFF
   \                     ??CrossCallReturnLabel_524:
   \   000006   12....       LCALL     ??Subroutine238_0 & 0xFFFF
   \                     ??CrossCallReturnLabel_431:
   \   000009   22           RET

   \                                 In  segment BANKED_CODE, align 1, keep-with-next
   \                     ?Subroutine82:
   \   000000   12....       LCALL     ??Subroutine251_0 & 0xFFFF
   \                     ??CrossCallReturnLabel_738:
   \   000003   2434         ADD       A,#0x34
   \   000005   12....       LCALL     ?Subroutine205 & 0xFFFF
   \                     ??CrossCallReturnLabel_553:
   \   000008   22           RET

   \                                 In  segment BANKED_CODE, align 1, keep-with-next
   \                     ?Subroutine81:
   \   000000   12....       LCALL     ?Subroutine187 & 0xFFFF
   \                     ??CrossCallReturnLabel_740:
   \   000003   2431         ADD       A,#0x31
   \   000005   12....       LCALL     ?Subroutine205 & 0xFFFF
   \                     ??CrossCallReturnLabel_552:
   \   000008   22           RET

   \                                 In  segment BANKED_CODE, align 1, keep-with-next
   \                     ?Subroutine68:
   \   000000   12....       LCALL     ?Subroutine187 & 0xFFFF
   \                     ??CrossCallReturnLabel_739:
   \   000003   242E         ADD       A,#0x2e
   \   000005   12....       LCALL     ?Subroutine205 & 0xFFFF
   \                     ??CrossCallReturnLabel_549:
   \   000008   6402         XRL       A,#0x2
   \   00000A   22           RET

   \                                 In  segment BANKED_CODE, align 1, keep-with-next
   \                     ?Subroutine49:
   \   000000   12....       LCALL     ??Subroutine253_0 & 0xFFFF
   \                     ??CrossCallReturnLabel_511:
   \   000003   22           RET

   \                                 In  segment BANKED_CODE, align 1, keep-with-next
   \                     ?Subroutine11:
   \   000000   E8           MOV       A,R0
   \   000001   F0           MOVX      @DPTR,A
   \   000002   A3           INC       DPTR
   \   000003   12....       LCALL     ?Subroutine167 & 0xFFFF
   \                     ??CrossCallReturnLabel_510:
   \   000006   F583         MOV       DPH,A
   \   000008   8882         MOV       DPL,R0
   \   00000A   A3           INC       DPTR
   \   00000B   E0           MOVX      A,@DPTR
   \   00000C   F5..         MOV       ?V0,A
   \   00000E   78..         MOV       R0,#?V0
   \   000010   22           RET

   \                                 In  segment BANKED_CODE, align 1, keep-with-next
   \                     ?Subroutine90:
   \   000000   12....       LCALL     ?Subroutine200 & 0xFFFF
   \                     ??CrossCallReturnLabel_334:
   \   000003                REQUIRE ??Subroutine288_0
   \   000003                ; // Fall through to label ??Subroutine288_0

   \                                 In  segment BANKED_CODE, align 1, keep-with-next
   \                     ??Subroutine288_0:
   \   000000   90....       MOV       DPTR,#matchED
   \   000003                REQUIRE ??Subroutine289_0
   \   000003                ; // Fall through to label ??Subroutine289_0
   2606          #endif
   2607          
   2608          /*********************************************************************
   2609           * @fn      ZDO_RemoveMatchMemory()
   2610           *
   2611           * @brief   Called to clear the memory used for the end device bind.
   2612           *
   2613           * @param  none
   2614           *
   2615           * @return  none
   2616           */

   \                                 In  segment BANKED_CODE, align 1, keep-with-next
   2617          static void ZDO_RemoveMatchMemory( void )
   \                     ZDO_RemoveMatchMemory:
   2618          {
   \   000000   C082         PUSH      DPL
   \   000002   C083         PUSH      DPH
   \   000004                ; Saved register size: 2
   \   000004                ; Auto size: 0
   2619            if ( matchED != NULL )
   \   000004   90....       MOV       DPTR,#matchED
   \   000007   12....       LCALL     ??Subroutine242_0 & 0xFFFF
   \                     ??CrossCallReturnLabel_464:
   \   00000A   605D         JZ        ??ZDO_RemoveMatchMemory_0
   2620            {
   2621              if ( matchED->ed2Matched != NULL )
   \   00000C   E8           MOV       A,R0
   \   00000D   2435         ADD       A,#0x35
   \   00000F   F582         MOV       DPL,A
   \   000011   E4           CLR       A
   \   000012   39           ADDC      A,R1
   \   000013   12....       LCALL     ??Subroutine254_0 & 0xFFFF
   \                     ??CrossCallReturnLabel_514:
   \   000016   6003         JZ        ??ZDO_RemoveMatchMemory_1
   2622              {
   2623                osal_mem_free( matchED->ed2Matched );
   \   000018                ; Setup parameters for call to function osal_mem_free
   \   000018   12....       LCALL     `??osal_mem_free::?relay`; Banked call to: osal_mem_free
   2624              }
   2625              if ( matchED->ed1Matched != NULL )
   \                     ??ZDO_RemoveMatchMemory_1:
   \   00001B   12....       LCALL     ??Subroutine288_0 & 0xFFFF
   \                     ??CrossCallReturnLabel_728:
   \   00001E   2432         ADD       A,#0x32
   \   000020   12....       LCALL     ?Subroutine57 & 0xFFFF
   \                     ??CrossCallReturnLabel_518:
   \   000023   6003         JZ        ??ZDO_RemoveMatchMemory_2
   2626              {
   2627                osal_mem_free( matchED->ed1Matched );
   \   000025                ; Setup parameters for call to function osal_mem_free
   \   000025   12....       LCALL     `??osal_mem_free::?relay`; Banked call to: osal_mem_free
   2628              }
   2629              if ( matchED->ed1.inClusters != NULL )
   \                     ??ZDO_RemoveMatchMemory_2:
   \   000028   12....       LCALL     ??Subroutine288_0 & 0xFFFF
   \                     ??CrossCallReturnLabel_729:
   \   00002B   2412         ADD       A,#0x12
   \   00002D   12....       LCALL     ?Subroutine57 & 0xFFFF
   \                     ??CrossCallReturnLabel_519:
   \   000030   6003         JZ        ??ZDO_RemoveMatchMemory_3
   2630              {
   2631                osal_mem_free( matchED->ed1.inClusters );
   \   000032                ; Setup parameters for call to function osal_mem_free
   \   000032   12....       LCALL     `??osal_mem_free::?relay`; Banked call to: osal_mem_free
   2632              }
   2633              if ( matchED->ed1.outClusters != NULL )
   \                     ??ZDO_RemoveMatchMemory_3:
   \   000035   12....       LCALL     ??Subroutine288_0 & 0xFFFF
   \                     ??CrossCallReturnLabel_730:
   \   000038   2415         ADD       A,#0x15
   \   00003A   12....       LCALL     ?Subroutine57 & 0xFFFF
   \                     ??CrossCallReturnLabel_520:
   \   00003D   6003         JZ        ??ZDO_RemoveMatchMemory_4
   2634              {
   2635                osal_mem_free( matchED->ed1.outClusters );
   \   00003F                ; Setup parameters for call to function osal_mem_free
   \   00003F   12....       LCALL     `??osal_mem_free::?relay`; Banked call to: osal_mem_free
   2636              }
   2637              if ( matchED->ed2.inClusters != NULL )
   \                     ??ZDO_RemoveMatchMemory_4:
   \   000042   12....       LCALL     ??Subroutine288_0 & 0xFFFF
   \                     ??CrossCallReturnLabel_731:
   \   000045   2429         ADD       A,#0x29
   \   000047   12....       LCALL     ?Subroutine57 & 0xFFFF
   \                     ??CrossCallReturnLabel_521:
   \   00004A   6003         JZ        ??ZDO_RemoveMatchMemory_5
   2638              {
   2639                osal_mem_free( matchED->ed2.inClusters );
   \   00004C                ; Setup parameters for call to function osal_mem_free
   \   00004C   12....       LCALL     `??osal_mem_free::?relay`; Banked call to: osal_mem_free
   2640              }
   2641              if ( matchED->ed2.outClusters != NULL )
   \                     ??ZDO_RemoveMatchMemory_5:
   \   00004F   12....       LCALL     ??Subroutine288_0 & 0xFFFF
   \                     ??CrossCallReturnLabel_732:
   \   000052   242C         ADD       A,#0x2c
   \   000054   12....       LCALL     ?Subroutine57 & 0xFFFF
   \                     ??CrossCallReturnLabel_522:
   \   000057   6003         JZ        ??ZDO_RemoveMatchMemory_6
   2642              {
   2643                osal_mem_free( matchED->ed2.outClusters );
   \   000059                ; Setup parameters for call to function osal_mem_free
   \   000059   12....       LCALL     `??osal_mem_free::?relay`; Banked call to: osal_mem_free
   2644              }
   2645          
   2646              osal_mem_free( matchED );
   \                     ??ZDO_RemoveMatchMemory_6:
   \   00005C                ; Setup parameters for call to function osal_mem_free
   \   00005C   90....       MOV       DPTR,#matchED
   \   00005F   12....       LCALL     ??Subroutine246_0 & 0xFFFF
   2647              matchED = (ZDMatchEndDeviceBind_t *)NULL;
   \                     ??CrossCallReturnLabel_495:
   \   000062   90....       MOV       DPTR,#matchED
   \   000065   E4           CLR       A
   \   000066   F0           MOVX      @DPTR,A
   \   000067   A3           INC       DPTR
   \   000068   F0           MOVX      @DPTR,A
   2648            }
   2649          }
   \                     ??ZDO_RemoveMatchMemory_0:
   \   000069   02....       LJMP      ?Subroutine0 & 0xFFFF
   2650          
   2651          /*********************************************************************
   2652           * @fn      ZDO_CopyMatchInfo()
   2653           *
   2654           * @brief   Called to copy memory used for the end device bind.
   2655           *
   2656           * @param  srcReq - source information
   2657           * @param  dstReq - destination location
   2658           *
   2659           * @return  TRUE if copy was successful.
   2660           */

   \                                 In  segment BANKED_CODE, align 1, keep-with-next
   2661          static uint8 ZDO_CopyMatchInfo( ZDEndDeviceBind_t *destReq, ZDEndDeviceBind_t *srcReq )
   \                     ZDO_CopyMatchInfo:
   2662          {
   \   000000                REQUIRE ?V0
   \   000000                REQUIRE ?V1
   \   000000                REQUIRE ?V2
   \   000000                REQUIRE ?V4
   \   000000                REQUIRE ?V5
   \   000000                REQUIRE ?V6
   \   000000                REQUIRE ?V7
   \   000000   74F0         MOV       A,#-0x10
   \   000002   12....       LCALL     ?BANKED_ENTER_XDATA
   \   000005                ; Saved register size: 16
   \   000005                ; Auto size: 0
   \   000005   8A..         MOV       ?V6,R2
   \   000007   8B..         MOV       ?V7,R3
   \   000009   8C..         MOV       ?V4,R4
   \   00000B   8D..         MOV       ?V5,R5
   2663            uint8 allOK = TRUE;
   \   00000D   7E01         MOV       R6,#0x1
   2664          
   2665            // Copy bind information into the match info structure
   2666            osal_memcpy( (uint8 *)destReq, srcReq, sizeof ( ZDEndDeviceBind_t ) );
   \   00000F                ; Setup parameters for call to function osal_memcpy
   \   00000F   8C..         MOV       ?V0,R4
   \   000011   8D..         MOV       ?V1,R5
   \   000013   75..00       MOV       ?V2,#0x0
   \   000016   78..         MOV       R0,#?V0
   \   000018   12....       LCALL     ?PUSH_XSTACK_I_THREE
   \   00001B   7C17         MOV       R4,#0x17
   \   00001D   7D00         MOV       R5,#0x0
   \   00001F   12....       LCALL     ??Subroutine275_0 & 0xFFFF
   \                     ??CrossCallReturnLabel_632:
   \   000022   12....       LCALL     ?DEALLOC_XSTACK8
   \   000025   E5..         MOV       A,?V6
   \   000027   2412         ADD       A,#0x12
   \   000029   12....       LCALL     ?Subroutine160 & 0xFFFF
   \                     ??CrossCallReturnLabel_276:
   \   00002C   E5..         MOV       A,?V6
   \   00002E   2415         ADD       A,#0x15
   \   000030   12....       LCALL     ?Subroutine160 & 0xFFFF
   \                     ??CrossCallReturnLabel_277:
   \   000033   E5..         MOV       A,?V4
   \   000035   2411         ADD       A,#0x11
   \   000037   12....       LCALL     ?Subroutine149 & 0xFFFF
   \                     ??CrossCallReturnLabel_532:
   \   00003A   6022         JZ        ??ZDO_CopyMatchInfo_0
   2667          
   2668            // Initialize the destination cluster pointers
   2669            destReq->inClusters = NULL;
   2670            destReq->outClusters = NULL;
   2671          
   2672            // Copy input cluster IDs
   2673            if ( srcReq->numInClusters )
   2674            {
   2675              destReq->inClusters = osal_mem_alloc( (short)(srcReq->numInClusters * sizeof ( uint16 )) );
   \   00003C                ; Setup parameters for call to function osal_mem_alloc
   \   00003C   12....       LCALL     ?Subroutine128 & 0xFFFF
   \                     ??CrossCallReturnLabel_213:
   \   00003F   2412         ADD       A,#0x12
   \   000041   12....       LCALL     ?Subroutine25 & 0xFFFF
   2676              if ( destReq->inClusters )
   \                     ??CrossCallReturnLabel_544:
   \   000044   6016         JZ        ??ZDO_CopyMatchInfo_1
   2677              {
   2678                // Copy the clusters
   2679                osal_memcpy( (uint8*)(destReq->inClusters), (uint8 *)(srcReq->inClusters),
   2680                                (srcReq->numInClusters * sizeof ( uint16 )) );
   \   000046                ; Setup parameters for call to function osal_memcpy
   \   000046   E5..         MOV       A,?V4
   \   000048   2412         ADD       A,#0x12
   \   00004A   12....       LCALL     ?Subroutine77 & 0xFFFF
   2681              }
   \                     ??CrossCallReturnLabel_535:
   \   00004D   12....       LCALL     ?PUSH_XSTACK_I_THREE
   \   000050   E5..         MOV       A,?V4
   \   000052   2411         ADD       A,#0x11
   \   000054   12....       LCALL     ?Subroutine59 & 0xFFFF
   \                     ??CrossCallReturnLabel_540:
   \   000057   12....       LCALL     ?DEALLOC_XSTACK8
   \   00005A   8002         SJMP      ??ZDO_CopyMatchInfo_0
   2682              else
   2683              {
   2684                allOK = FALSE;
   \                     ??ZDO_CopyMatchInfo_1:
   \   00005C   7E00         MOV       R6,#0x0
   \                     ??ZDO_CopyMatchInfo_0:
   \   00005E   E5..         MOV       A,?V4
   \   000060   2414         ADD       A,#0x14
   2685              }
   2686            }
   \   000062   12....       LCALL     ?Subroutine149 & 0xFFFF
   \                     ??CrossCallReturnLabel_533:
   \   000065   601E         JZ        ??ZDO_CopyMatchInfo_2
   2687          
   2688            // Copy output cluster IDs
   2689            if ( srcReq->numOutClusters )
   2690            {
   2691              destReq->outClusters = osal_mem_alloc( (short)(srcReq->numOutClusters * sizeof ( uint16 )) );
   \   000067                ; Setup parameters for call to function osal_mem_alloc
   \   000067   12....       LCALL     ?Subroutine128 & 0xFFFF
   \                     ??CrossCallReturnLabel_214:
   \   00006A   2415         ADD       A,#0x15
   \   00006C   12....       LCALL     ?Subroutine25 & 0xFFFF
   2692              if ( destReq->outClusters )
   \                     ??CrossCallReturnLabel_545:
   \   00006F   6040         JZ        ??ZDO_CopyMatchInfo_3
   2693              {
   2694                // Copy the clusters
   2695                osal_memcpy( (uint8 *)(destReq->outClusters), (uint8 *)(srcReq->outClusters),
   2696                                (srcReq->numOutClusters * sizeof ( uint16 )) );
   \   000071                ; Setup parameters for call to function osal_memcpy
   \   000071   E5..         MOV       A,?V4
   \   000073   2415         ADD       A,#0x15
   \   000075   12....       LCALL     ?Subroutine77 & 0xFFFF
   2697              }
   \                     ??CrossCallReturnLabel_536:
   \   000078   12....       LCALL     ?PUSH_XSTACK_I_THREE
   \   00007B   E5..         MOV       A,?V4
   \   00007D   2414         ADD       A,#0x14
   \   00007F   12....       LCALL     ?Subroutine59 & 0xFFFF
   \                     ??CrossCallReturnLabel_541:
   \   000082   12....       LCALL     ?DEALLOC_XSTACK8
   2698              else
   2699              {
   2700                allOK = FALSE;
   2701              }
   2702            }
   2703          
   2704            if ( allOK == FALSE )
   \                     ??ZDO_CopyMatchInfo_2:
   \   000085   EE           MOV       A,R6
   \   000086   A2E0         MOV       C,0xE0 /* A   */.0
   \   000088   4022         JC        ??ZDO_CopyMatchInfo_4
   2705            {
   2706              if ( destReq->inClusters != NULL )
   \                     ??ZDO_CopyMatchInfo_5:
   \   00008A   E5..         MOV       A,?V6
   \   00008C   2412         ADD       A,#0x12
   \   00008E   F582         MOV       DPL,A
   \   000090   E4           CLR       A
   \   000091   35..         ADDC      A,?V7
   \   000093   12....       LCALL     ??Subroutine254_0 & 0xFFFF
   \                     ??CrossCallReturnLabel_515:
   \   000096   6003         JZ        ??ZDO_CopyMatchInfo_6
   2707              {
   2708                osal_mem_free( destReq->inClusters );
   \   000098                ; Setup parameters for call to function osal_mem_free
   \   000098   12....       LCALL     `??osal_mem_free::?relay`; Banked call to: osal_mem_free
   2709              }
   2710              if ( destReq->outClusters != NULL )
   \                     ??ZDO_CopyMatchInfo_6:
   \   00009B   E5..         MOV       A,?V6
   \   00009D   2415         ADD       A,#0x15
   \   00009F   F582         MOV       DPL,A
   \   0000A1   E4           CLR       A
   \   0000A2   35..         ADDC      A,?V7
   \   0000A4   12....       LCALL     ??Subroutine254_0 & 0xFFFF
   \                     ??CrossCallReturnLabel_516:
   \   0000A7   6003         JZ        ??ZDO_CopyMatchInfo_4
   2711              {
   2712                osal_mem_free( destReq->outClusters );
   \   0000A9                ; Setup parameters for call to function osal_mem_free
   \   0000A9   12....       LCALL     `??osal_mem_free::?relay`; Banked call to: osal_mem_free
   2713              }
   2714            }
   2715          
   2716            return ( allOK );
   \                     ??ZDO_CopyMatchInfo_4:
   \   0000AC   EE           MOV       A,R6
   \   0000AD   F9           MOV       R1,A
   \   0000AE   02....       LJMP      ??Subroutine224_0 & 0xFFFF
   \                     ??ZDO_CopyMatchInfo_3:
   \   0000B1   7E00         MOV       R6,#0x0
   \   0000B3   80D5         SJMP      ??ZDO_CopyMatchInfo_5
   2717          }

   \                                 In  segment BANKED_CODE, align 1, keep-with-next
   \                     ?Subroutine128:
   \   000000   12....       LCALL     ?Subroutine200 & 0xFFFF
   \                     ??CrossCallReturnLabel_332:
   \   000003   E5..         MOV       A,?V6
   \   000005   22           RET

   \                                 In  segment BANKED_CODE, align 1, keep-with-next
   \                     ?Subroutine77:
   \   000000   F582         MOV       DPL,A
   \   000002   E4           CLR       A
   \   000003   35..         ADDC      A,?V5
   \   000005   F583         MOV       DPH,A
   \   000007                REQUIRE ??Subroutine257_0
   \   000007                ; // Fall through to label ??Subroutine257_0

   \                                 In  segment BANKED_CODE, align 1, keep-with-next
   \                     ?Subroutine59:
   \   000000   F582         MOV       DPL,A
   \   000002   E4           CLR       A
   \   000003   35..         ADDC      A,?V5
   \   000005                REQUIRE ??Subroutine258_0
   \   000005                ; // Fall through to label ??Subroutine258_0

   \                                 In  segment BANKED_CODE, align 1, keep-with-next
   \                     ?Subroutine25:
   \   000000   F582         MOV       DPL,A
   \   000002   E4           CLR       A
   \   000003   35..         ADDC      A,?V7
   \   000005                REQUIRE ??Subroutine259_0
   \   000005                ; // Fall through to label ??Subroutine259_0
   2718          
   2719          /*********************************************************************
   2720           * @fn      ZDMatchSendState()
   2721           *
   2722           * @brief   State machine for the End device match message algorithm.
   2723           *
   2724           * @param  reason - state of algoritm
   2725           * @param  status - initial message status
   2726           * @param  TransSeq - next transaction sequence number
   2727           *
   2728           * @return  FALSE if error and we are not currently matching, TRUE
   2729           *          if success.
   2730           */

   \                                 In  segment BANKED_CODE, align 1, keep-with-next
   \                     ?Subroutine91:
   \   000000   F582         MOV       DPL,A
   \   000002   E4           CLR       A
   \   000003   38           ADDC      A,R0
   \   000004                REQUIRE ??Subroutine239_0
   \   000004                ; // Fall through to label ??Subroutine239_0

   \                                 In  segment BANKED_CODE, align 1, keep-with-next
   2731          uint8 ZDMatchSendState( uint8 reason, uint8 status, uint8 TransSeq )
   \                     ZDMatchSendState:
   2732          {
   \   000000                REQUIRE ?V0
   \   000000                REQUIRE ?V1
   \   000000                REQUIRE ?V2
   \   000000                REQUIRE ?V3
   \   000000                REQUIRE ?V4
   \   000000                REQUIRE ?V5
   \   000000                REQUIRE ?V6
   \   000000                REQUIRE ?V7
   \   000000   74F0         MOV       A,#-0x10
   \   000002   12....       LCALL     ?BANKED_ENTER_XDATA
   \   000005                ; Saved register size: 16
   \   000005                ; Auto size: 21
   \   000005   74EB         MOV       A,#-0x15
   \   000007   12....       LCALL     ?ALLOC_XSTACK8
   \   00000A   7401         MOV       A,#0x1
   \   00000C   12....       LCALL     ?XSTACK_DISP0_8
   \   00000F   EA           MOV       A,R2
   \   000010   F0           MOVX      @DPTR,A
   \   000011   7402         MOV       A,#0x2
   \   000013   12....       LCALL     ?XSTACK_DISP0_8
   \   000016   EB           MOV       A,R3
   \   000017   F0           MOVX      @DPTR,A
   \   000018   89..         MOV       ?V2,R1
   2733            uint8 *dstIEEEAddr = NULL;
   \   00001A   75..00       MOV       ?V4,#0x0
   \   00001D   75..00       MOV       ?V5,#0x0
   2734            uint8 dstEP = 0xFF;
   \   000020   75..FF       MOV       ?V3,#-0x1
   2735            zAddrType_t dstAddr;
   2736            zAddrType_t destinationAddr;
   2737            uint16 msgType;
   2738            uint16 clusterID = 0xFFFF;
   \   000023   7EFF         MOV       R6,#-0x1
   \   000025   7FFF         MOV       R7,#-0x1
   2739            ZDEndDeviceBind_t *ed = NULL;
   \   000027   75..00       MOV       ?V6,#0x0
   \   00002A   75..00       MOV       ?V7,#0x0
   2740            uint8 rspStatus = ZDP_SUCCESS;
   \   00002D   85..82       MOV       DPL,?XSP + 0
   \   000030   85..83       MOV       DPH,?XSP + 1
   \   000033   E4           CLR       A
   \   000034   12....       LCALL     ?Subroutine49 & 0xFFFF
   2741          
   2742            if ( matchED == NULL )
   \                     ??CrossCallReturnLabel_81:
   \   000037   F9           MOV       R1,A
   \   000038   E8           MOV       A,R0
   \   000039   49           ORL       A,R1
   \   00003A   6020         JZ        ??ZDMatchSendState_0
   2743            {
   2744              return ( FALSE );
   2745            }
   2746          
   2747            // Check sequence number
   2748            if ( reason == ZDMATCH_REASON_BIND_RSP || reason == ZDMATCH_REASON_UNBIND_RSP )
   \   00003C   7403         MOV       A,#0x3
   \   00003E   65..         XRL       A,?V2
   \   000040   6006         JZ        ??ZDMatchSendState_1
   \   000042   7402         MOV       A,#0x2
   \   000044   65..         XRL       A,?V2
   \   000046   7019         JNZ       ??ZDMatchSendState_2
   2749            {
   2750              if ( TransSeq != matchED->transSeq )
   \                     ??ZDMatchSendState_1:
   \   000048   7402         MOV       A,#0x2
   \   00004A   12....       LCALL     ?XSTACK_DISP0_8
   \   00004D   E0           MOVX      A,@DPTR
   \   00004E   F9           MOV       R1,A
   \   00004F   90....       MOV       DPTR,#matchED + 1
   \   000052   E0           MOVX      A,@DPTR
   \   000053   C8           XCH       A,R0
   \   000054   2430         ADD       A,#0x30
   \   000056   12....       LCALL     ?Subroutine152 & 0xFFFF
   \                     ??CrossCallReturnLabel_266:
   \   000059   69           XRL       A,R1
   \   00005A   6005         JZ        ??ZDMatchSendState_2
   2751              {
   2752                return( FALSE ); // ignore the message
   \                     ??ZDMatchSendState_0:
   \   00005C   7900         MOV       R1,#0x0
   \   00005E   02....       LJMP      ??ZDMatchSendState_3 & 0xFFFF
   2753              }
   2754            }
   2755          
   2756            // turn off timer
   2757            APS_SetEndDeviceBindTimeout( 0, ZDO_EndDeviceBindMatchTimeoutCB );
   \                     ??ZDMatchSendState_2:
   \   000061                ; Setup parameters for call to function APS_SetEndDeviceBindTimeout
   \   000061   7C..         MOV       R4,#`??ZDO_EndDeviceBindMatchTimeoutCB::?relay` & 0xff
   \   000063   7D..         MOV       R5,#(`??ZDO_EndDeviceBindMatchTimeoutCB::?relay` >> 8) & 0xff
   \   000065   7A00         MOV       R2,#0x0
   \   000067   7B00         MOV       R3,#0x0
   \   000069   12....       LCALL     `??APS_SetEndDeviceBindTimeout::?relay`; Banked call to: APS_SetEndDeviceBindTimeout
   2758          
   2759            if ( reason == ZDMATCH_REASON_TIMEOUT )
   \   00006C   7401         MOV       A,#0x1
   \   00006E   65..         XRL       A,?V2
   \   000070   700A         JNZ       ??ZDMatchSendState_4
   2760            {
   2761              rspStatus = ZDP_TIMEOUT;    // The process will stop
   \   000072   85..82       MOV       DPL,?XSP + 0
   \   000075   85..83       MOV       DPH,?XSP + 1
   \   000078   7485         MOV       A,#-0x7b
   \   00007A   8045         SJMP      ??ZDMatchSendState_5
   2762            }
   2763          
   2764            if ( reason == ZDMATCH_REASON_START || reason == ZDMATCH_REASON_BIND_RSP )
   \                     ??ZDMatchSendState_4:
   \   00007C   E5..         MOV       A,?V2
   \   00007E   6006         JZ        ??ZDMatchSendState_6
   \   000080   7403         MOV       A,#0x3
   \   000082   65..         XRL       A,?V2
   \   000084   701D         JNZ       ??ZDMatchSendState_7
   2765            {
   2766              matchED->sending = ZDMATCH_SENDING_UNBIND;
   \                     ??ZDMatchSendState_6:
   \   000086   90....       MOV       DPTR,#matchED
   \   000089   12....       LCALL     ?Subroutine75 & 0xFFFF
   \                     ??CrossCallReturnLabel_125:
   \   00008C   F0           MOVX      @DPTR,A
   2767          
   2768              if ( reason == ZDMATCH_REASON_BIND_RSP && status != ZDP_SUCCESS )
   \   00008D   7403         MOV       A,#0x3
   \   00008F   65..         XRL       A,?V2
   \   000091   7031         JNZ       ??ZDMatchSendState_8
   \   000093   7401         MOV       A,#0x1
   \   000095   12....       LCALL     ?XSTACK_DISP0_8
   \   000098   E0           MOVX      A,@DPTR
   \   000099   602D         JZ        ??ZDMatchSendState_9
   2769              {
   2770                rspStatus = status;
   \   00009B   85..82       MOV       DPL,?XSP + 0
   \   00009E   85..83       MOV       DPH,?XSP + 1
   \   0000A1   801E         SJMP      ??ZDMatchSendState_5
   2771              }
   2772            }
   2773            else if ( reason == ZDMATCH_REASON_UNBIND_RSP )
   \                     ??ZDMatchSendState_7:
   \   0000A3   7402         MOV       A,#0x2
   \   0000A5   65..         XRL       A,?V2
   \   0000A7   701F         JNZ       ??ZDMatchSendState_9
   2774            {
   2775              if ( status == ZDP_SUCCESS )
   \   0000A9   7401         MOV       A,#0x1
   \   0000AB   12....       LCALL     ?XSTACK_DISP0_8
   \   0000AE   E0           MOVX      A,@DPTR
   \   0000AF   90....       MOV       DPTR,#matchED
   \   0000B2   7005         JNZ       ??ZDMatchSendState_10
   2776              {
   2777                matchED->sending = ZDMATCH_SENDING_UNBIND;
   \   0000B4   12....       LCALL     ?Subroutine75 & 0xFFFF
   2778              }
   \                     ??CrossCallReturnLabel_126:
   \   0000B7   8008         SJMP      ??ZDMatchSendState_5
   2779              else
   2780              {
   2781                matchED->sending = ZDMATCH_SENDING_BIND;
   \                     ??ZDMatchSendState_10:
   \   0000B9   12....       LCALL     ??Subroutine289_0 & 0xFFFF
   2782              }
   2783            }
   \                     ??CrossCallReturnLabel_715:
   \   0000BC   12....       LCALL     ?Subroutine219 & 0xFFFF
   \                     ??CrossCallReturnLabel_352:
   \   0000BF   7402         MOV       A,#0x2
   \                     ??ZDMatchSendState_5:
   \   0000C1   F0           MOVX      @DPTR,A
   \   0000C2   8004         SJMP      ??ZDMatchSendState_9
   2784          
   2785            if ( reason != ZDMATCH_REASON_START && matchED->sending == ZDMATCH_SENDING_UNBIND )
   \                     ??ZDMatchSendState_8:
   \   0000C4   E5..         MOV       A,?V2
   \   0000C6   601D         JZ        ??ZDMatchSendState_11
   \                     ??ZDMatchSendState_9:
   \   0000C8   12....       LCALL     ?Subroutine69 & 0xFFFF
   \                     ??CrossCallReturnLabel_113:
   \   0000CB   7018         JNZ       ??ZDMatchSendState_11
   2786            {
   2787              // Move to the next cluster ID
   2788              if ( matchED->ed1numMatched )
   \   0000CD   90....       MOV       DPTR,#matchED
   \   0000D0   E0           MOVX      A,@DPTR
   \   0000D1   2431         ADD       A,#0x31
   \   0000D3   12....       LCALL     ?Subroutine121 & 0xFFFF
   \                     ??CrossCallReturnLabel_199:
   \   0000D6   700B         JNZ       ??ZDMatchSendState_12
   2789              {
   2790                matchED->ed1numMatched--;
   2791              }
   2792              else if ( matchED->ed2numMatched )
   \   0000D8   90....       MOV       DPTR,#matchED
   \   0000DB   E0           MOVX      A,@DPTR
   \   0000DC   2434         ADD       A,#0x34
   \   0000DE   12....       LCALL     ?Subroutine121 & 0xFFFF
   \                     ??CrossCallReturnLabel_200:
   \   0000E1   6002         JZ        ??ZDMatchSendState_11
   2793              {
   2794                matchED->ed2numMatched--;
   \                     ??ZDMatchSendState_12:
   \   0000E3   2E           ADD       A,R6
   \   0000E4   F0           MOVX      @DPTR,A
   2795              }
   2796            }
   2797          
   2798            // What message do we send now
   2799            if ( matchED->ed1numMatched )
   \                     ??ZDMatchSendState_11:
   \   0000E5   12....       LCALL     ?Subroutine81 & 0xFFFF
   \                     ??CrossCallReturnLabel_136:
   \   0000E8   F8           MOV       R0,A
   \   0000E9   90....       MOV       DPTR,#matchED
   \   0000EC   6016         JZ        ??ZDMatchSendState_13
   2800            {
   2801              ed = &(matchED->ed1);
   \   0000EE   E0           MOVX      A,@DPTR
   \   0000EF   F5..         MOV       ?V6,A
   \   0000F1   A3           INC       DPTR
   \   0000F2   E0           MOVX      A,@DPTR
   \   0000F3   12....       LCALL     ?Subroutine124 & 0xFFFF
   2802              clusterID = matchED->ed1Matched[matchED->ed1numMatched-1];
   2803              dstIEEEAddr = matchED->ed2.ieeeAddr;
   2804              dstEP = matchED->ed2.endpoint;
   2805            }
   \                     ??CrossCallReturnLabel_205:
   \   0000F6   2432         ADD       A,#0x32
   \   0000F8   12....       LCALL     ?Subroutine62 & 0xFFFF
   \                     ??CrossCallReturnLabel_98:
   \   0000FB   241D         ADD       A,#0x1d
   \   0000FD   12....       LCALL     ?Subroutine113 & 0xFFFF
   \                     ??CrossCallReturnLabel_185:
   \   000100   2425         ADD       A,#0x25
   \   000102   8021         SJMP      ??ZDMatchSendState_14
   2806            else if ( matchED->ed2numMatched )
   \                     ??ZDMatchSendState_13:
   \   000104   12....       LCALL     ?Subroutine82 & 0xFFFF
   \                     ??CrossCallReturnLabel_138:
   \   000107   F8           MOV       R0,A
   \   000108   6024         JZ        ??ZDMatchSendState_15
   2807            {
   2808              ed = &(matchED->ed2);
   \   00010A   90....       MOV       DPTR,#matchED
   \   00010D   E0           MOVX      A,@DPTR
   \   00010E   2417         ADD       A,#0x17
   \   000110   F5..         MOV       ?V6,A
   \   000112   A3           INC       DPTR
   \   000113   E0           MOVX      A,@DPTR
   \   000114   3400         ADDC      A,#0x0
   \   000116   12....       LCALL     ?Subroutine124 & 0xFFFF
   2809              clusterID = matchED->ed2Matched[matchED->ed2numMatched-1];
   2810              dstIEEEAddr = matchED->ed1.ieeeAddr;
   2811              dstEP = matchED->ed1.endpoint;
   2812            }
   \                     ??CrossCallReturnLabel_206:
   \   000119   2435         ADD       A,#0x35
   \   00011B   12....       LCALL     ?Subroutine62 & 0xFFFF
   \                     ??CrossCallReturnLabel_99:
   \   00011E   2406         ADD       A,#0x6
   \   000120   12....       LCALL     ?Subroutine113 & 0xFFFF
   \                     ??CrossCallReturnLabel_186:
   \   000123   240E         ADD       A,#0xe
   \                     ??ZDMatchSendState_14:
   \   000125   F582         MOV       DPL,A
   \   000127   E4           CLR       A
   \   000128   3A           ADDC      A,R2
   \   000129   F583         MOV       DPH,A
   \   00012B   E0           MOVX      A,@DPTR
   \   00012C   F5..         MOV       ?V3,A
   2813          
   2814            dstAddr.addrMode = Addr16Bit;
   \                     ??ZDMatchSendState_15:
   \   00012E   740B         MOV       A,#0xb
   \   000130   12....       LCALL     ?XSTACK_DISP0_8
   \   000133   7402         MOV       A,#0x2
   \   000135   12....       LCALL     ?Subroutine15 & 0xFFFF
   2815          
   2816            // Send the next message
   2817            if ( (rspStatus == ZDP_SUCCESS) && ed )
   \                     ??CrossCallReturnLabel_14:
   \   000138   6003         JZ        $+5
   \   00013A   02....       LJMP      ??ZDMatchSendState_16 & 0xFFFF
   \   00013D   E5..         MOV       A,?V6
   \   00013F   45..         ORL       A,?V7
   \   000141   7003         JNZ       $+5
   \   000143   02....       LJMP      ??ZDMatchSendState_16 & 0xFFFF
   2818            {
   2819              // Send unbind/bind message to source
   2820              if ( matchED->sending == ZDMATCH_SENDING_UNBIND )
   \   000146   12....       LCALL     ?Subroutine69 & 0xFFFF
   \                     ??CrossCallReturnLabel_114:
   \   000149   7005         JNZ       ??ZDMatchSendState_17
   2821              {
   2822                msgType = Unbind_req;
   \   00014B   75..22       MOV       ?V0,#0x22
   \   00014E   8003         SJMP      ??ZDMatchSendState_18
   2823              }
   2824              else
   2825              {
   2826                msgType = Bind_req;
   \                     ??ZDMatchSendState_17:
   \   000150   75..21       MOV       ?V0,#0x21
   \                     ??ZDMatchSendState_18:
   \   000153   75..00       MOV       ?V1,#0x0
   2827              }
   2828          
   2829              dstAddr.addr.shortAddr = ed->srcAddr;
   \   000156   85..82       MOV       DPL,?V6
   \   000159   85..83       MOV       DPH,?V7
   \   00015C   A3           INC       DPTR
   \   00015D   A3           INC       DPTR
   \   00015E   12....       LCALL     ?Subroutine95 & 0xFFFF
   \                     ??CrossCallReturnLabel_160:
   \   000161   12....       LCALL     ?XSTACK_DISP0_8
   \   000164   12....       LCALL     ??Subroutine232_0 & 0xFFFF
   2830          
   2831              // Save off the transaction sequence number
   2832              matchED->transSeq = ZDP_TransID;
   \                     ??CrossCallReturnLabel_393:
   \   000167   90....       MOV       DPTR,#ZDP_TransID
   \   00016A   E0           MOVX      A,@DPTR
   \   00016B   C0E0         PUSH      A
   \   00016D   12....       LCALL     ??Subroutine288_0 & 0xFFFF
   \                     ??CrossCallReturnLabel_733:
   \   000170   2430         ADD       A,#0x30
   \   000172   F582         MOV       DPL,A
   \   000174   E4           CLR       A
   \   000175   38           ADDC      A,R0
   \   000176   F583         MOV       DPH,A
   \   000178   D0E0         POP       A
   \   00017A   F0           MOVX      @DPTR,A
   2833          
   2834              destinationAddr.addrMode = Addr64Bit;
   \   00017B   7414         MOV       A,#0x14
   \   00017D   12....       LCALL     ?XSTACK_DISP0_8
   \   000180   7403         MOV       A,#0x3
   \   000182   F0           MOVX      @DPTR,A
   2835              osal_cpyExtAddr( destinationAddr.addr.extAddr, dstIEEEAddr );
   \   000183                ; Setup parameters for call to function sAddrExtCpy
   \   000183   AC..         MOV       R4,?V4
   \   000185   AD..         MOV       R5,?V5
   \   000187   740C         MOV       A,#0xc
   \   000189   12....       LCALL     ?XSTACK_DISP101_8
   \   00018C   12....       LCALL     ?Subroutine53 & 0xFFFF
   2836          
   2837              ZDP_BindUnbindReq( msgType, &dstAddr, ed->ieeeAddr, ed->endpoint, clusterID,
   2838                  &destinationAddr, dstEP, ed->SecurityUse );
   \                     ??CrossCallReturnLabel_85:
   \   00018F   E0           MOVX      A,@DPTR
   \   000190   F5..         MOV       ?V4,A
   \   000192   78..         MOV       R0,#?V4
   \   000194   12....       LCALL     ?PUSH_XSTACK_I_ONE
   \   000197   78..         MOV       R0,#?V3
   \   000199   12....       LCALL     ?PUSH_XSTACK_I_ONE
   \   00019C   740E         MOV       A,#0xe
   \   00019E   12....       LCALL     ?XSTACK_DISP100_8
   \   0001A1   88..         MOV       ?V4,R0
   \   0001A3   89..         MOV       ?V5,R1
   \   0001A5   78..         MOV       R0,#?V4
   \   0001A7   12....       LCALL     ?PUSH_XSTACK_I_TWO
   \   0001AA   8E..         MOV       ?V4,R6
   \   0001AC   8F..         MOV       ?V5,R7
   \   0001AE   78..         MOV       R0,#?V4
   \   0001B0   12....       LCALL     ?PUSH_XSTACK_I_TWO
   \   0001B3   E5..         MOV       A,?V6
   \   0001B5   2406         ADD       A,#0x6
   \   0001B7   F5..         MOV       ?V4,A
   \   0001B9   E4           CLR       A
   \   0001BA   35..         ADDC      A,?V7
   \   0001BC   F5..         MOV       ?V5,A
   \   0001BE   78..         MOV       R0,#?V4
   \   0001C0   12....       LCALL     ?PUSH_XSTACK_I_TWO
   \   0001C3   E5..         MOV       A,?V6
   \   0001C5   12....       LCALL     ??Subroutine272_0 & 0xFFFF
   \                     ??CrossCallReturnLabel_611:
   \   0001C8   35..         ADDC      A,?V7
   \   0001CA   F583         MOV       DPH,A
   \   0001CC   E0           MOVX      A,@DPTR
   \   0001CD   F9           MOV       R1,A
   \   0001CE   740B         MOV       A,#0xb
   \   0001D0   12....       LCALL     ?XSTACK_DISP102_8
   \   0001D3   AA..         MOV       R2,?V0
   \   0001D5   AB..         MOV       R3,?V1
   \   0001D7   12....       LCALL     `??ZDP_BindUnbindReq::?relay`; Banked call to: ZDP_BindUnbindReq
   \   0001DA   7408         MOV       A,#0x8
   \   0001DC   12....       LCALL     ?DEALLOC_XSTACK8
   2839          
   2840              // Set timeout for response
   2841              APS_SetEndDeviceBindTimeout( AIB_MaxBindingTime, ZDO_EndDeviceBindMatchTimeoutCB );
   \   0001DF                ; Setup parameters for call to function APS_SetEndDeviceBindTimeout
   \   0001DF   12....       LCALL     ?Subroutine105 & 0xFFFF
   2842            }
   \                     ??CrossCallReturnLabel_174:
   \   0001E2   02....       LJMP      ??ZDMatchSendState_19 & 0xFFFF
   2843            else
   2844            {
   2845              // Send the response messages to requesting devices
   2846              // send response to first requester
   2847              dstAddr.addr.shortAddr = matchED->ed1.srcAddr;
   \                     ??ZDMatchSendState_16:
   \   0001E5   90....       MOV       DPTR,#matchED
   \   0001E8   12....       LCALL     ?Subroutine72 & 0xFFFF
   \                     ??CrossCallReturnLabel_120:
   \   0001EB   7403         MOV       A,#0x3
   \   0001ED   12....       LCALL     ?XSTACK_DISP0_8
   \   0001F0   12....       LCALL     ?Subroutine11 & 0xFFFF
   2848              ZDP_EndDeviceBindRsp( matchED->ed1.TransSeq, &dstAddr, rspStatus, matchED->ed1.SecurityUse );
   \                     ??CrossCallReturnLabel_7:
   \   0001F3   12....       LCALL     ?PUSH_XSTACK_I_ONE
   \   0001F6   7401         MOV       A,#0x1
   \   0001F8   12....       LCALL     ?XSTACK_DISP100_8
   \   0001FB   88..         MOV       ?V0,R0
   \   0001FD   89..         MOV       ?V1,R1
   \   0001FF   78..         MOV       R0,#?V0
   \   000201   12....       LCALL     ?PUSH_XSTACK_I_TWO
   \   000204   75..20       MOV       ?V0,#0x20
   \   000207   75..80       MOV       ?V1,#-0x80
   \   00020A   78..         MOV       R0,#?V0
   \   00020C   12....       LCALL     ?PUSH_XSTACK_I_TWO
   \   00020F   7901         MOV       R1,#0x1
   \   000211   7408         MOV       A,#0x8
   \   000213   12....       LCALL     ?XSTACK_DISP102_8
   \   000216   12....       LCALL     ?Subroutine100 & 0xFFFF
   \                     ??CrossCallReturnLabel_164:
   \   000219   12....       LCALL     ?DEALLOC_XSTACK8
   2849          
   2850              // send response to second requester
   2851              if ( matchED->state == ZDMATCH_SENDING_BINDS )
   \   00021C   12....       LCALL     ?Subroutine68 & 0xFFFF
   \                     ??CrossCallReturnLabel_112:
   \   00021F   7048         JNZ       ??ZDMatchSendState_20
   2852              {
   2853                dstAddr.addr.shortAddr = matchED->ed2.srcAddr;
   \   000221   12....       LCALL     ??Subroutine288_0 & 0xFFFF
   2854                ZDP_EndDeviceBindRsp( matchED->ed2.TransSeq, &dstAddr, rspStatus, matchED->ed2.SecurityUse );
   2855              }
   \                     ??CrossCallReturnLabel_734:
   \   000224   2419         ADD       A,#0x19
   \   000226   F582         MOV       DPL,A
   \   000228   E4           CLR       A
   \   000229   38           ADDC      A,R0
   \   00022A   F583         MOV       DPH,A
   \   00022C   12....       LCALL     ?Subroutine95 & 0xFFFF
   \                     ??CrossCallReturnLabel_161:
   \   00022F   12....       LCALL     ?XSTACK_DISP0_8
   \   000232   E8           MOV       A,R0
   \   000233   F0           MOVX      @DPTR,A
   \   000234   A3           INC       DPTR
   \   000235   12....       LCALL     ??Subroutine252_0 & 0xFFFF
   \                     ??CrossCallReturnLabel_508:
   \   000238   2418         ADD       A,#0x18
   \   00023A   12....       LCALL     ?Subroutine91 & 0xFFFF
   \                     ??CrossCallReturnLabel_437:
   \   00023D   12....       LCALL     ?PUSH_XSTACK_I_ONE
   \   000240   7401         MOV       A,#0x1
   \   000242   12....       LCALL     ?XSTACK_DISP100_8
   \   000245   88..         MOV       ?V0,R0
   \   000247   89..         MOV       ?V1,R1
   \   000249   78..         MOV       R0,#?V0
   \   00024B   12....       LCALL     ?PUSH_XSTACK_I_TWO
   \   00024E   75..20       MOV       ?V0,#0x20
   \   000251   75..80       MOV       ?V1,#-0x80
   \   000254   78..         MOV       R0,#?V0
   \   000256   12....       LCALL     ?PUSH_XSTACK_I_TWO
   \   000259   7901         MOV       R1,#0x1
   \   00025B   7408         MOV       A,#0x8
   \   00025D   12....       LCALL     ?XSTACK_DISP102_8
   \   000260   12....       LCALL     ?Subroutine117 & 0xFFFF
   \                     ??CrossCallReturnLabel_194:
   \   000263   12....       LCALL     ?Subroutine161 & 0xFFFF
   \                     ??CrossCallReturnLabel_281:
   \   000266   12....       LCALL     ?DEALLOC_XSTACK8
   2856          
   2857              // Process ended - release memory used
   2858              ZDO_RemoveMatchMemory();
   \                     ??ZDMatchSendState_20:
   \   000269                ; Setup parameters for call to function ZDO_RemoveMatchMemory
   \   000269   12....       LCALL     `??ZDO_RemoveMatchMemory::?relay`; Banked call to: ZDO_RemoveMatchMemory
   2859            }
   2860          
   2861            return ( TRUE );
   \                     ??ZDMatchSendState_19:
   \   00026C   7901         MOV       R1,#0x1
   \                     ??ZDMatchSendState_3:
   \   00026E   02....       LJMP      ?Subroutine4 & 0xFFFF
   2862          }

   \                                 In  segment BANKED_CODE, align 1, keep-with-next
   \                     ?Subroutine124:
   \   000000   F5..         MOV       ?V7,A
   \   000002   12....       LCALL     ?Subroutine197 & 0xFFFF
   \                     ??CrossCallReturnLabel_328:
   \   000005   90....       MOV       DPTR,#matchED
   \   000008   12....       LCALL     ??Subroutine263_0 & 0xFFFF
   \                     ??CrossCallReturnLabel_566:
   \   00000B   CA           XCH       A,R2
   \   00000C   22           RET

   \                                 In  segment BANKED_CODE, align 1, keep-with-next
   \                     ?Subroutine121:
   \   000000   F8           MOV       R0,A
   \   000001   A3           INC       DPTR
   \   000002   E0           MOVX      A,@DPTR
   \   000003   3400         ADDC      A,#0x0
   \   000005   8882         MOV       DPL,R0
   \   000007   F583         MOV       DPH,A
   \   000009   E0           MOVX      A,@DPTR
   \   00000A   22           RET

   \                                 In  segment BANKED_CODE, align 1, keep-with-next
   \                     ?Subroutine113:
   \   000000   F5..         MOV       ?V4,A
   \   000002   A3           INC       DPTR
   \   000003   E0           MOVX      A,@DPTR
   \   000004   3400         ADDC      A,#0x0
   \   000006   F5..         MOV       ?V5,A
   \   000008   90....       MOV       DPTR,#matchED
   \   00000B   E0           MOVX      A,@DPTR
   \   00000C   22           RET

   \                                 In  segment BANKED_CODE, align 1, keep-with-next
   \                     ?Subroutine75:
   \   000000   12....       LCALL     ?Subroutine186 & 0xFFFF
   \                     ??CrossCallReturnLabel_320:
   \   000003   7401         MOV       A,#0x1
   \   000005   22           RET

   \                                 In  segment BANKED_CODE, align 1, keep-with-next
   \                     ?Subroutine69:
   \   000000   90....       MOV       DPTR,#matchED
   \   000003   12....       LCALL     ?Subroutine186 & 0xFFFF
   \                     ??CrossCallReturnLabel_319:
   \   000006   E0           MOVX      A,@DPTR
   \   000007   6401         XRL       A,#0x1
   \   000009   22           RET

   \                                 In  segment BANKED_CODE, align 1, keep-with-next
   \                     ?Subroutine186:
   \   000000   12....       LCALL     ?Subroutine215 & 0xFFFF
   \                     ??CrossCallReturnLabel_745:
   \   000003   12....       LCALL     ?Subroutine219 & 0xFFFF
   \                     ??CrossCallReturnLabel_353:
   \   000006   22           RET

   \                                 In  segment BANKED_CODE, align 1, keep-with-next
   \                     ?Subroutine219:
   \   000000   242F         ADD       A,#0x2f
   \   000002   F582         MOV       DPL,A
   \   000004   E4           CLR       A
   \   000005   38           ADDC      A,R0
   \   000006   F583         MOV       DPH,A
   \   000008   22           RET

   \                                 In  segment BANKED_CODE, align 1, keep-with-next
   \                     ?Subroutine62:
   \   000000   F582         MOV       DPL,A
   \   000002   E4           CLR       A
   \   000003   3A           ADDC      A,R2
   \   000004   F583         MOV       DPH,A
   \   000006   E0           MOVX      A,@DPTR
   \   000007   28           ADD       A,R0
   \   000008   F8           MOV       R0,A
   \   000009   A3           INC       DPTR
   \   00000A   E0           MOVX      A,@DPTR
   \   00000B   39           ADDC      A,R1
   \   00000C   F9           MOV       R1,A
   \   00000D   E8           MOV       A,R0
   \   00000E   24FE         ADD       A,#-0x2
   \   000010   F582         MOV       DPL,A
   \   000012   E9           MOV       A,R1
   \   000013   34FF         ADDC      A,#-0x1
   \   000015   12....       LCALL     ?Subroutine192 & 0xFFFF
   \                     ??CrossCallReturnLabel_596:
   \   000018   90....       MOV       DPTR,#matchED
   \   00001B   E0           MOVX      A,@DPTR
   \   00001C   22           RET

   \                                 In  segment BANKED_CODE, align 1, keep-with-next
   \                     ?Subroutine95:
   \   000000   12....       LCALL     ??Subroutine262_0 & 0xFFFF
   \                     ??CrossCallReturnLabel_559:
   \   000003   7403         MOV       A,#0x3
   \   000005   22           RET
   2863          
   2864          /*********************************************************************
   2865           * @fn      ZDO_EndDeviceBindMatchTimeoutCB()
   2866           *
   2867           * @brief   End device bind timeout.
   2868           *
   2869           * @param  none
   2870           *
   2871           * @return  none
   2872           */

   \                                 In  segment BANKED_CODE, align 1, keep-with-next
   2873          static void ZDO_EndDeviceBindMatchTimeoutCB( void )
   \                     ZDO_EndDeviceBindMatchTimeoutCB:
   2874          {
   \   000000   C082         PUSH      DPL
   \   000002   C083         PUSH      DPH
   \   000004                ; Saved register size: 2
   \   000004                ; Auto size: 0
   2875            ZDMatchSendState( ZDMATCH_REASON_TIMEOUT, ZDP_TIMEOUT, 0 );
   \   000004                ; Setup parameters for call to function ZDMatchSendState
   \   000004   7B00         MOV       R3,#0x0
   \   000006   7A85         MOV       R2,#-0x7b
   \   000008   7901         MOV       R1,#0x1
   \   00000A   12....       LCALL     `??ZDMatchSendState::?relay`; Banked call to: ZDMatchSendState
   2876          }
   \   00000D   02....       LJMP      ?Subroutine0 & 0xFFFF
   2877          #endif // ZG_BUILD_COORDINATOR_TYPE
   2878          
   2879          /*********************************************************************
   2880           * ZDO MESSAGE PARSING API FUNCTIONS
   2881           */
   2882          
   2883          #ifdef ZDO_ENDDEVICEBIND_RESPONSE
   2884          /*********************************************************************
   2885           * @fn          ZDO_ParseEndDeviceBindReq
   2886           *
   2887           * @brief       This function parses the End_Device_Bind_req message.
   2888           *
   2889           *     NOTE:  The clusters lists in bindReq are allocated in this
   2890           *            function and must be freed by that calling function.
   2891           *
   2892           * @param       inMsg  - incoming message (request)
   2893           * @param       bindReq - pointer to place to parse message to
   2894           *
   2895           * @return      none
   2896           */

   \                                 In  segment BANKED_CODE, align 1, keep-with-next
   2897          void ZDO_ParseEndDeviceBindReq( zdoIncomingMsg_t *inMsg, ZDEndDeviceBind_t *bindReq )
   \                     ZDO_ParseEndDeviceBindReq:
   2898          {
   \   000000                REQUIRE ?V0
   \   000000                REQUIRE ?V1
   \   000000                REQUIRE ?V2
   \   000000                REQUIRE ?V3
   \   000000                REQUIRE ?V4
   \   000000                REQUIRE ?V5
   \   000000                REQUIRE ?V6
   \   000000                REQUIRE ?V7
   \   000000   74F0         MOV       A,#-0x10
   \   000002   12....       LCALL     ?BANKED_ENTER_XDATA
   \   000005                ; Saved register size: 16
   \   000005                ; Auto size: 0
   \   000005   8C..         MOV       ?V0,R4
   \   000007   8D..         MOV       ?V1,R5
   2899            uint8 *msg;
   2900          
   2901            // Parse the message
   2902            bindReq->TransSeq = inMsg->TransSeq;
   \   000009   EA           MOV       A,R2
   \   00000A   12....       LCALL     ?Subroutine148 & 0xFFFF
   \                     ??CrossCallReturnLabel_256:
   \   00000D   3B           ADDC      A,R3
   \   00000E   12....       LCALL     ??Subroutine273_0 & 0xFFFF
   2903            bindReq->srcAddr = inMsg->srcAddr.addr.shortAddr;
   \                     ??CrossCallReturnLabel_616:
   \   000011   A3           INC       DPTR
   \   000012   12....       LCALL     ??Subroutine241_0 & 0xFFFF
   \                     ??CrossCallReturnLabel_443:
   \   000015   8C82         MOV       DPL,R4
   \   000017   8D83         MOV       DPH,R5
   \   000019   A3           INC       DPTR
   \   00001A   A3           INC       DPTR
   \   00001B   12....       LCALL     ??Subroutine232_0 & 0xFFFF
   2904            bindReq->SecurityUse = inMsg->SecurityUse;
   \                     ??CrossCallReturnLabel_394:
   \   00001E   EA           MOV       A,R2
   \   00001F   12....       LCALL     ??Subroutine272_0 & 0xFFFF
   \                     ??CrossCallReturnLabel_612:
   \   000022   3B           ADDC      A,R3
   \   000023   F583         MOV       DPH,A
   \   000025   12....       LCALL     ?Subroutine92 & 0xFFFF
   \                     ??CrossCallReturnLabel_151:
   \   000028   12....       LCALL     ?Subroutine32 & 0xFFFF
   2905            msg = inMsg->asdu;
   \                     ??CrossCallReturnLabel_47:
   \   00002B   12....       LCALL     ?Subroutine71 & 0xFFFF
   2906          
   2907            bindReq->localCoordinator = BUILD_UINT16( msg[0], msg[1] );
   \                     ??CrossCallReturnLabel_117:
   \   00002E   A3           INC       DPTR
   \   00002F   A3           INC       DPTR
   \   000030   A3           INC       DPTR
   \   000031   12....       LCALL     ?Subroutine16 & 0xFFFF
   2908            msg += 2;
   \                     ??CrossCallReturnLabel_578:
   \   000034   5001         JNC       ??ZDO_ParseEndDeviceBindReq_0
   \   000036   0F           INC       R7
   2909          
   2910            osal_cpyExtAddr( bindReq->ieeeAddr, msg );
   \                     ??ZDO_ParseEndDeviceBindReq_0:
   \   000037                ; Setup parameters for call to function sAddrExtCpy
   \   000037   FC           MOV       R4,A
   \   000038   EF           MOV       A,R7
   \   000039   FD           MOV       R5,A
   \   00003A   E5..         MOV       A,?V0
   \   00003C   2406         ADD       A,#0x6
   \   00003E   12....       LCALL     ?Subroutine51 & 0xFFFF
   2911            msg += Z_EXTADDR_LEN;
   2912          
   2913            bindReq->endpoint = *msg++;
   \                     ??CrossCallReturnLabel_570:
   \   000041   C0E0         PUSH      A
   \   000043   12....       LCALL     ?Subroutine142 & 0xFFFF
   \                     ??CrossCallReturnLabel_243:
   \   000046   D0E0         POP       A
   \   000048   12....       LCALL     ??Subroutine281_0 & 0xFFFF
   \                     ??CrossCallReturnLabel_671:
   \   00004B   5001         JNC       ??ZDO_ParseEndDeviceBindReq_1
   \   00004D   0F           INC       R7
   2914            bindReq->profileID = BUILD_UINT16( msg[0], msg[1] );
   \                     ??ZDO_ParseEndDeviceBindReq_1:
   \   00004E   12....       LCALL     ?Subroutine195 & 0xFFFF
   \                     ??CrossCallReturnLabel_567:
   \   000051   F9           MOV       R1,A
   \   000052   12....       LCALL     ?Subroutine145 & 0xFFFF
   \                     ??CrossCallReturnLabel_248:
   \   000055   EA           MOV       A,R2
   \   000056   12....       LCALL     ??Subroutine233_0 & 0xFFFF
   2915            msg += 2;
   2916          
   2917            bindReq->inClusters = NULL;
   \                     ??CrossCallReturnLabel_374:
   \   000059   E5..         MOV       A,?V0
   \   00005B   2412         ADD       A,#0x12
   \   00005D   F5..         MOV       ?V6,A
   \   00005F   E4           CLR       A
   \   000060   35..         ADDC      A,?V1
   \   000062   F5..         MOV       ?V7,A
   \   000064   85..82       MOV       DPL,?V6
   \   000067   F583         MOV       DPH,A
   \   000069   E4           CLR       A
   \   00006A   F0           MOVX      @DPTR,A
   \   00006B   A3           INC       DPTR
   \   00006C   F0           MOVX      @DPTR,A
   \   00006D   E5..         MOV       A,?V0
   \   00006F   2415         ADD       A,#0x15
   \   000071   12....       LCALL     ??Subroutine278_0 & 0xFFFF
   \                     ??CrossCallReturnLabel_642:
   \   000074   E4           CLR       A
   \   000075   F0           MOVX      @DPTR,A
   \   000076   A3           INC       DPTR
   \   000077   12....       LCALL     ?Subroutine50 & 0xFFFF
   2918            bindReq->outClusters = NULL;
   2919          
   2920            if ((bindReq->numInClusters = *msg++) &&
   2921                (bindReq->inClusters = (uint16*)osal_mem_alloc( (bindReq->numInClusters * sizeof( uint16 )))))
   \                     ??CrossCallReturnLabel_82:
   \   00007A   F8           MOV       R0,A
   \   00007B   E5..         MOV       A,?V0
   \   00007D   2411         ADD       A,#0x11
   \   00007F   12....       LCALL     ?Subroutine158 & 0xFFFF
   \                     ??CrossCallReturnLabel_271:
   \   000082   F0           MOVX      @DPTR,A
   \   000083   EE           MOV       A,R6
   \   000084   2403         ADD       A,#0x3
   \   000086   FE           MOV       R6,A
   \   000087   5001         JNC       ??ZDO_ParseEndDeviceBindReq_2
   \   000089   0F           INC       R7
   \                     ??ZDO_ParseEndDeviceBindReq_2:
   \   00008A   E8           MOV       A,R0
   \   00008B   6022         JZ        ??ZDO_ParseEndDeviceBindReq_3
   \   00008D                ; Setup parameters for call to function osal_mem_alloc
   \   00008D   12....       LCALL     ?Subroutine123 & 0xFFFF
   \                     ??CrossCallReturnLabel_203:
   \   000090   12....       LCALL     ?Subroutine40 & 0xFFFF
   \                     ??CrossCallReturnLabel_686:
   \   000093   4D           ORL       A,R5
   \   000094   6019         JZ        ??ZDO_ParseEndDeviceBindReq_3
   2922            {
   2923              msg = ZDO_ConvertOTAClusters( bindReq->numInClusters, msg, bindReq->inClusters );
   \   000096                ; Setup parameters for call to function ZDO_ConvertOTAClusters
   \   000096   EE           MOV       A,R6
   \   000097   FA           MOV       R2,A
   \   000098   EF           MOV       A,R7
   \   000099   FB           MOV       R3,A
   \   00009A   85..82       MOV       DPL,?V2
   \   00009D   85..83       MOV       DPH,?V3
   \   0000A0   E0           MOVX      A,@DPTR
   \   0000A1   F9           MOV       R1,A
   \   0000A2   12....       LCALL     `??ZDO_ConvertOTAClusters::?relay`; Banked call to: ZDO_ConvertOTAClusters
   \   0000A5   8A..         MOV       ?V2,R2
   \   0000A7   8B..         MOV       ?V3,R3
   \   0000A9   AE..         MOV       R6,?V2
   \   0000AB   AF..         MOV       R7,?V3
   \   0000AD   8008         SJMP      ??ZDO_ParseEndDeviceBindReq_4
   2924            }
   2925            else
   2926            {
   2927              bindReq->numInClusters = 0;
   \                     ??ZDO_ParseEndDeviceBindReq_3:
   \   0000AF   85..82       MOV       DPL,?V2
   \   0000B2   85..83       MOV       DPH,?V3
   \   0000B5   E4           CLR       A
   \   0000B6   F0           MOVX      @DPTR,A
   2928            }
   2929          
   2930            if ((bindReq->numOutClusters = *msg++) &&
   2931                (bindReq->outClusters = (uint16*)osal_mem_alloc((bindReq->numOutClusters * sizeof(uint16)))))
   \                     ??ZDO_ParseEndDeviceBindReq_4:
   \   0000B7   8E82         MOV       DPL,R6
   \   0000B9   8F83         MOV       DPH,R7
   \   0000BB   E0           MOVX      A,@DPTR
   \   0000BC   F8           MOV       R0,A
   \   0000BD   E5..         MOV       A,?V0
   \   0000BF   2414         ADD       A,#0x14
   \   0000C1   12....       LCALL     ?Subroutine158 & 0xFFFF
   \                     ??CrossCallReturnLabel_272:
   \   0000C4   12....       LCALL     ?Subroutine38 & 0xFFFF
   \                     ??CrossCallReturnLabel_60:
   \   0000C7   6021         JZ        ??ZDO_ParseEndDeviceBindReq_5
   \   0000C9                ; Setup parameters for call to function osal_mem_alloc
   \   0000C9   12....       LCALL     ?Subroutine123 & 0xFFFF
   \                     ??CrossCallReturnLabel_204:
   \   0000CC   E5..         MOV       A,?V0
   \   0000CE   2415         ADD       A,#0x15
   \   0000D0   12....       LCALL     ??Subroutine278_0 & 0xFFFF
   \                     ??CrossCallReturnLabel_643:
   \   0000D3   12....       LCALL     ??Subroutine284_0 & 0xFFFF
   \                     ??CrossCallReturnLabel_684:
   \   0000D6   4D           ORL       A,R5
   \   0000D7   6011         JZ        ??ZDO_ParseEndDeviceBindReq_5
   2932            {
   2933              msg = ZDO_ConvertOTAClusters( bindReq->numOutClusters, msg, bindReq->outClusters );
   \   0000D9                ; Setup parameters for call to function ZDO_ConvertOTAClusters
   \   0000D9   EE           MOV       A,R6
   \   0000DA   FA           MOV       R2,A
   \   0000DB   EF           MOV       A,R7
   \   0000DC   FB           MOV       R3,A
   \   0000DD   85..82       MOV       DPL,?V2
   \   0000E0   85..83       MOV       DPH,?V3
   \   0000E3   E0           MOVX      A,@DPTR
   \   0000E4   F9           MOV       R1,A
   \   0000E5   12....       LCALL     `??ZDO_ConvertOTAClusters::?relay`; Banked call to: ZDO_ConvertOTAClusters
   \   0000E8   8008         SJMP      ??ZDO_ParseEndDeviceBindReq_6
   2934            }
   2935            else
   2936            {
   2937              bindReq->numOutClusters = 0;
   \                     ??ZDO_ParseEndDeviceBindReq_5:
   \   0000EA   85..82       MOV       DPL,?V2
   \   0000ED   85..83       MOV       DPH,?V3
   \   0000F0   E4           CLR       A
   \   0000F1   F0           MOVX      @DPTR,A
   2938            }
   2939          }
   \                     ??ZDO_ParseEndDeviceBindReq_6:
   \   0000F2   02....       LJMP      ??Subroutine224_0 & 0xFFFF

   \                                 In  segment BANKED_CODE, align 1, keep-with-next
   \                     ?Subroutine195:
   \   000000   F582         MOV       DPL,A
   \   000002   8F83         MOV       DPH,R7
   \   000004                REQUIRE ??Subroutine263_0
   \   000004                ; // Fall through to label ??Subroutine263_0

   \                                 In  segment BANKED_CODE, align 1, keep-with-next
   \                     ?Subroutine158:
   \   000000   F5..         MOV       ?V2,A
   \   000002   E4           CLR       A
   \   000003   35..         ADDC      A,?V1
   \   000005   F5..         MOV       ?V3,A
   \   000007   E8           MOV       A,R0
   \   000008   85..82       MOV       DPL,?V2
   \   00000B   85..83       MOV       DPH,?V3
   \   00000E   22           RET

   \                                 In  segment BANKED_CODE, align 1, keep-with-next
   \                     ?Subroutine123:
   \   000000   28           ADD       A,R0
   \   000001   FA           MOV       R2,A
   \   000002   E4           CLR       A
   \   000003   33           RLC       A
   \   000004   FB           MOV       R3,A
   \   000005   12....       LCALL     `??osal_mem_alloc::?relay`; Banked call to: osal_mem_alloc
   \   000008   8A..         MOV       ?V4,R2
   \   00000A   8B..         MOV       ?V5,R3
   \   00000C   AC..         MOV       R4,?V4
   \   00000E   AD..         MOV       R5,?V5
   \   000010   22           RET

   \                                 In  segment BANKED_CODE, align 1, keep-with-next
   \                     ?Subroutine51:
   \   000000   FA           MOV       R2,A
   \   000001   E4           CLR       A
   \   000002   35..         ADDC      A,?V1
   \   000004   FB           MOV       R3,A
   \   000005                REQUIRE ??Subroutine264_0
   \   000005                ; // Fall through to label ??Subroutine264_0

   \                                 In  segment BANKED_CODE, align 1, keep-with-next
   \                     ??Subroutine264_0:
   \   000000   12....       LCALL     ?Subroutine179 & 0xFFFF
   \                     ??CrossCallReturnLabel_574:
   \   000003   22           RET

   \                                 In  segment BANKED_CODE, align 1, keep-with-next
   \                     ?Subroutine179:
   \   000000   12....       LCALL     ?Subroutine214 & 0xFFFF
   \                     ??CrossCallReturnLabel_577:
   \   000003   E0           MOVX      A,@DPTR
   \   000004   22           RET

   \                                 In  segment BANKED_CODE, align 1, keep-with-next
   \                     ?Subroutine16:
   \   000000   A3           INC       DPTR
   \   000001                REQUIRE ??Subroutine265_0
   \   000001                ; // Fall through to label ??Subroutine265_0

   \                                 In  segment BANKED_CODE, align 1, keep-with-next
   \                     ??Subroutine265_0:
   \   000000   F0           MOVX      @DPTR,A
   \   000001   A3           INC       DPTR
   \   000002   E9           MOV       A,R1
   \   000003   12....       LCALL     ?Subroutine172 & 0xFFFF
   \                     ??CrossCallReturnLabel_582:
   \   000006   22           RET

   \                                 In  segment BANKED_CODE, align 1, keep-with-next
   \                     ?Subroutine172:
   \   000000   F0           MOVX      @DPTR,A
   \   000001   EE           MOV       A,R6
   \   000002   2402         ADD       A,#0x2
   \   000004   FE           MOV       R6,A
   \   000005   22           RET

   \                                 In  segment BANKED_CODE, align 1, keep-with-next
   \                     ?Subroutine38:
   \   000000   12....       LCALL     ?Subroutine220 & 0xFFFF
   \                     ??CrossCallReturnLabel_699:
   \   000003   AE82         MOV       R6,DPL
   \   000005   AF83         MOV       R7,DPH
   \   000007   22           RET

   \                                 In  segment BANKED_CODE, align 1, keep-with-next
   \                     ?Subroutine92:
   \   000000   12....       LCALL     ??Subroutine277_0 & 0xFFFF
   \                     ??CrossCallReturnLabel_639:
   \   000003   A3           INC       DPTR
   \   000004   22           RET

   \                                 In  segment BANKED_CODE, align 1, keep-with-next
   \                     ??Subroutine273_0:
   \   000000   12....       LCALL     ?Subroutine188 & 0xFFFF
   \                     ??CrossCallReturnLabel_641:
   \   000003                REQUIRE ??Subroutine274_0
   \   000003                ; // Fall through to label ??Subroutine274_0

   \                                 In  segment BANKED_CODE, align 1, keep-with-next
   \                     ?Subroutine188:
   \   000000   F583         MOV       DPH,A
   \   000002                REQUIRE ??Subroutine277_0
   \   000002                ; // Fall through to label ??Subroutine277_0

   \                                 In  segment BANKED_CODE, align 1, keep-with-next
   \                     ??Subroutine277_0:
   \   000000   E0           MOVX      A,@DPTR
   \   000001   8C82         MOV       DPL,R4
   \   000003   8D83         MOV       DPH,R5
   \   000005   22           RET

   \                                 In  segment BANKED_CODE, align 1, keep-with-next
   \                     ?Subroutine142:
   \   000000   12....       LCALL     ?Subroutine198 & 0xFFFF
   \                     ??CrossCallReturnLabel_330:
   \   000003   22           RET

   \                                 In  segment BANKED_CODE, align 1, keep-with-next
   \                     ?Subroutine50:
   \   000000   12....       LCALL     ??Subroutine285_0 & 0xFFFF
   \                     ??CrossCallReturnLabel_696:
   \   000003   22           RET

   \                                 In  segment BANKED_CODE, align 1, keep-with-next
   \                     ??Subroutine281_0:
   \   000000   F0           MOVX      @DPTR,A
   \   000001   EE           MOV       A,R6
   \   000002   2409         ADD       A,#0x9
   \   000004   FE           MOV       R6,A
   \   000005   22           RET

   \                                 In  segment BANKED_CODE, align 1, keep-with-next
   \                     ?Subroutine40:
   \   000000   85..82       MOV       DPL,?V6
   \   000003   85..83       MOV       DPH,?V7
   \   000006                REQUIRE ??Subroutine284_0
   \   000006                ; // Fall through to label ??Subroutine284_0

   \                                 In  segment BANKED_CODE, align 1, keep-with-next
   \                     ??Subroutine284_0:
   \   000000   12....       LCALL     ?Subroutine174 & 0xFFFF
   \                     ??CrossCallReturnLabel_693:
   \   000003   EA           MOV       A,R2
   \   000004   22           RET

   \                                 In  segment BANKED_CODE, align 1, keep-with-next
   \                     ??Subroutine285_0:
   \   000000   12....       LCALL     ?Subroutine220 & 0xFFFF
   \                     ??CrossCallReturnLabel_698:
   \   000003   A3           INC       DPTR
   \   000004   E0           MOVX      A,@DPTR
   \   000005   22           RET

   \                                 In  segment BANKED_CODE, align 1, keep-with-next
   \                     ?Subroutine71:
   \   000000   FE           MOV       R6,A
   \   000001   A3           INC       DPTR
   \   000002   E0           MOVX      A,@DPTR
   \   000003   FF           MOV       R7,A
   \   000004   8E82         MOV       DPL,R6
   \   000006   F583         MOV       DPH,A
   \   000008   12....       LCALL     ?Subroutine190 & 0xFFFF
   \                     ??CrossCallReturnLabel_701:
   \   00000B   22           RET

   \                                 In  segment BANKED_CODE, align 1, keep-with-next
   \                     ?Subroutine190:
   \   000000   E0           MOVX      A,@DPTR
   \   000001   FA           MOV       R2,A
   \   000002                REQUIRE ??Subroutine286_0
   \   000002                ; // Fall through to label ??Subroutine286_0

   \                                 In  segment BANKED_CODE, align 1, keep-with-next
   \                     ??Subroutine286_0:
   \   000000   A3           INC       DPTR
   \   000001   E0           MOVX      A,@DPTR
   \   000002   F9           MOV       R1,A
   \   000003   EA           MOV       A,R2
   \   000004   8C82         MOV       DPL,R4
   \   000006   8D83         MOV       DPH,R5
   \   000008   22           RET

   \                                 In  segment BANKED_CODE, align 1, keep-with-next
   \                     ?Subroutine32:
   \   000000   F0           MOVX      @DPTR,A
   \   000001   12....       LCALL     ?Subroutine202 & 0xFFFF
   \                     ??CrossCallReturnLabel_338:
   \   000004   22           RET

   \                                 In  segment BANKED_CODE, align 1, keep-with-next
   \                     ?Subroutine202:
   \   000000   12....       LCALL     ?Subroutine218 & 0xFFFF
   \                     ??CrossCallReturnLabel_351:
   \   000003   22           RET

   \                                 In  segment BANKED_CODE, align 1, keep-with-next
   \                     ?Subroutine218:
   \   000000   EA           MOV       A,R2
   \   000001   2413         ADD       A,#0x13
   \   000003   F582         MOV       DPL,A
   \   000005   E4           CLR       A
   \   000006   3B           ADDC      A,R3
   \   000007   F583         MOV       DPH,A
   \   000009   E0           MOVX      A,@DPTR
   \   00000A   22           RET
   2940          #endif
   2941          
   2942          /*********************************************************************
   2943           * @fn          ZDO_ParseBindUnbindReq
   2944           *
   2945           * @brief       This function parses the Bind_req or Unbind_req message.
   2946           *
   2947           * @param       inMsg  - incoming message (request)
   2948           * @param       pReq - place to put parsed information
   2949           *
   2950           * @return      none
   2951           */

   \                                 In  segment BANKED_CODE, align 1, keep-with-next
   2952          void ZDO_ParseBindUnbindReq( zdoIncomingMsg_t *inMsg, ZDO_BindUnbindReq_t *pReq )
   \                     ZDO_ParseBindUnbindReq:
   2953          {
   \   000000                REQUIRE ?V0
   \   000000                REQUIRE ?V1
   \   000000   74F6         MOV       A,#-0xa
   \   000002   12....       LCALL     ?BANKED_ENTER_XDATA
   \   000005                ; Saved register size: 10
   \   000005                ; Auto size: 0
   \   000005   8C..         MOV       ?V0,R4
   \   000007   8D..         MOV       ?V1,R5
   2954            uint8 *msg;
   2955          
   2956            msg = inMsg->asdu;
   \   000009   12....       LCALL     ?Subroutine119 & 0xFFFF
   2957            osal_cpyExtAddr( pReq->srcAddress, msg );
   \                     ??CrossCallReturnLabel_592:
   \   00000C                ; Setup parameters for call to function sAddrExtCpy
   \   00000C   12....       LCALL     ?Subroutine42 & 0xFFFF
   2958            msg += Z_EXTADDR_LEN;
   2959            pReq->srcEndpoint = *msg++;
   \                     ??CrossCallReturnLabel_669:
   \   00000F   5001         JNC       ??ZDO_ParseBindUnbindReq_0
   \   000011   0F           INC       R7
   2960            pReq->clusterID = BUILD_UINT16( msg[0], msg[1] );
   \                     ??ZDO_ParseBindUnbindReq_0:
   \   000012   12....       LCALL     ?Subroutine10 & 0xFFFF
   2961            msg += 2;
   2962            pReq->dstAddress.addrMode = *msg++;
   \                     ??CrossCallReturnLabel_4:
   \   000015   5001         JNC       ??ZDO_ParseBindUnbindReq_1
   \   000017   0F           INC       R7
   2963            if ( pReq->dstAddress.addrMode == Addr64Bit )
   \                     ??ZDO_ParseBindUnbindReq_1:
   \   000018   12....       LCALL     ?Subroutine155 & 0xFFFF
   \                     ??CrossCallReturnLabel_267:
   \   00001B   7014         JNZ       ??ZDO_ParseBindUnbindReq_2
   2964            {
   2965              osal_cpyExtAddr( pReq->dstAddress.addr.extAddr, msg );
   \   00001D                ; Setup parameters for call to function sAddrExtCpy
   \   00001D   EE           MOV       A,R6
   \   00001E   FC           MOV       R4,A
   \   00001F   EF           MOV       A,R7
   \   000020   FD           MOV       R5,A
   \   000021   12....       LCALL     ??Subroutine264_0 & 0xFFFF
   2966              msg += Z_EXTADDR_LEN;
   2967              pReq->dstEndpoint = *msg;
   2968            }
   \                     ??CrossCallReturnLabel_572:
   \   000024   C0E0         PUSH      A
   \   000026   E5..         MOV       A,?V0
   \   000028   2414         ADD       A,#0x14
   \   00002A   12....       LCALL     ??Subroutine278_0 & 0xFFFF
   \                     ??CrossCallReturnLabel_644:
   \   00002D   D0E0         POP       A
   \   00002F   8006         SJMP      ??ZDO_ParseBindUnbindReq_3
   2969            else
   2970            {
   2971              // copy group address
   2972              pReq->dstAddress.addr.shortAddr = BUILD_UINT16( msg[0], msg[1] );
   \                     ??ZDO_ParseBindUnbindReq_2:
   \   000031   12....       LCALL     ?Subroutine103 & 0xFFFF
   2973            }
   \                     ??CrossCallReturnLabel_169:
   \   000034   F0           MOVX      @DPTR,A
   \   000035   A3           INC       DPTR
   \   000036   E9           MOV       A,R1
   \                     ??ZDO_ParseBindUnbindReq_3:
   \   000037   F0           MOVX      @DPTR,A
   2974          }
   \   000038   02....       LJMP      ??Subroutine227_0 & 0xFFFF

   \                                 In  segment BANKED_CODE, align 1, keep-with-next
   \                     ?Subroutine119:
   \   000000   12....       LCALL     ?Subroutine203 & 0xFFFF
   \                     ??CrossCallReturnLabel_678:
   \   000003                REQUIRE ??Subroutine266_0
   \   000003                ; // Fall through to label ??Subroutine266_0

   \                                 In  segment BANKED_CODE, align 1, keep-with-next
   \                     ?Subroutine155:
   \   000000   E5..         MOV       A,?V0
   \   000002   240B         ADD       A,#0xb
   \   000004   FA           MOV       R2,A
   \   000005   E4           CLR       A
   \   000006   35..         ADDC      A,?V1
   \   000008   FB           MOV       R3,A
   \   000009   7403         MOV       A,#0x3
   \   00000B   68           XRL       A,R0
   \   00000C   22           RET

   \                                 In  segment BANKED_CODE, align 1, keep-with-next
   \                     ?Subroutine103:
   \   000000   8E82         MOV       DPL,R6
   \   000002   8F83         MOV       DPH,R7
   \   000004   E0           MOVX      A,@DPTR
   \   000005   FC           MOV       R4,A
   \   000006   A3           INC       DPTR
   \   000007   E0           MOVX      A,@DPTR
   \   000008   F9           MOV       R1,A
   \   000009   EC           MOV       A,R4
   \   00000A   8A82         MOV       DPL,R2
   \   00000C   8B83         MOV       DPH,R3
   \   00000E   22           RET

   \                                 In  segment BANKED_CODE, align 1, keep-with-next
   \                     ?Subroutine42:
   \   000000   EE           MOV       A,R6
   \   000001   FC           MOV       R4,A
   \   000002   EF           MOV       A,R7
   \   000003   FD           MOV       R5,A
   \   000004   AA..         MOV       R2,?V0
   \   000006   AB..         MOV       R3,?V1
   \   000008   12....       LCALL     ?Subroutine179 & 0xFFFF
   \                     ??CrossCallReturnLabel_575:
   \   00000B   85..82       MOV       DPL,?V0
   \   00000E   85..83       MOV       DPH,?V1
   \   000011   A3           INC       DPTR
   \   000012   A3           INC       DPTR
   \   000013   A3           INC       DPTR
   \   000014   A3           INC       DPTR
   \   000015   A3           INC       DPTR
   \   000016   A3           INC       DPTR
   \   000017   A3           INC       DPTR
   \   000018   A3           INC       DPTR
   \   000019                REQUIRE ??Subroutine281_0
   \   000019                ; // Fall through to label ??Subroutine281_0

   \                                 In  segment BANKED_CODE, align 1, keep-with-next
   \                     ?Subroutine10:
   \   000000   F582         MOV       DPL,A
   \   000002   12....       LCALL     ?Subroutine180 & 0xFFFF
   \                     ??CrossCallReturnLabel_308:
   \   000005   A3           INC       DPTR
   \   000006   A3           INC       DPTR
   \   000007   12....       LCALL     ?Subroutine168 & 0xFFFF
   \                     ??CrossCallReturnLabel_694:
   \   00000A   F8           MOV       R0,A
   \   00000B   E5..         MOV       A,?V0
   \   00000D   12....       LCALL     ??Subroutine237_0 & 0xFFFF
   \                     ??CrossCallReturnLabel_424:
   \   000010   35..         ADDC      A,?V1
   \   000012   F583         MOV       DPH,A
   \   000014   E8           MOV       A,R0
   \   000015   F0           MOVX      @DPTR,A
   \   000016   EE           MOV       A,R6
   \   000017   2403         ADD       A,#0x3
   \   000019   FE           MOV       R6,A
   \   00001A   22           RET

   \                                 In  segment BANKED_CODE, align 1, keep-with-next
   \                     ?Subroutine168:
   \   000000   F0           MOVX      @DPTR,A
   \   000001   A3           INC       DPTR
   \   000002   E9           MOV       A,R1
   \   000003                REQUIRE ??Subroutine285_0
   \   000003                ; // Fall through to label ??Subroutine285_0

   \                                 In  segment BANKED_CODE, align 1, keep-with-next
   \                     ?Subroutine180:
   \   000000   8F83         MOV       DPH,R7
   \   000002   E0           MOVX      A,@DPTR
   \   000003   FA           MOV       R2,A
   \   000004   A3           INC       DPTR
   \   000005   E0           MOVX      A,@DPTR
   \   000006   F9           MOV       R1,A
   \   000007   EA           MOV       A,R2
   \   000008   85..82       MOV       DPL,?V0
   \   00000B   85..83       MOV       DPH,?V1
   \   00000E   A3           INC       DPTR
   \   00000F   A3           INC       DPTR
   \   000010   A3           INC       DPTR
   \   000011   A3           INC       DPTR
   \   000012   A3           INC       DPTR
   \   000013   A3           INC       DPTR
   \   000014   A3           INC       DPTR
   \   000015   22           RET
   2975          
   2976          /*********************************************************************
   2977           * @fn      ZDO_ParseAddrRsp
   2978           *
   2979           * @brief   Turns the inMsg (incoming message) into the out parsed
   2980           *          structure.
   2981           *
   2982           * @param   inMsg - incoming message
   2983           *
   2984           * @return  pointer to parsed structures.  This structure was
   2985           *          allocated using osal_mem_alloc, so it must be freed
   2986           *          by the calling function [osal_mem_free()].
   2987           */

   \                                 In  segment BANKED_CODE, align 1, keep-with-next
   2988          ZDO_NwkIEEEAddrResp_t *ZDO_ParseAddrRsp( zdoIncomingMsg_t *inMsg )
   \                     ZDO_ParseAddrRsp:
   2989          {
   \   000000                REQUIRE ?V0
   \   000000                REQUIRE ?V1
   \   000000                REQUIRE ?V2
   \   000000                REQUIRE ?V3
   \   000000                REQUIRE ?V4
   \   000000                REQUIRE ?V5
   \   000000   74F2         MOV       A,#-0xe
   \   000002   12....       LCALL     ?BANKED_ENTER_XDATA
   \   000005                ; Saved register size: 14
   \   000005                ; Auto size: 0
   2990            ZDO_NwkIEEEAddrResp_t *rsp;
   2991            uint8 *msg;
   2992            byte cnt = 0;
   \   000005   75..00       MOV       ?V2,#0x0
   2993          
   2994            // Calculate the number of items in the list
   2995            if ( inMsg->asduLen > (1 + Z_EXTADDR_LEN + 2) )
   \   000008   EA           MOV       A,R2
   \   000009   2413         ADD       A,#0x13
   \   00000B   FE           MOV       R6,A
   \   00000C   E4           CLR       A
   \   00000D   3B           ADDC      A,R3
   \   00000E   FF           MOV       R7,A
   \   00000F   EA           MOV       A,R2
   \   000010   2410         ADD       A,#0x10
   \   000012   F582         MOV       DPL,A
   \   000014   E4           CLR       A
   \   000015   3B           ADDC      A,R3
   \   000016   F583         MOV       DPH,A
   \   000018   E0           MOVX      A,@DPTR
   \   000019   C3           CLR       C
   \   00001A   940C         SUBB      A,#0xc
   \   00001C   4009         JC        ??ZDO_ParseAddrRsp_0
   2996            {
   2997              cnt = inMsg->asdu[1 + Z_EXTADDR_LEN + 2];
   \   00001E   8E82         MOV       DPL,R6
   \   000020   8F83         MOV       DPH,R7
   \   000022   12....       LCALL     ?Subroutine80 & 0xFFFF
   2998            }
   \                     ??CrossCallReturnLabel_134:
   \   000025   F5..         MOV       ?V2,A
   2999            else
   3000            {
   3001              cnt = 0;
   3002            }
   3003          
   3004            // Make buffer
   3005            rsp = (ZDO_NwkIEEEAddrResp_t *)osal_mem_alloc( sizeof(ZDO_NwkIEEEAddrResp_t) + (cnt * sizeof ( uint16 )) );
   \                     ??ZDO_ParseAddrRsp_0:
   \   000027                ; Setup parameters for call to function osal_mem_alloc
   \   000027   A8..         MOV       R0,?V2
   \   000029   12....       LCALL     ?Subroutine197 & 0xFFFF
   \                     ??CrossCallReturnLabel_327:
   \   00002C   E8           MOV       A,R0
   \   00002D   240D         ADD       A,#0xd
   \   00002F   12....       LCALL     ?Subroutine133 & 0xFFFF
   \                     ??CrossCallReturnLabel_222:
   \   000032   8A..         MOV       ?V0,R2
   \   000034   8B..         MOV       ?V1,R3
   3006          
   3007            if ( rsp )
   \   000036   EA           MOV       A,R2
   \   000037   4B           ORL       A,R3
   \   000038   7003         JNZ       $+5
   \   00003A   02....       LJMP      ??ZDO_ParseAddrRsp_1 & 0xFFFF
   3008            {
   3009              msg = inMsg->asdu;
   \   00003D   8E82         MOV       DPL,R6
   \   00003F   8F83         MOV       DPH,R7
   \   000041   12....       LCALL     ??Subroutine267_0 & 0xFFFF
   3010          
   3011              rsp->status = *msg++;
   \                     ??CrossCallReturnLabel_590:
   \   000044   8E82         MOV       DPL,R6
   \   000046   F583         MOV       DPH,A
   \   000048   E0           MOVX      A,@DPTR
   \   000049   F8           MOV       R0,A
   \   00004A   8A82         MOV       DPL,R2
   \   00004C   8B83         MOV       DPH,R3
   \   00004E   12....       LCALL     ?Subroutine38 & 0xFFFF
   3012              if ( rsp->status == ZDO_SUCCESS )
   \                     ??CrossCallReturnLabel_61:
   \   000051   707E         JNZ       ??ZDO_ParseAddrRsp_1
   3013              {
   3014                osal_cpyExtAddr( rsp->extAddr, msg );
   \   000053                ; Setup parameters for call to function sAddrExtCpy
   \   000053   EE           MOV       A,R6
   \   000054   FC           MOV       R4,A
   \   000055   EF           MOV       A,R7
   \   000056   FD           MOV       R5,A
   \   000057   EA           MOV       A,R2
   \   000058   2403         ADD       A,#0x3
   \   00005A   12....       LCALL     ?Subroutine52 & 0xFFFF
   3015                msg += Z_EXTADDR_LEN;
   \                     ??CrossCallReturnLabel_606:
   \   00005D   5001         JNC       ??ZDO_ParseAddrRsp_2
   \   00005F   0F           INC       R7
   3016                rsp->nwkAddr = BUILD_UINT16( msg[0], msg[1] );
   \                     ??ZDO_ParseAddrRsp_2:
   \   000060   12....       LCALL     ?Subroutine195 & 0xFFFF
   \                     ??CrossCallReturnLabel_568:
   \   000063   F9           MOV       R1,A
   \   000064   EA           MOV       A,R2
   \   000065   85..82       MOV       DPL,?V0
   \   000068   85..83       MOV       DPH,?V1
   \   00006B   A3           INC       DPTR
   \   00006C   12....       LCALL     ??Subroutine233_0 & 0xFFFF
   3017          
   3018                msg += 2;
   3019                rsp->numAssocDevs = 0;
   \                     ??CrossCallReturnLabel_375:
   \   00006F   E5..         MOV       A,?V0
   \   000071   240B         ADD       A,#0xb
   \   000073   F8           MOV       R0,A
   \   000074   E4           CLR       A
   \   000075   35..         ADDC      A,?V1
   \   000077   F9           MOV       R1,A
   \   000078   E8           MOV       A,R0
   \   000079   FA           MOV       R2,A
   \   00007A   E9           MOV       A,R1
   \   00007B   FB           MOV       R3,A
   \   00007C   8882         MOV       DPL,R0
   \   00007E   F583         MOV       DPH,A
   \   000080   E4           CLR       A
   \   000081   F0           MOVX      @DPTR,A
   3020          
   3021                // StartIndex field is only present if NumAssocDev field is non-zero.
   3022                if ( cnt > 0 )
   \   000082   E5..         MOV       A,?V2
   \   000084   604B         JZ        ??ZDO_ParseAddrRsp_1
   3023                {
   3024                  uint16 *pList = &(rsp->devList[0]);
   \   000086   E5..         MOV       A,?V0
   \   000088   240D         ADD       A,#0xd
   \   00008A   F8           MOV       R0,A
   \   00008B   E4           CLR       A
   \   00008C   35..         ADDC      A,?V1
   \   00008E   F9           MOV       R1,A
   3025                  byte n = cnt;
   3026          
   3027                  rsp->numAssocDevs = *msg++;
   \   00008F   8E82         MOV       DPL,R6
   \   000091   8F83         MOV       DPH,R7
   \   000093   A3           INC       DPTR
   \   000094   A3           INC       DPTR
   \   000095   12....       LCALL     ??Subroutine270_0 & 0xFFFF
   \                     ??CrossCallReturnLabel_602:
   \   000098   12....       LCALL     ?Subroutine19 & 0xFFFF
   3028                  rsp->startIndex = *msg++;
   \                     ??CrossCallReturnLabel_24:
   \   00009B   C0E0         PUSH      A
   \   00009D   12....       LCALL     ?Subroutine157 & 0xFFFF
   \                     ??CrossCallReturnLabel_657:
   \   0000A0   D0E0         POP       A
   \   0000A2   F0           MOVX      @DPTR,A
   \   0000A3   EE           MOV       A,R6
   \   0000A4   2404         ADD       A,#0x4
   \   0000A6   FE           MOV       R6,A
   \   0000A7   5001         JNC       ??ZDO_ParseAddrRsp_3
   \   0000A9   0F           INC       R7
   \                     ??ZDO_ParseAddrRsp_3:
   \   0000AA   AC..         MOV       R4,?V2
   3029          
   3030                  while ( n != 0 )
   3031                  {
   3032                    *pList++ = BUILD_UINT16( msg[0], msg[1] );
   \                     ??ZDO_ParseAddrRsp_4:
   \   0000AC   8E82         MOV       DPL,R6
   \   0000AE   8F83         MOV       DPH,R7
   \   0000B0   E0           MOVX      A,@DPTR
   \   0000B1   F5..         MOV       ?V2,A
   \   0000B3   A3           INC       DPTR
   \   0000B4   E0           MOVX      A,@DPTR
   \   0000B5   FB           MOV       R3,A
   \   0000B6   E5..         MOV       A,?V2
   \   0000B8   8882         MOV       DPL,R0
   \   0000BA   8983         MOV       DPH,R1
   \   0000BC   12....       LCALL     ??Subroutine230_0 & 0xFFFF
   \                     ??CrossCallReturnLabel_363:
   \   0000BF   E8           MOV       A,R0
   \   0000C0   2402         ADD       A,#0x2
   \   0000C2   F8           MOV       R0,A
   \   0000C3   5001         JNC       ??ZDO_ParseAddrRsp_5
   \   0000C5   09           INC       R1
   3033                    msg += sizeof( uint16 );
   \                     ??ZDO_ParseAddrRsp_5:
   \   0000C6   EE           MOV       A,R6
   \   0000C7   2402         ADD       A,#0x2
   \   0000C9   FE           MOV       R6,A
   \   0000CA   5001         JNC       ??ZDO_ParseAddrRsp_6
   \   0000CC   0F           INC       R7
   3034                    n--;
   3035                  }
   \                     ??ZDO_ParseAddrRsp_6:
   \   0000CD   1C           DEC       R4
   \   0000CE   EC           MOV       A,R4
   \   0000CF   70DB         JNZ       ??ZDO_ParseAddrRsp_4
   3036                }
   3037              }
   3038            }
   3039          
   3040            return ( rsp );
   \                     ??ZDO_ParseAddrRsp_1:
   \   0000D1   AA..         MOV       R2,?V0
   \   0000D3   AB..         MOV       R3,?V1
   \   0000D5   02....       LJMP      ??Subroutine250_0 & 0xFFFF
   3041          }

   \                                 In  segment BANKED_CODE, align 1, keep-with-next
   \                     ?Subroutine52:
   \   000000   FA           MOV       R2,A
   \   000001   E4           CLR       A
   \   000002   35..         ADDC      A,?V1
   \   000004   FB           MOV       R3,A
   \   000005                REQUIRE ??Subroutine271_0
   \   000005                ; // Fall through to label ??Subroutine271_0

   \                                 In  segment BANKED_CODE, align 1, keep-with-next
   \                     ??Subroutine271_0:
   \   000000   12....       LCALL     `??sAddrExtCpy::?relay`; Banked call to: sAddrExtCpy
   \   000003   EE           MOV       A,R6
   \   000004   2408         ADD       A,#0x8
   \   000006   FE           MOV       R6,A
   \   000007   22           RET

   \                                 In  segment BANKED_CODE, align 1, keep-with-next
   \                     ?Subroutine19:
   \   000000   12....       LCALL     ?Subroutine177 & 0xFFFF
   \                     ??CrossCallReturnLabel_305:
   \   000003   E0           MOVX      A,@DPTR
   \   000004   22           RET

   \                                 In  segment BANKED_CODE, align 1, keep-with-next
   \                     ?Subroutine177:
   \   000000   12....       LCALL     ?Subroutine212 & 0xFFFF
   \                     ??CrossCallReturnLabel_344:
   \   000003   22           RET

   \                                 In  segment BANKED_CODE, align 1, keep-with-next
   \                     ?Subroutine133:
   \   000000   FA           MOV       R2,A
   \   000001   E4           CLR       A
   \   000002   39           ADDC      A,R1
   \   000003   FB           MOV       R3,A
   \   000004   12....       LCALL     `??osal_mem_alloc::?relay`; Banked call to: osal_mem_alloc
   \   000007   22           RET
   3042          
   3043          /*********************************************************************
   3044           * @fn          ZDO_ParseNodeDescRsp
   3045           *
   3046           * @brief       This function parses the Node_Desc_rsp message.
   3047           *
   3048           * @param       inMsg - incoming message
   3049           * @param       pNDRsp - place to parse the message into
   3050           *
   3051           * @return      none
   3052           */

   \                                 In  segment BANKED_CODE, align 1, keep-with-next
   3053          void ZDO_ParseNodeDescRsp( zdoIncomingMsg_t *inMsg, ZDO_NodeDescRsp_t *pNDRsp )
   \                     ZDO_ParseNodeDescRsp:
   3054          {
   \   000000                REQUIRE ?V0
   \   000000                REQUIRE ?V1
   \   000000   74F6         MOV       A,#-0xa
   \   000002   12....       LCALL     ?BANKED_ENTER_XDATA
   \   000005                ; Saved register size: 10
   \   000005                ; Auto size: 0
   3055            uint8 *msg;
   3056          
   3057            msg = inMsg->asdu;
   \   000005   12....       LCALL     ?Subroutine9 & 0xFFFF
   3058          
   3059            pNDRsp->status = *msg++;
   3060            pNDRsp->nwkAddr = BUILD_UINT16( msg[0], msg[1] );
   3061          
   3062            if ( pNDRsp->status == ZDP_SUCCESS )
   \                     ??CrossCallReturnLabel_2:
   \   000008   6003         JZ        $+5
   \   00000A   02....       LJMP      ??ZDO_ParseNodeDescRsp_0 & 0xFFFF
   3063            {
   3064              msg += 2;
   3065              pNDRsp->nodeDesc.LogicalType = *msg & 0x07;
   \   00000D   E8           MOV       A,R0
   \   00000E   2402         ADD       A,#0x2
   \   000010   FA           MOV       R2,A
   \   000011   E4           CLR       A
   \   000012   39           ADDC      A,R1
   \   000013   FB           MOV       R3,A
   \   000014   EC           MOV       A,R4
   \   000015   2403         ADD       A,#0x3
   \   000017   FE           MOV       R6,A
   \   000018   E4           CLR       A
   \   000019   3D           ADDC      A,R5
   \   00001A   FF           MOV       R7,A
   \   00001B   8A82         MOV       DPL,R2
   \   00001D   8B83         MOV       DPH,R3
   \   00001F   E0           MOVX      A,@DPTR
   \   000020   5407         ANL       A,#0x7
   \   000022   F5..         MOV       ?V0,A
   \   000024   8E82         MOV       DPL,R6
   \   000026   8F83         MOV       DPH,R7
   \   000028   E0           MOVX      A,@DPTR
   \   000029   54F8         ANL       A,#0xf8
   \   00002B   45..         ORL       A,?V0
   \   00002D   F5..         MOV       ?V1,A
   \   00002F   12....       LCALL     ?Subroutine43 & 0xFFFF
   3066          
   3067              pNDRsp->nodeDesc.ComplexDescAvail = ( *msg & 0x08 ) >> 3;
   \                     ??CrossCallReturnLabel_65:
   \   000032   A2E3         MOV       C,0xE0 /* A   */.3
   \   000034   E4           CLR       A
   \   000035   33           RLC       A
   \   000036   F5..         MOV       ?V0,A
   \   000038   A2E0         MOV       C,0xE0 /* A   */.0
   \   00003A   E4           CLR       A
   \   00003B   33           RLC       A
   \   00003C   33           RLC       A
   \   00003D   33           RLC       A
   \   00003E   33           RLC       A
   \   00003F   F5..         MOV       ?V0,A
   \   000041   74F7         MOV       A,#-0x9
   \   000043   55..         ANL       A,?V1
   \   000045   45..         ORL       A,?V0
   \   000047   8E82         MOV       DPL,R6
   \   000049   8F83         MOV       DPH,R7
   \   00004B   12....       LCALL     ?Subroutine43 & 0xFFFF
   3068              pNDRsp->nodeDesc.UserDescAvail = ( *msg & 0x10 ) >> 4;
   \                     ??CrossCallReturnLabel_66:
   \   00004E   A2E4         MOV       C,0xE0 /* A   */.4
   \   000050   E4           CLR       A
   \   000051   33           RLC       A
   \   000052   FA           MOV       R2,A
   \   000053   A2E0         MOV       C,0xE0 /* A   */.0
   \   000055   E4           CLR       A
   \   000056   33           RLC       A
   \   000057   C4           SWAP      A
   \   000058   FA           MOV       R2,A
   \   000059   8E82         MOV       DPL,R6
   \   00005B   8F83         MOV       DPH,R7
   \   00005D   E0           MOVX      A,@DPTR
   \   00005E   54EF         ANL       A,#0xef
   \   000060   4A           ORL       A,R2
   \   000061   F0           MOVX      @DPTR,A
   3069          
   3070              msg++;  // Reserved bits.
   3071              pNDRsp->nodeDesc.FrequencyBand = (*msg >> 3) & 0x1f;
   \   000062   E8           MOV       A,R0
   \   000063   2403         ADD       A,#0x3
   \   000065   FA           MOV       R2,A
   \   000066   E4           CLR       A
   \   000067   39           ADDC      A,R1
   \   000068   FB           MOV       R3,A
   \   000069   EC           MOV       A,R4
   \   00006A   2404         ADD       A,#0x4
   \   00006C   0E           INC       R6
   \   00006D   E4           CLR       A
   \   00006E   3D           ADDC      A,R5
   \   00006F   FF           MOV       R7,A
   \   000070   8A82         MOV       DPL,R2
   \   000072   8B83         MOV       DPH,R3
   \   000074   E0           MOVX      A,@DPTR
   \   000075   54F8         ANL       A,#0xf8
   \   000077   F5..         MOV       ?V0,A
   \   000079   8E82         MOV       DPL,R6
   \   00007B   8F83         MOV       DPH,R7
   \   00007D   E0           MOVX      A,@DPTR
   \   00007E   5407         ANL       A,#0x7
   \   000080   45..         ORL       A,?V0
   \   000082   F5..         MOV       ?V0,A
   \   000084   12....       LCALL     ?Subroutine43 & 0xFFFF
   3072              pNDRsp->nodeDesc.APSFlags = *msg++ & 0x07;
   \                     ??CrossCallReturnLabel_67:
   \   000087   5407         ANL       A,#0x7
   \   000089   FA           MOV       R2,A
   \   00008A   74F8         MOV       A,#-0x8
   \   00008C   55..         ANL       A,?V0
   \   00008E   4A           ORL       A,R2
   \   00008F   8E82         MOV       DPL,R6
   \   000091   8F83         MOV       DPH,R7
   \   000093   12....       LCALL     ?Subroutine36 & 0xFFFF
   3073              pNDRsp->nodeDesc.CapabilityFlags = *msg++;
   \                     ??CrossCallReturnLabel_55:
   \   000096   8C82         MOV       DPL,R4
   \   000098   8D83         MOV       DPH,R5
   \   00009A   A3           INC       DPTR
   \   00009B   A3           INC       DPTR
   \   00009C   A3           INC       DPTR
   \   00009D   A3           INC       DPTR
   \   00009E   A3           INC       DPTR
   \   00009F   12....       LCALL     ?Subroutine37 & 0xFFFF
   3074              pNDRsp->nodeDesc.ManufacturerCode[0] = *msg++;
   \                     ??CrossCallReturnLabel_58:
   \   0000A2   A3           INC       DPTR
   \   0000A3   A3           INC       DPTR
   \   0000A4   12....       LCALL     ??Subroutine277_0 & 0xFFFF
   \                     ??CrossCallReturnLabel_636:
   \   0000A7   12....       LCALL     ?Subroutine33 & 0xFFFF
   3075              pNDRsp->nodeDesc.ManufacturerCode[1] = *msg++;
   \                     ??CrossCallReturnLabel_49:
   \   0000AA   12....       LCALL     ?Subroutine92 & 0xFFFF
   \                     ??CrossCallReturnLabel_152:
   \   0000AD   12....       LCALL     ?Subroutine33 & 0xFFFF
   3076              pNDRsp->nodeDesc.MaxBufferSize = *msg++;
   \                     ??CrossCallReturnLabel_50:
   \   0000B0   A3           INC       DPTR
   \   0000B1   12....       LCALL     ??Subroutine277_0 & 0xFFFF
   \                     ??CrossCallReturnLabel_637:
   \   0000B4   12....       LCALL     ?Subroutine24 & 0xFFFF
   3077              pNDRsp->nodeDesc.MaxInTransferSize[0] = *msg++;
   \                     ??CrossCallReturnLabel_37:
   \   0000B7   12....       LCALL     ?Subroutine92 & 0xFFFF
   \                     ??CrossCallReturnLabel_153:
   \   0000BA   12....       LCALL     ?Subroutine24 & 0xFFFF
   3078              pNDRsp->nodeDesc.MaxInTransferSize[1] = *msg++;
   \                     ??CrossCallReturnLabel_38:
   \   0000BD   A3           INC       DPTR
   \   0000BE   12....       LCALL     ?Subroutine92 & 0xFFFF
   \                     ??CrossCallReturnLabel_154:
   \   0000C1   A3           INC       DPTR
   \   0000C2   A3           INC       DPTR
   \   0000C3   A3           INC       DPTR
   \   0000C4   A3           INC       DPTR
   \   0000C5   A3           INC       DPTR
   \   0000C6   A3           INC       DPTR
   \   0000C7   A3           INC       DPTR
   \   0000C8   A3           INC       DPTR
   \   0000C9   A3           INC       DPTR
   \   0000CA   F0           MOVX      @DPTR,A
   \   0000CB   E8           MOV       A,R0
   \   0000CC   240A         ADD       A,#0xa
   \   0000CE   F8           MOV       R0,A
   \   0000CF   5001         JNC       ??ZDO_ParseNodeDescRsp_1
   \   0000D1   09           INC       R1
   3079              pNDRsp->nodeDesc.ServerMask = BUILD_UINT16( msg[0], msg[1] );
   \                     ??ZDO_ParseNodeDescRsp_1:
   \   0000D2   F582         MOV       DPL,A
   \   0000D4   8983         MOV       DPH,R1
   \   0000D6   E0           MOVX      A,@DPTR
   \   0000D7   FE           MOV       R6,A
   \   0000D8   A3           INC       DPTR
   \   0000D9   E0           MOVX      A,@DPTR
   \   0000DA   FB           MOV       R3,A
   \   0000DB   EC           MOV       A,R4
   \   0000DC   240B         ADD       A,#0xb
   \   0000DE   F582         MOV       DPL,A
   \   0000E0   E4           CLR       A
   \   0000E1   3D           ADDC      A,R5
   \   0000E2   F583         MOV       DPH,A
   \   0000E4   EE           MOV       A,R6
   \   0000E5   12....       LCALL     ??Subroutine230_0 & 0xFFFF
   3080              msg += 2;
   3081              pNDRsp->nodeDesc.MaxOutTransferSize[0] = *msg++;
   \                     ??CrossCallReturnLabel_364:
   \   0000E8   8882         MOV       DPL,R0
   \   0000EA   8983         MOV       DPH,R1
   \   0000EC   A3           INC       DPTR
   \   0000ED   A3           INC       DPTR
   \   0000EE   E0           MOVX      A,@DPTR
   \   0000EF   C0E0         PUSH      A
   \   0000F1   EC           MOV       A,R4
   \   0000F2   240D         ADD       A,#0xd
   \   0000F4   F582         MOV       DPL,A
   \   0000F6   E4           CLR       A
   \   0000F7   3D           ADDC      A,R5
   \   0000F8   F583         MOV       DPH,A
   \   0000FA   D0E0         POP       A
   \   0000FC   12....       LCALL     ?Subroutine37 & 0xFFFF
   3082              pNDRsp->nodeDesc.MaxOutTransferSize[1] = *msg++;
   3083              pNDRsp->nodeDesc.DescriptorCapability = *msg;
   3084            }
   \                     ??CrossCallReturnLabel_59:
   \   0000FF   E0           MOVX      A,@DPTR
   \   000100   C0E0         PUSH      A
   \   000102   EC           MOV       A,R4
   \   000103   12....       LCALL     ??Subroutine272_0 & 0xFFFF
   \                     ??CrossCallReturnLabel_613:
   \   000106   3D           ADDC      A,R5
   \   000107   F583         MOV       DPH,A
   \   000109   D0E0         POP       A
   \   00010B   12....       LCALL     ?Subroutine36 & 0xFFFF
   \                     ??CrossCallReturnLabel_56:
   \   00010E   C0E0         PUSH      A
   \   000110   EC           MOV       A,R4
   \   000111   12....       LCALL     ?Subroutine148 & 0xFFFF
   \                     ??CrossCallReturnLabel_257:
   \   000114   3D           ADDC      A,R5
   \   000115   F583         MOV       DPH,A
   \   000117   D0E0         POP       A
   \   000119   F0           MOVX      @DPTR,A
   3085          }
   \                     ??ZDO_ParseNodeDescRsp_0:
   \   00011A   02....       LJMP      ??Subroutine227_0 & 0xFFFF

   \                                 In  segment BANKED_CODE, align 1, keep-with-next
   \                     ?Subroutine43:
   \   000000   12....       LCALL     ?Subroutine210 & 0xFFFF
   \                     ??CrossCallReturnLabel_625:
   \   000003   E0           MOVX      A,@DPTR
   \   000004   22           RET

   \                                 In  segment BANKED_CODE, align 1, keep-with-next
   \                     ?Subroutine36:
   \   000000   12....       LCALL     ?Subroutine178 & 0xFFFF
   \                     ??CrossCallReturnLabel_307:
   \   000003   A3           INC       DPTR
   \   000004   E0           MOVX      A,@DPTR
   \   000005   22           RET

   \                                 In  segment BANKED_CODE, align 1, keep-with-next
   \                     ?Subroutine33:
   \   000000   12....       LCALL     ?Subroutine169 & 0xFFFF
   \                     ??CrossCallReturnLabel_292:
   \   000003   22           RET

   \                                 In  segment BANKED_CODE, align 1, keep-with-next
   \                     ?Subroutine169:
   \   000000   A3           INC       DPTR
   \   000001   A3           INC       DPTR
   \   000002   A3           INC       DPTR
   \   000003   A3           INC       DPTR
   \   000004   A3           INC       DPTR
   \   000005   A3           INC       DPTR
   \   000006   12....       LCALL     ?Subroutine213 & 0xFFFF
   \                     ??CrossCallReturnLabel_347:
   \   000009   A3           INC       DPTR
   \   00000A   A3           INC       DPTR
   \   00000B   A3           INC       DPTR
   \   00000C   22           RET

   \                                 In  segment BANKED_CODE, align 1, keep-with-next
   \                     ?Subroutine24:
   \   000000   A3           INC       DPTR
   \   000001   A3           INC       DPTR
   \   000002   12....       LCALL     ?Subroutine169 & 0xFFFF
   \                     ??CrossCallReturnLabel_293:
   \   000005   A3           INC       DPTR
   \   000006   A3           INC       DPTR
   \   000007   22           RET

   \                                 In  segment BANKED_CODE, align 1, keep-with-next
   \                     ?Subroutine9:
   \   000000   12....       LCALL     ?Subroutine203 & 0xFFFF
   \                     ??CrossCallReturnLabel_677:
   \   000003   12....       LCALL     ?Subroutine189 & 0xFFFF
   \                     ??CrossCallReturnLabel_560:
   \   000006   8882         MOV       DPL,R0
   \   000008   12....       LCALL     ?Subroutine188 & 0xFFFF
   \                     ??CrossCallReturnLabel_640:
   \   00000B   F0           MOVX      @DPTR,A
   \   00000C   8882         MOV       DPL,R0
   \   00000E   8983         MOV       DPH,R1
   \   000010   A3           INC       DPTR
   \   000011   A882         MOV       R0,DPL
   \   000013   A983         MOV       R1,DPH
   \   000015   E0           MOVX      A,@DPTR
   \   000016   FE           MOV       R6,A
   \   000017   A3           INC       DPTR
   \   000018   E0           MOVX      A,@DPTR
   \   000019   FB           MOV       R3,A
   \   00001A   EE           MOV       A,R6
   \   00001B   8C82         MOV       DPL,R4
   \   00001D   8D83         MOV       DPH,R5
   \   00001F   A3           INC       DPTR
   \   000020   12....       LCALL     ??Subroutine247_0 & 0xFFFF
   \                     ??CrossCallReturnLabel_688:
   \   000023   8C82         MOV       DPL,R4
   \   000025   8D83         MOV       DPH,R5
   \   000027   E0           MOVX      A,@DPTR
   \   000028   22           RET
   3086          
   3087          /*********************************************************************
   3088           * @fn          ZDO_ParsePowerDescRsp
   3089           *
   3090           * @brief       This function parses the Power_Desc_rsp message.
   3091           *
   3092           * @param       inMsg  - incoming message
   3093           * @param       pNPRsp - place to parse the message into
   3094           *
   3095           * @return      none
   3096           */

   \                                 In  segment BANKED_CODE, align 1, keep-with-next
   3097          void ZDO_ParsePowerDescRsp( zdoIncomingMsg_t *inMsg, ZDO_PowerRsp_t *pNPRsp )
   \                     ZDO_ParsePowerDescRsp:
   3098          {
   \   000000                REQUIRE ?V0
   \   000000                REQUIRE ?V1
   \   000000                REQUIRE ?V2
   \   000000                REQUIRE ?V3
   \   000000   74F4         MOV       A,#-0xc
   \   000002   12....       LCALL     ?BANKED_ENTER_XDATA
   \   000005                ; Saved register size: 12
   \   000005                ; Auto size: 0
   3099            uint8 *msg;
   3100          
   3101            msg = inMsg->asdu;
   \   000005   12....       LCALL     ?Subroutine137 & 0xFFFF
   \                     ??CrossCallReturnLabel_674:
   \   000008   F583         MOV       DPH,A
   \   00000A   12....       LCALL     ??Subroutine235_0 & 0xFFFF
   3102            pNPRsp->status = *msg++;
   \                     ??CrossCallReturnLabel_415:
   \   00000D   12....       LCALL     ?Subroutine31 & 0xFFFF
   \                     ??CrossCallReturnLabel_618:
   \   000010   AA82         MOV       R2,DPL
   \   000012   AB83         MOV       R3,DPH
   3103            pNPRsp->nwkAddr = BUILD_UINT16( msg[0], msg[1] );
   \   000014   E0           MOVX      A,@DPTR
   \   000015   FE           MOV       R6,A
   \   000016   A3           INC       DPTR
   \   000017   E0           MOVX      A,@DPTR
   \   000018   F9           MOV       R1,A
   \   000019   EE           MOV       A,R6
   \   00001A   8C82         MOV       DPL,R4
   \   00001C   8D83         MOV       DPH,R5
   \   00001E   A3           INC       DPTR
   \   00001F   F0           MOVX      @DPTR,A
   \   000020   A3           INC       DPTR
   \   000021   E9           MOV       A,R1
   \   000022   12....       LCALL     ?Subroutine23 & 0xFFFF
   3104          
   3105            if ( pNPRsp->status == ZDP_SUCCESS )
   \                     ??CrossCallReturnLabel_36:
   \   000025   E0           MOVX      A,@DPTR
   \   000026   6003         JZ        $+5
   \   000028   02....       LJMP      ??ZDO_ParsePowerDescRsp_0 & 0xFFFF
   3106            {
   3107              msg += 2;
   3108              pNPRsp->pwrDesc.AvailablePowerSources = *msg >> 4;
   \   00002B   EA           MOV       A,R2
   \   00002C   2402         ADD       A,#0x2
   \   00002E   F8           MOV       R0,A
   \   00002F   E4           CLR       A
   \   000030   3B           ADDC      A,R3
   \   000031   F9           MOV       R1,A
   \   000032   E8           MOV       A,R0
   \   000033   FE           MOV       R6,A
   \   000034   E9           MOV       A,R1
   \   000035   FF           MOV       R7,A
   \   000036   EC           MOV       A,R4
   \   000037   2403         ADD       A,#0x3
   \   000039   E4           CLR       A
   \   00003A   3D           ADDC      A,R5
   \   00003B   0C           INC       R4
   \   00003C   0C           INC       R4
   \   00003D   0C           INC       R4
   \   00003E   FD           MOV       R5,A
   \   00003F   8C82         MOV       DPL,R4
   \   000041   F583         MOV       DPH,A
   \   000043   E0           MOVX      A,@DPTR
   \   000044   540F         ANL       A,#0xf
   \   000046   F5..         MOV       ?V2,A
   \   000048   A3           INC       DPTR
   \   000049   E0           MOVX      A,@DPTR
   \   00004A   12....       LCALL     ?Subroutine116 & 0xFFFF
   \                     ??CrossCallReturnLabel_191:
   \   00004D   7404         MOV       A,#0x4
   \   00004F   78..         MOV       R0,#?V0
   \   000051   12....       LCALL     ?S_SHL
   \   000054   E5..         MOV       A,?V2
   \   000056   45..         ORL       A,?V0
   \   000058   F8           MOV       R0,A
   \   000059   A9..         MOV       R1,?V3
   \   00005B   8C82         MOV       DPL,R4
   \   00005D   8D83         MOV       DPH,R5
   \   00005F   12....       LCALL     ??Subroutine233_0 & 0xFFFF
   3109              pNPRsp->pwrDesc.PowerMode = *msg++ & 0x0F;
   \                     ??CrossCallReturnLabel_376:
   \   000062   E8           MOV       A,R0
   \   000063   54F0         ANL       A,#0xf0
   \   000065   F8           MOV       R0,A
   \   000066   8E82         MOV       DPL,R6
   \   000068   8F83         MOV       DPH,R7
   \   00006A   E0           MOVX      A,@DPTR
   \   00006B   540F         ANL       A,#0xf
   \   00006D   FE           MOV       R6,A
   \   00006E   E8           MOV       A,R0
   \   00006F   4E           ORL       A,R6
   \   000070   F5..         MOV       ?V0,A
   \   000072   E9           MOV       A,R1
   \   000073   F5..         MOV       ?V1,A
   \   000075   8C82         MOV       DPL,R4
   \   000077   8D83         MOV       DPH,R5
   \   000079   E5..         MOV       A,?V0
   \   00007B   12....       LCALL     ??Subroutine233_0 & 0xFFFF
   3110              pNPRsp->pwrDesc.CurrentPowerSourceLevel = *msg >> 4;
   \                     ??CrossCallReturnLabel_377:
   \   00007E   EA           MOV       A,R2
   \   00007F   2403         ADD       A,#0x3
   \   000081   F8           MOV       R0,A
   \   000082   E4           CLR       A
   \   000083   3B           ADDC      A,R3
   \   000084   F9           MOV       R1,A
   \   000085   E8           MOV       A,R0
   \   000086   FE           MOV       R6,A
   \   000087   E9           MOV       A,R1
   \   000088   FF           MOV       R7,A
   \   000089   E5..         MOV       A,?V0
   \   00008B   F5..         MOV       ?V2,A
   \   00008D   E5..         MOV       A,?V1
   \   00008F   540F         ANL       A,#0xf
   \   000091   12....       LCALL     ?Subroutine116 & 0xFFFF
   3111              pNPRsp->pwrDesc.CurrentPowerSource = *msg++ & 0x0F;
   3112            }
   \                     ??CrossCallReturnLabel_192:
   \   000094   740C         MOV       A,#0xc
   \   000096   78..         MOV       R0,#?V0
   \   000098   12....       LCALL     ?S_SHL
   \   00009B   E5..         MOV       A,?V3
   \   00009D   45..         ORL       A,?V1
   \   00009F   F9           MOV       R1,A
   \   0000A0   8C82         MOV       DPL,R4
   \   0000A2   8D83         MOV       DPH,R5
   \   0000A4   E5..         MOV       A,?V2
   \   0000A6   F0           MOVX      @DPTR,A
   \   0000A7   A3           INC       DPTR
   \   0000A8   E9           MOV       A,R1
   \   0000A9   12....       LCALL     ??Subroutine280_0 & 0xFFFF
   \                     ??CrossCallReturnLabel_667:
   \   0000AC   540F         ANL       A,#0xf
   \   0000AE   F8           MOV       R0,A
   \   0000AF   EA           MOV       A,R2
   \   0000B0   2404         ADD       A,#0x4
   \   0000B2   8C82         MOV       DPL,R4
   \   0000B4   8D83         MOV       DPH,R5
   \   0000B6   A3           INC       DPTR
   \   0000B7   E0           MOVX      A,@DPTR
   \   0000B8   54F0         ANL       A,#0xf0
   \   0000BA   F0           MOVX      @DPTR,A
   \   0000BB   E8           MOV       A,R0
   \   0000BC   F9           MOV       R1,A
   \   0000BD   8C82         MOV       DPL,R4
   \   0000BF   8D83         MOV       DPH,R5
   \   0000C1   A3           INC       DPTR
   \   0000C2   E0           MOVX      A,@DPTR
   \   0000C3   49           ORL       A,R1
   \   0000C4   F0           MOVX      @DPTR,A
   3113          }
   \                     ??ZDO_ParsePowerDescRsp_0:
   \   0000C5   02....       LJMP      ??Subroutine222_0 & 0xFFFF

   \                                 In  segment BANKED_CODE, align 1, keep-with-next
   \                     ?Subroutine116:
   \   000000   F5..         MOV       ?V3,A
   \   000002   8882         MOV       DPL,R0
   \   000004   8983         MOV       DPH,R1
   \   000006   E0           MOVX      A,@DPTR
   \   000007   C4           SWAP      A
   \   000008   540F         ANL       A,#0xf
   \   00000A   F5..         MOV       ?V0,A
   \   00000C   75..00       MOV       ?V1,#0x0
   \   00000F   22           RET

   \                                 In  segment BANKED_CODE, align 1, keep-with-next
   \                     ?Subroutine31:
   \   000000   8A82         MOV       DPL,R2
   \   000002                REQUIRE ??Subroutine273_0
   \   000002                ; // Fall through to label ??Subroutine273_0

   \                                 In  segment BANKED_CODE, align 1, keep-with-next
   \                     ?Subroutine137:
   \   000000   EA           MOV       A,R2
   \   000001                REQUIRE ??Subroutine282_0
   \   000001                ; // Fall through to label ??Subroutine282_0
   3114          
   3115          /*********************************************************************
   3116           * @fn          ZDO_ParseSimpleDescRsp
   3117           *
   3118           * @brief       This function parse the Simple_Desc_rsp message.
   3119           *
   3120           *   NOTE: The pAppInClusterList and pAppOutClusterList fields
   3121           *         in the SimpleDescriptionFormat_t structure are allocated
   3122           *         and the calling function needs to free [osal_msg_free()]
   3123           *         these buffers.
   3124           *
   3125           * @param       inMsg  - incoming message
   3126           * @param       pSimpleDescRsp - place to parse the message into
   3127           *
   3128           * @return      none
   3129           */

   \                                 In  segment BANKED_CODE, align 1, keep-with-next
   3130          void ZDO_ParseSimpleDescRsp( zdoIncomingMsg_t *inMsg, ZDO_SimpleDescRsp_t *pSimpleDescRsp )
   \                     ZDO_ParseSimpleDescRsp:
   3131          {
   \   000000   74F7         MOV       A,#-0x9
   \   000002   12....       LCALL     ?BANKED_ENTER_XDATA
   \   000005                ; Saved register size: 9
   \   000005                ; Auto size: 0
   3132            uint8 *msg;
   3133          
   3134            msg = inMsg->asdu;
   \   000005   12....       LCALL     ?Subroutine9 & 0xFFFF
   3135            pSimpleDescRsp->status = *msg++;
   3136            pSimpleDescRsp->nwkAddr = BUILD_UINT16( msg[0], msg[1] );
   3137            msg += sizeof ( uint16 );
   3138            msg++; // Skip past the length field.
   3139          
   3140            if ( pSimpleDescRsp->status == ZDP_SUCCESS )
   \                     ??CrossCallReturnLabel_3:
   \   000008   7011         JNZ       ??ZDO_ParseSimpleDescRsp_0
   3141            {
   3142              ZDO_ParseSimpleDescBuf( msg, &(pSimpleDescRsp->simpleDesc) );
   \   00000A                ; Setup parameters for call to function ZDO_ParseSimpleDescBuf
   \   00000A   EC           MOV       A,R4
   \   00000B   2403         ADD       A,#0x3
   \   00000D   FC           MOV       R4,A
   \   00000E   5001         JNC       ??ZDO_ParseSimpleDescRsp_1
   \   000010   0D           INC       R5
   \                     ??ZDO_ParseSimpleDescRsp_1:
   \   000011   E8           MOV       A,R0
   \   000012   2403         ADD       A,#0x3
   \   000014   FA           MOV       R2,A
   \   000015   E4           CLR       A
   \   000016   39           ADDC      A,R1
   \   000017   FB           MOV       R3,A
   \   000018   12....       LCALL     `??ZDO_ParseSimpleDescBuf::?relay`; Banked call to: ZDO_ParseSimpleDescBuf
   3143            }
   3144          }
   \                     ??ZDO_ParseSimpleDescRsp_0:
   \   00001B   02....       LJMP      ?Subroutine3 & 0xFFFF
   3145          
   3146          /*********************************************************************
   3147           * @fn          ZDO_ParseEPListRsp
   3148           *
   3149           * @brief       This parse the Active_EP_rsp or Match_Desc_rsp message.
   3150           *
   3151           * @param       inMsg  - incoming message
   3152           *
   3153           * @return      none
   3154           */

   \                                 In  segment BANKED_CODE, align 1, keep-with-next
   3155          ZDO_ActiveEndpointRsp_t *ZDO_ParseEPListRsp( zdoIncomingMsg_t *inMsg )
   \                     ZDO_ParseEPListRsp:
   3156          {
   \   000000                REQUIRE ?V0
   \   000000                REQUIRE ?V1
   \   000000                REQUIRE ?V2
   \   000000                REQUIRE ?V3
   \   000000                REQUIRE ?V4
   \   000000                REQUIRE ?V5
   \   000000                REQUIRE ?V6
   \   000000                REQUIRE ?V7
   \   000000   74F0         MOV       A,#-0x10
   \   000002   12....       LCALL     ?BANKED_ENTER_XDATA
   \   000005                ; Saved register size: 16
   \   000005                ; Auto size: 0
   3157            ZDO_ActiveEndpointRsp_t *pRsp;
   3158            uint8 *msg;
   3159            uint8 Status;
   3160            uint8 cnt;
   3161          
   3162            msg = inMsg->asdu;
   \   000005   12....       LCALL     ?Subroutine136 & 0xFFFF
   \                     ??CrossCallReturnLabel_230:
   \   000008   F5..         MOV       ?V0,A
   \   00000A   A3           INC       DPTR
   \   00000B   E0           MOVX      A,@DPTR
   3163            Status = *msg++;
   \   00000C   85..82       MOV       DPL,?V0
   \   00000F   F583         MOV       DPH,A
   \   000011   E0           MOVX      A,@DPTR
   \   000012   F5..         MOV       ?V7,A
   \   000014   A3           INC       DPTR
   \   000015   8582..       MOV       ?V0,DPL
   \   000018   8583..       MOV       ?V1,DPH
   3164            cnt = msg[2];
   \   00001B   A3           INC       DPTR
   \   00001C   A3           INC       DPTR
   \   00001D   E0           MOVX      A,@DPTR
   \   00001E   F5..         MOV       ?V6,A
   3165          
   3166            pRsp = (ZDO_ActiveEndpointRsp_t *)osal_mem_alloc( sizeof(  ZDO_ActiveEndpointRsp_t ) + cnt );
   \   000020   FE           MOV       R6,A
   \   000021                ; Setup parameters for call to function osal_mem_alloc
   \   000021   12....       LCALL     ?Subroutine151 & 0xFFFF
   \                     ??CrossCallReturnLabel_633:
   \   000024   8A..         MOV       ?V4,R2
   \   000026   8B..         MOV       ?V5,R3
   3167            if ( pRsp )
   \   000028   EA           MOV       A,R2
   \   000029   4B           ORL       A,R3
   \   00002A   6043         JZ        ??ZDO_ParseEPListRsp_0
   3168            {
   3169              pRsp->status = Status;
   \   00002C   8A82         MOV       DPL,R2
   \   00002E   8B83         MOV       DPH,R3
   \   000030   E5..         MOV       A,?V7
   \   000032   12....       LCALL     ?Subroutine170 & 0xFFFF
   3170              pRsp->nwkAddr = BUILD_UINT16( msg[0], msg[1] );
   \                     ??CrossCallReturnLabel_294:
   \   000035   12....       LCALL     ?Subroutine109 & 0xFFFF
   \                     ??CrossCallReturnLabel_180:
   \   000038   85..82       MOV       DPL,?V4
   \   00003B   8B83         MOV       DPH,R3
   \   00003D   A3           INC       DPTR
   \   00003E   12....       LCALL     ??Subroutine233_0 & 0xFFFF
   3171              msg += sizeof( uint16 );
   3172              pRsp->cnt = cnt;
   \                     ??CrossCallReturnLabel_378:
   \   000041   85..82       MOV       DPL,?V4
   \   000044   8B83         MOV       DPH,R3
   \   000046   A3           INC       DPTR
   \   000047   A3           INC       DPTR
   \   000048   A3           INC       DPTR
   \   000049   EE           MOV       A,R6
   \   00004A   12....       LCALL     ?Subroutine47 & 0xFFFF
   3173              msg++; // pass cnt
   3174              osal_memcpy( pRsp->epList, msg, cnt );
   3175            }
   \                     ??CrossCallReturnLabel_77:
   \   00004D   A3           INC       DPTR
   \   00004E   A982         MOV       R1,DPL
   \   000050   AA83         MOV       R2,DPH
   \   000052   89..         MOV       ?V0,R1
   \   000054   8A..         MOV       ?V1,R2
   \   000056   88..         MOV       ?V2,R0
   \   000058   78..         MOV       R0,#?V0
   \   00005A   12....       LCALL     ?PUSH_XSTACK_I_THREE
   \   00005D   EE           MOV       A,R6
   \   00005E   FC           MOV       R4,A
   \   00005F   7D00         MOV       R5,#0x0
   \   000061   E5..         MOV       A,?V4
   \   000063   2404         ADD       A,#0x4
   \   000065   FA           MOV       R2,A
   \   000066   E4           CLR       A
   \   000067   35..         ADDC      A,?V5
   \   000069   12....       LCALL     ?Subroutine154 & 0xFFFF
   \                     ??CrossCallReturnLabel_628:
   \   00006C   12....       LCALL     ?DEALLOC_XSTACK8
   3176          
   3177            return ( pRsp );
   \                     ??ZDO_ParseEPListRsp_0:
   \   00006F   AA..         MOV       R2,?V4
   \   000071   AB..         MOV       R3,?V5
   \   000073   02....       LJMP      ??Subroutine224_0 & 0xFFFF
   3178          }

   \                                 In  segment BANKED_CODE, align 1, keep-with-next
   \                     ?Subroutine154:
   \   000000   FB           MOV       R3,A
   \   000001                REQUIRE ??Subroutine275_0
   \   000001                ; // Fall through to label ??Subroutine275_0

   \                                 In  segment BANKED_CODE, align 1, keep-with-next
   \                     ?Subroutine151:
   \   000000   2404         ADD       A,#0x4
   \   000002                REQUIRE ??Subroutine276_0
   \   000002                ; // Fall through to label ??Subroutine276_0

   \                                 In  segment BANKED_CODE, align 1, keep-with-next
   \                     ??Subroutine276_0:
   \   000000   FA           MOV       R2,A
   \   000001   E4           CLR       A
   \   000002   3400         ADDC      A,#0x0
   \   000004   FB           MOV       R3,A
   \   000005   12....       LCALL     `??osal_mem_alloc::?relay`; Banked call to: osal_mem_alloc
   \   000008   22           RET

   \                                 In  segment BANKED_CODE, align 1, keep-with-next
   \                     ?Subroutine136:
   \   000000   12....       LCALL     ?Subroutine202 & 0xFFFF
   \                     ??CrossCallReturnLabel_339:
   \   000003   22           RET
   3179          
   3180          /*********************************************************************
   3181           * @fn          ZDO_ParseServerDiscRsp
   3182           *
   3183           * @brief       Parse the Server_Discovery_rsp message.
   3184           *
   3185           * @param       inMsg - incoming message.
   3186           * @param       pRsp - place to put the parsed information.
   3187           *
   3188           * @return      none
   3189           */

   \                                 In  segment BANKED_CODE, align 1, keep-with-next
   3190          void ZDO_ParseServerDiscRsp( zdoIncomingMsg_t *inMsg, ZDO_ServerDiscRsp_t *pRsp )
   \                     ZDO_ParseServerDiscRsp:
   3191          {
   \   000000   74F7         MOV       A,#-0x9
   \   000002   12....       LCALL     ?BANKED_ENTER_XDATA
   \   000005                ; Saved register size: 9
   \   000005                ; Auto size: 0
   3192            pRsp->status = inMsg->asdu[0];
   \   000005   EA           MOV       A,R2
   \   000006   2413         ADD       A,#0x13
   \   000008   F8           MOV       R0,A
   \   000009   E4           CLR       A
   \   00000A   3B           ADDC      A,R3
   \   00000B   F9           MOV       R1,A
   \   00000C   8882         MOV       DPL,R0
   \   00000E   F583         MOV       DPH,A
   \   000010   12....       LCALL     ?Subroutine120 & 0xFFFF
   \                     ??CrossCallReturnLabel_197:
   \   000013   12....       LCALL     ??Subroutine277_0 & 0xFFFF
   \                     ??CrossCallReturnLabel_638:
   \   000016   12....       LCALL     ?Subroutine45 & 0xFFFF
   3193            pRsp->serverMask = BUILD_UINT16( inMsg->asdu[1], inMsg->asdu[2] );
   \                     ??CrossCallReturnLabel_73:
   \   000019   F8           MOV       R0,A
   \   00001A   A3           INC       DPTR
   \   00001B   E0           MOVX      A,@DPTR
   \   00001C   F9           MOV       R1,A
   \   00001D   8882         MOV       DPL,R0
   \   00001F   F583         MOV       DPH,A
   \   000021   A3           INC       DPTR
   \   000022   E0           MOVX      A,@DPTR
   \   000023   FA           MOV       R2,A
   \   000024   8882         MOV       DPL,R0
   \   000026   8983         MOV       DPH,R1
   \   000028   A3           INC       DPTR
   \   000029   12....       LCALL     ??Subroutine286_0 & 0xFFFF
   \                     ??CrossCallReturnLabel_700:
   \   00002C   A3           INC       DPTR
   \   00002D   12....       LCALL     ??Subroutine233_0 & 0xFFFF
   3194          }
   \                     ??CrossCallReturnLabel_379:
   \   000030   02....       LJMP      ?Subroutine3 & 0xFFFF

   \                                 In  segment BANKED_CODE, align 1, keep-with-next
   \                     ?Subroutine120:
   \   000000   12....       LCALL     ??Subroutine263_0 & 0xFFFF
   \                     ??CrossCallReturnLabel_565:
   \   000003   F583         MOV       DPH,A
   \   000005   8A82         MOV       DPL,R2
   \   000007   22           RET
   3195          
   3196          /*********************************************************************
   3197           * @fn          ZDO_ParseMgmtLqiRsp
   3198           *
   3199           * @brief       This function parses the incoming Management
   3200           *              LQI response
   3201           *
   3202           * @param       inMsg - incoming message
   3203           *
   3204           * @return      a pointer to parsed response structure (NULL if not allocated).
   3205           *          This structure was allocated using osal_mem_alloc, so it must be freed
   3206           *          by the calling function [osal_mem_free()].
   3207           */

   \                                 In  segment BANKED_CODE, align 1, keep-with-next
   3208          ZDO_MgmtLqiRsp_t *ZDO_ParseMgmtLqiRsp( zdoIncomingMsg_t *inMsg )
   \                     ZDO_ParseMgmtLqiRsp:
   3209          {
   \   000000                REQUIRE ?V0
   \   000000                REQUIRE ?V1
   \   000000                REQUIRE ?V2
   \   000000                REQUIRE ?V3
   \   000000                REQUIRE ?V4
   \   000000                REQUIRE ?V5
   \   000000                REQUIRE ?V6
   \   000000                REQUIRE ?V7
   \   000000   74F0         MOV       A,#-0x10
   \   000002   12....       LCALL     ?BANKED_ENTER_XDATA
   \   000005                ; Saved register size: 16
   \   000005                ; Auto size: 0
   3210            ZDO_MgmtLqiRsp_t *pRsp;
   3211            uint8 status;
   3212            uint8 startIndex = 0;
   \   000005   75..00       MOV       ?V5,#0x0
   3213            uint8 neighborLqiCount = 0;
   \   000008   75..00       MOV       ?V7,#0x0
   3214            uint8 neighborLqiEntries = 0;
   \   00000B   75..00       MOV       ?V4,#0x0
   3215            uint8 *msg;
   3216          
   3217            msg = inMsg->asdu;
   \   00000E   12....       LCALL     ?Subroutine70 & 0xFFFF
   3218          
   3219            status = *msg++;
   3220            if ( status == ZSuccess )
   \                     ??CrossCallReturnLabel_115:
   \   000011   700C         JNZ       ??ZDO_ParseMgmtLqiRsp_0
   3221            {
   3222              neighborLqiEntries = *msg++;
   \   000013   12....       LCALL     ?Subroutine83 & 0xFFFF
   3223              startIndex = *msg++;
   3224              neighborLqiCount = *msg++;
   3225            }
   \                     ??CrossCallReturnLabel_139:
   \   000016   F5..         MOV       ?V7,A
   \   000018   EE           MOV       A,R6
   \   000019   2403         ADD       A,#0x3
   \   00001B   FE           MOV       R6,A
   \   00001C   5001         JNC       ??ZDO_ParseMgmtLqiRsp_0
   \   00001E   0F           INC       R7
   3226          
   3227            // Allocate a buffer big enough to handle the list.
   3228            pRsp = (ZDO_MgmtLqiRsp_t *)osal_mem_alloc(
   3229                      sizeof( ZDO_MgmtLqiRsp_t ) + (neighborLqiCount * sizeof( ZDP_MgmtLqiItem_t )) );
   \                     ??ZDO_ParseMgmtLqiRsp_0:
   \   00001F                ; Setup parameters for call to function osal_mem_alloc
   \   00001F   E5..         MOV       A,?V7
   \   000021   75F01A       MOV       B,#0x1a
   \   000024   12....       LCALL     ?Subroutine127 & 0xFFFF
   3230            if ( pRsp )
   \                     ??CrossCallReturnLabel_211:
   \   000027   7003         JNZ       $+5
   \   000029   02....       LJMP      ??ZDO_ParseMgmtLqiRsp_1 & 0xFFFF
   3231            {
   3232              uint8 x;
   3233              ZDP_MgmtLqiItem_t *pList = pRsp->list;
   \   00002C   12....       LCALL     ?Subroutine159 & 0xFFFF
   3234              pRsp->status = status;
   \                     ??CrossCallReturnLabel_273:
   \   00002F   E5..         MOV       A,?V6
   \   000031   12....       LCALL     ?Subroutine12 & 0xFFFF
   3235              pRsp->neighborLqiEntries = neighborLqiEntries;
   3236              pRsp->startIndex = startIndex;
   3237              pRsp->neighborLqiCount = neighborLqiCount;
   \                     ??CrossCallReturnLabel_8:
   \   000034   E5..         MOV       A,?V7
   \   000036   F0           MOVX      @DPTR,A
   3238          
   3239              for ( x = 0; x < neighborLqiCount; x++ )
   \   000037   75..00       MOV       ?V4,#0x0
   \   00003A   02....       LJMP      ??ZDO_ParseMgmtLqiRsp_2 & 0xFFFF
   3240              {
   3241                uint8 tmp;
   3242          
   3243                pList->panID = 0; // This isn't in the record, why is it in the structure?
   \                     ??ZDO_ParseMgmtLqiRsp_3:
   \   00003D   85..82       MOV       DPL,?V0
   \   000040   85..83       MOV       DPH,?V1
   \   000043   E4           CLR       A
   \   000044   F0           MOVX      @DPTR,A
   \   000045   A3           INC       DPTR
   \   000046   F0           MOVX      @DPTR,A
   3244                osal_cpyExtAddr(pList->extPanID, msg);   //Copy extended PAN ID
   \   000047                ; Setup parameters for call to function sAddrExtCpy
   \   000047   EE           MOV       A,R6
   \   000048   FC           MOV       R4,A
   \   000049   EF           MOV       A,R7
   \   00004A   FD           MOV       R5,A
   \   00004B   E5..         MOV       A,?V0
   \   00004D   2402         ADD       A,#0x2
   \   00004F   12....       LCALL     ?Subroutine52 & 0xFFFF
   3245                msg += Z_EXTADDR_LEN;
   \                     ??CrossCallReturnLabel_607:
   \   000052   5001         JNC       ??ZDO_ParseMgmtLqiRsp_4
   \   000054   0F           INC       R7
   3246          
   3247                osal_cpyExtAddr(pList->extAddr, msg);   //Copy extended address
   \                     ??ZDO_ParseMgmtLqiRsp_4:
   \   000055                ; Setup parameters for call to function sAddrExtCpy
   \   000055   FC           MOV       R4,A
   \   000056   EF           MOV       A,R7
   \   000057   FD           MOV       R5,A
   \   000058   E5..         MOV       A,?V0
   \   00005A   240A         ADD       A,#0xa
   \   00005C   12....       LCALL     ?Subroutine52 & 0xFFFF
   3248                msg += Z_EXTADDR_LEN;
   \                     ??CrossCallReturnLabel_608:
   \   00005F   5001         JNC       ??ZDO_ParseMgmtLqiRsp_5
   \   000061   0F           INC       R7
   3249          
   3250                pList->nwkAddr = BUILD_UINT16( msg[0], msg[1] );
   \                     ??ZDO_ParseMgmtLqiRsp_5:
   \   000062   12....       LCALL     ?Subroutine195 & 0xFFFF
   \                     ??CrossCallReturnLabel_569:
   \   000065   F9           MOV       R1,A
   \   000066   E5..         MOV       A,?V0
   \   000068   2412         ADD       A,#0x12
   \   00006A   12....       LCALL     ??Subroutine278_0 & 0xFFFF
   \                     ??CrossCallReturnLabel_645:
   \   00006D   EA           MOV       A,R2
   \   00006E   12....       LCALL     ?Subroutine29 & 0xFFFF
   3251                msg += 2;
   3252          
   3253                tmp = *msg++;
   \                     ??CrossCallReturnLabel_45:
   \   000071   F8           MOV       R0,A
   3254                pList->devType = tmp & 0x03;
   \   000072   7403         MOV       A,#0x3
   \   000074   58           ANL       A,R0
   \   000075   C0E0         PUSH      A
   \   000077   E5..         MOV       A,?V0
   \   000079   2414         ADD       A,#0x14
   \   00007B   12....       LCALL     ??Subroutine278_0 & 0xFFFF
   \                     ??CrossCallReturnLabel_646:
   \   00007E   D0E0         POP       A
   \   000080   F0           MOVX      @DPTR,A
   3255                pList->rxOnIdle = (tmp >> 2) & 0x03;
   \   000081   E8           MOV       A,R0
   \   000082   13           RRC       A
   \   000083   13           RRC       A
   \   000084   543F         ANL       A,#0x3f
   \   000086   5403         ANL       A,#0x3
   \   000088   C0E0         PUSH      A
   \   00008A   E5..         MOV       A,?V0
   \   00008C   2415         ADD       A,#0x15
   \   00008E   12....       LCALL     ??Subroutine278_0 & 0xFFFF
   \                     ??CrossCallReturnLabel_647:
   \   000091   D0E0         POP       A
   \   000093   F0           MOVX      @DPTR,A
   3256                pList->relation = (tmp >> 4) & 0x07;
   \   000094   E8           MOV       A,R0
   \   000095   C4           SWAP      A
   \   000096   540F         ANL       A,#0xf
   \   000098   5407         ANL       A,#0x7
   \   00009A   C0E0         PUSH      A
   \   00009C   E5..         MOV       A,?V0
   \   00009E   2416         ADD       A,#0x16
   \   0000A0   12....       LCALL     ??Subroutine278_0 & 0xFFFF
   \                     ??CrossCallReturnLabel_648:
   \   0000A3   D0E0         POP       A
   \   0000A5   12....       LCALL     ?Subroutine19 & 0xFFFF
   3257          
   3258                pList->permit = (*msg++) & 0x03;
   \                     ??CrossCallReturnLabel_25:
   \   0000A8   5403         ANL       A,#0x3
   \   0000AA   C0E0         PUSH      A
   \   0000AC   E5..         MOV       A,?V0
   \   0000AE   2417         ADD       A,#0x17
   \   0000B0   12....       LCALL     ??Subroutine278_0 & 0xFFFF
   \                     ??CrossCallReturnLabel_649:
   \   0000B3   D0E0         POP       A
   \   0000B5   12....       LCALL     ?Subroutine177 & 0xFFFF
   3259          
   3260                pList->depth = *msg++;
   \                     ??CrossCallReturnLabel_304:
   \   0000B8   A3           INC       DPTR
   \   0000B9   E0           MOVX      A,@DPTR
   \   0000BA   C0E0         PUSH      A
   \   0000BC   E5..         MOV       A,?V0
   \   0000BE   2418         ADD       A,#0x18
   \   0000C0   12....       LCALL     ??Subroutine278_0 & 0xFFFF
   \                     ??CrossCallReturnLabel_650:
   \   0000C3   D0E0         POP       A
   \   0000C5   12....       LCALL     ?Subroutine34 & 0xFFFF
   3261          
   3262                pList->lqi = *msg++;
   \                     ??CrossCallReturnLabel_52:
   \   0000C8   C0E0         PUSH      A
   \   0000CA   E5..         MOV       A,?V0
   \   0000CC   2419         ADD       A,#0x19
   \   0000CE   12....       LCALL     ??Subroutine278_0 & 0xFFFF
   \                     ??CrossCallReturnLabel_651:
   \   0000D1   D0E0         POP       A
   \   0000D3   F0           MOVX      @DPTR,A
   \   0000D4   EE           MOV       A,R6
   \   0000D5   2406         ADD       A,#0x6
   \   0000D7   FE           MOV       R6,A
   \   0000D8   5001         JNC       ??ZDO_ParseMgmtLqiRsp_6
   \   0000DA   0F           INC       R7
   3263                pList++;
   \                     ??ZDO_ParseMgmtLqiRsp_6:
   \   0000DB   E5..         MOV       A,?V0
   \   0000DD   241A         ADD       A,#0x1a
   \   0000DF   F5..         MOV       ?V0,A
   \   0000E1   5002         JNC       ??ZDO_ParseMgmtLqiRsp_7
   \   0000E3   05..         INC       ?V1
   3264              }
   \                     ??ZDO_ParseMgmtLqiRsp_7:
   \   0000E5   05..         INC       ?V4
   \                     ??ZDO_ParseMgmtLqiRsp_2:
   \   0000E7   E5..         MOV       A,?V4
   \   0000E9   C3           CLR       C
   \   0000EA   95..         SUBB      A,?V7
   \   0000EC   5003         JNC       $+5
   \   0000EE   02....       LJMP      ??ZDO_ParseMgmtLqiRsp_3 & 0xFFFF
   3265            }
   3266          
   3267            return ( pRsp );
   \                     ??ZDO_ParseMgmtLqiRsp_1:
   \   0000F1                REQUIRE ?Subroutine7
   \   0000F1                ; // Fall through to label ?Subroutine7
   3268          }

   \                                 In  segment BANKED_CODE, align 1, keep-with-next
   \                     ?Subroutine7:
   \   000000   AA..         MOV       R2,?V2
   \   000002   AB..         MOV       R3,?V3
   \   000004   02....       LJMP      ??Subroutine224_0 & 0xFFFF

   \                                 In  segment BANKED_CODE, align 1, keep-with-next
   \                     ?Subroutine70:
   \   000000   12....       LCALL     ?Subroutine194 & 0xFFFF
   \                     ??CrossCallReturnLabel_321:
   \   000003   F5..         MOV       ?V6,A
   \   000005   A3           INC       DPTR
   \   000006   AE82         MOV       R6,DPL
   \   000008   AF83         MOV       R7,DPH
   \   00000A   22           RET

   \                                 In  segment BANKED_CODE, align 1, keep-with-next
   \                     ?Subroutine159:
   \   000000   12....       LCALL     ?Subroutine207 & 0xFFFF
   \                     ??CrossCallReturnLabel_341:
   \   000003   8A82         MOV       DPL,R2
   \   000005   8B83         MOV       DPH,R3
   \   000007   22           RET

   \                                 In  segment BANKED_CODE, align 1, keep-with-next
   \                     ?Subroutine207:
   \   000000   EA           MOV       A,R2
   \   000001   2404         ADD       A,#0x4
   \   000003   F5..         MOV       ?V0,A
   \   000005   E4           CLR       A
   \   000006   35..         ADDC      A,?V3
   \   000008   F5..         MOV       ?V1,A
   \   00000A   22           RET

   \                                 In  segment BANKED_CODE, align 1, keep-with-next
   \                     ?Subroutine127:
   \   000000   A4           MUL       AB
   \   000001   A9F0         MOV       R1,B
   \   000003   2404         ADD       A,#0x4
   \   000005   FA           MOV       R2,A
   \   000006   E4           CLR       A
   \   000007   39           ADDC      A,R1
   \   000008   FB           MOV       R3,A
   \   000009   12....       LCALL     ?Subroutine206 & 0xFFFF
   \                     ??CrossCallReturnLabel_403:
   \   00000C   22           RET

   \                                 In  segment BANKED_CODE, align 1, keep-with-next
   \                     ?Subroutine194:
   \   000000   12....       LCALL     ?Subroutine218 & 0xFFFF
   \                     ??CrossCallReturnLabel_350:
   \   000003   FE           MOV       R6,A
   \   000004   A3           INC       DPTR
   \   000005   E0           MOVX      A,@DPTR
   \   000006   8E82         MOV       DPL,R6
   \   000008   F583         MOV       DPH,A
   \   00000A   E0           MOVX      A,@DPTR
   \   00000B   22           RET

   \                                 In  segment BANKED_CODE, align 1, keep-with-next
   \                     ?Subroutine83:
   \   000000   E0           MOVX      A,@DPTR
   \   000001   F5..         MOV       ?V4,A
   \   000003   A3           INC       DPTR
   \   000004   E0           MOVX      A,@DPTR
   \   000005   F5..         MOV       ?V5,A
   \   000007   8E82         MOV       DPL,R6
   \   000009   8F83         MOV       DPH,R7
   \   00000B   A3           INC       DPTR
   \   00000C   A3           INC       DPTR
   \   00000D   E0           MOVX      A,@DPTR
   \   00000E   22           RET

   \                                 In  segment BANKED_CODE, align 1, keep-with-next
   \                     ?Subroutine12:
   \   000000   F0           MOVX      @DPTR,A
   \   000001   A3           INC       DPTR
   \   000002   E5..         MOV       A,?V4
   \   000004   12....       LCALL     ?Subroutine176 & 0xFFFF
   \                     ??CrossCallReturnLabel_622:
   \   000007   A3           INC       DPTR
   \   000008   E5..         MOV       A,?V5
   \   00000A   12....       LCALL     ?Subroutine175 & 0xFFFF
   \                     ??CrossCallReturnLabel_303:
   \   00000D   22           RET

   \                                 In  segment BANKED_CODE, align 1, keep-with-next
   \                     ?Subroutine175:
   \   000000   12....       LCALL     ?Subroutine210 & 0xFFFF
   \                     ??CrossCallReturnLabel_627:
   \   000003   A3           INC       DPTR
   \   000004   A3           INC       DPTR
   \   000005   A3           INC       DPTR
   \   000006   22           RET

   \                                 In  segment BANKED_CODE, align 1, keep-with-next
   \                     ?Subroutine29:
   \   000000   12....       LCALL     ?Subroutine168 & 0xFFFF
   \                     ??CrossCallReturnLabel_695:
   \   000003   22           RET
   3269          
   3270          /*********************************************************************
   3271           * @fn          ZDO_ParseMgmNwkDiscRsp
   3272           *
   3273           * @brief       This function parses the incoming Management
   3274           *              Network Discover response.
   3275           *
   3276           * @param       inMsg - incoming message
   3277           *
   3278           * @return      pointer to parsed response.  This structure was
   3279           *          allocated using osal_mem_alloc, so it must be freed
   3280           *          by the calling function [osal_mem_free()].
   3281           */

   \                                 In  segment BANKED_CODE, align 1, keep-with-next
   3282          ZDO_MgmNwkDiscRsp_t *ZDO_ParseMgmNwkDiscRsp( zdoIncomingMsg_t *inMsg )
   \                     ZDO_ParseMgmNwkDiscRsp:
   3283          {
   \   000000                REQUIRE ?V0
   \   000000                REQUIRE ?V1
   \   000000                REQUIRE ?V2
   \   000000                REQUIRE ?V3
   \   000000                REQUIRE ?V4
   \   000000                REQUIRE ?V5
   \   000000                REQUIRE ?V6
   \   000000                REQUIRE ?V7
   \   000000   74F0         MOV       A,#-0x10
   \   000002   12....       LCALL     ?BANKED_ENTER_XDATA
   \   000005                ; Saved register size: 16
   \   000005                ; Auto size: 0
   3284            ZDO_MgmNwkDiscRsp_t *pRsp;
   3285            uint8 status;
   3286            uint8 networkCount = 0;
   \   000005   75..00       MOV       ?V0,#0x0
   3287            uint8 startIndex = 0;
   \   000008   75..00       MOV       ?V1,#0x0
   3288            uint8 networkListCount = 0;
   \   00000B   75..00       MOV       ?V7,#0x0
   3289            uint8 *msg;
   3290          
   3291            msg = inMsg->asdu;
   \   00000E   12....       LCALL     ?Subroutine70 & 0xFFFF
   3292            status = *msg++;
   3293          
   3294            if ( status == ZSuccess )
   \                     ??CrossCallReturnLabel_116:
   \   000011   7013         JNZ       ??ZDO_ParseMgmNwkDiscRsp_0
   3295            {
   3296              networkCount = *msg++;
   \   000013   12....       LCALL     ??Subroutine225_0 & 0xFFFF
   3297              startIndex = *msg++;
   3298              networkListCount = *msg++;
   \                     ??CrossCallReturnLabel_354:
   \   000016   8E82         MOV       DPL,R6
   \   000018   8F83         MOV       DPH,R7
   \   00001A   A3           INC       DPTR
   \   00001B   A3           INC       DPTR
   \   00001C   E0           MOVX      A,@DPTR
   \   00001D   F5..         MOV       ?V7,A
   \   00001F   EE           MOV       A,R6
   \   000020   2403         ADD       A,#0x3
   \   000022   FE           MOV       R6,A
   \   000023   5001         JNC       ??ZDO_ParseMgmNwkDiscRsp_0
   \   000025   0F           INC       R7
   3299            }
   3300          
   3301            // Allocate a buffer big enough to handle the list.
   3302            pRsp = (ZDO_MgmNwkDiscRsp_t *)osal_mem_alloc( sizeof( ZDO_MgmNwkDiscRsp_t )
   3303                                            + (networkListCount * sizeof( mgmtNwkDiscItem_t )) );
   \                     ??ZDO_ParseMgmNwkDiscRsp_0:
   \   000026                ; Setup parameters for call to function osal_mem_alloc
   \   000026   E5..         MOV       A,?V7
   \   000028   F5..         MOV       ?V2,A
   \   00002A   75..00       MOV       ?V3,#0x0
   \   00002D   7404         MOV       A,#0x4
   \   00002F   78..         MOV       R0,#?V2
   \   000031   12....       LCALL     ?S_SHL
   \   000034   E5..         MOV       A,?V2
   \   000036   2404         ADD       A,#0x4
   \   000038   FA           MOV       R2,A
   \   000039   E4           CLR       A
   \   00003A   35..         ADDC      A,?V3
   \   00003C   12....       LCALL     ?Subroutine153 & 0xFFFF
   3304            if ( pRsp )
   \                     ??CrossCallReturnLabel_400:
   \   00003F   7003         JNZ       $+5
   \   000041   02....       LJMP      ??ZDO_ParseMgmNwkDiscRsp_1 & 0xFFFF
   3305            {
   3306              uint8 x;
   3307              mgmtNwkDiscItem_t *pList;
   3308          
   3309              pRsp->status = status;
   \   000044   8A82         MOV       DPL,R2
   \   000046   8B83         MOV       DPH,R3
   \   000048   E5..         MOV       A,?V6
   \   00004A   F0           MOVX      @DPTR,A
   3310              pRsp->networkCount = networkCount;
   \   00004B   A3           INC       DPTR
   \   00004C   E5..         MOV       A,?V0
   \   00004E   12....       LCALL     ?Subroutine17 & 0xFFFF
   3311              pRsp->startIndex = startIndex;
   3312              pRsp->networkListCount = networkListCount;
   \                     ??CrossCallReturnLabel_17:
   \   000051   E5..         MOV       A,?V7
   \   000053   F0           MOVX      @DPTR,A
   3313              pList = pRsp->list;
   \   000054   12....       LCALL     ?Subroutine207 & 0xFFFF
   3314          
   3315              for ( x = 0; x < networkListCount; x++ )
   \                     ??CrossCallReturnLabel_340:
   \   000057   75..00       MOV       ?V4,#0x0
   \   00005A   807E         SJMP      ??ZDO_ParseMgmNwkDiscRsp_2
   3316              {
   3317                osal_cpyExtAddr(pList->extendedPANID, msg);   //Copy extended PAN ID
   \                     ??ZDO_ParseMgmNwkDiscRsp_3:
   \   00005C                ; Setup parameters for call to function sAddrExtCpy
   \   00005C   EE           MOV       A,R6
   \   00005D   FC           MOV       R4,A
   \   00005E   EF           MOV       A,R7
   \   00005F   FD           MOV       R5,A
   \   000060   AA..         MOV       R2,?V0
   \   000062   AB..         MOV       R3,?V1
   \   000064   12....       LCALL     `??sAddrExtCpy::?relay`; Banked call to: sAddrExtCpy
   3318                pList->PANId = BUILD_UINT16( msg[0], msg[1] );
   \   000067   12....       LCALL     ?Subroutine67 & 0xFFFF
   \                     ??CrossCallReturnLabel_109:
   \   00006A   A3           INC       DPTR
   \   00006B   F0           MOVX      @DPTR,A
   \   00006C   A3           INC       DPTR
   \   00006D   E9           MOV       A,R1
   \   00006E   12....       LCALL     ?Subroutine21 & 0xFFFF
   3319                msg += Z_EXTADDR_LEN;
   3320          
   3321                pList->logicalChannel = *msg++;
   \                     ??CrossCallReturnLabel_28:
   \   000071   85..82       MOV       DPL,?V0
   \   000074   85..83       MOV       DPH,?V1
   \   000077   A3           INC       DPTR
   \   000078   A3           INC       DPTR
   \   000079   A3           INC       DPTR
   \   00007A   A3           INC       DPTR
   \   00007B   A3           INC       DPTR
   \   00007C   A3           INC       DPTR
   \   00007D   A3           INC       DPTR
   \   00007E   A3           INC       DPTR
   \   00007F   A3           INC       DPTR
   \   000080   A3           INC       DPTR
   \   000081   F0           MOVX      @DPTR,A
   3322                pList->stackProfile = (*msg) & 0x0F;
   \   000082   EE           MOV       A,R6
   \   000083   2409         ADD       A,#0x9
   \   000085   F8           MOV       R0,A
   \   000086   12....       LCALL     ?Subroutine141 & 0xFFFF
   \                     ??CrossCallReturnLabel_241:
   \   000089   C0E0         PUSH      A
   \   00008B   E5..         MOV       A,?V0
   \   00008D   240B         ADD       A,#0xb
   \   00008F   12....       LCALL     ??Subroutine278_0 & 0xFFFF
   \                     ??CrossCallReturnLabel_652:
   \   000092   D0E0         POP       A
   \   000094   12....       LCALL     ?Subroutine44 & 0xFFFF
   3323                pList->version = (*msg++ >> 4) & 0x0F;
   \                     ??CrossCallReturnLabel_68:
   \   000097   C0E0         PUSH      A
   \   000099   12....       LCALL     ?Subroutine157 & 0xFFFF
   \                     ??CrossCallReturnLabel_658:
   \   00009C   D0E0         POP       A
   \   00009E   F0           MOVX      @DPTR,A
   3324                pList->beaconOrder = (*msg) & 0x0F;
   \   00009F   EE           MOV       A,R6
   \   0000A0   240A         ADD       A,#0xa
   \   0000A2   08           INC       R0
   \   0000A3   12....       LCALL     ?Subroutine141 & 0xFFFF
   \                     ??CrossCallReturnLabel_242:
   \   0000A6   C0E0         PUSH      A
   \   0000A8   E5..         MOV       A,?V0
   \   0000AA   240D         ADD       A,#0xd
   \   0000AC   12....       LCALL     ??Subroutine278_0 & 0xFFFF
   \                     ??CrossCallReturnLabel_653:
   \   0000AF   D0E0         POP       A
   \   0000B1   12....       LCALL     ?Subroutine44 & 0xFFFF
   3325                pList->superFrameOrder = (*msg++ >> 4) & 0x0F;
   \                     ??CrossCallReturnLabel_69:
   \   0000B4   C0E0         PUSH      A
   \   0000B6   12....       LCALL     ?Subroutine142 & 0xFFFF
   \                     ??CrossCallReturnLabel_244:
   \   0000B9   D0E0         POP       A
   \   0000BB   F0           MOVX      @DPTR,A
   3326                pList->permitJoining = *msg++;
   \   0000BC   12....       LCALL     ?Subroutine156 & 0xFFFF
   \                     ??CrossCallReturnLabel_270:
   \   0000BF   C0E0         PUSH      A
   \   0000C1   12....       LCALL     ?Subroutine145 & 0xFFFF
   \                     ??CrossCallReturnLabel_249:
   \   0000C4   D0E0         POP       A
   \   0000C6   F0           MOVX      @DPTR,A
   \   0000C7   EE           MOV       A,R6
   \   0000C8   240C         ADD       A,#0xc
   \   0000CA   FE           MOV       R6,A
   \   0000CB   5001         JNC       ??ZDO_ParseMgmNwkDiscRsp_4
   \   0000CD   0F           INC       R7
   3327                pList++;
   \                     ??ZDO_ParseMgmNwkDiscRsp_4:
   \   0000CE   E5..         MOV       A,?V0
   \   0000D0   2410         ADD       A,#0x10
   \   0000D2   F5..         MOV       ?V0,A
   \   0000D4   5002         JNC       ??ZDO_ParseMgmNwkDiscRsp_5
   \   0000D6   05..         INC       ?V1
   3328              }
   \                     ??ZDO_ParseMgmNwkDiscRsp_5:
   \   0000D8   05..         INC       ?V4
   \                     ??ZDO_ParseMgmNwkDiscRsp_2:
   \   0000DA   E5..         MOV       A,?V4
   \   0000DC   C3           CLR       C
   \   0000DD   95..         SUBB      A,?V7
   \   0000DF   5003         JNC       $+5
   \   0000E1   02....       LJMP      ??ZDO_ParseMgmNwkDiscRsp_3 & 0xFFFF
   3329            }
   3330          
   3331            return ( pRsp );
   \                     ??ZDO_ParseMgmNwkDiscRsp_1:
   \   0000E4   02....       LJMP      ?Subroutine7 & 0xFFFF
   3332          }

   \                                 In  segment BANKED_CODE, align 1, keep-with-next
   \                     ?Subroutine141:
   \   000000   E4           CLR       A
   \   000001   3F           ADDC      A,R7
   \   000002   F9           MOV       R1,A
   \   000003   8882         MOV       DPL,R0
   \   000005   F583         MOV       DPH,A
   \   000007   E0           MOVX      A,@DPTR
   \   000008   540F         ANL       A,#0xf
   \   00000A   22           RET

   \                                 In  segment BANKED_CODE, align 1, keep-with-next
   \                     ?Subroutine44:
   \   000000   12....       LCALL     ?Subroutine173 & 0xFFFF
   \                     ??CrossCallReturnLabel_301:
   \   000003   C4           SWAP      A
   \   000004   540F         ANL       A,#0xf
   \   000006   22           RET

   \                                 In  segment BANKED_CODE, align 1, keep-with-next
   \                     ?Subroutine17:
   \   000000   12....       LCALL     ?Subroutine176 & 0xFFFF
   \                     ??CrossCallReturnLabel_621:
   \   000003   A3           INC       DPTR
   \   000004   E5..         MOV       A,?V1
   \   000006   12....       LCALL     ?Subroutine175 & 0xFFFF
   \                     ??CrossCallReturnLabel_302:
   \   000009   22           RET

   \                                 In  segment BANKED_CODE, align 1, keep-with-next
   \                     ?Subroutine67:
   \   000000   8E82         MOV       DPL,R6
   \   000002   12....       LCALL     ?Subroutine180 & 0xFFFF
   \                     ??CrossCallReturnLabel_309:
   \   000005   22           RET
   3333          
   3334          /*********************************************************************
   3335           * @fn          ZDO_ParseMgmtRtgRsp
   3336           *
   3337           * @brief       This function parses the incoming Management
   3338           *              Routing response.
   3339           *
   3340           * @param       inMsg - incoming message
   3341           *
   3342           * @return      a pointer to parsed response structure (NULL if not allocated).
   3343           *          This structure was allocated using osal_mem_alloc, so it must be freed
   3344           *          by the calling function [osal_mem_free()].
   3345           */

   \                                 In  segment BANKED_CODE, align 1, keep-with-next
   3346          ZDO_MgmtRtgRsp_t *ZDO_ParseMgmtRtgRsp( zdoIncomingMsg_t *inMsg )
   \                     ZDO_ParseMgmtRtgRsp:
   3347          {
   \   000000                REQUIRE ?V0
   \   000000                REQUIRE ?V1
   \   000000                REQUIRE ?V2
   \   000000                REQUIRE ?V3
   \   000000                REQUIRE ?V4
   \   000000                REQUIRE ?V5
   \   000000   74F2         MOV       A,#-0xe
   \   000002   12....       LCALL     ?BANKED_ENTER_XDATA
   \   000005                ; Saved register size: 14
   \   000005                ; Auto size: 0
   3348            ZDO_MgmtRtgRsp_t *pRsp;
   3349            uint8 status;
   3350            uint8 rtgCount = 0;
   \   000005   75..00       MOV       ?V4,#0x0
   3351            uint8 startIndex = 0;
   \   000008   75..00       MOV       ?V1,#0x0
   3352            uint8 rtgListCount = 0;
   \   00000B   75..00       MOV       ?V0,#0x0
   3353            uint8 *msg;
   3354          
   3355            msg = inMsg->asdu;
   \   00000E   12....       LCALL     ?Subroutine108 & 0xFFFF
   3356          
   3357            status = *msg++;
   \                     ??CrossCallReturnLabel_177:
   \   000011   F5..         MOV       ?V5,A
   \   000013   A3           INC       DPTR
   \   000014   AE82         MOV       R6,DPL
   \   000016   AF83         MOV       R7,DPH
   3358            if ( status == ZSuccess )
   \   000018   7017         JNZ       ??ZDO_ParseMgmtRtgRsp_0
   3359            {
   3360              rtgCount = *msg++;
   \   00001A   E0           MOVX      A,@DPTR
   \   00001B   F5..         MOV       ?V4,A
   3361              startIndex = *msg++;
   \   00001D   A3           INC       DPTR
   \   00001E   E0           MOVX      A,@DPTR
   \   00001F   F5..         MOV       ?V1,A
   3362              rtgListCount = *msg++;
   \   000021   8E82         MOV       DPL,R6
   \   000023   8F83         MOV       DPH,R7
   \   000025   A3           INC       DPTR
   \   000026   A3           INC       DPTR
   \   000027   E0           MOVX      A,@DPTR
   \   000028   F5..         MOV       ?V0,A
   \   00002A   EE           MOV       A,R6
   \   00002B   2403         ADD       A,#0x3
   \   00002D   FE           MOV       R6,A
   \   00002E   5001         JNC       ??ZDO_ParseMgmtRtgRsp_0
   \   000030   0F           INC       R7
   3363            }
   3364          
   3365            // Allocate a buffer big enough to handle the list
   3366            pRsp = (ZDO_MgmtRtgRsp_t *)osal_mem_alloc(
   3367                    sizeof( ZDO_MgmtRtgRsp_t ) + (rtgListCount * sizeof( rtgItem_t )) );
   \                     ??ZDO_ParseMgmtRtgRsp_0:
   \   000031                ; Setup parameters for call to function osal_mem_alloc
   \   000031   E5..         MOV       A,?V0
   \   000033   75F007       MOV       B,#0x7
   \   000036   A4           MUL       AB
   \   000037   A9F0         MOV       R1,B
   \   000039   2404         ADD       A,#0x4
   \   00003B   12....       LCALL     ?Subroutine133 & 0xFFFF
   3368            if ( pRsp )
   \                     ??CrossCallReturnLabel_223:
   \   00003E   EA           MOV       A,R2
   \   00003F   4B           ORL       A,R3
   \   000040   6071         JZ        ??ZDO_ParseMgmtRtgRsp_1
   3369            {
   3370              uint8 x;
   3371              rtgItem_t *pList = pRsp->list;
   \   000042   EA           MOV       A,R2
   \   000043   2404         ADD       A,#0x4
   \   000045   F8           MOV       R0,A
   \   000046   E4           CLR       A
   \   000047   3B           ADDC      A,R3
   \   000048   F9           MOV       R1,A
   3372              pRsp->status = status;
   \   000049   8A82         MOV       DPL,R2
   \   00004B   8B83         MOV       DPH,R3
   \   00004D   E5..         MOV       A,?V5
   \   00004F   F0           MOVX      @DPTR,A
   3373              pRsp->rtgCount = rtgCount;
   \   000050   A3           INC       DPTR
   \   000051   E5..         MOV       A,?V4
   \   000053   12....       LCALL     ?Subroutine17 & 0xFFFF
   3374              pRsp->startIndex = startIndex;
   3375              pRsp->rtgListCount = rtgListCount;
   \                     ??CrossCallReturnLabel_18:
   \   000056   E5..         MOV       A,?V0
   \   000058   F0           MOVX      @DPTR,A
   3376          
   3377              for ( x = 0; x < rtgListCount; x++ )
   \   000059   7C00         MOV       R4,#0x0
   \   00005B   8050         SJMP      ??ZDO_ParseMgmtRtgRsp_2
   3378              {
   3379                uint8 statOpt;
   3380          
   3381                pList->dstAddress = BUILD_UINT16( msg[0], msg[1] );
   \                     ??ZDO_ParseMgmtRtgRsp_3:
   \   00005D   8E82         MOV       DPL,R6
   \   00005F   8F83         MOV       DPH,R7
   \   000061   E0           MOVX      A,@DPTR
   \   000062   12....       LCALL     ?Subroutine112 & 0xFFFF
   \                     ??CrossCallReturnLabel_183:
   \   000065   F0           MOVX      @DPTR,A
   \   000066   A3           INC       DPTR
   \   000067   E5..         MOV       A,?V3
   \   000069   12....       LCALL     ?Subroutine50 & 0xFFFF
   3382                msg += 2;
   3383                statOpt = *msg++;
   \                     ??CrossCallReturnLabel_83:
   \   00006C   FD           MOV       R5,A
   \   00006D   EE           MOV       A,R6
   \   00006E   2403         ADD       A,#0x3
   \   000070   FE           MOV       R6,A
   \   000071   5001         JNC       ??ZDO_ParseMgmtRtgRsp_4
   \   000073   0F           INC       R7
   3384                pList->status = (statOpt & 0x07);
   \                     ??ZDO_ParseMgmtRtgRsp_4:
   \   000074   7407         MOV       A,#0x7
   \   000076   5D           ANL       A,R5
   \   000077   8882         MOV       DPL,R0
   \   000079   8983         MOV       DPH,R1
   \   00007B   A3           INC       DPTR
   \   00007C   A3           INC       DPTR
   \   00007D   A3           INC       DPTR
   \   00007E   A3           INC       DPTR
   \   00007F   A3           INC       DPTR
   \   000080   F0           MOVX      @DPTR,A
   3385                pList->options = ((statOpt >> 3) & 0x07);
   \   000081   ED           MOV       A,R5
   \   000082   13           RRC       A
   \   000083   13           RRC       A
   \   000084   13           RRC       A
   \   000085   541F         ANL       A,#0x1f
   \   000087   5407         ANL       A,#0x7
   \   000089   8882         MOV       DPL,R0
   \   00008B   8983         MOV       DPH,R1
   \   00008D   A3           INC       DPTR
   \   00008E   A3           INC       DPTR
   \   00008F   A3           INC       DPTR
   \   000090   A3           INC       DPTR
   \   000091   A3           INC       DPTR
   \   000092   A3           INC       DPTR
   \   000093   12....       LCALL     ??Subroutine280_0 & 0xFFFF
   3386                pList->nextHopAddress = BUILD_UINT16( msg[0], msg[1] );
   \                     ??CrossCallReturnLabel_668:
   \   000096   12....       LCALL     ?Subroutine112 & 0xFFFF
   \                     ??CrossCallReturnLabel_184:
   \   000099   A3           INC       DPTR
   \   00009A   A3           INC       DPTR
   \   00009B   F0           MOVX      @DPTR,A
   \   00009C   A3           INC       DPTR
   \   00009D   E5..         MOV       A,?V3
   \   00009F   12....       LCALL     ?Subroutine172 & 0xFFFF
   3387                msg += 2;
   \                     ??CrossCallReturnLabel_583:
   \   0000A2   5001         JNC       ??ZDO_ParseMgmtRtgRsp_5
   \   0000A4   0F           INC       R7
   3388                pList++;
   \                     ??ZDO_ParseMgmtRtgRsp_5:
   \   0000A5   E8           MOV       A,R0
   \   0000A6   2407         ADD       A,#0x7
   \   0000A8   F8           MOV       R0,A
   \   0000A9   5001         JNC       ??ZDO_ParseMgmtRtgRsp_6
   \   0000AB   09           INC       R1
   3389              }
   \                     ??ZDO_ParseMgmtRtgRsp_6:
   \   0000AC   0C           INC       R4
   \                     ??ZDO_ParseMgmtRtgRsp_2:
   \   0000AD   EC           MOV       A,R4
   \   0000AE   C3           CLR       C
   \   0000AF   95..         SUBB      A,?V0
   \   0000B1   40AA         JC        ??ZDO_ParseMgmtRtgRsp_3
   3390            }
   3391          
   3392            return ( pRsp );
   \                     ??ZDO_ParseMgmtRtgRsp_1:
   \   0000B3   02....       LJMP      ??Subroutine250_0 & 0xFFFF
   3393          }

   \                                 In  segment BANKED_CODE, align 1, keep-with-next
   \                     ?Subroutine112:
   \   000000   F5..         MOV       ?V4,A
   \   000002   A3           INC       DPTR
   \   000003   E0           MOVX      A,@DPTR
   \   000004   F5..         MOV       ?V3,A
   \   000006   E5..         MOV       A,?V4
   \   000008   8882         MOV       DPL,R0
   \   00000A   8983         MOV       DPH,R1
   \   00000C   22           RET

   \                                 In  segment BANKED_CODE, align 1, keep-with-next
   \                     ?Subroutine108:
   \   000000   12....       LCALL     ?Subroutine194 & 0xFFFF
   \                     ??CrossCallReturnLabel_322:
   \   000003   22           RET
   3394          
   3395          /*********************************************************************
   3396           * @fn          ZDO_ParseMgmtBindRsp
   3397           *
   3398           * @brief       This function parses the incoming Management
   3399           *              Binding response.
   3400           *
   3401           * @param       inMsg - pointer to message to parse
   3402           *
   3403           * @return      a pointer to parsed response structure (NULL if not allocated).
   3404           *          This structure was allocated using osal_mem_alloc, so it must be freed
   3405           *          by the calling function [osal_mem_free()].
   3406           */

   \                                 In  segment BANKED_CODE, align 1, keep-with-next
   3407          ZDO_MgmtBindRsp_t *ZDO_ParseMgmtBindRsp( zdoIncomingMsg_t *inMsg )
   \                     ZDO_ParseMgmtBindRsp:
   3408          {
   \   000000                REQUIRE ?V0
   \   000000                REQUIRE ?V1
   \   000000                REQUIRE ?V2
   \   000000                REQUIRE ?V3
   \   000000                REQUIRE ?V4
   \   000000                REQUIRE ?V5
   \   000000                REQUIRE ?V6
   \   000000                REQUIRE ?V7
   \   000000   74F0         MOV       A,#-0x10
   \   000002   12....       LCALL     ?BANKED_ENTER_XDATA
   \   000005                ; Saved register size: 16
   \   000005                ; Auto size: 0
   3409            ZDO_MgmtBindRsp_t *pRsp;
   3410            uint8 status;
   3411            uint8 bindingCount = 0;
   \   000005   75..00       MOV       ?V4,#0x0
   3412            uint8 startIndex = 0;
   \   000008   75..00       MOV       ?V5,#0x0
   3413            uint8 bindingListCount = 0;
   \   00000B   75..00       MOV       ?V6,#0x0
   3414            uint8 *msg;
   3415          
   3416            msg = inMsg->asdu;
   \   00000E   12....       LCALL     ?Subroutine108 & 0xFFFF
   3417          
   3418            status = *msg++;
   \                     ??CrossCallReturnLabel_178:
   \   000011   F5..         MOV       ?V7,A
   \   000013   A3           INC       DPTR
   \   000014   AE82         MOV       R6,DPL
   \   000016   AF83         MOV       R7,DPH
   3419            if ( status == ZSuccess )
   \   000018   700C         JNZ       ??ZDO_ParseMgmtBindRsp_0
   3420            {
   3421              bindingCount = *msg++;
   \   00001A   12....       LCALL     ?Subroutine83 & 0xFFFF
   3422              startIndex = *msg++;
   3423              bindingListCount = *msg++;
   3424            }
   \                     ??CrossCallReturnLabel_140:
   \   00001D   F5..         MOV       ?V6,A
   \   00001F   EE           MOV       A,R6
   \   000020   2403         ADD       A,#0x3
   \   000022   FE           MOV       R6,A
   \   000023   5001         JNC       ??ZDO_ParseMgmtBindRsp_0
   \   000025   0F           INC       R7
   3425          
   3426            // Allocate a buffer big enough to handle the list
   3427            pRsp = (ZDO_MgmtBindRsp_t *)osal_mem_alloc(
   3428                    (sizeof ( ZDO_MgmtBindRsp_t ) + (bindingListCount * sizeof( apsBindingItem_t ))) );
   \                     ??ZDO_ParseMgmtBindRsp_0:
   \   000026                ; Setup parameters for call to function osal_mem_alloc
   \   000026   E5..         MOV       A,?V6
   \   000028   75F015       MOV       B,#0x15
   \   00002B   12....       LCALL     ?Subroutine127 & 0xFFFF
   3429            if ( pRsp )
   \                     ??CrossCallReturnLabel_212:
   \   00002E   6057         JZ        ??ZDO_ParseMgmtBindRsp_1
   3430            {
   3431              uint8 x;
   3432              apsBindingItem_t *pList = pRsp->list;
   \   000030   12....       LCALL     ?Subroutine159 & 0xFFFF
   3433              pRsp->status = status;
   \                     ??CrossCallReturnLabel_274:
   \   000033   E5..         MOV       A,?V7
   \   000035   12....       LCALL     ?Subroutine12 & 0xFFFF
   3434              pRsp->bindingCount = bindingCount;
   3435              pRsp->startIndex = startIndex;
   3436              pRsp->bindingListCount = bindingListCount;
   \                     ??CrossCallReturnLabel_9:
   \   000038   E5..         MOV       A,?V6
   \   00003A   F0           MOVX      @DPTR,A
   3437          
   3438              for ( x = 0; x < bindingListCount; x++ )
   \   00003B   75..00       MOV       ?V4,#0x0
   \   00003E   8015         SJMP      ??ZDO_ParseMgmtBindRsp_2
   3439              {
   3440                osal_cpyExtAddr( pList->srcAddr, msg );
   3441                msg += Z_EXTADDR_LEN;
   3442                pList->srcEP = *msg++;
   3443          
   3444                // Get the Cluster ID
   3445          
   3446                pList->clusterID = BUILD_UINT16( msg[0], msg[1] );
   3447                msg += 2;
   3448                pList->dstAddr.addrMode = *msg++;
   3449                if ( pList->dstAddr.addrMode == Addr64Bit )
   3450                {
   3451                  osal_cpyExtAddr( pList->dstAddr.addr.extAddr, msg );
   3452                  msg += Z_EXTADDR_LEN;
   3453                  pList->dstEP = *msg++;
   3454                }
   3455                else
   3456                {
   3457                  pList->dstAddr.addr.shortAddr = BUILD_UINT16( msg[0], msg[1] );
   \                     ??ZDO_ParseMgmtBindRsp_3:
   \   000040   12....       LCALL     ?Subroutine103 & 0xFFFF
   3458                  msg += 2;
   3459                }
   \                     ??CrossCallReturnLabel_170:
   \   000043   12....       LCALL     ??Subroutine265_0 & 0xFFFF
   \                     ??CrossCallReturnLabel_580:
   \   000046   5001         JNC       ??ZDO_ParseMgmtBindRsp_4
   \   000048   0F           INC       R7
   3460          
   3461                pList++;
   \                     ??ZDO_ParseMgmtBindRsp_4:
   \   000049   E5..         MOV       A,?V0
   \   00004B   2415         ADD       A,#0x15
   \   00004D   F5..         MOV       ?V0,A
   \   00004F   5002         JNC       ??ZDO_ParseMgmtBindRsp_5
   \   000051   05..         INC       ?V1
   \                     ??ZDO_ParseMgmtBindRsp_5:
   \   000053   05..         INC       ?V4
   \                     ??ZDO_ParseMgmtBindRsp_2:
   \   000055   E5..         MOV       A,?V4
   \   000057   C3           CLR       C
   \   000058   95..         SUBB      A,?V6
   \   00005A   502B         JNC       ??ZDO_ParseMgmtBindRsp_1
   \   00005C                ; Setup parameters for call to function sAddrExtCpy
   \   00005C   12....       LCALL     ?Subroutine42 & 0xFFFF
   \                     ??CrossCallReturnLabel_670:
   \   00005F   5001         JNC       ??ZDO_ParseMgmtBindRsp_6
   \   000061   0F           INC       R7
   \                     ??ZDO_ParseMgmtBindRsp_6:
   \   000062   12....       LCALL     ?Subroutine10 & 0xFFFF
   \                     ??CrossCallReturnLabel_5:
   \   000065   5001         JNC       ??ZDO_ParseMgmtBindRsp_7
   \   000067   0F           INC       R7
   \                     ??ZDO_ParseMgmtBindRsp_7:
   \   000068   12....       LCALL     ?Subroutine155 & 0xFFFF
   \                     ??CrossCallReturnLabel_268:
   \   00006B   70D3         JNZ       ??ZDO_ParseMgmtBindRsp_3
   \   00006D                ; Setup parameters for call to function sAddrExtCpy
   \   00006D   EE           MOV       A,R6
   \   00006E   FC           MOV       R4,A
   \   00006F   EF           MOV       A,R7
   \   000070   FD           MOV       R5,A
   \   000071   12....       LCALL     ??Subroutine264_0 & 0xFFFF
   3462              }
   3463            }
   \                     ??CrossCallReturnLabel_573:
   \   000074   C0E0         PUSH      A
   \   000076   E5..         MOV       A,?V0
   \   000078   2414         ADD       A,#0x14
   \   00007A   12....       LCALL     ??Subroutine278_0 & 0xFFFF
   \                     ??CrossCallReturnLabel_654:
   \   00007D   D0E0         POP       A
   \   00007F   12....       LCALL     ??Subroutine281_0 & 0xFFFF
   \                     ??CrossCallReturnLabel_672:
   \   000082   50C5         JNC       ??ZDO_ParseMgmtBindRsp_4
   \   000084   0F           INC       R7
   \                     ??ZDO_ParseMgmtBindRsp_8:
   \   000085   80C2         SJMP      ??ZDO_ParseMgmtBindRsp_4
   3464          
   3465            return ( pRsp );
   \                     ??ZDO_ParseMgmtBindRsp_1:
   \   000087   02....       LJMP      ?Subroutine7 & 0xFFFF
   3466          }
   3467          
   3468          /*********************************************************************
   3469           * @fn          ZDO_ParseUserDescRsp
   3470           *
   3471           * @brief       This function parses the incoming User
   3472           *              Descriptor Response.
   3473           *
   3474           * @param       inMsg - incoming response message
   3475           *
   3476           * @return      a pointer to parsed response structure (NULL if not allocated).
   3477           *          This structure was allocated using osal_mem_alloc, so it must be freed
   3478           *          by the calling function [osal_mem_free()].
   3479           */

   \                                 In  segment BANKED_CODE, align 1, keep-with-next
   3480          ZDO_UserDescRsp_t *ZDO_ParseUserDescRsp( zdoIncomingMsg_t *inMsg )
   \                     ZDO_ParseUserDescRsp:
   3481          {
   \   000000                REQUIRE ?V0
   \   000000                REQUIRE ?V1
   \   000000                REQUIRE ?V2
   \   000000                REQUIRE ?V4
   \   000000                REQUIRE ?V5
   \   000000                REQUIRE ?V6
   \   000000                REQUIRE ?V7
   \   000000   74F0         MOV       A,#-0x10
   \   000002   12....       LCALL     ?BANKED_ENTER_XDATA
   \   000005                ; Saved register size: 16
   \   000005                ; Auto size: 0
   3482            ZDO_UserDescRsp_t *pRsp;
   3483            uint8 *msg;
   3484            uint8 descLen = 0;
   \   000005   75..00       MOV       ?V2,#0x0
   3485          
   3486            msg = inMsg->asdu;
   \   000008   12....       LCALL     ?Subroutine137 & 0xFFFF
   \                     ??CrossCallReturnLabel_675:
   \   00000B   12....       LCALL     ?Subroutine97 & 0xFFFF
   3487          
   3488            if ( msg[0] == ZSuccess )
   \                     ??CrossCallReturnLabel_356:
   \   00000E   85..82       MOV       DPL,?V0
   \   000011   F583         MOV       DPH,A
   \   000013   E0           MOVX      A,@DPTR
   \   000014   7006         JNZ       ??ZDO_ParseUserDescRsp_0
   3489            {
   3490              descLen = msg[3];
   \   000016   A3           INC       DPTR
   \   000017   A3           INC       DPTR
   \   000018   A3           INC       DPTR
   \   000019   E0           MOVX      A,@DPTR
   \   00001A   F5..         MOV       ?V2,A
   3491            }
   3492          
   3493            pRsp = (ZDO_UserDescRsp_t *)osal_mem_alloc( sizeof ( ZDO_UserDescRsp_t ) + descLen );
   \                     ??ZDO_ParseUserDescRsp_0:
   \   00001C   AE..         MOV       R6,?V2
   \   00001E                ; Setup parameters for call to function osal_mem_alloc
   \   00001E   EE           MOV       A,R6
   \   00001F   12....       LCALL     ?Subroutine151 & 0xFFFF
   \                     ??CrossCallReturnLabel_634:
   \   000022   8A..         MOV       ?V6,R2
   \   000024   8B..         MOV       ?V7,R3
   3494            if ( pRsp )
   \   000026   EA           MOV       A,R2
   \   000027   4B           ORL       A,R3
   \   000028   604D         JZ        ??ZDO_ParseUserDescRsp_1
   3495            {
   3496              pRsp->status = msg[0];
   \   00002A   85..82       MOV       DPL,?V0
   \   00002D   85..83       MOV       DPH,?V1
   \   000030   12....       LCALL     ??Subroutine270_0 & 0xFFFF
   \                     ??CrossCallReturnLabel_603:
   \   000033   12....       LCALL     ?Subroutine170 & 0xFFFF
   3497              pRsp->nwkAddr = BUILD_UINT16( msg[1], msg[2] );
   \                     ??CrossCallReturnLabel_296:
   \   000036   12....       LCALL     ?Subroutine102 & 0xFFFF
   \                     ??CrossCallReturnLabel_168:
   \   000039   E0           MOVX      A,@DPTR
   \   00003A   F8           MOV       R0,A
   \   00003B   E4           CLR       A
   \   00003C   C8           XCH       A,R0
   \   00003D   F9           MOV       R1,A
   \   00003E   EA           MOV       A,R2
   \   00003F   85..82       MOV       DPL,?V6
   \   000042   8B83         MOV       DPH,R3
   \   000044   A3           INC       DPTR
   \   000045   12....       LCALL     ??Subroutine233_0 & 0xFFFF
   3498              pRsp->length = descLen;
   \                     ??CrossCallReturnLabel_380:
   \   000048   85..82       MOV       DPL,?V6
   \   00004B   8B83         MOV       DPH,R3
   \   00004D   A3           INC       DPTR
   \   00004E   A3           INC       DPTR
   \   00004F   A3           INC       DPTR
   \   000050   EE           MOV       A,R6
   \   000051   F0           MOVX      @DPTR,A
   3499              if ( descLen )
   \   000052   6023         JZ        ??ZDO_ParseUserDescRsp_1
   3500              {
   3501                osal_memcpy( pRsp->desc, &msg[4], descLen );
   \   000054                ; Setup parameters for call to function osal_memcpy
   \   000054   E5..         MOV       A,?V0
   \   000056   2404         ADD       A,#0x4
   \   000058   F5..         MOV       ?V0,A
   \   00005A   5002         JNC       ??ZDO_ParseUserDescRsp_2
   \   00005C   05..         INC       ?V1
   \                     ??ZDO_ParseUserDescRsp_2:
   \   00005E   88..         MOV       ?V2,R0
   \   000060   78..         MOV       R0,#?V0
   \   000062   12....       LCALL     ?PUSH_XSTACK_I_THREE
   \   000065   EE           MOV       A,R6
   \   000066   FC           MOV       R4,A
   \   000067   7D00         MOV       R5,#0x0
   \   000069   E5..         MOV       A,?V6
   \   00006B   2404         ADD       A,#0x4
   \   00006D   FA           MOV       R2,A
   \   00006E   E4           CLR       A
   \   00006F   35..         ADDC      A,?V7
   \   000071   12....       LCALL     ?Subroutine154 & 0xFFFF
   3502              }
   3503            }
   \                     ??CrossCallReturnLabel_629:
   \   000074   12....       LCALL     ?DEALLOC_XSTACK8
   3504          
   3505            return ( pRsp );
   \                     ??ZDO_ParseUserDescRsp_1:
   \   000077   AA..         MOV       R2,?V6
   \   000079   AB..         MOV       R3,?V7
   \   00007B   02....       LJMP      ??Subroutine224_0 & 0xFFFF
   3506          }
   3507          
   3508          /*********************************************************************
   3509           * @fn          ZDO_ParseSimpleDescBuf
   3510           *
   3511           * @brief       Parse a byte sequence representation of a Simple Descriptor.
   3512           *
   3513           * @param       buf  - pointer to a byte array representing a Simple Desc.
   3514           * @param       desc - SimpleDescriptionFormat_t *
   3515           *
   3516           *              This routine allocates storage for the cluster IDs because
   3517           *              they are 16-bit and need to be aligned to be properly processed.
   3518           *              This routine returns non-zero if an allocation fails.
   3519           *
   3520           *              NOTE: This means that the caller or user of the input structure
   3521           *                    is responsible for freeing the memory
   3522           *
   3523           * @return      0: success
   3524           *              1: failure due to malloc failure.
   3525           */

   \                                 In  segment BANKED_CODE, align 1, keep-with-next
   3526          uint8 ZDO_ParseSimpleDescBuf( uint8 *buf, SimpleDescriptionFormat_t *desc )
   \                     ZDO_ParseSimpleDescBuf:
   3527          {
   \   000000                REQUIRE ?V0
   \   000000                REQUIRE ?V1
   \   000000                REQUIRE ?V2
   \   000000                REQUIRE ?V4
   \   000000                REQUIRE ?V5
   \   000000                REQUIRE ?V6
   \   000000                REQUIRE ?V7
   \   000000   74F0         MOV       A,#-0x10
   \   000002   12....       LCALL     ?BANKED_ENTER_XDATA
   \   000005                ; Saved register size: 16
   \   000005                ; Auto size: 0
   \   000005   EB           MOV       A,R3
   \   000006   8C..         MOV       ?V0,R4
   \   000008   8D..         MOV       ?V1,R5
   3528            uint8 num, i;
   3529          
   3530            desc->EndPoint = *buf++;
   \   00000A   12....       LCALL     ?Subroutine31 & 0xFFFF
   \                     ??CrossCallReturnLabel_619:
   \   00000D   AE82         MOV       R6,DPL
   \   00000F   AF83         MOV       R7,DPH
   3531            desc->AppProfId = BUILD_UINT16( buf[0], buf[1] );
   \   000011   12....       LCALL     ?Subroutine101 & 0xFFFF
   \                     ??CrossCallReturnLabel_165:
   \   000014   12....       LCALL     ?Subroutine16 & 0xFFFF
   3532            buf += 2;
   \                     ??CrossCallReturnLabel_579:
   \   000017   5001         JNC       ??ZDO_ParseSimpleDescBuf_0
   \   000019   0F           INC       R7
   3533            desc->AppDeviceId = BUILD_UINT16( buf[0], buf[1] );
   \                     ??ZDO_ParseSimpleDescBuf_0:
   \   00001A   F582         MOV       DPL,A
   \   00001C   8F83         MOV       DPH,R7
   \   00001E   12....       LCALL     ?Subroutine101 & 0xFFFF
   \                     ??CrossCallReturnLabel_166:
   \   000021   A3           INC       DPTR
   \   000022   A3           INC       DPTR
   \   000023   A3           INC       DPTR
   \   000024   12....       LCALL     ?Subroutine29 & 0xFFFF
   3534            buf += 2;
   3535            desc->AppDevVer = *buf >> 4;
   \                     ??CrossCallReturnLabel_46:
   \   000027   C4           SWAP      A
   \   000028   540F         ANL       A,#0xf
   3536          
   3537            desc->Reserved = 0;
   \   00002A   8C82         MOV       DPL,R4
   \   00002C   8D83         MOV       DPH,R5
   \   00002E   A3           INC       DPTR
   \   00002F   A3           INC       DPTR
   \   000030   A3           INC       DPTR
   \   000031   A3           INC       DPTR
   \   000032   A3           INC       DPTR
   \   000033   12....       LCALL     ?Subroutine19 & 0xFFFF
   3538            buf++;
   3539          
   3540            // move in input cluster list (if any). allocate aligned memory.
   3541            num = desc->AppNumInClusters = *buf++;
   \                     ??CrossCallReturnLabel_26:
   \   000036   F5..         MOV       ?V2,A
   \   000038   EE           MOV       A,R6
   \   000039   2404         ADD       A,#0x4
   \   00003B   FE           MOV       R6,A
   \   00003C   5001         JNC       ??ZDO_ParseSimpleDescBuf_1
   \   00003E   0F           INC       R7
   \                     ??ZDO_ParseSimpleDescBuf_1:
   \   00003F   8C82         MOV       DPL,R4
   \   000041   8D83         MOV       DPH,R5
   \   000043   A3           INC       DPTR
   \   000044   A3           INC       DPTR
   \   000045   A3           INC       DPTR
   \   000046   A3           INC       DPTR
   \   000047   A3           INC       DPTR
   \   000048   A3           INC       DPTR
   \   000049   E5..         MOV       A,?V2
   \   00004B   F0           MOVX      @DPTR,A
   3542            if ( num )
   \   00004C   EC           MOV       A,R4
   \   00004D   2407         ADD       A,#0x7
   \   00004F   F5..         MOV       ?V6,A
   \   000051   E4           CLR       A
   \   000052   35..         ADDC      A,?V1
   \   000054   F5..         MOV       ?V7,A
   \   000056   E5..         MOV       A,?V2
   \   000058   6046         JZ        ??ZDO_ParseSimpleDescBuf_2
   3543            {
   3544              if (!(desc->pAppInClusterList = (uint16 *)osal_mem_alloc(num*sizeof(uint16))))
   \   00005A                ; Setup parameters for call to function osal_mem_alloc
   \   00005A   12....       LCALL     ?Subroutine126 & 0xFFFF
   \                     ??CrossCallReturnLabel_209:
   \   00005D   A8..         MOV       R0,?V4
   \   00005F   A9..         MOV       R1,?V5
   \   000061   12....       LCALL     ?Subroutine40 & 0xFFFF
   \                     ??CrossCallReturnLabel_687:
   \   000064   49           ORL       A,R1
   \   000065   7003         JNZ       $+5
   \   000067   02....       LJMP      ??ZDO_ParseSimpleDescBuf_3 & 0xFFFF
   3545              {
   3546                // malloc failed. we're done.
   3547                return 1;
   3548              }
   3549              for (i=0; i<num; ++i)
   \   00006A   7A00         MOV       R2,#0x0
   \   00006C   802C         SJMP      ??ZDO_ParseSimpleDescBuf_4
   3550              {
   3551                desc->pAppInClusterList[i] = BUILD_UINT16( buf[0], buf[1] );
   \                     ??ZDO_ParseSimpleDescBuf_5:
   \   00006E   8E82         MOV       DPL,R6
   \   000070   8F83         MOV       DPH,R7
   \   000072   E0           MOVX      A,@DPTR
   \   000073   F5..         MOV       ?V4,A
   \   000075   A3           INC       DPTR
   \   000076   E0           MOVX      A,@DPTR
   \   000077   FC           MOV       R4,A
   \   000078   E4           CLR       A
   \   000079   CC           XCH       A,R4
   \   00007A   FD           MOV       R5,A
   \   00007B   E5..         MOV       A,?V4
   \   00007D   2C           ADD       A,R4
   \   00007E   E4           CLR       A
   \   00007F   3D           ADDC      A,R5
   \   000080   F5..         MOV       ?V5,A
   \   000082   12....       LCALL     ?Subroutine132 & 0xFFFF
   3552                buf += 2;
   3553              }
   \                     ??CrossCallReturnLabel_682:
   \   000085   E8           MOV       A,R0
   \   000086   2C           ADD       A,R4
   \   000087   F582         MOV       DPL,A
   \   000089   EB           MOV       A,R3
   \   00008A   3D           ADDC      A,R5
   \   00008B   F583         MOV       DPH,A
   \   00008D   E5..         MOV       A,?V4
   \   00008F   F0           MOVX      @DPTR,A
   \   000090   A3           INC       DPTR
   \   000091   E5..         MOV       A,?V5
   \   000093   12....       LCALL     ?Subroutine172 & 0xFFFF
   \                     ??CrossCallReturnLabel_584:
   \   000096   5001         JNC       ??ZDO_ParseSimpleDescBuf_6
   \   000098   0F           INC       R7
   \                     ??ZDO_ParseSimpleDescBuf_6:
   \   000099   0A           INC       R2
   \                     ??ZDO_ParseSimpleDescBuf_4:
   \   00009A   EA           MOV       A,R2
   \   00009B   C3           CLR       C
   \   00009C   95..         SUBB      A,?V2
   \   00009E   40CE         JC        ??ZDO_ParseSimpleDescBuf_5
   3554            }
   3555          
   3556            // move in output cluster list (if any). allocate aligned memory.
   3557            num = desc->AppNumOutClusters = *buf++;
   \                     ??ZDO_ParseSimpleDescBuf_2:
   \   0000A0   8E82         MOV       DPL,R6
   \   0000A2   8F83         MOV       DPH,R7
   \   0000A4   E0           MOVX      A,@DPTR
   \   0000A5   F5..         MOV       ?V2,A
   \   0000A7   A3           INC       DPTR
   \   0000A8   AE82         MOV       R6,DPL
   \   0000AA   AF83         MOV       R7,DPH
   \   0000AC   85..82       MOV       DPL,?V0
   \   0000AF   85..83       MOV       DPH,?V1
   \   0000B2   A3           INC       DPTR
   \   0000B3   A3           INC       DPTR
   \   0000B4   A3           INC       DPTR
   \   0000B5   A3           INC       DPTR
   \   0000B6   A3           INC       DPTR
   \   0000B7   A3           INC       DPTR
   \   0000B8   A3           INC       DPTR
   \   0000B9   A3           INC       DPTR
   \   0000BA   A3           INC       DPTR
   \   0000BB   F0           MOVX      @DPTR,A
   3558            if (num)
   \   0000BC   606E         JZ        ??ZDO_ParseSimpleDescBuf_7
   3559            {
   3560              if (!(desc->pAppOutClusterList = (uint16 *)osal_mem_alloc(num*sizeof(uint16))))
   \   0000BE                ; Setup parameters for call to function osal_mem_alloc
   \   0000BE   12....       LCALL     ?Subroutine126 & 0xFFFF
   \                     ??CrossCallReturnLabel_210:
   \   0000C1   A9..         MOV       R1,?V5
   \   0000C3   85..82       MOV       DPL,?V0
   \   0000C6   85..83       MOV       DPH,?V1
   \   0000C9   A3           INC       DPTR
   \   0000CA   A3           INC       DPTR
   \   0000CB   A3           INC       DPTR
   \   0000CC   A3           INC       DPTR
   \   0000CD   A3           INC       DPTR
   \   0000CE   A3           INC       DPTR
   \   0000CF   A3           INC       DPTR
   \   0000D0   A3           INC       DPTR
   \   0000D1   A3           INC       DPTR
   \   0000D2   A3           INC       DPTR
   \   0000D3   12....       LCALL     ??Subroutine284_0 & 0xFFFF
   \                     ??CrossCallReturnLabel_685:
   \   0000D6   49           ORL       A,R1
   \   0000D7   701C         JNZ       ??ZDO_ParseSimpleDescBuf_8
   3561              {
   3562                // malloc failed. free input cluster list memory if there is any
   3563                if ( desc->pAppInClusterList != NULL )
   \   0000D9   85..82       MOV       DPL,?V6
   \   0000DC   85..83       MOV       DPH,?V7
   \   0000DF   12....       LCALL     ??Subroutine255_0 & 0xFFFF
   \                     ??CrossCallReturnLabel_512:
   \   0000E2   600D         JZ        ??ZDO_ParseSimpleDescBuf_3
   3564                {
   3565                  osal_mem_free(desc->pAppInClusterList);
   \   0000E4                ; Setup parameters for call to function osal_mem_free
   \   0000E4   12....       LCALL     `??osal_mem_free::?relay`; Banked call to: osal_mem_free
   3566          
   3567                  desc->pAppInClusterList = NULL;
   \   0000E7   85..82       MOV       DPL,?V6
   \   0000EA   85..83       MOV       DPH,?V7
   \   0000ED   E4           CLR       A
   \   0000EE   F0           MOVX      @DPTR,A
   \   0000EF   A3           INC       DPTR
   \   0000F0   F0           MOVX      @DPTR,A
   3568                }
   3569                return 1;
   \                     ??ZDO_ParseSimpleDescBuf_3:
   \   0000F1   7901         MOV       R1,#0x1
   \   0000F3   8039         SJMP      ??ZDO_ParseSimpleDescBuf_9
   3570              }
   3571              for (i=0; i<num; ++i)
   \                     ??ZDO_ParseSimpleDescBuf_8:
   \   0000F5   7A00         MOV       R2,#0x0
   \   0000F7   802D         SJMP      ??ZDO_ParseSimpleDescBuf_10
   3572              {
   3573                desc->pAppOutClusterList[i] = BUILD_UINT16( buf[0], buf[1] );
   \                     ??ZDO_ParseSimpleDescBuf_11:
   \   0000F9   8E82         MOV       DPL,R6
   \   0000FB   8F83         MOV       DPH,R7
   \   0000FD   E0           MOVX      A,@DPTR
   \   0000FE   F5..         MOV       ?V0,A
   \   000100   A3           INC       DPTR
   \   000101   E0           MOVX      A,@DPTR
   \   000102   FC           MOV       R4,A
   \   000103   E4           CLR       A
   \   000104   CC           XCH       A,R4
   \   000105   FD           MOV       R5,A
   \   000106   E5..         MOV       A,?V0
   \   000108   2C           ADD       A,R4
   \   000109   E4           CLR       A
   \   00010A   3D           ADDC      A,R5
   \   00010B   F5..         MOV       ?V1,A
   \   00010D   12....       LCALL     ?Subroutine132 & 0xFFFF
   3574                buf += 2;
   3575              }
   \                     ??CrossCallReturnLabel_683:
   \   000110   E5..         MOV       A,?V4
   \   000112   2C           ADD       A,R4
   \   000113   F582         MOV       DPL,A
   \   000115   EB           MOV       A,R3
   \   000116   3D           ADDC      A,R5
   \   000117   F583         MOV       DPH,A
   \   000119   E5..         MOV       A,?V0
   \   00011B   F0           MOVX      @DPTR,A
   \   00011C   A3           INC       DPTR
   \   00011D   E5..         MOV       A,?V1
   \   00011F   12....       LCALL     ?Subroutine172 & 0xFFFF
   \                     ??CrossCallReturnLabel_585:
   \   000122   5001         JNC       ??ZDO_ParseSimpleDescBuf_12
   \   000124   0F           INC       R7
   \                     ??ZDO_ParseSimpleDescBuf_12:
   \   000125   0A           INC       R2
   \                     ??ZDO_ParseSimpleDescBuf_10:
   \   000126   EA           MOV       A,R2
   \   000127   C3           CLR       C
   \   000128   95..         SUBB      A,?V2
   \   00012A   40CD         JC        ??ZDO_ParseSimpleDescBuf_11
   3576            }
   3577            return 0;
   \                     ??ZDO_ParseSimpleDescBuf_7:
   \   00012C   7900         MOV       R1,#0x0
   \                     ??ZDO_ParseSimpleDescBuf_9:
   \   00012E   02....       LJMP      ??Subroutine224_0 & 0xFFFF
   3578          }

   \                                 In  segment BANKED_CODE, align 1, keep-with-next
   \                     ?Subroutine132:
   \   000000   EA           MOV       A,R2
   \   000001                REQUIRE ??Subroutine283_0
   \   000001                ; // Fall through to label ??Subroutine283_0

   \                                 In  segment BANKED_CODE, align 1, keep-with-next
   \                     ?Subroutine126:
   \   000000   12....       LCALL     ?Subroutine200 & 0xFFFF
   \                     ??CrossCallReturnLabel_333:
   \   000003   8A..         MOV       ?V4,R2
   \   000005   8B..         MOV       ?V5,R3
   \   000007   22           RET

   \                                 In  segment BANKED_CODE, align 1, keep-with-next
   \                     ?Subroutine101:
   \   000000   12....       LCALL     ?Subroutine190 & 0xFFFF
   \                     ??CrossCallReturnLabel_702:
   \   000003   22           RET
   3579          
   3580          /*********************************************************************
   3581           * @fn          ZDO_ParseDeviceAnnce
   3582           *
   3583           * @brief       Parse a Device Announce message.
   3584           *
   3585           * @param       inMsg - Incoming message
   3586           * @param       pAnnce - place to put the parsed information
   3587           *
   3588           * @return      none
   3589           */

   \                                 In  segment BANKED_CODE, align 1, keep-with-next
   3590          void ZDO_ParseDeviceAnnce( zdoIncomingMsg_t *inMsg, ZDO_DeviceAnnce_t *pAnnce )
   \                     ZDO_ParseDeviceAnnce:
   3591          {
   \   000000                REQUIRE ?V0
   \   000000                REQUIRE ?V1
   \   000000   74F6         MOV       A,#-0xa
   \   000002   12....       LCALL     ?BANKED_ENTER_XDATA
   \   000005                ; Saved register size: 10
   \   000005                ; Auto size: 0
   \   000005   8C..         MOV       ?V0,R4
   \   000007   8D..         MOV       ?V1,R5
   3592            uint8 *msg;
   3593          
   3594            // Parse incoming message
   3595            msg = inMsg->asdu;
   \   000009   12....       LCALL     ?Subroutine136 & 0xFFFF
   \                     ??CrossCallReturnLabel_231:
   \   00000C   12....       LCALL     ?Subroutine71 & 0xFFFF
   3596            pAnnce->nwkAddr = BUILD_UINT16( msg[0], msg[1] );
   \                     ??CrossCallReturnLabel_118:
   \   00000F   12....       LCALL     ??Subroutine265_0 & 0xFFFF
   3597            msg += 2;
   \                     ??CrossCallReturnLabel_581:
   \   000012   5001         JNC       ??ZDO_ParseDeviceAnnce_0
   \   000014   0F           INC       R7
   3598            osal_cpyExtAddr( pAnnce->extAddr, msg );
   \                     ??ZDO_ParseDeviceAnnce_0:
   \   000015                ; Setup parameters for call to function sAddrExtCpy
   \   000015   FC           MOV       R4,A
   \   000016   EF           MOV       A,R7
   \   000017   FD           MOV       R5,A
   \   000018   E5..         MOV       A,?V0
   \   00001A   2402         ADD       A,#0x2
   \   00001C   12....       LCALL     ?Subroutine51 & 0xFFFF
   3599            msg += Z_EXTADDR_LEN;
   3600            pAnnce->capabilities = *msg;
   \                     ??CrossCallReturnLabel_571:
   \   00001F   85..82       MOV       DPL,?V0
   \   000022   85..83       MOV       DPH,?V1
   \   000025   A3           INC       DPTR
   \   000026   A3           INC       DPTR
   \   000027   A3           INC       DPTR
   \   000028   A3           INC       DPTR
   \   000029   A3           INC       DPTR
   \   00002A   A3           INC       DPTR
   \   00002B   A3           INC       DPTR
   \   00002C   A3           INC       DPTR
   \   00002D   A3           INC       DPTR
   \   00002E   A3           INC       DPTR
   \   00002F   F0           MOVX      @DPTR,A
   3601          }
   \   000030   02....       LJMP      ??Subroutine227_0 & 0xFFFF
   3602          
   3603          /*********************************************************************
   3604           * @fn          ZDO_ParseParentAnnce
   3605           *
   3606           * @brief       Parse Parent Announce and Parent Announce Rsp messages,
   3607           *              both messages have the same payload.
   3608           *
   3609           * @param       inMsg - Incoming message
   3610           *
   3611           * @return      a pointer to parsed response structure (NULL if not allocated).
   3612           *          This structure was allocated using osal_mem_alloc, so it must be freed
   3613           *          by the calling function [osal_mem_free()].
   3614           */

   \                                 In  segment BANKED_CODE, align 1, keep-with-next
   3615          ZDO_ParentAnnce_t *ZDO_ParseParentAnnce( zdoIncomingMsg_t *inMsg )
   \                     ZDO_ParseParentAnnce:
   3616          {
   \   000000                REQUIRE ?V0
   \   000000                REQUIRE ?V1
   \   000000                REQUIRE ?V2
   \   000000                REQUIRE ?V3
   \   000000                REQUIRE ?V4
   \   000000                REQUIRE ?V5
   \   000000   74F2         MOV       A,#-0xe
   \   000002   12....       LCALL     ?BANKED_ENTER_XDATA
   \   000005                ; Saved register size: 14
   \   000005                ; Auto size: 0
   3617            ZDO_ParentAnnce_t *pRcvdMsg;
   3618            uint8 *msg;
   3619            uint8 numChildren;
   3620          
   3621            msg = inMsg->asdu;
   \   000005   12....       LCALL     ?Subroutine119 & 0xFFFF
   3622            if ( inMsg->clusterID == Parent_annce_rsp)
   \                     ??CrossCallReturnLabel_593:
   \   000008   EA           MOV       A,R2
   \   000009   240C         ADD       A,#0xc
   \   00000B   F582         MOV       DPL,A
   \   00000D   E4           CLR       A
   \   00000E   3B           ADDC      A,R3
   \   00000F   F583         MOV       DPH,A
   \   000011   E0           MOVX      A,@DPTR
   \   000012   641F         XRL       A,#0x1f
   \   000014   7004         JNZ       ??ZDO_ParseParentAnnce_0
   \   000016   A3           INC       DPTR
   \   000017   E0           MOVX      A,@DPTR
   \   000018   6480         XRL       A,#0x80
   \                     ??ZDO_ParseParentAnnce_0:
   \   00001A   7009         JNZ       ??ZDO_ParseParentAnnce_1
   3623            {
   3624              *msg++;
   \   00001C   8E82         MOV       DPL,R6
   \   00001E   8F83         MOV       DPH,R7
   \   000020   A3           INC       DPTR
   \   000021   AE82         MOV       R6,DPL
   \   000023   AF83         MOV       R7,DPH
   3625            }
   3626            numChildren = *msg++;
   \                     ??ZDO_ParseParentAnnce_1:
   \   000025   8E82         MOV       DPL,R6
   \   000027   8F83         MOV       DPH,R7
   \   000029   E0           MOVX      A,@DPTR
   \   00002A   F5..         MOV       ?V3,A
   \   00002C   A3           INC       DPTR
   \   00002D   AE82         MOV       R6,DPL
   \   00002F   AF83         MOV       R7,DPH
   3627          
   3628            // Allocate a buffer big enough to handle the list
   3629            pRcvdMsg = (ZDO_ParentAnnce_t *)osal_mem_alloc(
   3630                       (sizeof(ZDO_ParentAnnce_t) + (numChildren * sizeof(ZDO_ChildInfo_t))));
   \   000031                ; Setup parameters for call to function osal_mem_alloc
   \   000031   75F00C       MOV       B,#0xc
   \   000034   A4           MUL       AB
   \   000035   A9F0         MOV       R1,B
   \   000037   2401         ADD       A,#0x1
   \   000039   12....       LCALL     ?Subroutine133 & 0xFFFF
   \                     ??CrossCallReturnLabel_224:
   \   00003C   8A..         MOV       ?V4,R2
   \   00003E   8B..         MOV       ?V5,R3
   3631          
   3632            if ( pRcvdMsg )
   \   000040   EA           MOV       A,R2
   \   000041   4B           ORL       A,R3
   \   000042   6055         JZ        ??ZDO_ParseParentAnnce_2
   3633            {
   3634              uint8 x;
   3635              ZDO_ChildInfo_t *pList = pRcvdMsg->childInfo;
   \   000044   8A82         MOV       DPL,R2
   \   000046   8B83         MOV       DPH,R3
   \   000048   A3           INC       DPTR
   \   000049   8582..       MOV       ?V0,DPL
   \   00004C   8583..       MOV       ?V1,DPH
   3636          
   3637              pRcvdMsg->numOfChildren = numChildren;
   \   00004F   8A82         MOV       DPL,R2
   \   000051   8B83         MOV       DPH,R3
   \   000053   E5..         MOV       A,?V3
   \   000055   F0           MOVX      @DPTR,A
   3638          
   3639              for ( x = 0; x < numChildren; x++ )
   \   000056   75..00       MOV       ?V2,#0x0
   \   000059   8037         SJMP      ??ZDO_ParseParentAnnce_3
   3640              {
   3641                osal_cpyExtAddr( pList->extAddr, msg );
   \                     ??ZDO_ParseParentAnnce_4:
   \   00005B                ; Setup parameters for call to function sAddrExtCpy
   \   00005B   EE           MOV       A,R6
   \   00005C   FC           MOV       R4,A
   \   00005D   EF           MOV       A,R7
   \   00005E   FD           MOV       R5,A
   \   00005F   AA..         MOV       R2,?V0
   \   000061   AB..         MOV       R3,?V1
   \   000063   12....       LCALL     ??Subroutine271_0 & 0xFFFF
   3642                msg += Z_EXTADDR_LEN;
   \                     ??CrossCallReturnLabel_609:
   \   000066   5001         JNC       ??ZDO_ParseParentAnnce_5
   \   000068   0F           INC       R7
   3643          
   3644                pList->age = osal_build_uint32( msg, 4 );
   \                     ??ZDO_ParseParentAnnce_5:
   \   000069                ; Setup parameters for call to function osal_build_uint32
   \   000069   7904         MOV       R1,#0x4
   \   00006B   12....       LCALL     ?Subroutine209 & 0xFFFF
   \                     ??CrossCallReturnLabel_342:
   \   00006E   85..82       MOV       DPL,?V0
   \   000071   85..83       MOV       DPH,?V1
   \   000074   A3           INC       DPTR
   \   000075   A3           INC       DPTR
   \   000076   A3           INC       DPTR
   \   000077   A3           INC       DPTR
   \   000078   A3           INC       DPTR
   \   000079   A3           INC       DPTR
   \   00007A   A3           INC       DPTR
   \   00007B   A3           INC       DPTR
   \   00007C   12....       LCALL     ?XSTORE_R0123
   3645                msg += 4;
   \   00007F   EE           MOV       A,R6
   \   000080   2404         ADD       A,#0x4
   \   000082   FE           MOV       R6,A
   \   000083   5001         JNC       ??ZDO_ParseParentAnnce_6
   \   000085   0F           INC       R7
   3646          
   3647                pList++;
   \                     ??ZDO_ParseParentAnnce_6:
   \   000086   E5..         MOV       A,?V0
   \   000088   240C         ADD       A,#0xc
   \   00008A   F5..         MOV       ?V0,A
   \   00008C   5002         JNC       ??ZDO_ParseParentAnnce_7
   \   00008E   05..         INC       ?V1
   3648              }
   \                     ??ZDO_ParseParentAnnce_7:
   \   000090   05..         INC       ?V2
   \                     ??ZDO_ParseParentAnnce_3:
   \   000092   E5..         MOV       A,?V2
   \   000094   C3           CLR       C
   \   000095   95..         SUBB      A,?V3
   \   000097   40C2         JC        ??ZDO_ParseParentAnnce_4
   3649            }
   3650          
   3651            return ( pRcvdMsg );
   \                     ??ZDO_ParseParentAnnce_2:
   \   000099   AA..         MOV       R2,?V4
   \   00009B   AB..         MOV       R3,?V5
   \   00009D   02....       LJMP      ??Subroutine250_0 & 0xFFFF
   3652          }
   3653          
   3654          /*********************************************************************
   3655           * @fn          ZDO_ParseMgmtNwkUpdateNotify
   3656           *
   3657           * @brief       This function handles parsing of the incoming Management
   3658           *              Network Update notify.
   3659           *
   3660           * @param       inMsg - incoming message (request)
   3661           *
   3662           * @return      a pointer to parsed response structure (NULL if not allocated).
   3663           *          This structure was allocated using osal_mem_alloc, so it must be freed
   3664           *          by the calling function [osal_mem_free()].
   3665           */

   \                                 In  segment BANKED_CODE, align 1, keep-with-next
   \                     ?Subroutine30:
   \   000000   F8           MOV       R0,A
   \   000001   A3           INC       DPTR
   \   000002   E0           MOVX      A,@DPTR
   \   000003   3400         ADDC      A,#0x0
   \   000005                REQUIRE ??Subroutine231_0
   \   000005                ; // Fall through to label ??Subroutine231_0

   \                                 In  segment BANKED_CODE, align 1, keep-with-next
   3666          ZDO_MgmtNwkUpdateNotify_t *ZDO_ParseMgmtNwkUpdateNotify( zdoIncomingMsg_t *inMsg )
   \                     ZDO_ParseMgmtNwkUpdateNotify:
   3667          {
   \   000000                REQUIRE ?V0
   \   000000                REQUIRE ?V1
   \   000000                REQUIRE ?V2
   \   000000                REQUIRE ?V3
   \   000000                REQUIRE ?V4
   \   000000                REQUIRE ?V5
   \   000000   74F2         MOV       A,#-0xe
   \   000002   12....       LCALL     ?BANKED_ENTER_XDATA
   \   000005                ; Saved register size: 14
   \   000005                ; Auto size: 8
   \   000005   74F8         MOV       A,#-0x8
   \   000007   12....       LCALL     ?ALLOC_XSTACK8
   3668            uint8 status;
   3669            uint32 scannedChannels = 0;
   \   00000A   75..00       MOV       ?V0,#0x0
   \   00000D   75..00       MOV       ?V1,#0x0
   \   000010   75..00       MOV       ?V2,#0x0
   \   000013   75..00       MOV       ?V3,#0x0
   3670            uint16 totalTransmissions = 0;
   \   000016   7406         MOV       A,#0x6
   \   000018   12....       LCALL     ?XSTACK_DISP0_8
   \   00001B   E4           CLR       A
   \   00001C   F0           MOVX      @DPTR,A
   \   00001D   A3           INC       DPTR
   \   00001E   F0           MOVX      @DPTR,A
   3671            uint16 transmissionFailures = 0;
   \   00001F   F5..         MOV       ?V4,A
   \   000021   F5..         MOV       ?V5,A
   3672            uint8 listCount = 0;
   \   000023   7402         MOV       A,#0x2
   \   000025   12....       LCALL     ?XSTACK_DISP0_8
   \   000028   E4           CLR       A
   \   000029   12....       LCALL     ?Subroutine32 & 0xFFFF
   3673            uint8 *msg = inMsg->asdu;
   \                     ??CrossCallReturnLabel_48:
   \   00002C   F8           MOV       R0,A
   \   00002D   A3           INC       DPTR
   \   00002E   E0           MOVX      A,@DPTR
   \   00002F   12....       LCALL     ?Subroutine14 & 0xFFFF
   3674            ZDO_MgmtNwkUpdateNotify_t *pRsp;
   3675          
   3676            status = *msg++;
   \                     ??CrossCallReturnLabel_497:
   \   000032   12....       LCALL     ??Subroutine245_0 & 0xFFFF
   \                     ??CrossCallReturnLabel_475:
   \   000035   C0E0         PUSH      A
   \   000037   7405         MOV       A,#0x5
   \   000039   12....       LCALL     ?XSTACK_DISP0_8
   \   00003C   D0E0         POP       A
   \   00003E   12....       LCALL     ?Subroutine15 & 0xFFFF
   \                     ??CrossCallReturnLabel_15:
   \   000041   2401         ADD       A,#0x1
   \   000043   12....       LCALL     ?Subroutine30 & 0xFFFF
   3677            if ( status == ZSuccess )
   \                     ??CrossCallReturnLabel_397:
   \   000046   7405         MOV       A,#0x5
   \   000048   12....       LCALL     ?XSTACK_DISP0_8
   \   00004B   E0           MOVX      A,@DPTR
   \   00004C   7052         JNZ       ??CrossCallReturnLabel_398
   3678            {
   3679              scannedChannels = osal_build_uint32( msg, 4 );
   \   00004E                ; Setup parameters for call to function osal_build_uint32
   \   00004E   7904         MOV       R1,#0x4
   \   000050   12....       LCALL     ?Subroutine106 & 0xFFFF
   \                     ??CrossCallReturnLabel_421:
   \   000053   12....       LCALL     `??osal_build_uint32::?relay`; Banked call to: osal_build_uint32
   \   000056   8A..         MOV       ?V0,R2
   \   000058   8B..         MOV       ?V1,R3
   \   00005A   8C..         MOV       ?V2,R4
   \   00005C   8D..         MOV       ?V3,R5
   3680              msg += 4;
   \   00005E   85..82       MOV       DPL,?XSP + 0
   \   000061   85..83       MOV       DPH,?XSP + 1
   \   000064   E0           MOVX      A,@DPTR
   \   000065   2404         ADD       A,#0x4
   \   000067   12....       LCALL     ?Subroutine8 & 0xFFFF
   3681              totalTransmissions = BUILD_UINT16( msg[0], msg[1] );
   \                     ??CrossCallReturnLabel_0:
   \   00006A   F9           MOV       R1,A
   \   00006B   7406         MOV       A,#0x6
   \   00006D   12....       LCALL     ?XSTACK_DISP0_8
   \   000070   EA           MOV       A,R2
   \   000071   12....       LCALL     ??Subroutine248_0 & 0xFFFF
   3682              msg += 2;
   \                     ??CrossCallReturnLabel_498:
   \   000074   2402         ADD       A,#0x2
   \   000076   12....       LCALL     ?Subroutine8 & 0xFFFF
   3683              transmissionFailures = BUILD_UINT16( msg[0], msg[1] );
   \                     ??CrossCallReturnLabel_1:
   \   000079   F8           MOV       R0,A
   \   00007A   E4           CLR       A
   \   00007B   C8           XCH       A,R0
   \   00007C   F9           MOV       R1,A
   \   00007D   EA           MOV       A,R2
   \   00007E   28           ADD       A,R0
   \   00007F   F5..         MOV       ?V4,A
   \   000081   E4           CLR       A
   \   000082   39           ADDC      A,R1
   \   000083   F5..         MOV       ?V5,A
   3684              msg += 2;
   3685              listCount = *msg++;
   \   000085   85..82       MOV       DPL,?XSP + 0
   \   000088   85..83       MOV       DPH,?XSP + 1
   \   00008B   12....       LCALL     ?Subroutine98 & 0xFFFF
   3686            }
   \                     ??CrossCallReturnLabel_705:
   \   00008E   E0           MOVX      A,@DPTR
   \   00008F   C0E0         PUSH      A
   \   000091   7402         MOV       A,#0x2
   \   000093   12....       LCALL     ?XSTACK_DISP0_8
   \   000096   D0E0         POP       A
   \   000098   12....       LCALL     ?Subroutine15 & 0xFFFF
   \                     ??CrossCallReturnLabel_16:
   \   00009B   2403         ADD       A,#0x3
   \   00009D   12....       LCALL     ?Subroutine30 & 0xFFFF
   3687          
   3688            pRsp = (ZDO_MgmtNwkUpdateNotify_t *)osal_mem_alloc( sizeof ( ZDO_MgmtNwkUpdateNotify_t ) + listCount );
   \                     ??CrossCallReturnLabel_398:
   \   0000A0   7402         MOV       A,#0x2
   \   0000A2   12....       LCALL     ?XSTACK_DISP0_8
   \   0000A5   E0           MOVX      A,@DPTR
   \   0000A6   FE           MOV       R6,A
   \   0000A7                ; Setup parameters for call to function osal_mem_alloc
   \   0000A7   240A         ADD       A,#0xa
   \   0000A9   12....       LCALL     ??Subroutine276_0 & 0xFFFF
   \                     ??CrossCallReturnLabel_635:
   \   0000AC   7403         MOV       A,#0x3
   \   0000AE   12....       LCALL     ?XSTACK_DISP0_8
   \   0000B1   12....       LCALL     ?Subroutine18 & 0xFFFF
   3689          
   3690            if ( pRsp )
   \                     ??CrossCallReturnLabel_22:
   \   0000B4   12....       LCALL     ?XSTACK_DISP0_8
   \   0000B7   12....       LCALL     ??Subroutine242_0 & 0xFFFF
   \                     ??CrossCallReturnLabel_465:
   \   0000BA   7003         JNZ       $+5
   \   0000BC   02....       LJMP      ??ZDO_ParseMgmtNwkUpdateNotify_0 & 0xFFFF
   3691            {
   3692              pRsp->status = status;
   \   0000BF   7405         MOV       A,#0x5
   \   0000C1   12....       LCALL     ?XSTACK_DISP0_8
   \   0000C4   E0           MOVX      A,@DPTR
   \   0000C5   C0E0         PUSH      A
   \   0000C7   7403         MOV       A,#0x3
   \   0000C9   12....       LCALL     ?XSTACK_DISP0_8
   \   0000CC   12....       LCALL     ??Subroutine228_0 & 0xFFFF
   \                     ??CrossCallReturnLabel_360:
   \   0000CF   D0E0         POP       A
   \   0000D1   F0           MOVX      @DPTR,A
   3693              pRsp->scannedChannels = scannedChannels;
   \   0000D2   7403         MOV       A,#0x3
   \   0000D4   12....       LCALL     ?XSTACK_DISP0_8
   \   0000D7   12....       LCALL     ?Subroutine99 & 0xFFFF
   \                     ??CrossCallReturnLabel_362:
   \   0000DA   A3           INC       DPTR
   \   0000DB   78..         MOV       R0,#?V0
   \   0000DD   12....       LCALL     ?L_MOV_TO_X
   3694              pRsp->totalTransmissions = totalTransmissions;
   \   0000E0   7406         MOV       A,#0x6
   \   0000E2   12....       LCALL     ?XSTACK_DISP0_8
   \   0000E5   12....       LCALL     ?Subroutine95 & 0xFFFF
   \                     ??CrossCallReturnLabel_162:
   \   0000E8   12....       LCALL     ?XSTACK_DISP0_8
   \   0000EB   12....       LCALL     ?Subroutine120 & 0xFFFF
   \                     ??CrossCallReturnLabel_198:
   \   0000EE   A3           INC       DPTR
   \   0000EF   A3           INC       DPTR
   \   0000F0   A3           INC       DPTR
   \   0000F1   A3           INC       DPTR
   \   0000F2   A3           INC       DPTR
   \   0000F3   12....       LCALL     ??Subroutine232_0 & 0xFFFF
   3695              pRsp->transmissionFailures = transmissionFailures;
   \                     ??CrossCallReturnLabel_395:
   \   0000F6   7403         MOV       A,#0x3
   \   0000F8   12....       LCALL     ?XSTACK_DISP0_8
   \   0000FB   12....       LCALL     ??Subroutine289_0 & 0xFFFF
   \                     ??CrossCallReturnLabel_716:
   \   0000FE   2407         ADD       A,#0x7
   \   000100   F582         MOV       DPL,A
   \   000102   E4           CLR       A
   \   000103   38           ADDC      A,R0
   \   000104   F583         MOV       DPH,A
   \   000106   E5..         MOV       A,?V4
   \   000108   F0           MOVX      @DPTR,A
   \   000109   A3           INC       DPTR
   \   00010A   E5..         MOV       A,?V5
   \   00010C   F0           MOVX      @DPTR,A
   3696              pRsp->listCount = listCount;
   \   00010D   7402         MOV       A,#0x2
   \   00010F   12....       LCALL     ?XSTACK_DISP0_8
   \   000112   E0           MOVX      A,@DPTR
   \   000113   C0E0         PUSH      A
   \   000115   7403         MOV       A,#0x3
   \   000117   12....       LCALL     ?XSTACK_DISP0_8
   \   00011A   12....       LCALL     ?Subroutine88 & 0xFFFF
   \                     ??CrossCallReturnLabel_148:
   \   00011D   D0E0         POP       A
   \   00011F   F0           MOVX      @DPTR,A
   3697          
   3698              // Allocate a buffer big enough to handle the list.
   3699              if ( listCount > 0 )
   \   000120   7402         MOV       A,#0x2
   \   000122   12....       LCALL     ?XSTACK_DISP0_8
   \   000125   E0           MOVX      A,@DPTR
   \   000126   6023         JZ        ??ZDO_ParseMgmtNwkUpdateNotify_0
   3700              {
   3701                osal_memcpy( pRsp->energyValues, msg, listCount );
   \   000128                ; Setup parameters for call to function osal_memcpy
   \   000128   85..82       MOV       DPL,?XSP + 0
   \   00012B   85..83       MOV       DPH,?XSP + 1
   \   00012E   12....       LCALL     ?Subroutine65 & 0xFFFF
   3702              }
   3703            }
   \                     ??CrossCallReturnLabel_106:
   \   000131   12....       LCALL     ?PUSH_XSTACK_I_THREE
   \   000134   EE           MOV       A,R6
   \   000135   FC           MOV       R4,A
   \   000136   7D00         MOV       R5,#0x0
   \   000138   7406         MOV       A,#0x6
   \   00013A   12....       LCALL     ?XSTACK_DISP0_8
   \   00013D   E0           MOVX      A,@DPTR
   \   00013E   240A         ADD       A,#0xa
   \   000140   FA           MOV       R2,A
   \   000141   A3           INC       DPTR
   \   000142   E0           MOVX      A,@DPTR
   \   000143   3400         ADDC      A,#0x0
   \   000145   12....       LCALL     ?Subroutine154 & 0xFFFF
   \                     ??CrossCallReturnLabel_630:
   \   000148   12....       LCALL     ?DEALLOC_XSTACK8
   3704          
   3705            return ( pRsp );
   \                     ??ZDO_ParseMgmtNwkUpdateNotify_0:
   \   00014B   7403         MOV       A,#0x3
   \   00014D   12....       LCALL     ?XSTACK_DISP0_8
   \   000150   12....       LCALL     ??Subroutine235_0 & 0xFFFF
   \                     ??CrossCallReturnLabel_416:
   \   000153   7408         MOV       A,#0x8
   \   000155   02....       LJMP      ?Subroutine5 & 0xFFFF
   3706          }

   \                                 In  segment BANKED_CODE, align 1, keep-with-next
   \                     ?Subroutine8:
   \   000000   F8           MOV       R0,A
   \   000001   A3           INC       DPTR
   \   000002   E0           MOVX      A,@DPTR
   \   000003   3400         ADDC      A,#0x0
   \   000005   F9           MOV       R1,A
   \   000006   85..82       MOV       DPL,?XSP + 0
   \   000009   85..83       MOV       DPH,?XSP + 1
   \   00000C   E8           MOV       A,R0
   \   00000D   12....       LCALL     ?Subroutine166 & 0xFFFF
   \                     ??CrossCallReturnLabel_501:
   \   000010   12....       LCALL     ?Subroutine216 & 0xFFFF
   \                     ??CrossCallReturnLabel_484:
   \   000013   FA           MOV       R2,A
   \   000014   85..82       MOV       DPL,?XSP + 0
   \   000017   85..83       MOV       DPH,?XSP + 1
   \   00001A   12....       LCALL     ??Subroutine261_0 & 0xFFFF
   \                     ??CrossCallReturnLabel_706:
   \   00001D   E0           MOVX      A,@DPTR
   \   00001E   22           RET
   3707          
   3708          /*********************************************************************
   3709           * @fn          ZDO_ParseMgmtNwkUpdateReq
   3710           *
   3711           * @brief       This function handles parsing the incoming Management
   3712           *              Network Update request and starts the request (if needed).
   3713           *
   3714           * @param       inMsg - incoming message (request)
   3715           * @param       pReq - pointer to place to parse message to
   3716           *
   3717           * @return      none
   3718           */

   \                                 In  segment BANKED_CODE, align 1, keep-with-next
   3719          void ZDO_ParseMgmtNwkUpdateReq( zdoIncomingMsg_t *inMsg, ZDO_MgmtNwkUpdateReq_t *pReq )
   \                     ZDO_ParseMgmtNwkUpdateReq:
   3720          {
   \   000000                REQUIRE ?V0
   \   000000                REQUIRE ?V1
   \   000000   74F6         MOV       A,#-0xa
   \   000002   12....       LCALL     ?BANKED_ENTER_XDATA
   \   000005                ; Saved register size: 10
   \   000005                ; Auto size: 0
   \   000005   8C..         MOV       ?V0,R4
   \   000007   8D..         MOV       ?V1,R5
   3721            uint8 *msg = inMsg->asdu;
   \   000009   12....       LCALL     ?Subroutine137 & 0xFFFF
   \                     ??CrossCallReturnLabel_676:
   \   00000C   12....       LCALL     ?Subroutine64 & 0xFFFF
   3722          
   3723            pReq->channelMask = osal_build_uint32( msg, 4 );
   \                     ??CrossCallReturnLabel_103:
   \   00000F   85..82       MOV       DPL,?V0
   \   000012   85..83       MOV       DPH,?V1
   \   000015   12....       LCALL     ?XSTORE_R0123
   3724            msg += 4;
   3725            pReq->scanDuration = *msg++;
   \   000018   8E82         MOV       DPL,R6
   \   00001A   8F83         MOV       DPH,R7
   \   00001C   A3           INC       DPTR
   \   00001D   A3           INC       DPTR
   \   00001E   A3           INC       DPTR
   \   00001F   A3           INC       DPTR
   \   000020   E0           MOVX      A,@DPTR
   \   000021   FA           MOV       R2,A
   \   000022   E5..         MOV       A,?V0
   \   000024   2404         ADD       A,#0x4
   \   000026   F8           MOV       R0,A
   \   000027   E4           CLR       A
   \   000028   35..         ADDC      A,?V1
   \   00002A   F9           MOV       R1,A
   \   00002B   EA           MOV       A,R2
   \   00002C   8882         MOV       DPL,R0
   \   00002E   8983         MOV       DPH,R1
   \   000030   F0           MOVX      @DPTR,A
   3726          
   3727            if ( pReq->scanDuration <= 0x05 )
   \   000031   C3           CLR       C
   \   000032   9406         SUBB      A,#0x6
   \   000034   5005         JNC       ??ZDO_ParseMgmtNwkUpdateReq_0
   3728            {
   3729              // Request is to scan over channelMask
   3730              pReq->scanCount = *msg;
   \   000036   12....       LCALL     ?Subroutine93 & 0xFFFF
   3731            }
   \                     ??CrossCallReturnLabel_155:
   \   000039   8024         SJMP      ??ZDO_ParseMgmtNwkUpdateReq_1
   3732            else if ( ( pReq->scanDuration == 0xFE ) || ( pReq->scanDuration == 0xFF ) )
   \                     ??ZDO_ParseMgmtNwkUpdateReq_0:
   \   00003B   74FE         MOV       A,#-0x2
   \   00003D   6A           XRL       A,R2
   \   00003E   6005         JZ        ??ZDO_ParseMgmtNwkUpdateReq_2
   \   000040   74FF         MOV       A,#-0x1
   \   000042   6A           XRL       A,R2
   \   000043   701B         JNZ       ??ZDO_ParseMgmtNwkUpdateReq_3
   3733            {
   3734              // Request is to change Channel (0xFE) or apsChannelMask and NwkManagerAddr (0xFF)
   3735              pReq->nwkUpdateId = *msg++;
   \                     ??ZDO_ParseMgmtNwkUpdateReq_2:
   \   000045   12....       LCALL     ?Subroutine93 & 0xFFFF
   \                     ??CrossCallReturnLabel_156:
   \   000048   A3           INC       DPTR
   \   000049   F0           MOVX      @DPTR,A
   \   00004A   EE           MOV       A,R6
   \   00004B   2406         ADD       A,#0x6
   \   00004D   FE           MOV       R6,A
   \   00004E   5001         JNC       ??ZDO_ParseMgmtNwkUpdateReq_4
   \   000050   0F           INC       R7
   3736          
   3737              if ( pReq->scanDuration == 0xFF )
   \                     ??ZDO_ParseMgmtNwkUpdateReq_4:
   \   000051   8882         MOV       DPL,R0
   \   000053   8983         MOV       DPH,R1
   \   000055   E0           MOVX      A,@DPTR
   \   000056   F4           CPL       A
   \   000057   7007         JNZ       ??ZDO_ParseMgmtNwkUpdateReq_3
   3738              {
   3739                pReq->nwkManagerAddr = BUILD_UINT16( msg[0], msg[1] );
   \   000059   12....       LCALL     ?Subroutine67 & 0xFFFF
   3740              }
   3741            }
   \                     ??CrossCallReturnLabel_110:
   \   00005C   F0           MOVX      @DPTR,A
   \   00005D   A3           INC       DPTR
   \   00005E   E9           MOV       A,R1
   \                     ??ZDO_ParseMgmtNwkUpdateReq_1:
   \   00005F   F0           MOVX      @DPTR,A
   3742          }
   \                     ??ZDO_ParseMgmtNwkUpdateReq_3:
   \   000060   02....       LJMP      ??Subroutine227_0 & 0xFFFF

   \                                 In  segment BANKED_CODE, align 1, keep-with-next
   \                     ?Subroutine93:
   \   000000   8E82         MOV       DPL,R6
   \   000002   8F83         MOV       DPH,R7
   \   000004   A3           INC       DPTR
   \   000005   A3           INC       DPTR
   \   000006   A3           INC       DPTR
   \   000007   A3           INC       DPTR
   \   000008   A3           INC       DPTR
   \   000009   E0           MOVX      A,@DPTR
   \   00000A   85..82       MOV       DPL,?V0
   \   00000D   85..83       MOV       DPH,?V1
   \   000010   A3           INC       DPTR
   \   000011   A3           INC       DPTR
   \   000012   A3           INC       DPTR
   \   000013   A3           INC       DPTR
   \   000014   A3           INC       DPTR
   \   000015   22           RET

   \                                 In  segment XDATA_ID, align 1, keep-with-next
   \                     `?<Initializer for zdpExternalStateTaskID>`:
   \   000000   FFFF         DW -1

   \                                 In  segment BANK_RELAYS, align 1
   \                     `??ZDO_Init::?relay`:
   \   000000   12....       LCALL   ?BDISPATCH
   \   000003   ......       DC24    ZDO_Init

   \                                 In  segment BANK_RELAYS, align 1
   \                     `??ZDO_StartDevice::?relay`:
   \   000000   12....       LCALL   ?BDISPATCH
   \   000003   ......       DC24    ZDO_StartDevice

   \                                 In  segment BANK_RELAYS, align 1
   \                     `??zdoSendStateChangeMsg::?relay`:
   \   000000   12....       LCALL   ?BDISPATCH
   \   000003   ......       DC24    zdoSendStateChangeMsg

   \                                 In  segment BANK_RELAYS, align 1
   \                     `??ZDO_UpdateNwkStatus::?relay`:
   \   000000   12....       LCALL   ?BDISPATCH
   \   000003   ......       DC24    ZDO_UpdateNwkStatus

   \                                 In  segment BANK_RELAYS, align 1
   \                     `??ZDO_CompareClusterLists::?relay`:
   \   000000   12....       LCALL   ?BDISPATCH
   \   000003   ......       DC24    ZDO_CompareClusterLists

   \                                 In  segment BANK_RELAYS, align 1
   \                     `??ZDO_AnyClusterMatches::?relay`:
   \   000000   12....       LCALL   ?BDISPATCH
   \   000003   ......       DC24    ZDO_AnyClusterMatches

   \                                 In  segment BANK_RELAYS, align 1
   \                     `??ZDO_ProcessNodeDescRsp::?relay`:
   \   000000   12....       LCALL   ?BDISPATCH
   \   000003   ......       DC24    ZDO_ProcessNodeDescRsp

   \                                 In  segment BANK_RELAYS, align 1
   \                     `??ZDO_ProcessNodeDescReq::?relay`:
   \   000000   12....       LCALL   ?BDISPATCH
   \   000003   ......       DC24    ZDO_ProcessNodeDescReq

   \                                 In  segment BANK_RELAYS, align 1
   \                     `??ZDO_ProcessPowerDescReq::?relay`:
   \   000000   12....       LCALL   ?BDISPATCH
   \   000003   ......       DC24    ZDO_ProcessPowerDescReq

   \                                 In  segment BANK_RELAYS, align 1
   \                     `??ZDO_ProcessSimpleDescReq::?relay`:
   \   000000   12....       LCALL   ?BDISPATCH
   \   000003   ......       DC24    ZDO_ProcessSimpleDescReq

   \                                 In  segment BANK_RELAYS, align 1
   \                     `??ZDO_ProcessSimpleDescRsp::?relay`:
   \   000000   12....       LCALL   ?BDISPATCH
   \   000003   ......       DC24    ZDO_ProcessSimpleDescRsp

   \                                 In  segment BANK_RELAYS, align 1
   \                     `??ZDO_ProcessActiveEPReq::?relay`:
   \   000000   12....       LCALL   ?BDISPATCH
   \   000003   ......       DC24    ZDO_ProcessActiveEPReq

   \                                 In  segment BANK_RELAYS, align 1
   \                     `??ZDO_ConvertOTAClusters::?relay`:
   \   000000   12....       LCALL   ?BDISPATCH
   \   000003   ......       DC24    ZDO_ConvertOTAClusters

   \                                 In  segment BANK_RELAYS, align 1
   \                     `??ZDO_ProcessMatchDescReq::?relay`:
   \   000000   12....       LCALL   ?BDISPATCH
   \   000003   ......       DC24    ZDO_ProcessMatchDescReq

   \                                 In  segment BANK_RELAYS, align 1
   \                     `??ZDO_ProcessBindUnbindReq::?relay`:
   \   000000   12....       LCALL   ?BDISPATCH
   \   000003   ......       DC24    ZDO_ProcessBindUnbindReq

   \                                 In  segment BANK_RELAYS, align 1
   \                     `??ZDO_UpdateAddrManager::?relay`:
   \   000000   12....       LCALL   ?BDISPATCH
   \   000003   ......       DC24    ZDO_UpdateAddrManager

   \                                 In  segment BANK_RELAYS, align 1
   \                     `??ZDO_ProcessServerDiscReq::?relay`:
   \   000000   12....       LCALL   ?BDISPATCH
   \   000003   ......       DC24    ZDO_ProcessServerDiscReq

   \                                 In  segment BANK_RELAYS, align 1
   \                     `??ZDO_EndDeviceTimeoutCB::?relay`:
   \   000000   12....       LCALL   ?BDISPATCH
   \   000003   ......       DC24    ZDO_EndDeviceTimeoutCB

   \                                 In  segment BANK_RELAYS, align 1
   \                     `??ZDO_ProcessMgmtLqiReq::?relay`:
   \   000000   12....       LCALL   ?BDISPATCH
   \   000003   ......       DC24    ZDO_ProcessMgmtLqiReq

   \                                 In  segment BANK_RELAYS, align 1
   \                     `??ZDO_ProcessMgmtNwkDiscReq::?relay`:
   \   000000   12....       LCALL   ?BDISPATCH
   \   000003   ......       DC24    ZDO_ProcessMgmtNwkDiscReq

   \                                 In  segment BANK_RELAYS, align 1
   \                     `??ZDO_ProcessMgmtRtgReq::?relay`:
   \   000000   12....       LCALL   ?BDISPATCH
   \   000003   ......       DC24    ZDO_ProcessMgmtRtgReq

   \                                 In  segment BANK_RELAYS, align 1
   \                     `??ZDO_ProcessMgmtBindReq::?relay`:
   \   000000   12....       LCALL   ?BDISPATCH
   \   000003   ......       DC24    ZDO_ProcessMgmtBindReq

   \                                 In  segment BANK_RELAYS, align 1
   \                     `??ZDO_ProcessMgmtDirectJoinReq::?relay`:
   \   000000   12....       LCALL   ?BDISPATCH
   \   000003   ......       DC24    ZDO_ProcessMgmtDirectJoinReq

   \                                 In  segment BANK_RELAYS, align 1
   \                     `??ZDO_ProcessMgmtLeaveReq::?relay`:
   \   000000   12....       LCALL   ?BDISPATCH
   \   000003   ......       DC24    ZDO_ProcessMgmtLeaveReq

   \                                 In  segment BANK_RELAYS, align 1
   \                     `??ZDO_ProcessMgmtPermitJoinReq::?relay`:
   \   000000   12....       LCALL   ?BDISPATCH
   \   000003   ......       DC24    ZDO_ProcessMgmtPermitJoinReq

   \                                 In  segment BANK_RELAYS, align 1
   \                     `??NLME_PermitJoiningTimeout::?relay`:
   \   000000   12....       LCALL   ?BDISPATCH
   \   000003   ......       DC24    NLME_PermitJoiningTimeout

   \                                 In  segment BANK_RELAYS, align 1
   \                     `??ZDO_ProcessUserDescReq::?relay`:
   \   000000   12....       LCALL   ?BDISPATCH
   \   000003   ......       DC24    ZDO_ProcessUserDescReq

   \                                 In  segment BANK_RELAYS, align 1
   \                     `??ZDO_ProcessUserDescSet::?relay`:
   \   000000   12....       LCALL   ?BDISPATCH
   \   000003   ......       DC24    ZDO_ProcessUserDescSet

   \                                 In  segment BANK_RELAYS, align 1
   \                     `??ZDO_ProcessDeviceAnnce::?relay`:
   \   000000   12....       LCALL   ?BDISPATCH
   \   000003   ......       DC24    ZDO_ProcessDeviceAnnce

   \                                 In  segment BANK_RELAYS, align 1
   \                     `??ZDO_ProcessParentAnnce::?relay`:
   \   000000   12....       LCALL   ?BDISPATCH
   \   000003   ......       DC24    ZDO_ProcessParentAnnce

   \                                 In  segment BANK_RELAYS, align 1
   \                     `??ZDO_ProcessParentAnnceRsp::?relay`:
   \   000000   12....       LCALL   ?BDISPATCH
   \   000003   ......       DC24    ZDO_ProcessParentAnnceRsp

   \                                 In  segment BANK_RELAYS, align 1
   \                     `??ZDO_BuildSimpleDescBuf::?relay`:
   \   000000   12....       LCALL   ?BDISPATCH
   \   000003   ......       DC24    ZDO_BuildSimpleDescBuf

   \                                 In  segment BANK_RELAYS, align 1
   \                     `??ZDO_MatchEndDeviceBind::?relay`:
   \   000000   12....       LCALL   ?BDISPATCH
   \   000003   ......       DC24    ZDO_MatchEndDeviceBind

   \                                 In  segment BANK_RELAYS, align 1
   \                     `??ZDO_RemoveMatchMemory::?relay`:
   \   000000   12....       LCALL   ?BDISPATCH
   \   000003   ......       DC24    ZDO_RemoveMatchMemory

   \                                 In  segment BANK_RELAYS, align 1
   \                     `??ZDO_CopyMatchInfo::?relay`:
   \   000000   12....       LCALL   ?BDISPATCH
   \   000003   ......       DC24    ZDO_CopyMatchInfo

   \                                 In  segment BANK_RELAYS, align 1
   \                     `??ZDMatchSendState::?relay`:
   \   000000   12....       LCALL   ?BDISPATCH
   \   000003   ......       DC24    ZDMatchSendState

   \                                 In  segment BANK_RELAYS, align 1
   \                     `??ZDO_EndDeviceBindMatchTimeoutCB::?relay`:
   \   000000   12....       LCALL   ?BDISPATCH
   \   000003   ......       DC24    ZDO_EndDeviceBindMatchTimeoutCB

   \                                 In  segment BANK_RELAYS, align 1
   \                     `??ZDO_ParseEndDeviceBindReq::?relay`:
   \   000000   12....       LCALL   ?BDISPATCH
   \   000003   ......       DC24    ZDO_ParseEndDeviceBindReq

   \                                 In  segment BANK_RELAYS, align 1
   \                     `??ZDO_ParseBindUnbindReq::?relay`:
   \   000000   12....       LCALL   ?BDISPATCH
   \   000003   ......       DC24    ZDO_ParseBindUnbindReq

   \                                 In  segment BANK_RELAYS, align 1
   \                     `??ZDO_ParseAddrRsp::?relay`:
   \   000000   12....       LCALL   ?BDISPATCH
   \   000003   ......       DC24    ZDO_ParseAddrRsp

   \                                 In  segment BANK_RELAYS, align 1
   \                     `??ZDO_ParseNodeDescRsp::?relay`:
   \   000000   12....       LCALL   ?BDISPATCH
   \   000003   ......       DC24    ZDO_ParseNodeDescRsp

   \                                 In  segment BANK_RELAYS, align 1
   \                     `??ZDO_ParsePowerDescRsp::?relay`:
   \   000000   12....       LCALL   ?BDISPATCH
   \   000003   ......       DC24    ZDO_ParsePowerDescRsp

   \                                 In  segment BANK_RELAYS, align 1
   \                     `??ZDO_ParseSimpleDescRsp::?relay`:
   \   000000   12....       LCALL   ?BDISPATCH
   \   000003   ......       DC24    ZDO_ParseSimpleDescRsp

   \                                 In  segment BANK_RELAYS, align 1
   \                     `??ZDO_ParseEPListRsp::?relay`:
   \   000000   12....       LCALL   ?BDISPATCH
   \   000003   ......       DC24    ZDO_ParseEPListRsp

   \                                 In  segment BANK_RELAYS, align 1
   \                     `??ZDO_ParseServerDiscRsp::?relay`:
   \   000000   12....       LCALL   ?BDISPATCH
   \   000003   ......       DC24    ZDO_ParseServerDiscRsp

   \                                 In  segment BANK_RELAYS, align 1
   \                     `??ZDO_ParseMgmtLqiRsp::?relay`:
   \   000000   12....       LCALL   ?BDISPATCH
   \   000003   ......       DC24    ZDO_ParseMgmtLqiRsp

   \                                 In  segment BANK_RELAYS, align 1
   \                     `??ZDO_ParseMgmNwkDiscRsp::?relay`:
   \   000000   12....       LCALL   ?BDISPATCH
   \   000003   ......       DC24    ZDO_ParseMgmNwkDiscRsp

   \                                 In  segment BANK_RELAYS, align 1
   \                     `??ZDO_ParseMgmtRtgRsp::?relay`:
   \   000000   12....       LCALL   ?BDISPATCH
   \   000003   ......       DC24    ZDO_ParseMgmtRtgRsp

   \                                 In  segment BANK_RELAYS, align 1
   \                     `??ZDO_ParseMgmtBindRsp::?relay`:
   \   000000   12....       LCALL   ?BDISPATCH
   \   000003   ......       DC24    ZDO_ParseMgmtBindRsp

   \                                 In  segment BANK_RELAYS, align 1
   \                     `??ZDO_ParseUserDescRsp::?relay`:
   \   000000   12....       LCALL   ?BDISPATCH
   \   000003   ......       DC24    ZDO_ParseUserDescRsp

   \                                 In  segment BANK_RELAYS, align 1
   \                     `??ZDO_ParseSimpleDescBuf::?relay`:
   \   000000   12....       LCALL   ?BDISPATCH
   \   000003   ......       DC24    ZDO_ParseSimpleDescBuf

   \                                 In  segment BANK_RELAYS, align 1
   \                     `??ZDO_ParseDeviceAnnce::?relay`:
   \   000000   12....       LCALL   ?BDISPATCH
   \   000003   ......       DC24    ZDO_ParseDeviceAnnce

   \                                 In  segment BANK_RELAYS, align 1
   \                     `??ZDO_ParseParentAnnce::?relay`:
   \   000000   12....       LCALL   ?BDISPATCH
   \   000003   ......       DC24    ZDO_ParseParentAnnce

   \                                 In  segment BANK_RELAYS, align 1
   \                     `??ZDO_ParseMgmtNwkUpdateNotify::?relay`:
   \   000000   12....       LCALL   ?BDISPATCH
   \   000003   ......       DC24    ZDO_ParseMgmtNwkUpdateNotify

   \                                 In  segment BANK_RELAYS, align 1
   \                     `??ZDO_ParseMgmtNwkUpdateReq::?relay`:
   \   000000   12....       LCALL   ?BDISPATCH
   \   000003   ......       DC24    ZDO_ParseMgmtNwkUpdateReq

   \                                 In  segment XDATA_ROM_C, align 1
   \                     `?<Constant "StartDevice ERR">`:
   \   000000   53746172     DB "StartDevice ERR"
   \            74446576
   \            69636520
   \            45525200

   \                                 In  segment XDATA_ROM_C, align 1
   \                     `?<Constant "MODE unknown">`:
   \   000000   4D4F4445     DB "MODE unknown"
   \            20756E6B
   \            6E6F776E
   \            00      

   \                                 In  segment XDATA_ROM_C, align 1
   \                     `?<Constant "End Device Bind">`:
   \   000000   456E6420     DB "End Device Bind"
   \            44657669
   \            63652042
   \            696E6400

   \                                 In  segment XDATA_ROM_C, align 1
   \                     `?<Constant "Success Sent">`:
   \   000000   53756363     DB "Success Sent"
   \            65737320
   \            53656E74
   \            00      

   \                                 In  segment XDATA_ROM_C, align 1
   \                     `?<Constant "Timeout">`:
   \   000000   54696D65     DB "Timeout"
   \            6F757400

   \                                 In  segment XDATA_ROM_C, align 1
   \                     `?<Constant "Match Desc Req">`:
   \   000000   4D617463     DB "Match Desc Req"
   \            68204465
   \            73632052
   \            657100  

   \                                 In  segment XDATA_ROM_C, align 1
   \                     `?<Constant "Rsp Sent">`:
   \   000000   52737020     DB "Rsp Sent"
   \            53656E74
   \            00      

   \                                 In  segment XDATA_ROM_C, align 1
   \                     `?<Constant "Rsp Non Matched">`:
   \   000000   52737020     DB "Rsp Non Matched"
   \            4E6F6E20
   \            4D617463
   \            68656400

   \                                 In  segment XDATA_ROM_C, align 1
   \                     `?<Constant "Non Matched">`:
   \   000000   4E6F6E20     DB "Non Matched"
   \            4D617463
   \            68656400

   \                                 In  segment XDATA_ROM_C, align 1
   \                     `?<Constant {255, 255, 255, 255, 255, 255, 255,`:
   \   000000   FF           DB 255
   \   000001   FF           DB 255
   \   000002   FF           DB 255
   \   000003   FF           DB 255
   \   000004   FF           DB 255
   \   000005   FF           DB 255
   \   000006   FF           DB 255
   \   000007   FF           DB 255

   \                                 In  segment XDATA_ROM_C, align 1
   \                     __Constant_3e8:
   \   000000   E8030000     DD 1000
   3743          
   3744          /*********************************************************************
   3745          *********************************************************************/

   Maximum stack usage in bytes:

   ISTACK XSTACK Function
   ------ ------ --------
      2      0   NLME_PermitJoiningTimeout
        2      0   -> ZDSecMgrPermitJoiningTimeout
      1     71   ZDMatchSendState
        0     37   -> APS_SetEndDeviceBindTimeout
        0     37   -> ZDO_RemoveMatchMemory
        0     45   -> ZDP_BindUnbindReq
        0     42   -> ZDP_SendData
        0     37   -> sAddrExtCpy
      0     48   ZDO_AnyClusterMatches
      1     14   ZDO_BuildSimpleDescBuf
      0     46   ZDO_CompareClusterLists
      0     44   ZDO_ConvertOTAClusters
      0     45   ZDO_CopyMatchInfo
        0     16   -> osal_mem_alloc
        0     16   -> osal_mem_free
        0     19   -> osal_memcpy
      2      0   ZDO_EndDeviceBindMatchTimeoutCB
        2      0   -> ZDMatchSendState
      1     17   ZDO_EndDeviceTimeoutCB
        0     12   -> HalLcdWriteString
        0     17   -> ZDP_SendData
        0     12   -> osal_mem_free
      2      0   ZDO_Init
        2      0   -> APS_ReflectorInit
        2      0   -> NLME_CoordinatorInit
        2      0   -> sAddrExtCpy
      1     31   ZDO_MatchEndDeviceBind
        0     26   -> APS_SetEndDeviceBindTimeout
        0     26   -> ZDMatchSendState
        0     30   -> ZDO_CompareClusterLists
        0     26   -> ZDO_CopyMatchInfo
        0     26   -> ZDO_RemoveMatchMemory
        0     31   -> ZDP_SendData
        0     26   -> osal_mem_alloc
        0     29   -> osal_memcpy
        0     26   -> osal_memset
      1     14   ZDO_ParseAddrRsp
        0     14   -> osal_mem_alloc
        0     14   -> sAddrExtCpy
      1     10   ZDO_ParseBindUnbindReq
        0     10   -> sAddrExtCpy
      1     61   ZDO_ParseDeviceAnnce
        0     10   -> sAddrExtCpy
      1     19   ZDO_ParseEPListRsp
        0     16   -> osal_mem_alloc
        0     19   -> osal_memcpy
      1     16   ZDO_ParseEndDeviceBindReq
        0     16   -> ZDO_ConvertOTAClusters
        0     16   -> osal_mem_alloc
        0     16   -> sAddrExtCpy
      1     16   ZDO_ParseMgmNwkDiscRsp
        0     16   -> osal_mem_alloc
        0     16   -> sAddrExtCpy
      1     16   ZDO_ParseMgmtBindRsp
        0     16   -> osal_mem_alloc
        0     16   -> sAddrExtCpy
      1     16   ZDO_ParseMgmtLqiRsp
        0     16   -> osal_mem_alloc
        0     16   -> sAddrExtCpy
      1     25   ZDO_ParseMgmtNwkUpdateNotify
        0     22   -> osal_build_uint32
        0     22   -> osal_mem_alloc
        0     25   -> osal_memcpy
      1     10   ZDO_ParseMgmtNwkUpdateReq
        0     10   -> osal_build_uint32
      1     14   ZDO_ParseMgmtRtgRsp
        0     14   -> osal_mem_alloc
      1     10   ZDO_ParseNodeDescRsp
      1     51   ZDO_ParseParentAnnce
        0     14   -> osal_build_uint32
        0     14   -> osal_mem_alloc
        0     14   -> sAddrExtCpy
      1     12   ZDO_ParsePowerDescRsp
      1      9   ZDO_ParseServerDiscRsp
      1     25   ZDO_ParseSimpleDescBuf
        0     16   -> osal_mem_alloc
        0     16   -> osal_mem_free
      1      9   ZDO_ParseSimpleDescRsp
        0      9   -> ZDO_ParseSimpleDescBuf
      1     19   ZDO_ParseUserDescRsp
        0     16   -> osal_mem_alloc
        0     19   -> osal_memcpy
      0     21   ZDO_ProcessActiveEPReq
        0     14   -> NLME_GetShortAddr
        0     21   -> ZDP_EPRsp
        0     14   -> afEndPoints
        0     14   -> afNumEndPoints
      0     33   ZDO_ProcessBindUnbindReq
        0     29   -> APSME_BindRequest
        0     28   -> APSME_LookupNwkAddr
        0     29   -> APSME_UnBindRequest
        0     28   -> NLME_GetExtAddr
        0     28   -> ZDApp_NVUpdate
        0     28   -> ZDP_NwkAddrReq
        0     33   -> ZDP_SendData
        0     28   -> sAddrExtCmp
        0     28   -> sAddrExtCpy
      0     54   ZDO_ProcessDeviceAnnce
        0     51   -> AddrMgrEntryLookupExt
        0     51   -> AddrMgrEntryLookupNwk
        0     51   -> AddrMgrEntryUpdate
        0     51   -> AddrMgrExtAddrSet
        0     51   -> AssocGetWithExt
        0     51   -> AssocRemove
        0     51   -> NLME_CheckNewAddrSet
        0     51   -> NLME_GetCoordExtAddr
        0     51   -> NLME_GetCoordShortAddr
        0     51   -> NLME_GetShortAddr
        0     51   -> RTG_RemoveRtgEntry
        0     51   -> ZDO_ParseDeviceAnnce
        0     51   -> ZMacSetReq
        0     51   -> nwkNeighborRemove
        0     51   -> nwkNeighborRemoveAllStranded
        0     51   -> osal_get_timeoutEx
        0     54   -> osal_memcmp
        0     51   -> osal_memset
        0     51   -> osal_stop_timerEx
        0     51   -> sAddrExtCmp
      1     41   ZDO_ProcessMatchDescReq
        0     34   -> HalLcdWriteScreen
        0     34   -> NLME_IsAddressBroadcast
        0     36   -> ZDO_AnyClusterMatches
        0     34   -> ZDO_ConvertOTAClusters
        0     41   -> ZDP_EPRsp
        0     34   -> osal_mem_alloc
        0     34   -> osal_mem_free
        0     37   -> osal_memcpy
        0     34   -> osal_msg_allocate
        0     34   -> osal_msg_send
      0     24   ZDO_ProcessMgmtBindReq
        0     19   -> APSME_GetRequest
        0     24   -> ZDP_MgmtBindRsp
        0     19   -> osal_mem_alloc
        0     19   -> osal_mem_free
      1     16   ZDO_ProcessMgmtDirectJoinReq
        0     11   -> NLME_DirectJoinRequest
        0     16   -> ZDP_SendData
      0     23   ZDO_ProcessMgmtLeaveReq
        0     18   -> AddrMgrExtAddrValid
        0     18   -> NLME_GetExtAddr
        0     18   -> NLME_LeaveReq
        0     23   -> ZDP_SendData
        0     18   -> bdb_setFN
        0     18   -> sAddrExtCmp
      1     63   ZDO_ProcessMgmtLqiReq
        0     58   -> AddrMgrEntryLookupNwk
        0     58   -> AssocCount
        0     58   -> AssocFindDevice
        0     58   -> NLME_GetRequest
        0     63   -> ZDP_MgmtLqiRsp
        0     58   -> osal_mem_alloc
        0     58   -> osal_mem_free
        0     58   -> osal_memset
        0     58   -> sAddrExtCpy
      1     17   ZDO_ProcessMgmtNwkDiscReq
        0     17   -> NLME_NwkDiscReq2
        0     17   -> NLME_NwkDiscTerm
        0     17   -> osal_build_uint32
      1     18   ZDO_ProcessMgmtPermitJoinReq
        0     13   -> APSME_IsDistributedSecurity
        0     13   -> NLME_PermitJoiningRequest
        0     18   -> ZDP_SendData
        0     13   -> ZDSecMgrPermitJoining
      0     22   ZDO_ProcessMgmtRtgReq
        0     17   -> NLME_GetRequest
        0     22   -> ZDP_MgmtRtgRsp
        0     17   -> osal_mem_alloc
        0     17   -> osal_mem_free
      0     14   ZDO_ProcessNodeDescReq
        0     14   -> ZDP_GenericRsp
        0     12   -> ZDP_NodeDescMsg
      0      0   ZDO_ProcessNodeDescRsp
      0     42   ZDO_ProcessParentAnnce
        0     37   -> AssocGetWithExt
        0     37   -> AssocRemove
        0     37   -> ZDO_ParseParentAnnce
        0     42   -> ZDP_ParentAnnce
        0     37   -> osal_mem_alloc
        0     37   -> osal_mem_free
        0     37   -> sAddrExtCpy
      0     20   ZDO_ProcessParentAnnceRsp
        0     20   -> AssocGetWithExt
        0     20   -> AssocRemove
        0     20   -> ZDO_ParseParentAnnce
        0     20   -> osal_mem_free
      0     14   ZDO_ProcessPowerDescReq
        0     14   -> ZDP_GenericRsp
        0     12   -> ZDP_PowerDescMsg
      0     14   ZDO_ProcessServerDiscReq
        0     14   -> ZDP_ServerDiscRsp
      0     12   ZDO_ProcessSimpleDescReq
        0     12   -> AssocIsChild
        0     12   -> ZDP_SimpleDescMsg
        0     12   -> afFindSimpleDesc
        0     12   -> osal_mem_free
      0      0   ZDO_ProcessSimpleDescRsp
      0     37   ZDO_ProcessUserDescReq
        0     37   -> ZDP_GenericRsp
        0     36   -> ZDP_UserDescRsp
        0     37   -> osal_nv_read
      1     40   ZDO_ProcessUserDescSet
        0     40   -> ZDP_SendData
        0     38   -> osal_memcpy
        0     39   -> osal_nv_write
      2     37   ZDO_RemoveMatchMemory
        2      0   -> osal_mem_free
      0     22   ZDO_StartDevice
        0     12   -> HalLcdWriteScreen
        0     22   -> NLME_NetworkFormationRequest
        0     12   -> NLME_StartRouterRequest
        0     12   -> ZDApp_ChangeState
        0     16   -> osal_start_timerEx
      2     13   ZDO_UpdateAddrManager
        2     13   -> AddrMgrEntryUpdate
        2     13   -> AddrMgrExtAddrSet
      0      9   ZDO_UpdateNwkStatus
        0      9   -> NLME_GetExtAddr
        0      9   -> NLME_GetShortAddr
        0      9   -> zdoSendStateChangeMsg
      1     19   zdoSendStateChangeMsg
        0     10   -> osal_msg_allocate
        0     10   -> osal_msg_find
        0     10   -> osal_msg_send
        0     10   -> osal_set_event


   Segment part sizes:

   Bytes  Function/Label
   -----  --------------
      16  ?<Constant "End Device Bind">
      13  ?<Constant "MODE unknown">
      15  ?<Constant "Match Desc Req">
      12  ?<Constant "Non Matched">
      16  ?<Constant "Rsp Non Matched">
       9  ?<Constant "Rsp Sent">
      16  ?<Constant "StartDevice ERR">
      13  ?<Constant "Success Sent">
       8  ?<Constant "Timeout">
       8  ?<Constant {255, 255, 255, 255, 255, 255, 255,
       2  ?<Initializer for zdpExternalStateTaskID>
       5  ??Subroutine222_0
       3  ??Subroutine223_0
       5  ??Subroutine224_0
       4  ??Subroutine225_0
       3  ??Subroutine226_0
       5  ??Subroutine227_0
       1  ??Subroutine228_0
       6  ??Subroutine229_0
       4  ??Subroutine230_0
       7  ??Subroutine231_0
       1  ??Subroutine232_0
       5  ??Subroutine233_0
       4  ??Subroutine234_0
       4  ??Subroutine235_0
       1  ??Subroutine236_0
       6  ??Subroutine237_0
       6  ??Subroutine238_0
       2  ??Subroutine239_0
       6  ??Subroutine240_0
       4  ??Subroutine241_0
       6  ??Subroutine242_0
       6  ??Subroutine243_0
       1  ??Subroutine244_0
       4  ??Subroutine245_0
       7  ??Subroutine246_0
       5  ??Subroutine247_0
       4  ??Subroutine248_0
       5  ??Subroutine249_0
       5  ??Subroutine250_0
       4  ??Subroutine251_0
       5  ??Subroutine252_0
       8  ??Subroutine253_0
       2  ??Subroutine254_0
       6  ??Subroutine255_0
       6  ??Subroutine256_0
       6  ??Subroutine257_0
      15  ??Subroutine258_0
       8  ??Subroutine259_0
       5  ??Subroutine260_0
       8  ??Subroutine261_0
       5  ??Subroutine262_0
       5  ??Subroutine263_0
       4  ??Subroutine264_0
       7  ??Subroutine265_0
       2  ??Subroutine266_0
       4  ??Subroutine267_0
       7  ??Subroutine268_0
       6  ??Subroutine269_0
       6  ??Subroutine270_0
       8  ??Subroutine271_0
       6  ??Subroutine272_0
       3  ??Subroutine273_0
       4  ??Subroutine274_0
       6  ??Subroutine275_0
       9  ??Subroutine276_0
       6  ??Subroutine277_0
       8  ??Subroutine278_0
       5  ??Subroutine279_0
       7  ??Subroutine280_0
       6  ??Subroutine281_0
       4  ??Subroutine282_0
       7  ??Subroutine283_0
       5  ??Subroutine284_0
       6  ??Subroutine285_0
       9  ??Subroutine286_0
       5  ??Subroutine287_0
       3  ??Subroutine288_0
       4  ??Subroutine289_0
       7  ?Subroutine0
       3  ?Subroutine1
      27  ?Subroutine10
      10  ?Subroutine100
       4  ?Subroutine101
      12  ?Subroutine102
      15  ?Subroutine103
       7  ?Subroutine104
      14  ?Subroutine105
       6  ?Subroutine106
       5  ?Subroutine107
       4  ?Subroutine108
       9  ?Subroutine109
      17  ?Subroutine11
      10  ?Subroutine110
       6  ?Subroutine111
      13  ?Subroutine112
      13  ?Subroutine113
      10  ?Subroutine114
      10  ?Subroutine115
      16  ?Subroutine116
      13  ?Subroutine117
      14  ?Subroutine118
       3  ?Subroutine119
      14  ?Subroutine12
       8  ?Subroutine120
      11  ?Subroutine121
       9  ?Subroutine122
      17  ?Subroutine123
      13  ?Subroutine124
      12  ?Subroutine125
       8  ?Subroutine126
      13  ?Subroutine127
       6  ?Subroutine128
       4  ?Subroutine129
      23  ?Subroutine13
      12  ?Subroutine130
       7  ?Subroutine131
       1  ?Subroutine132
       8  ?Subroutine133
      10  ?Subroutine134
       8  ?Subroutine135
       4  ?Subroutine136
       1  ?Subroutine137
       7  ?Subroutine138
       4  ?Subroutine139
       8  ?Subroutine14
       5  ?Subroutine140
      11  ?Subroutine141
       4  ?Subroutine142
       2  ?Subroutine143
      23  ?Subroutine144
      12  ?Subroutine145
      14  ?Subroutine146
      10  ?Subroutine147
       6  ?Subroutine148
       3  ?Subroutine149
       4  ?Subroutine15
      10  ?Subroutine150
       2  ?Subroutine151
       4  ?Subroutine152
       1  ?Subroutine153
       1  ?Subroutine154
      13  ?Subroutine155
       7  ?Subroutine156
       4  ?Subroutine157
      15  ?Subroutine158
       8  ?Subroutine159
       1  ?Subroutine16
      12  ?Subroutine160
       4  ?Subroutine161
      10  ?Subroutine162
      12  ?Subroutine163
      10  ?Subroutine164
      13  ?Subroutine165
       3  ?Subroutine166
       1  ?Subroutine167
       3  ?Subroutine168
      13  ?Subroutine169
      10  ?Subroutine17
       8  ?Subroutine170
       6  ?Subroutine171
       6  ?Subroutine172
       7  ?Subroutine173
       1  ?Subroutine174
       7  ?Subroutine175
       5  ?Subroutine176
       4  ?Subroutine177
       4  ?Subroutine178
       5  ?Subroutine179
       6  ?Subroutine18
      22  ?Subroutine180
      16  ?Subroutine181
       6  ?Subroutine182
       5  ?Subroutine183
      12  ?Subroutine184
      12  ?Subroutine185
       7  ?Subroutine186
       3  ?Subroutine187
       2  ?Subroutine188
       2  ?Subroutine189
       5  ?Subroutine19
       2  ?Subroutine190
       8  ?Subroutine191
       2  ?Subroutine192
       1  ?Subroutine193
      12  ?Subroutine194
       4  ?Subroutine195
       4  ?Subroutine196
       7  ?Subroutine197
      12  ?Subroutine198
       3  ?Subroutine199
       2  ?Subroutine2
       6  ?Subroutine20
      10  ?Subroutine200
       8  ?Subroutine201
       4  ?Subroutine202
       1  ?Subroutine203
       4  ?Subroutine204
       3  ?Subroutine205
      10  ?Subroutine206
      11  ?Subroutine207
       1  ?Subroutine208
      15  ?Subroutine209
       8  ?Subroutine21
       6  ?Subroutine210
       8  ?Subroutine211
       6  ?Subroutine212
       9  ?Subroutine213
      16  ?Subroutine214
       5  ?Subroutine215
       9  ?Subroutine216
       8  ?Subroutine217
      11  ?Subroutine218
       9  ?Subroutine219
      14  ?Subroutine22
       7  ?Subroutine220
       5  ?Subroutine221
       6  ?Subroutine23
       8  ?Subroutine24
       5  ?Subroutine25
       8  ?Subroutine26
      11  ?Subroutine27
      10  ?Subroutine28
       4  ?Subroutine29
       5  ?Subroutine3
       5  ?Subroutine30
       2  ?Subroutine31
       5  ?Subroutine32
       4  ?Subroutine33
       5  ?Subroutine34
      11  ?Subroutine35
       6  ?Subroutine36
       4  ?Subroutine37
       8  ?Subroutine38
       6  ?Subroutine39
       2  ?Subroutine4
       6  ?Subroutine40
       1  ?Subroutine41
      25  ?Subroutine42
       5  ?Subroutine43
       7  ?Subroutine44
       4  ?Subroutine45
      10  ?Subroutine46
       6  ?Subroutine47
       8  ?Subroutine48
       4  ?Subroutine49
       3  ?Subroutine5
       4  ?Subroutine50
       5  ?Subroutine51
       5  ?Subroutine52
      11  ?Subroutine53
       6  ?Subroutine54
      14  ?Subroutine55
       6  ?Subroutine56
       4  ?Subroutine57
       8  ?Subroutine58
       5  ?Subroutine59
       8  ?Subroutine6
      17  ?Subroutine60
      25  ?Subroutine61
      29  ?Subroutine62
       8  ?Subroutine63
      10  ?Subroutine64
       9  ?Subroutine65
       9  ?Subroutine66
       6  ?Subroutine67
      11  ?Subroutine68
      10  ?Subroutine69
       7  ?Subroutine7
      11  ?Subroutine70
      12  ?Subroutine71
       9  ?Subroutine72
       6  ?Subroutine73
      10  ?Subroutine74
       6  ?Subroutine75
       8  ?Subroutine76
       7  ?Subroutine77
      11  ?Subroutine78
      10  ?Subroutine79
      31  ?Subroutine8
       9  ?Subroutine80
       9  ?Subroutine81
       9  ?Subroutine82
      15  ?Subroutine83
      13  ?Subroutine84
       8  ?Subroutine85
       2  ?Subroutine86
      12  ?Subroutine87
       4  ?Subroutine88
       4  ?Subroutine89
      41  ?Subroutine9
       3  ?Subroutine90
       4  ?Subroutine91
       5  ?Subroutine92
      22  ?Subroutine93
       6  ?Subroutine94
       6  ?Subroutine95
       6  ?Subroutine96
       2  ?Subroutine97
       1  ?Subroutine98
       2  ?Subroutine99
       7  NLME_PermitJoiningTimeout
       6  NLME_PermitJoiningTimeout::?relay
     625  ZDMatchSendState
       6  ZDMatchSendState::?relay
      52  ZDOBuildBuf
      90  ZDO_AnyClusterMatches
       6  ZDO_AnyClusterMatches::?relay
     214  ZDO_BuildSimpleDescBuf
       6  ZDO_BuildSimpleDescBuf::?relay
     125  ZDO_CompareClusterLists
       6  ZDO_CompareClusterLists::?relay
      66  ZDO_ConvertOTAClusters
       6  ZDO_ConvertOTAClusters::?relay
     181  ZDO_CopyMatchInfo
       6  ZDO_CopyMatchInfo::?relay
       2  ZDO_EDBind
      16  ZDO_EndDeviceBindMatchTimeoutCB
       6  ZDO_EndDeviceBindMatchTimeoutCB::?relay
     203  ZDO_EndDeviceTimeoutCB
       6  ZDO_EndDeviceTimeoutCB::?relay
      31  ZDO_Init
       6  ZDO_Init::?relay
     554  ZDO_MatchEndDeviceBind
       6  ZDO_MatchEndDeviceBind::?relay
     216  ZDO_ParseAddrRsp
       6  ZDO_ParseAddrRsp::?relay
      59  ZDO_ParseBindUnbindReq
       6  ZDO_ParseBindUnbindReq::?relay
      51  ZDO_ParseDeviceAnnce
       6  ZDO_ParseDeviceAnnce::?relay
     118  ZDO_ParseEPListRsp
       6  ZDO_ParseEPListRsp::?relay
     245  ZDO_ParseEndDeviceBindReq
       6  ZDO_ParseEndDeviceBindReq::?relay
     231  ZDO_ParseMgmNwkDiscRsp
       6  ZDO_ParseMgmNwkDiscRsp::?relay
     138  ZDO_ParseMgmtBindRsp
       6  ZDO_ParseMgmtBindRsp::?relay
     241  ZDO_ParseMgmtLqiRsp
       6  ZDO_ParseMgmtLqiRsp::?relay
     344  ZDO_ParseMgmtNwkUpdateNotify
       6  ZDO_ParseMgmtNwkUpdateNotify::?relay
      99  ZDO_ParseMgmtNwkUpdateReq
       6  ZDO_ParseMgmtNwkUpdateReq::?relay
     182  ZDO_ParseMgmtRtgRsp
       6  ZDO_ParseMgmtRtgRsp::?relay
     285  ZDO_ParseNodeDescRsp
       6  ZDO_ParseNodeDescRsp::?relay
     160  ZDO_ParseParentAnnce
       6  ZDO_ParseParentAnnce::?relay
     200  ZDO_ParsePowerDescRsp
       6  ZDO_ParsePowerDescRsp::?relay
      51  ZDO_ParseServerDiscRsp
       6  ZDO_ParseServerDiscRsp::?relay
     305  ZDO_ParseSimpleDescBuf
       6  ZDO_ParseSimpleDescBuf::?relay
      30  ZDO_ParseSimpleDescRsp
       6  ZDO_ParseSimpleDescRsp::?relay
     126  ZDO_ParseUserDescRsp
       6  ZDO_ParseUserDescRsp::?relay
     121  ZDO_ProcessActiveEPReq
       6  ZDO_ProcessActiveEPReq::?relay
     371  ZDO_ProcessBindUnbindReq
       6  ZDO_ProcessBindUnbindReq::?relay
     600  ZDO_ProcessDeviceAnnce
       6  ZDO_ProcessDeviceAnnce::?relay
    1176  ZDO_ProcessMatchDescReq
       6  ZDO_ProcessMatchDescReq::?relay
     267  ZDO_ProcessMgmtBindReq
       6  ZDO_ProcessMgmtBindReq::?relay
      94  ZDO_ProcessMgmtDirectJoinReq
       6  ZDO_ProcessMgmtDirectJoinReq::?relay
     160  ZDO_ProcessMgmtLeaveReq
       6  ZDO_ProcessMgmtLeaveReq::?relay
     838  ZDO_ProcessMgmtLqiReq
       6  ZDO_ProcessMgmtLqiReq::?relay
     114  ZDO_ProcessMgmtNwkDiscReq
       6  ZDO_ProcessMgmtNwkDiscReq::?relay
     142  ZDO_ProcessMgmtPermitJoinReq
       6  ZDO_ProcessMgmtPermitJoinReq::?relay
     250  ZDO_ProcessMgmtRtgReq
       6  ZDO_ProcessMgmtRtgReq::?relay
      66  ZDO_ProcessNodeDescReq
       6  ZDO_ProcessNodeDescReq::?relay
       3  ZDO_ProcessNodeDescRsp
       6  ZDO_ProcessNodeDescRsp::?relay
     600  ZDO_ProcessParentAnnce
       6  ZDO_ProcessParentAnnce::?relay
     174  ZDO_ProcessParentAnnceRsp
       6  ZDO_ProcessParentAnnceRsp::?relay
      66  ZDO_ProcessPowerDescReq
       6  ZDO_ProcessPowerDescReq::?relay
      78  ZDO_ProcessServerDiscReq
       6  ZDO_ProcessServerDiscReq::?relay
     134  ZDO_ProcessSimpleDescReq
       6  ZDO_ProcessSimpleDescReq::?relay
       3  ZDO_ProcessSimpleDescRsp
       6  ZDO_ProcessSimpleDescRsp::?relay
     192  ZDO_ProcessUserDescReq
       6  ZDO_ProcessUserDescReq::?relay
     273  ZDO_ProcessUserDescSet
       6  ZDO_ProcessUserDescSet::?relay
     108  ZDO_RemoveMatchMemory
       6  ZDO_RemoveMatchMemory::?relay
     151  ZDO_StartDevice
       6  ZDO_StartDevice::?relay
      49  ZDO_UpdateAddrManager
       6  ZDO_UpdateAddrManager::?relay
      79  ZDO_UpdateNwkStatus
       6  ZDO_UpdateNwkStatus::?relay
       4  __Constant_3e8
       4  apsChannelMask
       2  matchED
      73  zdoSendStateChangeMsg
       6  zdoSendStateChangeMsg::?relay
       2  zdpExternalStateTaskID

 
 13 554 bytes in segment BANKED_CODE
    330 bytes in segment BANK_RELAYS
      2 bytes in segment XDATA_I
      2 bytes in segment XDATA_ID
    130 bytes in segment XDATA_ROM_C
     60 bytes in segment XDATA_Z
 
    332 bytes of CODE     memory
    126 bytes of CONST    memory (+ 4 bytes shared)
 13 554 bytes of HUGECODE memory
     62 bytes of XDATA    memory

Errors: none
Warnings: none
